EXPORTS 
	?$TSS0@?1??known_types@NRRD@@YAAEBV?$map@V?$basic_string@DU?$char_traits@D@std@@V?$allocator@D@2@@std@@V12@U?$less@V?$basic_string@DU?$char_traits@D@std@@V?$allocator@D@2@@std@@@2@V?$allocator@U?$pair@$$CBV?$basic_string@DU?$char_traits@D@std@@V?$allocator@D@2@@std@@V12@@std@@@2@@std@@XZ@4HA 	 DATA
	??_R0?AV?$Image@M@NRRD@@@8 	 DATA
	??_R0?AV?$ImageView@M@NRRD@@@8 	 DATA
	??_R0?AV?$_Iosb@H@std@@@8 	 DATA
	??_R0?AV?$basic_filebuf@DU?$char_traits@D@std@@@std@@@8 	 DATA
	??_R0?AV?$basic_ifstream@DU?$char_traits@D@std@@@std@@@8 	 DATA
	??_R0?AV?$basic_ios@DU?$char_traits@D@std@@@std@@@8 	 DATA
	??_R0?AV?$basic_istream@DU?$char_traits@D@std@@@std@@@8 	 DATA
	??_R0?AV?$basic_istringstream@DU?$char_traits@D@std@@V?$allocator@D@2@@std@@@8 	 DATA
	??_R0?AV?$basic_ostream@DU?$char_traits@D@std@@@std@@@8 	 DATA
	??_R0?AV?$basic_ostringstream@DU?$char_traits@D@std@@V?$allocator@D@2@@std@@@8 	 DATA
	??_R0?AV?$basic_streambuf@DU?$char_traits@D@std@@@std@@@8 	 DATA
	??_R0?AV?$basic_stringbuf@DU?$char_traits@D@std@@V?$allocator@D@2@@std@@@8 	 DATA
	??_R0?AVMetric@EpipolarConsistency@@@8 	 DATA
	??_R0?AVMetricDirect@EpipolarConsistency@@@8 	 DATA
	??_R0?AVMetricRadonIntermediate@EpipolarConsistency@@@8 	 DATA
	??_R0?AVbad_alloc@std@@@8 	 DATA
	??_R0?AVbad_array_new_length@std@@@8 	 DATA
	??_R0?AVbad_cast@std@@@8 	 DATA
	??_R0?AVexception@std@@@8 	 DATA
	??_R0?AVios_base@std@@@8 	 DATA
	?_Psave@?$_Facetptr@V?$codecvt@DDU_Mbstatet@@@std@@@std@@2PEBVfacet@locale@2@EB 	 DATA
	?_Stinit@?1??_Init@?$basic_filebuf@DU?$char_traits@D@std@@@std@@IEAAXPEAU_iobuf@@W4_Initfl@23@@Z@4U_Mbstatet@@A 	 DATA
	?types@?1??known_types@NRRD@@YAAEBV?$map@V?$basic_string@DU?$char_traits@D@std@@V?$allocator@D@2@@std@@V12@U?$less@V?$basic_string@DU?$char_traits@D@std@@V?$allocator@D@2@@std@@@2@V?$allocator@U?$pair@$$CBV?$basic_string@DU?$char_traits@D@std@@V?$allocator@D@2@@std@@V12@@std@@@2@@std@@XZ@4V34@A 	 DATA
	_Avx2WmemEnabledWeakValue 	 DATA
	??$?0$$CBV?$CwiseUnaryOp@U?$core_cast_op@NM@internal@Eigen@@$$CBV?$Matrix@N$02$00$0A@$02$00@3@@Eigen@@$$CBV01@$0A@@?$pair@V?$CwiseUnaryOp@U?$core_cast_op@NM@internal@Eigen@@$$CBV?$Matrix@N$02$00$0A@$02$00@3@@Eigen@@V12@@std@@QEAA@$$QEBV?$CwiseUnaryOp@U?$core_cast_op@NM@internal@Eigen@@$$CBV?$Matrix@N$02$00$0A@$02$00@3@@Eigen@@0@Z
	??$?0$$QEAV?$basic_string@DU?$char_traits@D@std@@V?$allocator@D@2@@std@@$$Z$$V@?$pair@$$CBV?$basic_string@DU?$char_traits@D@std@@V?$allocator@D@2@@std@@V12@@std@@QEAA@Upiecewise_construct_t@1@V?$tuple@$$QEAV?$basic_string@DU?$char_traits@D@std@@V?$allocator@D@2@@std@@@1@V?$tuple@$$V@1@@Z
	??$?0$$V@?$_Compressed_pair@V?$allocator@D@std@@V?$_String_val@U?$_Simple_types@D@std@@@2@$00@std@@QEAA@U_Zero_then_variadic_args_t@1@@Z
	??$?0$$V@?$_Compressed_pair@V?$allocator@H@std@@V?$_Vector_val@U?$_Simple_types@H@std@@@2@$00@std@@QEAA@U_Zero_then_variadic_args_t@1@@Z
	??$?0$$V@?$_Compressed_pair@V?$allocator@M@std@@V?$_Vector_val@U?$_Simple_types@M@std@@@2@$00@std@@QEAA@U_Zero_then_variadic_args_t@1@@Z
	??$?0$$V@?$_Compressed_pair@V?$allocator@N@std@@V?$_Vector_val@U?$_Simple_types@N@std@@@2@$00@std@@QEAA@U_Zero_then_variadic_args_t@1@@Z
	??$?0$$V@?$_Compressed_pair@V?$allocator@PEAV?$BindlessTexture2D@M@UtilsCuda@@@std@@V?$_Vector_val@U?$_Simple_types@PEAV?$BindlessTexture2D@M@UtilsCuda@@@std@@@2@$00@std@@QEAA@U_Zero_then_variadic_args_t@1@@Z
	??$?0$$V@?$_Compressed_pair@V?$allocator@PEAVRadonIntermediate@EpipolarConsistency@@@std@@V?$_Vector_val@U?$_Simple_types@PEAVRadonIntermediate@EpipolarConsistency@@@std@@@2@$00@std@@QEAA@U_Zero_then_variadic_args_t@1@@Z
	??$?0$$V@?$_Compressed_pair@V?$allocator@U?$_Tree_node@U?$pair@$$CBV?$basic_string@DU?$char_traits@D@std@@V?$allocator@D@2@@std@@V12@@std@@PEAX@std@@@std@@V?$_Tree_val@U?$_Tree_simple_types@U?$pair@$$CBV?$basic_string@DU?$char_traits@D@std@@V?$allocator@D@2@@std@@V12@@std@@@std@@@2@$00@std@@QEAA@U_Zero_then_variadic_args_t@1@@Z
	??$?0$$V@?$_Compressed_pair@V?$allocator@V?$Matrix@H$03$00$0A@$03$00@Eigen@@@std@@V?$_Vector_val@U?$_Simple_types@V?$Matrix@H$03$00$0A@$03$00@Eigen@@@std@@@2@$00@std@@QEAA@U_Zero_then_variadic_args_t@1@@Z
	??$?0$$V@?$_Compressed_pair@V?$allocator@V?$Matrix@N$02$03$0A@$02$03@Eigen@@@std@@V?$_Vector_val@U?$_Simple_types@V?$Matrix@N$02$03$0A@$02$03@Eigen@@@std@@@2@$00@std@@QEAA@U_Zero_then_variadic_args_t@1@@Z
	??$?0AEAMAEAM$0A@@?$pair@MM@std@@QEAA@AEAM0@Z
	??$?0AEAPEAV_Facet_base@std@@@?$_Compressed_pair@U?$default_delete@V_Facet_base@std@@@std@@PEAV_Facet_base@2@$00@std@@QEAA@U_Zero_then_variadic_args_t@1@AEAPEAV_Facet_base@1@@Z
	??$?0AEBQEAU?$_Tree_node@U?$pair@$$CBV?$basic_string@DU?$char_traits@D@std@@V?$allocator@D@2@@std@@V12@@std@@PEAX@std@@_N$0A@@?$pair@PEAU?$_Tree_node@U?$pair@$$CBV?$basic_string@DU?$char_traits@D@std@@V?$allocator@D@2@@std@@V12@@std@@PEAX@std@@_N@std@@QEAA@AEBQEAU?$_Tree_node@U?$pair@$$CBV?$basic_string@DU?$char_traits@D@std@@V?$allocator@D@2@@std@@V12@@std@@PEAX@1@$$QEA_N@Z
	??$?0AEBU?$less@V?$basic_string@DU?$char_traits@D@std@@V?$allocator@D@2@@std@@@std@@U_Zero_then_variadic_args_t@1@@?$_Compressed_pair@U?$less@V?$basic_string@DU?$char_traits@D@std@@V?$allocator@D@2@@std@@@std@@V?$_Compressed_pair@V?$allocator@U?$_Tree_node@U?$pair@$$CBV?$basic_string@DU?$char_traits@D@std@@V?$allocator@D@2@@std@@V12@@std@@PEAX@std@@@std@@V?$_Tree_val@U?$_Tree_simple_types@U?$pair@$$CBV?$basic_string@DU?$char_traits@D@std@@V?$allocator@D@2@@std@@V12@@std@@@std@@@2@$00@2@$00@std@@QEAA@U_One_then_variadic_args_t@1@AEBU?$less@V?$basic_string@DU?$char_traits@D@std@@V?$allocator@D@2@@std@@@1@$$QEAU_Zero_then_variadic_args_t@1@@Z
	??$?0AEBUpiecewise_construct_t@std@@V?$tuple@$$QEAV?$basic_string@DU?$char_traits@D@std@@V?$allocator@D@2@@std@@@1@V?$tuple@$$V@1@@?$_Tree_temp_node@V?$allocator@U?$_Tree_node@U?$pair@$$CBV?$basic_string@DU?$char_traits@D@std@@V?$allocator@D@2@@std@@V12@@std@@PEAX@std@@@std@@@std@@QEAA@AEAV?$allocator@U?$_Tree_node@U?$pair@$$CBV?$basic_string@DU?$char_traits@D@std@@V?$allocator@D@2@@std@@V12@@std@@PEAX@std@@@1@PEAU?$_Tree_node@U?$pair@$$CBV?$basic_string@DU?$char_traits@D@std@@V?$allocator@D@2@@std@@V12@@std@@PEAX@1@AEBUpiecewise_construct_t@1@$$QEAV?$tuple@$$QEAV?$basic_string@DU?$char_traits@D@std@@V?$allocator@D@2@@std@@@1@$$QEAV?$tuple@$$V@1@@Z
	??$?0AEBUpiecewise_construct_t@std@@V?$tuple@AEBV?$basic_string@DU?$char_traits@D@std@@V?$allocator@D@2@@std@@@1@V?$tuple@$$V@1@@?$_Tree_temp_node@V?$allocator@U?$_Tree_node@U?$pair@$$CBV?$basic_string@DU?$char_traits@D@std@@V?$allocator@D@2@@std@@V12@@std@@PEAX@std@@@std@@@std@@QEAA@AEAV?$allocator@U?$_Tree_node@U?$pair@$$CBV?$basic_string@DU?$char_traits@D@std@@V?$allocator@D@2@@std@@V12@@std@@PEAX@std@@@1@PEAU?$_Tree_node@U?$pair@$$CBV?$basic_string@DU?$char_traits@D@std@@V?$allocator@D@2@@std@@V12@@std@@PEAX@1@AEBUpiecewise_construct_t@1@$$QEAV?$tuple@AEBV?$basic_string@DU?$char_traits@D@std@@V?$allocator@D@2@@std@@@1@$$QEAV?$tuple@$$V@1@@Z
	??$?0AEBV?$allocator@D@std@@$$V@?$_Compressed_pair@V?$allocator@D@std@@V?$_String_val@U?$_Simple_types@D@std@@@2@$00@std@@QEAA@U_One_then_variadic_args_t@1@AEBV?$allocator@D@1@@Z
	??$?0AEBV?$allocator@H@std@@$$V@?$_Compressed_pair@V?$allocator@H@std@@V?$_Vector_val@U?$_Simple_types@H@std@@@2@$00@std@@QEAA@U_One_then_variadic_args_t@1@AEBV?$allocator@H@1@@Z
	??$?0AEBV?$allocator@M@std@@$$V@?$_Compressed_pair@V?$allocator@M@std@@V?$_Vector_val@U?$_Simple_types@M@std@@@2@$00@std@@QEAA@U_One_then_variadic_args_t@1@AEBV?$allocator@M@1@@Z
	??$?0AEBV?$allocator@U?$pair@V?$Matrix@M$02$00$0A@$02$00@Eigen@@V12@@std@@@std@@$$V@?$_Compressed_pair@V?$allocator@U?$pair@V?$Matrix@M$02$00$0A@$02$00@Eigen@@V12@@std@@@std@@V?$_Vector_val@U?$_Simple_types@U?$pair@V?$Matrix@M$02$00$0A@$02$00@Eigen@@V12@@std@@@std@@@2@$00@std@@QEAA@U_One_then_variadic_args_t@1@AEBV?$allocator@U?$pair@V?$Matrix@M$02$00$0A@$02$00@Eigen@@V12@@std@@@1@@Z
	??$?0AEBV?$allocator@UFBCC_weighting_info@@@std@@$$V@?$_Compressed_pair@V?$allocator@UFBCC_weighting_info@@@std@@V?$_Vector_val@U?$_Simple_types@UFBCC_weighting_info@@@std@@@2@$00@std@@QEAA@U_One_then_variadic_args_t@1@AEBV?$allocator@UFBCC_weighting_info@@@1@@Z
	??$?0AEBV?$allocator@V?$Matrix@M$02$03$0A@$02$03@Eigen@@@std@@$$V@?$_Compressed_pair@V?$allocator@V?$Matrix@M$02$03$0A@$02$03@Eigen@@@std@@V?$_Vector_val@U?$_Simple_types@V?$Matrix@M$02$03$0A@$02$03@Eigen@@@std@@@2@$00@std@@QEAA@U_One_then_variadic_args_t@1@AEBV?$allocator@V?$Matrix@M$02$03$0A@$02$03@Eigen@@@1@@Z
	??$?0AEBV?$allocator@V?$Matrix@M$03$00$0A@$03$00@Eigen@@@std@@$$V@?$_Compressed_pair@V?$allocator@V?$Matrix@M$03$00$0A@$03$00@Eigen@@@std@@V?$_Vector_val@U?$_Simple_types@V?$Matrix@M$03$00$0A@$03$00@Eigen@@@std@@@2@$00@std@@QEAA@U_One_then_variadic_args_t@1@AEBV?$allocator@V?$Matrix@M$03$00$0A@$03$00@Eigen@@@1@@Z
	??$?0AEBV?$allocator@_K@std@@$$V@?$_Compressed_pair@V?$allocator@_K@std@@V?$_Vector_val@U?$_Simple_types@_K@std@@@2@$00@std@@QEAA@U_One_then_variadic_args_t@1@AEBV?$allocator@_K@1@@Z
	??$?0AEBV?$basic_string@DU?$char_traits@D@std@@V?$allocator@D@2@@std@@$$Z$$V@?$pair@$$CBV?$basic_string@DU?$char_traits@D@std@@V?$allocator@D@2@@std@@V12@@std@@QEAA@Upiecewise_construct_t@1@V?$tuple@AEBV?$basic_string@DU?$char_traits@D@std@@V?$allocator@D@2@@std@@@1@V?$tuple@$$V@1@@Z
	??$?0AEBV?$basic_string@DU?$char_traits@D@std@@V?$allocator@D@2@@std@@$0A@@?$tuple@AEBV?$basic_string@DU?$char_traits@D@std@@V?$allocator@D@2@@std@@@std@@QEAA@AEBV?$basic_string@DU?$char_traits@D@std@@V?$allocator@D@2@@1@@Z
	??$?0AEBV?$basic_string@DU?$char_traits@D@std@@V?$allocator@D@2@@std@@@?$_Tuple_val@AEBV?$basic_string@DU?$char_traits@D@std@@V?$allocator@D@2@@std@@@std@@QEAA@AEBV?$basic_string@DU?$char_traits@D@std@@V?$allocator@D@2@@1@@Z
	??$?0NAEAN$0A@@?$pair@NN@std@@QEAA@$$QEANAEAN@Z
	??$?0NN$0A@@?$pair@NN@std@@QEAA@$$QEAN0@Z
	??$?0PEAU?$_Tree_node@U?$pair@$$CBV?$basic_string@DU?$char_traits@D@std@@V?$allocator@D@2@@std@@V12@@std@@PEAX@std@@_N$0A@@?$pair@PEAU?$_Tree_node@U?$pair@$$CBV?$basic_string@DU?$char_traits@D@std@@V?$allocator@D@2@@std@@V12@@std@@PEAX@std@@_N@std@@QEAA@$$QEAPEAU?$_Tree_node@U?$pair@$$CBV?$basic_string@DU?$char_traits@D@std@@V?$allocator@D@2@@std@@V12@@std@@PEAX@1@$$QEA_N@Z
	??$?0U?$default_delete@V_Facet_base@std@@@std@@$0A@@?$unique_ptr@V_Facet_base@std@@U?$default_delete@V_Facet_base@std@@@2@@std@@QEAA@PEAV_Facet_base@1@@Z
	??$?0U?$less@V?$basic_string@DU?$char_traits@D@std@@V?$allocator@D@2@@std@@@std@@U_One_then_variadic_args_t@1@V?$allocator@U?$_Tree_node@U?$pair@$$CBV?$basic_string@DU?$char_traits@D@std@@V?$allocator@D@2@@std@@V12@@std@@PEAX@std@@@1@@?$_Compressed_pair@U?$less@V?$basic_string@DU?$char_traits@D@std@@V?$allocator@D@2@@std@@@std@@V?$_Compressed_pair@V?$allocator@U?$_Tree_node@U?$pair@$$CBV?$basic_string@DU?$char_traits@D@std@@V?$allocator@D@2@@std@@V12@@std@@PEAX@std@@@std@@V?$_Tree_val@U?$_Tree_simple_types@U?$pair@$$CBV?$basic_string@DU?$char_traits@D@std@@V?$allocator@D@2@@std@@V12@@std@@@std@@@2@$00@2@$00@std@@QEAA@U_One_then_variadic_args_t@1@$$QEAU?$less@V?$basic_string@DU?$char_traits@D@std@@V?$allocator@D@2@@std@@@1@$$QEAU21@$$QEAV?$allocator@U?$_Tree_node@U?$pair@$$CBV?$basic_string@DU?$char_traits@D@std@@V?$allocator@D@2@@std@@V12@@std@@PEAX@std@@@1@@Z
	??$?0U_Exact_args_t@std@@$0A@@?$tuple@$$V@std@@QEAA@U_Exact_args_t@1@@Z
	??$?0U_Exact_args_t@std@@AEBV?$basic_string@DU?$char_traits@D@std@@V?$allocator@D@2@@1@$$V$0A@@?$tuple@AEBV?$basic_string@DU?$char_traits@D@std@@V?$allocator@D@2@@std@@@std@@QEAA@U_Exact_args_t@1@AEBV?$basic_string@DU?$char_traits@D@std@@V?$allocator@D@2@@1@@Z
	??$?0U_Exact_args_t@std@@V?$basic_string@DU?$char_traits@D@std@@V?$allocator@D@2@@1@$$V$0A@@?$tuple@$$QEAV?$basic_string@DU?$char_traits@D@std@@V?$allocator@D@2@@std@@@std@@QEAA@U_Exact_args_t@1@$$QEAV?$basic_string@DU?$char_traits@D@std@@V?$allocator@D@2@@1@@Z
	??$?0V?$Block@$$CBV?$Matrix@N$02$03$0A@$02$03@Eigen@@$00$02$0A@@Eigen@@@?$Matrix@N$00$02$00$00$02@Eigen@@QEAA@AEBU?$EigenBase@V?$Block@$$CBV?$Matrix@N$02$03$0A@$02$03@Eigen@@$00$02$0A@@Eigen@@@1@@Z
	??$?0V?$Block@$$CBV?$Matrix@N$02$03$0A@$02$03@Eigen@@$00$02$0A@@Eigen@@@?$PlainObjectBase@V?$Matrix@N$00$02$00$00$02@Eigen@@@Eigen@@IEAA@AEBV?$DenseBase@V?$Block@$$CBV?$Matrix@N$02$03$0A@$02$03@Eigen@@$00$02$0A@@Eigen@@@1@@Z
	??$?0V?$Block@V?$Matrix@N$03$00$0A@$03$00@Eigen@@$02$00$0A@@Eigen@@@?$Matrix@N$02$00$0A@$02$00@Eigen@@QEAA@AEBU?$EigenBase@V?$Block@V?$Matrix@N$03$00$0A@$03$00@Eigen@@$02$00$0A@@Eigen@@@1@@Z
	??$?0V?$Block@V?$Matrix@N$03$00$0A@$03$00@Eigen@@$02$00$0A@@Eigen@@@?$PlainObjectBase@V?$Matrix@N$02$00$0A@$02$00@Eigen@@@Eigen@@IEAA@AEBV?$DenseBase@V?$Block@V?$Matrix@N$03$00$0A@$03$00@Eigen@@$02$00$0A@@Eigen@@@1@@Z
	??$?0V?$CwiseBinaryOp@U?$scalar_quotient_op@NN@internal@Eigen@@$$CBV?$Block@$$CBV?$Matrix@N$02$03$0A@$02$03@Eigen@@$00$02$0A@@3@$$CBV?$CwiseNullaryOp@U?$scalar_constant_op@N@internal@Eigen@@$$CBV?$Matrix@N$00$02$00$00$02@3@@3@@Eigen@@@?$Matrix@N$00$02$00$00$02@Eigen@@QEAA@AEBU?$EigenBase@V?$CwiseBinaryOp@U?$scalar_quotient_op@NN@internal@Eigen@@$$CBV?$Block@$$CBV?$Matrix@N$02$03$0A@$02$03@Eigen@@$00$02$0A@@3@$$CBV?$CwiseNullaryOp@U?$scalar_constant_op@N@internal@Eigen@@$$CBV?$Matrix@N$00$02$00$00$02@3@@3@@Eigen@@@1@@Z
	??$?0V?$CwiseBinaryOp@U?$scalar_quotient_op@NN@internal@Eigen@@$$CBV?$Block@$$CBV?$Matrix@N$02$03$0A@$02$03@Eigen@@$00$02$0A@@3@$$CBV?$CwiseNullaryOp@U?$scalar_constant_op@N@internal@Eigen@@$$CBV?$Matrix@N$00$02$00$00$02@3@@3@@Eigen@@@?$PlainObjectBase@V?$Matrix@N$00$02$00$00$02@Eigen@@@Eigen@@IEAA@AEBV?$DenseBase@V?$CwiseBinaryOp@U?$scalar_quotient_op@NN@internal@Eigen@@$$CBV?$Block@$$CBV?$Matrix@N$02$03$0A@$02$03@Eigen@@$00$02$0A@@3@$$CBV?$CwiseNullaryOp@U?$scalar_constant_op@N@internal@Eigen@@$$CBV?$Matrix@N$00$02$00$00$02@3@@3@@Eigen@@@1@@Z
	??$?0V?$CwiseBinaryOp@U?$scalar_quotient_op@NN@internal@Eigen@@$$CBV?$Matrix@N$02$00$0A@$02$00@3@$$CBV?$CwiseNullaryOp@U?$scalar_constant_op@N@internal@Eigen@@$$CBV?$Matrix@N$02$00$0A@$02$00@3@@3@@Eigen@@@?$Matrix@N$02$00$0A@$02$00@Eigen@@QEAA@AEBU?$EigenBase@V?$CwiseBinaryOp@U?$scalar_quotient_op@NN@internal@Eigen@@$$CBV?$Matrix@N$02$00$0A@$02$00@3@$$CBV?$CwiseNullaryOp@U?$scalar_constant_op@N@internal@Eigen@@$$CBV?$Matrix@N$02$00$0A@$02$00@3@@3@@Eigen@@@1@@Z
	??$?0V?$CwiseBinaryOp@U?$scalar_quotient_op@NN@internal@Eigen@@$$CBV?$Matrix@N$02$00$0A@$02$00@3@$$CBV?$CwiseNullaryOp@U?$scalar_constant_op@N@internal@Eigen@@$$CBV?$Matrix@N$02$00$0A@$02$00@3@@3@@Eigen@@@?$PlainObjectBase@V?$Matrix@N$02$00$0A@$02$00@Eigen@@@Eigen@@IEAA@AEBV?$DenseBase@V?$CwiseBinaryOp@U?$scalar_quotient_op@NN@internal@Eigen@@$$CBV?$Matrix@N$02$00$0A@$02$00@3@$$CBV?$CwiseNullaryOp@U?$scalar_constant_op@N@internal@Eigen@@$$CBV?$Matrix@N$02$00$0A@$02$00@3@@3@@Eigen@@@1@@Z
	??$?0V?$CwiseBinaryOp@U?$scalar_sum_op@NN@internal@Eigen@@$$CBV?$CwiseBinaryOp@U?$scalar_product_op@NN@internal@Eigen@@$$CBV?$CwiseNullaryOp@U?$scalar_constant_op@N@internal@Eigen@@$$CBV?$Matrix@N$03$00$0A@$03$00@3@@3@$$CBV?$Matrix@N$03$00$0A@$03$00@3@@3@$$CBV43@@Eigen@@@?$Matrix@N$03$00$0A@$03$00@Eigen@@QEAA@AEBU?$EigenBase@V?$CwiseBinaryOp@U?$scalar_sum_op@NN@internal@Eigen@@$$CBV?$CwiseBinaryOp@U?$scalar_product_op@NN@internal@Eigen@@$$CBV?$CwiseNullaryOp@U?$scalar_constant_op@N@internal@Eigen@@$$CBV?$Matrix@N$03$00$0A@$03$00@3@@3@$$CBV?$Matrix@N$03$00$0A@$03$00@3@@3@$$CBV43@@Eigen@@@1@@Z
	??$?0V?$CwiseBinaryOp@U?$scalar_sum_op@NN@internal@Eigen@@$$CBV?$CwiseBinaryOp@U?$scalar_product_op@NN@internal@Eigen@@$$CBV?$CwiseNullaryOp@U?$scalar_constant_op@N@internal@Eigen@@$$CBV?$Matrix@N$03$00$0A@$03$00@3@@3@$$CBV?$Matrix@N$03$00$0A@$03$00@3@@3@$$CBV43@@Eigen@@@?$PlainObjectBase@V?$Matrix@N$03$00$0A@$03$00@Eigen@@@Eigen@@IEAA@AEBV?$DenseBase@V?$CwiseBinaryOp@U?$scalar_sum_op@NN@internal@Eigen@@$$CBV?$CwiseBinaryOp@U?$scalar_product_op@NN@internal@Eigen@@$$CBV?$CwiseNullaryOp@U?$scalar_constant_op@N@internal@Eigen@@$$CBV?$Matrix@N$03$00$0A@$03$00@3@@3@$$CBV?$Matrix@N$03$00$0A@$03$00@3@@3@$$CBV43@@Eigen@@@1@@Z
	??$?0V?$CwiseNullaryOp@U?$scalar_zero_op@N@internal@Eigen@@V?$Matrix@N$02$03$0A@$02$03@3@@Eigen@@@?$Matrix@N$02$03$0A@$02$03@Eigen@@QEAA@AEBU?$EigenBase@V?$CwiseNullaryOp@U?$scalar_zero_op@N@internal@Eigen@@V?$Matrix@N$02$03$0A@$02$03@3@@Eigen@@@1@@Z
	??$?0V?$CwiseNullaryOp@U?$scalar_zero_op@N@internal@Eigen@@V?$Matrix@N$02$03$0A@$02$03@3@@Eigen@@@?$PlainObjectBase@V?$Matrix@N$02$03$0A@$02$03@Eigen@@@Eigen@@IEAA@AEBV?$DenseBase@V?$CwiseNullaryOp@U?$scalar_zero_op@N@internal@Eigen@@V?$Matrix@N$02$03$0A@$02$03@3@@Eigen@@@1@@Z
	??$?0V?$CwiseUnaryOp@U?$core_cast_op@MN@internal@Eigen@@$$CBV?$Matrix@M$02$00$0A@$02$00@3@@Eigen@@@?$Matrix@N$02$00$0A@$02$00@Eigen@@QEAA@AEBU?$EigenBase@V?$CwiseUnaryOp@U?$core_cast_op@MN@internal@Eigen@@$$CBV?$Matrix@M$02$00$0A@$02$00@3@@Eigen@@@1@@Z
	??$?0V?$CwiseUnaryOp@U?$core_cast_op@MN@internal@Eigen@@$$CBV?$Matrix@M$02$00$0A@$02$00@3@@Eigen@@@?$Matrix@N$02$00$0A@$02$00@Eigen@@QEAA@AEBV?$CwiseUnaryOp@U?$core_cast_op@MN@internal@Eigen@@$$CBV?$Matrix@M$02$00$0A@$02$00@3@@1@@Z
	??$?0V?$CwiseUnaryOp@U?$core_cast_op@MN@internal@Eigen@@$$CBV?$Matrix@M$02$00$0A@$02$00@3@@Eigen@@@?$PlainObjectBase@V?$Matrix@N$02$00$0A@$02$00@Eigen@@@Eigen@@IEAA@AEBV?$DenseBase@V?$CwiseUnaryOp@U?$core_cast_op@MN@internal@Eigen@@$$CBV?$Matrix@M$02$00$0A@$02$00@3@@Eigen@@@1@@Z
	??$?0V?$CwiseUnaryOp@U?$core_cast_op@NM@internal@Eigen@@$$CBV?$Matrix@N$03$00$0A@$03$00@3@@Eigen@@@?$Matrix@M$03$00$0A@$03$00@Eigen@@QEAA@AEBV?$CwiseUnaryOp@U?$core_cast_op@NM@internal@Eigen@@$$CBV?$Matrix@N$03$00$0A@$03$00@3@@1@@Z
	??$?0V?$CwiseUnaryOp@U?$core_cast_op@NM@internal@Eigen@@$$CBV?$Transpose@V?$Matrix@N$03$02$0A@$03$02@Eigen@@@3@@Eigen@@@?$Matrix@M$02$03$00$02$03@Eigen@@QEAA@AEBV?$CwiseUnaryOp@U?$core_cast_op@NM@internal@Eigen@@$$CBV?$Transpose@V?$Matrix@N$03$02$0A@$03$02@Eigen@@@3@@1@@Z
	??$?0V?$DiagonalWrapper@$$CBV?$Matrix@N$02$00$0A@$02$00@Eigen@@@Eigen@@@?$Matrix@N$02$02$0A@$02$02@Eigen@@QEAA@AEBU?$EigenBase@V?$DiagonalWrapper@$$CBV?$Matrix@N$02$00$0A@$02$00@Eigen@@@Eigen@@@1@@Z
	??$?0V?$DiagonalWrapper@$$CBV?$Matrix@N$02$00$0A@$02$00@Eigen@@@Eigen@@@?$PlainObjectBase@V?$Matrix@N$02$02$0A@$02$02@Eigen@@@Eigen@@IEAA@AEBU?$EigenBase@V?$DiagonalWrapper@$$CBV?$Matrix@N$02$00$0A@$02$00@Eigen@@@Eigen@@@1@@Z
	??$?0V?$Matrix@M$02$00$0A@$02$00@Eigen@@V01@$0A@@?$pair@V?$Matrix@M$02$00$0A@$02$00@Eigen@@V12@@std@@QEAA@XZ
	??$?0V?$Matrix@M$02$03$00$02$03@Eigen@@@?$Matrix@M$02$03$0A@$02$03@Eigen@@QEAA@AEBU?$EigenBase@V?$Matrix@M$02$03$00$02$03@Eigen@@@1@@Z
	??$?0V?$Matrix@M$02$03$00$02$03@Eigen@@@?$PlainObjectBase@V?$Matrix@M$02$03$0A@$02$03@Eigen@@@Eigen@@IEAA@AEBV?$DenseBase@V?$Matrix@M$02$03$00$02$03@Eigen@@@1@@Z
	??$?0V?$Matrix@N$00$02$00$00$02@Eigen@@@?$Matrix@N$02$00$0A@$02$00@Eigen@@QEAA@AEBU?$EigenBase@V?$Matrix@N$00$02$00$00$02@Eigen@@@1@@Z
	??$?0V?$Matrix@N$00$02$00$00$02@Eigen@@@?$PlainObjectBase@V?$Matrix@N$02$00$0A@$02$00@Eigen@@@Eigen@@IEAA@AEBV?$DenseBase@V?$Matrix@N$00$02$00$00$02@Eigen@@@1@@Z
	??$?0V?$Matrix@N$02$02$0A@$02$02@Eigen@@@?$JacobiSVD@V?$Matrix@N$02$02$0A@$02$02@Eigen@@$0A@@Eigen@@QEAA@AEBV?$MatrixBase@V?$Matrix@N$02$02$0A@$02$02@Eigen@@@1@I@Z
	??$?0V?$Product@V?$Matrix@N$02$00$0A@$02$00@Eigen@@V?$Transpose@V?$Matrix@N$02$00$0A@$02$00@Eigen@@@2@$0A@@Eigen@@@?$Matrix@N$02$02$0A@$02$02@Eigen@@QEAA@AEBV?$Product@V?$Matrix@N$02$00$0A@$02$00@Eigen@@V?$Transpose@V?$Matrix@N$02$00$0A@$02$00@Eigen@@@2@$0A@@1@@Z
	??$?0V?$Product@V?$Matrix@N$02$03$00$02$03@Eigen@@V?$Matrix@N$03$00$0A@$03$00@2@$0A@@Eigen@@@?$Matrix@N$02$00$0A@$02$00@Eigen@@QEAA@AEBU?$EigenBase@V?$Product@V?$Matrix@N$02$03$00$02$03@Eigen@@V?$Matrix@N$03$00$0A@$03$00@2@$0A@@Eigen@@@1@@Z
	??$?0V?$Product@V?$Matrix@N$02$03$00$02$03@Eigen@@V?$Matrix@N$03$00$0A@$03$00@2@$0A@@Eigen@@@?$PlainObjectBase@V?$Matrix@N$02$00$0A@$02$00@Eigen@@@Eigen@@IEAA@AEBV?$DenseBase@V?$Product@V?$Matrix@N$02$03$00$02$03@Eigen@@V?$Matrix@N$03$00$0A@$03$00@2@$0A@@Eigen@@@1@@Z
	??$?0V?$Product@V?$Matrix@N$02$03$0A@$02$03@Eigen@@V?$Matrix@N$03$00$0A@$03$00@2@$0A@@Eigen@@@?$Matrix@N$02$00$0A@$02$00@Eigen@@QEAA@AEBU?$EigenBase@V?$Product@V?$Matrix@N$02$03$0A@$02$03@Eigen@@V?$Matrix@N$03$00$0A@$03$00@2@$0A@@Eigen@@@1@@Z
	??$?0V?$Product@V?$Matrix@N$02$03$0A@$02$03@Eigen@@V?$Matrix@N$03$00$0A@$03$00@2@$0A@@Eigen@@@?$PlainObjectBase@V?$Matrix@N$02$00$0A@$02$00@Eigen@@@Eigen@@IEAA@AEBV?$DenseBase@V?$Product@V?$Matrix@N$02$03$0A@$02$03@Eigen@@V?$Matrix@N$03$00$0A@$03$00@2@$0A@@Eigen@@@1@@Z
	??$?0V?$Product@V?$Matrix@N$02$03$0A@$02$03@Eigen@@V?$Matrix@N$03$03$0A@$03$03@2@$0A@@Eigen@@@?$Matrix@N$02$03$0A@$02$03@Eigen@@QEAA@AEBV?$Product@V?$Matrix@N$02$03$0A@$02$03@Eigen@@V?$Matrix@N$03$03$0A@$03$03@2@$0A@@1@@Z
	??$?0V?$Product@V?$Product@V?$Matrix@N$02$03$0A@$02$03@Eigen@@V?$Matrix@N$03$03$0A@$03$03@2@$0A@@Eigen@@V?$Matrix@N$03$02$0A@$03$02@2@$0A@@Eigen@@@?$Matrix@N$02$02$0A@$02$02@Eigen@@QEAA@AEBU?$EigenBase@V?$Product@V?$Product@V?$Matrix@N$02$03$0A@$02$03@Eigen@@V?$Matrix@N$03$03$0A@$03$03@2@$0A@@Eigen@@V?$Matrix@N$03$02$0A@$03$02@2@$0A@@Eigen@@@1@@Z
	??$?0V?$Product@V?$Product@V?$Matrix@N$02$03$0A@$02$03@Eigen@@V?$Matrix@N$03$03$0A@$03$03@2@$0A@@Eigen@@V?$Matrix@N$03$02$0A@$03$02@2@$0A@@Eigen@@@?$PlainObjectBase@V?$Matrix@N$02$02$0A@$02$02@Eigen@@@Eigen@@IEAA@AEBV?$DenseBase@V?$Product@V?$Product@V?$Matrix@N$02$03$0A@$02$03@Eigen@@V?$Matrix@N$03$03$0A@$03$03@2@$0A@@Eigen@@V?$Matrix@N$03$02$0A@$03$02@2@$0A@@Eigen@@@1@@Z
	??$?0V?$Product@V?$Transpose@$$CBV?$Matrix@N$02$03$0A@$02$03@Eigen@@@Eigen@@V?$CwiseUnaryOp@U?$core_cast_op@MN@internal@Eigen@@$$CBV?$Matrix@M$02$00$0A@$02$00@3@@2@$0A@@Eigen@@@?$Matrix@N$03$00$0A@$03$00@Eigen@@QEAA@AEBU?$EigenBase@V?$Product@V?$Transpose@$$CBV?$Matrix@N$02$03$0A@$02$03@Eigen@@@Eigen@@V?$CwiseUnaryOp@U?$core_cast_op@MN@internal@Eigen@@$$CBV?$Matrix@M$02$00$0A@$02$00@3@@2@$0A@@Eigen@@@1@@Z
	??$?0V?$Product@V?$Transpose@$$CBV?$Matrix@N$02$03$0A@$02$03@Eigen@@@Eigen@@V?$CwiseUnaryOp@U?$core_cast_op@MN@internal@Eigen@@$$CBV?$Matrix@M$02$00$0A@$02$00@3@@2@$0A@@Eigen@@@?$PlainObjectBase@V?$Matrix@N$03$00$0A@$03$00@Eigen@@@Eigen@@IEAA@AEBV?$DenseBase@V?$Product@V?$Transpose@$$CBV?$Matrix@N$02$03$0A@$02$03@Eigen@@@Eigen@@V?$CwiseUnaryOp@U?$core_cast_op@MN@internal@Eigen@@$$CBV?$Matrix@M$02$00$0A@$02$00@3@@2@$0A@@Eigen@@@1@@Z
	??$?0V?$Transpose@V?$Matrix@N$03$02$0A@$03$02@Eigen@@@Eigen@@@?$Matrix@N$02$03$00$02$03@Eigen@@QEAA@AEBV?$Transpose@V?$Matrix@N$03$02$0A@$03$02@Eigen@@@1@@Z
	??$?0V?$allocator@D@std@@$$V@?$_Compressed_pair@V?$allocator@D@std@@V?$_String_val@U?$_Simple_types@D@std@@@2@$00@std@@QEAA@U_One_then_variadic_args_t@1@$$QEAV?$allocator@D@1@@Z
	??$?0V?$allocator@H@std@@PEAHPEAHPEAH@?$_Compressed_pair@V?$allocator@H@std@@V?$_Vector_val@U?$_Simple_types@H@std@@@2@$00@std@@QEAA@U_One_then_variadic_args_t@1@$$QEAV?$allocator@H@1@$$QEAPEAH22@Z
	??$?0V?$allocator@N@std@@PEANPEANPEAN@?$_Compressed_pair@V?$allocator@N@std@@V?$_Vector_val@U?$_Simple_types@N@std@@@2@$00@std@@QEAA@U_One_then_variadic_args_t@1@$$QEAV?$allocator@N@1@$$QEAPEAN22@Z
	??$?0V?$allocator@U?$_Tree_node@U?$pair@$$CBV?$basic_string@DU?$char_traits@D@std@@V?$allocator@D@2@@std@@V12@@std@@PEAX@std@@@std@@$$V@?$_Compressed_pair@V?$allocator@U?$_Tree_node@U?$pair@$$CBV?$basic_string@DU?$char_traits@D@std@@V?$allocator@D@2@@std@@V12@@std@@PEAX@std@@@std@@V?$_Tree_val@U?$_Tree_simple_types@U?$pair@$$CBV?$basic_string@DU?$char_traits@D@std@@V?$allocator@D@2@@std@@V12@@std@@@std@@@2@$00@std@@QEAA@U_One_then_variadic_args_t@1@$$QEAV?$allocator@U?$_Tree_node@U?$pair@$$CBV?$basic_string@DU?$char_traits@D@std@@V?$allocator@D@2@@std@@V12@@std@@PEAX@std@@@1@@Z
	??$?0V?$allocator@U?$_Tree_node@U?$pair@$$CBV?$basic_string@DU?$char_traits@D@std@@V?$allocator@D@2@@std@@V12@@std@@PEAX@std@@@std@@@?$_Tree@V?$_Tmap_traits@V?$basic_string@DU?$char_traits@D@std@@V?$allocator@D@2@@std@@V12@U?$less@V?$basic_string@DU?$char_traits@D@std@@V?$allocator@D@2@@std@@@2@V?$allocator@U?$pair@$$CBV?$basic_string@DU?$char_traits@D@std@@V?$allocator@D@2@@std@@V12@@std@@@2@$0A@@std@@@std@@QEAA@AEBV01@$$QEAV?$allocator@U?$_Tree_node@U?$pair@$$CBV?$basic_string@DU?$char_traits@D@std@@V?$allocator@D@2@@std@@V12@@std@@PEAX@std@@@1@@Z
	??$?0V?$allocator@U?$pair@V?$Matrix@M$02$00$0A@$02$00@Eigen@@V12@@std@@@std@@PEAU?$pair@V?$Matrix@M$02$00$0A@$02$00@Eigen@@V12@@1@PEAU21@PEAU21@@?$_Compressed_pair@V?$allocator@U?$pair@V?$Matrix@M$02$00$0A@$02$00@Eigen@@V12@@std@@@std@@V?$_Vector_val@U?$_Simple_types@U?$pair@V?$Matrix@M$02$00$0A@$02$00@Eigen@@V12@@std@@@std@@@2@$00@std@@QEAA@U_One_then_variadic_args_t@1@$$QEAV?$allocator@U?$pair@V?$Matrix@M$02$00$0A@$02$00@Eigen@@V12@@std@@@1@$$QEAPEAU?$pair@V?$Matrix@M$02$00$0A@$02$00@Eigen@@V12@@1@22@Z
	??$?0V?$basic_string@DU?$char_traits@D@std@@V?$allocator@D@2@@std@@$$V$0A@@?$tuple@$$QEAV?$basic_string@DU?$char_traits@D@std@@V?$allocator@D@2@@std@@@std@@QEAA@$$QEAV?$basic_string@DU?$char_traits@D@std@@V?$allocator@D@2@@1@@Z
	??$?0V?$basic_string@DU?$char_traits@D@std@@V?$allocator@D@2@@std@@@?$_Tuple_val@$$QEAV?$basic_string@DU?$char_traits@D@std@@V?$allocator@D@2@@std@@@std@@QEAA@$$QEAV?$basic_string@DU?$char_traits@D@std@@V?$allocator@D@2@@1@@Z
	??$?0V?$tuple@$$QEAV?$basic_string@DU?$char_traits@D@std@@V?$allocator@D@2@@std@@@std@@V?$tuple@$$V@1@$0A@$$Z$S@?$pair@$$CBV?$basic_string@DU?$char_traits@D@std@@V?$allocator@D@2@@std@@V12@@std@@AEAA@AEAV?$tuple@$$QEAV?$basic_string@DU?$char_traits@D@std@@V?$allocator@D@2@@std@@@1@AEAV?$tuple@$$V@1@U?$integer_sequence@_K$0A@@1@U?$integer_sequence@_K$S@1@@Z
	??$?0V?$tuple@AEBV?$basic_string@DU?$char_traits@D@std@@V?$allocator@D@2@@std@@@std@@V?$tuple@$$V@1@$0A@$$Z$S@?$pair@$$CBV?$basic_string@DU?$char_traits@D@std@@V?$allocator@D@2@@std@@V12@@std@@AEAA@AEAV?$tuple@AEBV?$basic_string@DU?$char_traits@D@std@@V?$allocator@D@2@@std@@@1@AEAV?$tuple@$$V@1@U?$integer_sequence@_K$0A@@1@U?$integer_sequence@_K$S@1@@Z
	??$?0_J_J@?$Matrix@N$00$00$0A@$00$00@Eigen@@QEAA@AEB_J0@Z
	??$?4V?$CwiseBinaryOp@U?$scalar_quotient_op@NN@internal@Eigen@@$$CBV?$Block@$$CBV?$Matrix@N$02$02$0A@$02$02@Eigen@@$02$02$0A@@3@$$CBV?$CwiseNullaryOp@U?$scalar_constant_op@N@internal@Eigen@@$$CBV?$Matrix@N$02$02$0A@$02$02@3@@3@@Eigen@@@?$Matrix@N$02$02$0A@$02$02@Eigen@@QEAAAEAV01@AEBV?$DenseBase@V?$CwiseBinaryOp@U?$scalar_quotient_op@NN@internal@Eigen@@$$CBV?$Block@$$CBV?$Matrix@N$02$02$0A@$02$02@Eigen@@$02$02$0A@@3@$$CBV?$CwiseNullaryOp@U?$scalar_constant_op@N@internal@Eigen@@$$CBV?$Matrix@N$02$02$0A@$02$02@3@@3@@Eigen@@@1@@Z
	??$?4V?$CwiseNullaryOp@U?$scalar_identity_op@N@internal@Eigen@@V?$Matrix@N$02$02$0A@$02$02@3@@Eigen@@@?$Matrix@N$02$02$0A@$02$02@Eigen@@QEAAAEAV01@AEBV?$DenseBase@V?$CwiseNullaryOp@U?$scalar_identity_op@N@internal@Eigen@@V?$Matrix@N$02$02$0A@$02$02@3@@Eigen@@@1@@Z
	??$?4V?$CwiseUnaryOp@U?$core_cast_op@NM@internal@Eigen@@$$CBV?$Matrix@N$02$00$0A@$02$00@3@@Eigen@@@?$Matrix@M$02$00$0A@$02$00@Eigen@@QEAAAEAV01@AEBV?$DenseBase@V?$CwiseUnaryOp@U?$core_cast_op@NM@internal@Eigen@@$$CBV?$Matrix@N$02$00$0A@$02$00@3@@Eigen@@@1@@Z
	??$?4V?$CwiseUnaryOp@U?$core_cast_op@NM@internal@Eigen@@$$CBV?$Matrix@N$02$00$0A@$02$00@3@@Eigen@@V01@$0A@@?$pair@V?$Matrix@M$02$00$0A@$02$00@Eigen@@V12@@std@@QEAAAEAU01@$$QEAU?$pair@V?$CwiseUnaryOp@U?$core_cast_op@NM@internal@Eigen@@$$CBV?$Matrix@N$02$00$0A@$02$00@3@@Eigen@@V12@@1@@Z
	??$?4V?$CwiseUnaryOp@U?$scalar_opposite_op@N@internal@Eigen@@$$CBV?$Block@V?$Matrix@N$02$02$0A@$02$02@Eigen@@$02$00$00@3@@Eigen@@@?$MatrixBase@V?$Block@V?$Matrix@N$02$02$0A@$02$02@Eigen@@$02$00$00@Eigen@@@Eigen@@QEAAAEAV?$Block@V?$Matrix@N$02$02$0A@$02$02@Eigen@@$02$00$00@1@AEBV?$DenseBase@V?$CwiseUnaryOp@U?$scalar_opposite_op@N@internal@Eigen@@$$CBV?$Block@V?$Matrix@N$02$02$0A@$02$02@Eigen@@$02$00$00@3@@Eigen@@@1@@Z
	??$?4V?$DiagonalWrapper@$$CBV?$Matrix@N$02$00$0A@$02$00@Eigen@@@Eigen@@@?$MatrixBase@V?$Matrix@N$02$02$0A@$02$02@Eigen@@@Eigen@@QEAAAEAV?$Matrix@N$02$02$0A@$02$02@1@AEBU?$EigenBase@V?$DiagonalWrapper@$$CBV?$Matrix@N$02$00$0A@$02$00@Eigen@@@Eigen@@@1@@Z
	??$?4V?$DiagonalWrapper@$$CBV?$Matrix@N$02$00$0A@$02$00@Eigen@@@Eigen@@@?$PlainObjectBase@V?$Matrix@N$02$02$0A@$02$02@Eigen@@@Eigen@@QEAAAEAV?$Matrix@N$02$02$0A@$02$02@1@AEBU?$EigenBase@V?$DiagonalWrapper@$$CBV?$Matrix@N$02$00$0A@$02$00@Eigen@@@Eigen@@@1@@Z
	??$?4V?$Matrix@N$02$00$0A@$02$00@Eigen@@@?$MatrixBase@V?$Block@V?$Matrix@N$03$00$0A@$03$00@Eigen@@$0?0$00$0A@@Eigen@@@Eigen@@QEAAAEAV?$Block@V?$Matrix@N$03$00$0A@$03$00@Eigen@@$0?0$00$0A@@1@AEBV?$DenseBase@V?$Matrix@N$02$00$0A@$02$00@Eigen@@@1@@Z
	??$?4V?$Matrix@N$02$00$0A@$02$00@Eigen@@@?$MatrixBase@V?$Diagonal@V?$Matrix@N$02$02$0A@$02$02@Eigen@@$0A@@Eigen@@@Eigen@@QEAAAEAV?$Diagonal@V?$Matrix@N$02$02$0A@$02$02@Eigen@@$0A@@1@AEBV?$DenseBase@V?$Matrix@N$02$00$0A@$02$00@Eigen@@@1@@Z
	??$?4V?$Product@V?$Block@$$CBV?$Matrix@N$02$02$0A@$02$02@Eigen@@$02$0?0$00@Eigen@@V?$Matrix@N$0?0$00$0A@$02$00@2@$0A@@Eigen@@@?$NoAlias@V?$Block@V?$Matrix@N$03$00$0A@$03$00@Eigen@@$02$00$0A@@Eigen@@VMatrixBase@2@@Eigen@@QEAAAEAV?$Block@V?$Matrix@N$03$00$0A@$03$00@Eigen@@$02$00$0A@@1@AEBV?$MatrixBase@V?$Product@V?$Block@$$CBV?$Matrix@N$02$02$0A@$02$02@Eigen@@$02$0?0$00@Eigen@@V?$Matrix@N$0?0$00$0A@$02$00@2@$0A@@Eigen@@@1@@Z
	??$?4V?$Product@V?$DiagonalWrapper@$$CBV?$CwiseUnaryOp@U?$scalar_inverse_op@N@internal@Eigen@@$$CBV?$Block@$$CBV?$Matrix@N$02$00$0A@$02$00@Eigen@@$0?0$00$0A@@3@@Eigen@@@Eigen@@V?$Matrix@N$0?0$00$0A@$02$00@2@$00@Eigen@@@?$Matrix@N$0?0$00$0A@$02$00@Eigen@@QEAAAEAV01@AEBV?$DenseBase@V?$Product@V?$DiagonalWrapper@$$CBV?$CwiseUnaryOp@U?$scalar_inverse_op@N@internal@Eigen@@$$CBV?$Block@$$CBV?$Matrix@N$02$00$0A@$02$00@Eigen@@$0?0$00$0A@@3@@Eigen@@@Eigen@@V?$Matrix@N$0?0$00$0A@$02$00@2@$00@Eigen@@@1@@Z
	??$?4V?$Product@V?$Transpose@$$CBV?$Block@$$CBV?$Matrix@N$02$02$0A@$02$02@Eigen@@$02$0?0$00@Eigen@@@Eigen@@V?$Matrix@N$02$00$0A@$02$00@2@$0A@@Eigen@@@?$NoAlias@V?$Matrix@N$0?0$00$0A@$02$00@Eigen@@VMatrixBase@2@@Eigen@@QEAAAEAV?$Matrix@N$0?0$00$0A@$02$00@1@AEBV?$MatrixBase@V?$Product@V?$Transpose@$$CBV?$Block@$$CBV?$Matrix@N$02$02$0A@$02$02@Eigen@@$02$0?0$00@Eigen@@@Eigen@@V?$Matrix@N$02$00$0A@$02$00@2@$0A@@Eigen@@@1@@Z
	??$?4V?$Solve@V?$SVDBase@V?$JacobiSVD@V?$Matrix@N$02$02$0A@$02$02@Eigen@@$0A@@Eigen@@@Eigen@@V?$Matrix@N$02$00$0A@$02$00@2@@Eigen@@@?$MatrixBase@V?$Block@V?$Matrix@N$03$00$0A@$03$00@Eigen@@$02$00$0A@@Eigen@@@Eigen@@QEAAAEAV?$Block@V?$Matrix@N$03$00$0A@$03$00@Eigen@@$02$00$0A@@1@AEBV?$DenseBase@V?$Solve@V?$SVDBase@V?$JacobiSVD@V?$Matrix@N$02$02$0A@$02$02@Eigen@@$0A@@Eigen@@@Eigen@@V?$Matrix@N$02$00$0A@$02$00@2@@Eigen@@@1@@Z
	??$?4V?$Transpose@V?$Matrix@N$02$00$0A@$02$00@Eigen@@@Eigen@@@?$MatrixBase@V?$Block@V?$Matrix@N$02$03$0A@$02$03@Eigen@@$00$02$0A@@Eigen@@@Eigen@@QEAAAEAV?$Block@V?$Matrix@N$02$03$0A@$02$03@Eigen@@$00$02$0A@@1@AEBV?$DenseBase@V?$Transpose@V?$Matrix@N$02$00$0A@$02$00@Eigen@@@Eigen@@@1@@Z
	??$?6DU?$char_traits@D@std@@V?$allocator@D@1@@std@@YAAEAV?$basic_ostream@DU?$char_traits@D@std@@@0@AEAV10@AEBV?$basic_string@DU?$char_traits@D@std@@V?$allocator@D@2@@0@@Z
	??$?6U?$char_traits@D@std@@@std@@YAAEAV?$basic_ostream@DU?$char_traits@D@std@@@0@AEAV10@PEBD@Z
	??$?8DU?$char_traits@D@std@@V?$allocator@D@1@@std@@YA_NAEBV?$basic_string@DU?$char_traits@D@std@@V?$allocator@D@2@@0@0@Z
	??$?8DU?$char_traits@D@std@@V?$allocator@D@1@@std@@YA_NAEBV?$basic_string@DU?$char_traits@D@std@@V?$allocator@D@2@@0@QEBD@Z
	??$?9DU?$char_traits@D@std@@V?$allocator@D@1@@std@@YA_NAEBV?$basic_string@DU?$char_traits@D@std@@V?$allocator@D@2@@0@0@Z
	??$?9DU?$char_traits@D@std@@V?$allocator@D@1@@std@@YA_NAEBV?$basic_string@DU?$char_traits@D@std@@V?$allocator@D@2@@0@QEBD@Z
	??$?DN@Eigen@@YA?BV?$CwiseBinaryOp@U?$scalar_product_op@NN@internal@Eigen@@$$CBV?$CwiseNullaryOp@U?$scalar_constant_op@N@internal@Eigen@@$$CBV?$Matrix@N$03$00$0A@$03$00@3@@3@$$CBV?$Matrix@N$03$00$0A@$03$00@3@@0@AEBNAEBV?$MatrixBase@V?$Matrix@N$03$00$0A@$03$00@Eigen@@@0@@Z
	??$?DV?$CwiseUnaryOp@U?$core_cast_op@MN@internal@Eigen@@$$CBV?$Matrix@M$02$00$0A@$02$00@3@@Eigen@@@?$MatrixBase@V?$Transpose@$$CBV?$Matrix@N$02$03$0A@$02$03@Eigen@@@Eigen@@@Eigen@@QEBA?BV?$Product@V?$Transpose@$$CBV?$Matrix@N$02$03$0A@$02$03@Eigen@@@Eigen@@V?$CwiseUnaryOp@U?$core_cast_op@MN@internal@Eigen@@$$CBV?$Matrix@M$02$00$0A@$02$00@3@@2@$0A@@1@AEBV?$MatrixBase@V?$CwiseUnaryOp@U?$core_cast_op@MN@internal@Eigen@@$$CBV?$Matrix@M$02$00$0A@$02$00@3@@Eigen@@@1@@Z
	??$?DV?$Matrix@N$02$00$0A@$02$00@Eigen@@@?$MatrixBase@V?$Transpose@$$CBV?$Block@$$CBV?$Matrix@N$02$02$0A@$02$02@Eigen@@$02$0?0$00@Eigen@@@Eigen@@@Eigen@@QEBA?BV?$Product@V?$Transpose@$$CBV?$Block@$$CBV?$Matrix@N$02$02$0A@$02$02@Eigen@@$02$0?0$00@Eigen@@@Eigen@@V?$Matrix@N$02$00$0A@$02$00@2@$0A@@1@AEBV?$MatrixBase@V?$Matrix@N$02$00$0A@$02$00@Eigen@@@1@@Z
	??$?DV?$Matrix@N$02$00$0A@$02$00@Eigen@@@?$MatrixBase@V?$Transpose@V?$Matrix@N$02$00$0A@$02$00@Eigen@@@Eigen@@@Eigen@@QEBA?BV?$Product@V?$Transpose@V?$Matrix@N$02$00$0A@$02$00@Eigen@@@Eigen@@V?$Matrix@N$02$00$0A@$02$00@2@$0A@@1@AEBV?$MatrixBase@V?$Matrix@N$02$00$0A@$02$00@Eigen@@@1@@Z
	??$?DV?$Matrix@N$03$00$0A@$03$00@Eigen@@@?$MatrixBase@V?$Matrix@N$02$03$00$02$03@Eigen@@@Eigen@@QEBA?BV?$Product@V?$Matrix@N$02$03$00$02$03@Eigen@@V?$Matrix@N$03$00$0A@$03$00@2@$0A@@1@AEBV?$MatrixBase@V?$Matrix@N$03$00$0A@$03$00@Eigen@@@1@@Z
	??$?DV?$Matrix@N$03$00$0A@$03$00@Eigen@@@?$MatrixBase@V?$Matrix@N$02$03$0A@$02$03@Eigen@@@Eigen@@QEBA?BV?$Product@V?$Matrix@N$02$03$0A@$02$03@Eigen@@V?$Matrix@N$03$00$0A@$03$00@2@$0A@@1@AEBV?$MatrixBase@V?$Matrix@N$03$00$0A@$03$00@Eigen@@@1@@Z
	??$?DV?$Matrix@N$03$02$0A@$03$02@Eigen@@@?$MatrixBase@V?$Product@V?$Matrix@N$02$03$0A@$02$03@Eigen@@V?$Matrix@N$03$03$0A@$03$03@2@$0A@@Eigen@@@Eigen@@QEBA?BV?$Product@V?$Product@V?$Matrix@N$02$03$0A@$02$03@Eigen@@V?$Matrix@N$03$03$0A@$03$03@2@$0A@@Eigen@@V?$Matrix@N$03$02$0A@$03$02@2@$0A@@1@AEBV?$MatrixBase@V?$Matrix@N$03$02$0A@$03$02@Eigen@@@1@@Z
	??$?DV?$Matrix@N$03$03$0A@$03$03@Eigen@@@?$MatrixBase@V?$Matrix@N$02$03$0A@$02$03@Eigen@@@Eigen@@QEBA?BV?$Product@V?$Matrix@N$02$03$0A@$02$03@Eigen@@V?$Matrix@N$03$03$0A@$03$03@2@$0A@@1@AEBV?$MatrixBase@V?$Matrix@N$03$03$0A@$03$03@Eigen@@@1@@Z
	??$?DV?$Matrix@N$0?0$00$0A@$02$00@Eigen@@@?$DiagonalBase@V?$DiagonalWrapper@$$CBV?$CwiseUnaryOp@U?$scalar_inverse_op@N@internal@Eigen@@$$CBV?$Block@$$CBV?$Matrix@N$02$00$0A@$02$00@Eigen@@$0?0$00$0A@@3@@Eigen@@@Eigen@@@Eigen@@QEBA?BV?$Product@V?$DiagonalWrapper@$$CBV?$CwiseUnaryOp@U?$scalar_inverse_op@N@internal@Eigen@@$$CBV?$Block@$$CBV?$Matrix@N$02$00$0A@$02$00@Eigen@@$0?0$00$0A@@3@@Eigen@@@Eigen@@V?$Matrix@N$0?0$00$0A@$02$00@2@$00@1@AEBV?$MatrixBase@V?$Matrix@N$0?0$00$0A@$02$00@Eigen@@@1@@Z
	??$?DV?$Matrix@N$0?0$00$0A@$02$00@Eigen@@@?$MatrixBase@V?$Block@$$CBV?$Matrix@N$02$02$0A@$02$02@Eigen@@$02$0?0$00@Eigen@@@Eigen@@QEBA?BV?$Product@V?$Block@$$CBV?$Matrix@N$02$02$0A@$02$02@Eigen@@$02$0?0$00@Eigen@@V?$Matrix@N$0?0$00$0A@$02$00@2@$0A@@1@AEBV?$MatrixBase@V?$Matrix@N$0?0$00$0A@$02$00@Eigen@@@1@@Z
	??$?DV?$Product@V?$Transpose@V?$Matrix@N$02$00$0A@$02$00@Eigen@@@Eigen@@V?$Matrix@N$02$00$0A@$02$00@2@$0A@@Eigen@@@?$MatrixBase@V?$Matrix@N$02$00$0A@$02$00@Eigen@@@Eigen@@QEBA?BV?$CwiseBinaryOp@U?$scalar_product_op@NN@internal@Eigen@@$$CBV?$Matrix@N$02$00$0A@$02$00@3@$$CBV?$CwiseNullaryOp@U?$scalar_constant_op@N@internal@Eigen@@$$CBV?$Matrix@N$02$00$0A@$02$00@3@@3@@1@AEBV?$Product@V?$Transpose@V?$Matrix@N$02$00$0A@$02$00@Eigen@@@Eigen@@V?$Matrix@N$02$00$0A@$02$00@2@$0A@@1@@Z
	??$?DV?$Transpose@V?$Matrix@N$02$00$0A@$02$00@Eigen@@@Eigen@@@?$MatrixBase@V?$Matrix@N$02$00$0A@$02$00@Eigen@@@Eigen@@QEBA?BV?$Product@V?$Matrix@N$02$00$0A@$02$00@Eigen@@V?$Transpose@V?$Matrix@N$02$00$0A@$02$00@Eigen@@@2@$0A@@1@AEBV?$MatrixBase@V?$Transpose@V?$Matrix@N$02$00$0A@$02$00@Eigen@@@Eigen@@@1@@Z
	??$?GV?$CwiseBinaryOp@U?$scalar_product_op@NN@internal@Eigen@@$$CBV?$Matrix@N$02$00$0A@$02$00@3@$$CBV?$CwiseNullaryOp@U?$scalar_constant_op@N@internal@Eigen@@$$CBV?$Matrix@N$02$00$0A@$02$00@3@@3@@Eigen@@@?$MatrixBase@V?$Matrix@N$02$00$0A@$02$00@Eigen@@@Eigen@@QEBA?BV?$CwiseBinaryOp@U?$scalar_difference_op@NN@internal@Eigen@@$$CBV?$Matrix@N$02$00$0A@$02$00@3@$$CBV?$CwiseBinaryOp@U?$scalar_product_op@NN@internal@Eigen@@$$CBV?$Matrix@N$02$00$0A@$02$00@3@$$CBV?$CwiseNullaryOp@U?$scalar_constant_op@N@internal@Eigen@@$$CBV?$Matrix@N$02$00$0A@$02$00@3@@3@@3@@1@AEBV?$MatrixBase@V?$CwiseBinaryOp@U?$scalar_product_op@NN@internal@Eigen@@$$CBV?$Matrix@N$02$00$0A@$02$00@3@$$CBV?$CwiseNullaryOp@U?$scalar_constant_op@N@internal@Eigen@@$$CBV?$Matrix@N$02$00$0A@$02$00@3@@3@@Eigen@@@1@@Z
	??$?GV?$Matrix@N$03$00$0A@$03$00@Eigen@@@?$MatrixBase@V?$Matrix@N$03$00$0A@$03$00@Eigen@@@Eigen@@QEBA?BV?$CwiseBinaryOp@U?$scalar_difference_op@NN@internal@Eigen@@$$CBV?$Matrix@N$03$00$0A@$03$00@3@$$CBV43@@1@AEBV01@@Z
	??$?HDU?$char_traits@D@std@@V?$allocator@D@1@@std@@YA?AV?$basic_string@DU?$char_traits@D@std@@V?$allocator@D@2@@0@AEBV10@$$QEAV10@@Z
	??$?HV?$CwiseBinaryOp@U?$scalar_product_op@NN@internal@Eigen@@$$CBV?$CwiseNullaryOp@U?$scalar_constant_op@N@internal@Eigen@@$$CBV?$Matrix@N$03$00$0A@$03$00@3@@3@$$CBV?$Matrix@N$03$00$0A@$03$00@3@@Eigen@@@?$MatrixBase@V?$CwiseBinaryOp@U?$scalar_product_op@NN@internal@Eigen@@$$CBV?$CwiseNullaryOp@U?$scalar_constant_op@N@internal@Eigen@@$$CBV?$Matrix@N$03$00$0A@$03$00@3@@3@$$CBV?$Matrix@N$03$00$0A@$03$00@3@@Eigen@@@Eigen@@QEBA?BV?$CwiseBinaryOp@U?$scalar_sum_op@NN@internal@Eigen@@$$CBV?$CwiseBinaryOp@U?$scalar_product_op@NN@internal@Eigen@@$$CBV?$CwiseNullaryOp@U?$scalar_constant_op@N@internal@Eigen@@$$CBV?$Matrix@N$03$00$0A@$03$00@3@@3@$$CBV?$Matrix@N$03$00$0A@$03$00@3@@3@$$CBV43@@1@AEBV01@@Z
	??$?KN@?$MatrixBase@V?$Block@$$CBV?$Matrix@N$02$02$0A@$02$02@Eigen@@$02$02$0A@@Eigen@@@Eigen@@QEBA?BV?$CwiseBinaryOp@U?$scalar_quotient_op@NN@internal@Eigen@@$$CBV?$Block@$$CBV?$Matrix@N$02$02$0A@$02$02@Eigen@@$02$02$0A@@3@$$CBV?$CwiseNullaryOp@U?$scalar_constant_op@N@internal@Eigen@@$$CBV?$Matrix@N$02$02$0A@$02$02@3@@3@@1@AEBN@Z
	??$?KN@?$MatrixBase@V?$Block@$$CBV?$Matrix@N$02$03$0A@$02$03@Eigen@@$00$02$0A@@Eigen@@@Eigen@@QEBA?BV?$CwiseBinaryOp@U?$scalar_quotient_op@NN@internal@Eigen@@$$CBV?$Block@$$CBV?$Matrix@N$02$03$0A@$02$03@Eigen@@$00$02$0A@@3@$$CBV?$CwiseNullaryOp@U?$scalar_constant_op@N@internal@Eigen@@$$CBV?$Matrix@N$00$02$00$00$02@3@@3@@1@AEBN@Z
	??$?KN@?$MatrixBase@V?$Matrix@N$02$00$0A@$02$00@Eigen@@@Eigen@@QEBA?BV?$CwiseBinaryOp@U?$scalar_quotient_op@NN@internal@Eigen@@$$CBV?$Matrix@N$02$00$0A@$02$00@3@$$CBV?$CwiseNullaryOp@U?$scalar_constant_op@N@internal@Eigen@@$$CBV?$Matrix@N$02$00$0A@$02$00@3@@3@@1@AEBN@Z
	??$?KN@?$MatrixBase@V?$Matrix@N$02$02$0A@$02$02@Eigen@@@Eigen@@QEBA?BV?$CwiseBinaryOp@U?$scalar_quotient_op@NN@internal@Eigen@@$$CBV?$Matrix@N$02$02$0A@$02$02@3@$$CBV?$CwiseNullaryOp@U?$scalar_constant_op@N@internal@Eigen@@$$CBV?$Matrix@N$02$02$0A@$02$02@3@@3@@1@AEBN@Z
	??$?MDU?$char_traits@D@std@@V?$allocator@D@1@@std@@YA_NAEBV?$basic_string@DU?$char_traits@D@std@@V?$allocator@D@2@@0@0@Z
	??$?R_J@?$nullary_wrapper@NU?$scalar_constant_op@N@internal@Eigen@@$00$0A@$0A@@internal@Eigen@@QEBANAEBU?$scalar_constant_op@N@12@_J1@Z
	??$?R_J@?$nullary_wrapper@NU?$scalar_identity_op@N@internal@Eigen@@$0A@$0A@$00@internal@Eigen@@QEBANAEBU?$scalar_identity_op@N@12@_J1@Z
	??$?R_J@?$scalar_identity_op@N@internal@Eigen@@QEBA?BN_J0@Z
	??$?YV?$CwiseBinaryOp@U?$scalar_difference_op@NN@internal@Eigen@@$$CBV?$Matrix@N$02$00$0A@$02$00@3@$$CBV?$CwiseBinaryOp@U?$scalar_product_op@NN@internal@Eigen@@$$CBV?$Matrix@N$02$00$0A@$02$00@3@$$CBV?$CwiseNullaryOp@U?$scalar_constant_op@N@internal@Eigen@@$$CBV?$Matrix@N$02$00$0A@$02$00@3@@3@@3@@Eigen@@@?$MatrixBase@V?$Matrix@N$02$00$0A@$02$00@Eigen@@@Eigen@@QEAAAEAV?$Matrix@N$02$00$0A@$02$00@1@AEBV?$MatrixBase@V?$CwiseBinaryOp@U?$scalar_difference_op@NN@internal@Eigen@@$$CBV?$Matrix@N$02$00$0A@$02$00@3@$$CBV?$CwiseBinaryOp@U?$scalar_product_op@NN@internal@Eigen@@$$CBV?$Matrix@N$02$00$0A@$02$00@3@$$CBV?$CwiseNullaryOp@U?$scalar_constant_op@N@internal@Eigen@@$$CBV?$Matrix@N$02$00$0A@$02$00@3@@3@@3@@Eigen@@@1@@Z
	??$?ZV?$Product@V?$Matrix@N$02$00$0A@$02$00@Eigen@@V?$Transpose@V?$Matrix@N$02$00$0A@$02$00@Eigen@@@2@$0A@@Eigen@@@?$MatrixBase@V?$Matrix@N$02$02$0A@$02$02@Eigen@@@Eigen@@QEAAAEAV?$Matrix@N$02$02$0A@$02$02@1@AEBV?$MatrixBase@V?$Product@V?$Matrix@N$02$00$0A@$02$00@Eigen@@V?$Transpose@V?$Matrix@N$02$00$0A@$02$00@Eigen@@@2@$0A@@Eigen@@@1@@Z
	??$NullaryExpr@U?$scalar_identity_op@N@internal@Eigen@@@?$DenseBase@V?$Matrix@N$02$02$0A@$02$02@Eigen@@@Eigen@@SA?BV?$CwiseNullaryOp@U?$scalar_identity_op@N@internal@Eigen@@V?$Matrix@N$02$02$0A@$02$02@3@@1@_J0AEBU?$scalar_identity_op@N@internal@1@@Z
	??$_Adl_verify_range@V?$_String_iterator@V?$_String_val@U?$_Simple_types@D@std@@@std@@@std@@V12@@std@@YAXAEBV?$_String_iterator@V?$_String_val@U?$_Simple_types@D@std@@@std@@@0@0@Z
	??$_Allocate@$0BA@U_Default_allocate_traits@std@@@std@@YAPEAX_K@Z
	??$_Allocate_at_least_helper@V?$allocator@D@std@@@std@@YAPEADAEAV?$allocator@D@0@AEA_K@Z
	??$_Allocate_at_least_helper@V?$allocator@H@std@@@std@@YAPEAHAEAV?$allocator@H@0@AEA_K@Z
	??$_Allocate_at_least_helper@V?$allocator@M@std@@@std@@YAPEAMAEAV?$allocator@M@0@AEA_K@Z
	??$_Allocate_at_least_helper@V?$allocator@N@std@@@std@@YAPEANAEAV?$allocator@N@0@AEA_K@Z
	??$_Allocate_at_least_helper@V?$allocator@PEAV?$BindlessTexture2D@M@UtilsCuda@@@std@@@std@@YAPEAPEAV?$BindlessTexture2D@M@UtilsCuda@@AEAV?$allocator@PEAV?$BindlessTexture2D@M@UtilsCuda@@@0@AEA_K@Z
	??$_Allocate_at_least_helper@V?$allocator@PEAVRadonIntermediate@EpipolarConsistency@@@std@@@std@@YAPEAPEAVRadonIntermediate@EpipolarConsistency@@AEAV?$allocator@PEAVRadonIntermediate@EpipolarConsistency@@@0@AEA_K@Z
	??$_Allocate_at_least_helper@V?$allocator@U?$pair@MM@std@@@std@@@std@@YAPEAU?$pair@MM@0@AEAV?$allocator@U?$pair@MM@std@@@0@AEA_K@Z
	??$_Allocate_at_least_helper@V?$allocator@U?$pair@V?$Matrix@M$02$00$0A@$02$00@Eigen@@V12@@std@@@std@@@std@@YAPEAU?$pair@V?$Matrix@M$02$00$0A@$02$00@Eigen@@V12@@0@AEAV?$allocator@U?$pair@V?$Matrix@M$02$00$0A@$02$00@Eigen@@V12@@std@@@0@AEA_K@Z
	??$_Allocate_at_least_helper@V?$allocator@UFBCC_weighting_info@@@std@@@std@@YAPEAUFBCC_weighting_info@@AEAV?$allocator@UFBCC_weighting_info@@@0@AEA_K@Z
	??$_Allocate_at_least_helper@V?$allocator@V?$Matrix@H$03$00$0A@$03$00@Eigen@@@std@@@std@@YAPEAV?$Matrix@H$03$00$0A@$03$00@Eigen@@AEAV?$allocator@V?$Matrix@H$03$00$0A@$03$00@Eigen@@@0@AEA_K@Z
	??$_Allocate_at_least_helper@V?$allocator@V?$Matrix@M$02$03$0A@$02$03@Eigen@@@std@@@std@@YAPEAV?$Matrix@M$02$03$0A@$02$03@Eigen@@AEAV?$allocator@V?$Matrix@M$02$03$0A@$02$03@Eigen@@@0@AEA_K@Z
	??$_Allocate_at_least_helper@V?$allocator@V?$Matrix@M$03$00$0A@$03$00@Eigen@@@std@@@std@@YAPEAV?$Matrix@M$03$00$0A@$03$00@Eigen@@AEAV?$allocator@V?$Matrix@M$03$00$0A@$03$00@Eigen@@@0@AEA_K@Z
	??$_Allocate_at_least_helper@V?$allocator@V?$Matrix@N$02$03$0A@$02$03@Eigen@@@std@@@std@@YAPEAV?$Matrix@N$02$03$0A@$02$03@Eigen@@AEAV?$allocator@V?$Matrix@N$02$03$0A@$02$03@Eigen@@@0@AEA_K@Z
	??$_Allocate_at_least_helper@V?$allocator@_K@std@@@std@@YAPEA_KAEAV?$allocator@_K@0@AEA_K@Z
	??$_Allocate_for_capacity@$0A@@?$basic_string@DU?$char_traits@D@std@@V?$allocator@D@2@@std@@CAPEADAEAV?$allocator@D@1@AEA_K@Z
	??$_Allocate_manually_vector_aligned@U_Default_allocate_traits@std@@@std@@YAPEAX_K@Z
	??$_Append@D@?$basic_string@DU?$char_traits@D@std@@V?$allocator@D@2@@std@@AEAAAEAV01@QEBD_K@Z
	??$_Assign@D@?$basic_string@DU?$char_traits@D@std@@V?$allocator@D@2@@std@@AEAAAEAV01@QEBD_K@Z
	??$_Assign_counted_range@PEAPEAV?$BindlessTexture2D@M@UtilsCuda@@@?$vector@PEAV?$BindlessTexture2D@M@UtilsCuda@@V?$allocator@PEAV?$BindlessTexture2D@M@UtilsCuda@@@std@@@std@@AEAAXPEAPEAV?$BindlessTexture2D@M@UtilsCuda@@_K@Z
	??$_Assign_counted_range@PEAPEAVRadonIntermediate@EpipolarConsistency@@@?$vector@PEAVRadonIntermediate@EpipolarConsistency@@V?$allocator@PEAVRadonIntermediate@EpipolarConsistency@@@std@@@std@@AEAAXPEAPEAVRadonIntermediate@EpipolarConsistency@@_K@Z
	??$_Assign_counted_range@PEAV?$Matrix@N$02$03$0A@$02$03@Eigen@@@?$vector@V?$Matrix@N$02$03$0A@$02$03@Eigen@@V?$allocator@V?$Matrix@N$02$03$0A@$02$03@Eigen@@@std@@@std@@AEAAXPEAV?$Matrix@N$02$03$0A@$02$03@Eigen@@_K@Z
	??$_Bit_cast@IM$0A@@std@@YAIAEBM@Z
	??$_Buyheadnode@V?$allocator@U?$_Tree_node@U?$pair@$$CBV?$basic_string@DU?$char_traits@D@std@@V?$allocator@D@2@@std@@V12@@std@@PEAX@std@@@std@@@?$_Tree_node@U?$pair@$$CBV?$basic_string@DU?$char_traits@D@std@@V?$allocator@D@2@@std@@V12@@std@@PEAX@std@@SAPEAU01@AEAV?$allocator@U?$_Tree_node@U?$pair@$$CBV?$basic_string@DU?$char_traits@D@std@@V?$allocator@D@2@@std@@V12@@std@@PEAX@std@@@1@@Z
	??$_Buynode@AEAU?$pair@$$CBV?$basic_string@DU?$char_traits@D@std@@V?$allocator@D@2@@std@@V12@@std@@@?$_Tree@V?$_Tmap_traits@V?$basic_string@DU?$char_traits@D@std@@V?$allocator@D@2@@std@@V12@U?$less@V?$basic_string@DU?$char_traits@D@std@@V?$allocator@D@2@@std@@@2@V?$allocator@U?$pair@$$CBV?$basic_string@DU?$char_traits@D@std@@V?$allocator@D@2@@std@@V12@@std@@@2@$0A@@std@@@std@@IEAAPEAU?$_Tree_node@U?$pair@$$CBV?$basic_string@DU?$char_traits@D@std@@V?$allocator@D@2@@std@@V12@@std@@PEAX@1@AEAU?$pair@$$CBV?$basic_string@DU?$char_traits@D@std@@V?$allocator@D@2@@std@@V12@@1@@Z
	??$_Buynode@V?$allocator@U?$_Tree_node@U?$pair@$$CBV?$basic_string@DU?$char_traits@D@std@@V?$allocator@D@2@@std@@V12@@std@@PEAX@std@@@std@@AEAU?$pair@$$CBV?$basic_string@DU?$char_traits@D@std@@V?$allocator@D@2@@std@@V12@@2@@?$_Tree_node@U?$pair@$$CBV?$basic_string@DU?$char_traits@D@std@@V?$allocator@D@2@@std@@V12@@std@@PEAX@std@@SAPEAU01@AEAV?$allocator@U?$_Tree_node@U?$pair@$$CBV?$basic_string@DU?$char_traits@D@std@@V?$allocator@D@2@@std@@V12@@std@@PEAX@std@@@1@PEAU01@AEAU?$pair@$$CBV?$basic_string@DU?$char_traits@D@std@@V?$allocator@D@2@@std@@V12@@1@@Z
	??$_Construct@$00PEBD@?$basic_string@DU?$char_traits@D@std@@V?$allocator@D@2@@std@@AEAAXQEBD_K@Z
	??$_Construct@$01PEBD@?$basic_string@DU?$char_traits@D@std@@V?$allocator@D@2@@std@@AEAAXQEBD_K@Z
	??$_Construct_in_place@HH@std@@YAXAEAH$$QEAH@Z
	??$_Construct_in_place@MAEBM@std@@YAXAEAMAEBM@Z
	??$_Construct_in_place@NN@std@@YAXAEAN$$QEAN@Z
	??$_Construct_in_place@PEADAEAPEAD@std@@YAXAEAPEAD0@Z
	??$_Construct_in_place@PEADAEBQEAD@std@@YAXAEAPEADAEBQEAD@Z
	??$_Construct_in_place@PEAU?$_Tree_node@U?$pair@$$CBV?$basic_string@DU?$char_traits@D@std@@V?$allocator@D@2@@std@@V12@@std@@PEAX@std@@AEAPEAU12@@std@@YAXAEAPEAU?$_Tree_node@U?$pair@$$CBV?$basic_string@DU?$char_traits@D@std@@V?$allocator@D@2@@std@@V12@@std@@PEAX@0@0@Z
	??$_Construct_in_place@PEAU?$_Tree_node@U?$pair@$$CBV?$basic_string@DU?$char_traits@D@std@@V?$allocator@D@2@@std@@V12@@std@@PEAX@std@@AEBQEAU12@@std@@YAXAEAPEAU?$_Tree_node@U?$pair@$$CBV?$basic_string@DU?$char_traits@D@std@@V?$allocator@D@2@@std@@V12@@std@@PEAX@0@AEBQEAU10@@Z
	??$_Construct_in_place@U?$pair@MM@std@@U12@@std@@YAXAEAU?$pair@MM@0@$$QEAU10@@Z
	??$_Construct_in_place@V?$Matrix@H$03$00$0A@$03$00@Eigen@@V12@@std@@YAXAEAV?$Matrix@H$03$00$0A@$03$00@Eigen@@$$QEAV12@@Z
	??$_Construct_n@$$V@?$vector@HV?$allocator@H@std@@@std@@AEAAX_K@Z
	??$_Construct_n@$$V@?$vector@U?$pair@V?$Matrix@M$02$00$0A@$02$00@Eigen@@V12@@std@@V?$allocator@U?$pair@V?$Matrix@M$02$00$0A@$02$00@Eigen@@V12@@std@@@2@@std@@AEAAX_K@Z
	??$_Construct_n@$$V@?$vector@UFBCC_weighting_info@@V?$allocator@UFBCC_weighting_info@@@std@@@std@@AEAAX_K@Z
	??$_Construct_n@$$V@?$vector@V?$Matrix@M$02$03$0A@$02$03@Eigen@@V?$allocator@V?$Matrix@M$02$03$0A@$02$03@Eigen@@@std@@@std@@AEAAX_K@Z
	??$_Construct_n@$$V@?$vector@V?$Matrix@M$03$00$0A@$03$00@Eigen@@V?$allocator@V?$Matrix@M$03$00$0A@$03$00@Eigen@@@std@@@std@@AEAAX_K@Z
	??$_Construct_n@$$V@?$vector@_KV?$allocator@_K@std@@@std@@AEAAX_K@Z
	??$_Construct_n@AEBM@?$vector@MV?$allocator@M@std@@@std@@AEAAX_KAEBM@Z
	??$_Contiguous_iter_verify@PEAH@std@@YAXAEBQEAHAEB_J@Z
	??$_Contiguous_iter_verify@PEAM@std@@YAXAEBQEAMAEB_J@Z
	??$_Contiguous_iter_verify@PEAN@std@@YAXAEBQEANAEB_J@Z
	??$_Contiguous_iter_verify@PEAPEAV?$BindlessTexture2D@M@UtilsCuda@@@std@@YAXAEBQEAPEAV?$BindlessTexture2D@M@UtilsCuda@@AEB_J@Z
	??$_Contiguous_iter_verify@PEAPEAVRadonIntermediate@EpipolarConsistency@@@std@@YAXAEBQEAPEAVRadonIntermediate@EpipolarConsistency@@AEB_J@Z
	??$_Contiguous_iter_verify@PEAU?$pair@MM@std@@@std@@YAXAEBQEAU?$pair@MM@0@AEB_J@Z
	??$_Contiguous_iter_verify@PEAV?$Matrix@H$03$00$0A@$03$00@Eigen@@@std@@YAXAEBQEAV?$Matrix@H$03$00$0A@$03$00@Eigen@@AEB_J@Z
	??$_Contiguous_iter_verify@PEAV?$Matrix@N$02$03$0A@$02$03@Eigen@@@std@@YAXAEBQEAV?$Matrix@N$02$03$0A@$02$03@Eigen@@AEB_J@Z
	??$_Convert_size@_K_K@std@@YA_K_K@Z
	??$_Copy@$0A@@?$_Tree@V?$_Tmap_traits@V?$basic_string@DU?$char_traits@D@std@@V?$allocator@D@2@@std@@V12@U?$less@V?$basic_string@DU?$char_traits@D@std@@V?$allocator@D@2@@std@@@2@V?$allocator@U?$pair@$$CBV?$basic_string@DU?$char_traits@D@std@@V?$allocator@D@2@@std@@V12@@std@@@2@$0A@@std@@@std@@IEAAXAEBV01@@Z
	??$_Copy_memcpy@PEAHPEAH@std@@YAPEAHPEAH00@Z
	??$_Copy_memcpy@PEAMPEAM@std@@YAPEAMPEAM00@Z
	??$_Copy_memcpy@PEANPEAN@std@@YAPEANPEAN00@Z
	??$_Copy_memcpy@PEAU?$pair@MM@std@@PEAU12@@std@@YAPEAU?$pair@MM@0@PEAU10@00@Z
	??$_Copy_memcpy@PEAV?$Matrix@H$03$00$0A@$03$00@Eigen@@PEAV12@@std@@YAPEAV?$Matrix@H$03$00$0A@$03$00@Eigen@@PEAV12@00@Z
	??$_Copy_memcpy_n@PEAPEAV?$BindlessTexture2D@M@UtilsCuda@@PEAPEAV12@@std@@YAPEAPEAV?$BindlessTexture2D@M@UtilsCuda@@PEAPEAV12@_K0@Z
	??$_Copy_memcpy_n@PEAPEAVRadonIntermediate@EpipolarConsistency@@PEAPEAV12@@std@@YAPEAPEAVRadonIntermediate@EpipolarConsistency@@PEAPEAV12@_K0@Z
	??$_Copy_memcpy_n@PEAV?$Matrix@N$02$03$0A@$02$03@Eigen@@PEAV12@@std@@YAPEAV?$Matrix@N$02$03$0A@$02$03@Eigen@@PEAV12@_K0@Z
	??$_Copy_memmove_n@PEAPEAV?$BindlessTexture2D@M@UtilsCuda@@PEAPEAV12@@std@@YAPEAPEAV?$BindlessTexture2D@M@UtilsCuda@@PEAPEAV12@_K0@Z
	??$_Copy_memmove_n@PEAPEAVRadonIntermediate@EpipolarConsistency@@PEAPEAV12@@std@@YAPEAPEAVRadonIntermediate@EpipolarConsistency@@PEAPEAV12@_K0@Z
	??$_Copy_n_unchecked4@PEAPEAV?$BindlessTexture2D@M@UtilsCuda@@_KPEAPEAV12@@std@@YAPEAPEAV?$BindlessTexture2D@M@UtilsCuda@@PEAPEAV12@_K0@Z
	??$_Copy_n_unchecked4@PEAPEAVRadonIntermediate@EpipolarConsistency@@_KPEAPEAV12@@std@@YAPEAPEAVRadonIntermediate@EpipolarConsistency@@PEAPEAV12@_K0@Z
	??$_Copy_n_unchecked4@PEAV?$Matrix@N$02$03$0A@$02$03@Eigen@@_KPEAV12@@std@@YAPEAV?$Matrix@N$02$03$0A@$02$03@Eigen@@PEAV12@_K0@Z
	??$_Copy_nodes@$0A@@?$_Tree@V?$_Tmap_traits@V?$basic_string@DU?$char_traits@D@std@@V?$allocator@D@2@@std@@V12@U?$less@V?$basic_string@DU?$char_traits@D@std@@V?$allocator@D@2@@std@@@2@V?$allocator@U?$pair@$$CBV?$basic_string@DU?$char_traits@D@std@@V?$allocator@D@2@@std@@V12@@std@@@2@$0A@@std@@@std@@IEAAPEAU?$_Tree_node@U?$pair@$$CBV?$basic_string@DU?$char_traits@D@std@@V?$allocator@D@2@@std@@V12@@std@@PEAX@1@PEAU21@0@Z
	??$_Copy_or_move@$0A@U?$pair@$$CBV?$basic_string@DU?$char_traits@D@std@@V?$allocator@D@2@@std@@V12@@std@@@?$_Tree@V?$_Tmap_traits@V?$basic_string@DU?$char_traits@D@std@@V?$allocator@D@2@@std@@V12@U?$less@V?$basic_string@DU?$char_traits@D@std@@V?$allocator@D@2@@std@@@2@V?$allocator@U?$pair@$$CBV?$basic_string@DU?$char_traits@D@std@@V?$allocator@D@2@@std@@V12@@std@@@2@$0A@@std@@@std@@IEAAPEAU?$_Tree_node@U?$pair@$$CBV?$basic_string@DU?$char_traits@D@std@@V?$allocator@D@2@@std@@V12@@std@@PEAX@1@AEAU?$pair@$$CBV?$basic_string@DU?$char_traits@D@std@@V?$allocator@D@2@@std@@V12@@1@@Z
	??$_Deallocate@$0BA@@std@@YAXPEAX_K@Z
	??$_Destroy_in_place@PEAD@std@@YAXAEAPEAD@Z
	??$_Destroy_in_place@PEAU?$_Tree_node@U?$pair@$$CBV?$basic_string@DU?$char_traits@D@std@@V?$allocator@D@2@@std@@V12@@std@@PEAX@std@@@std@@YAXAEAPEAU?$_Tree_node@U?$pair@$$CBV?$basic_string@DU?$char_traits@D@std@@V?$allocator@D@2@@std@@V12@@std@@PEAX@0@@Z
	??$_Destroy_range@V?$allocator@H@std@@@std@@YAXPEAHQEAHAEAV?$allocator@H@0@@Z
	??$_Destroy_range@V?$allocator@M@std@@@std@@YAXPEAMQEAMAEAV?$allocator@M@0@@Z
	??$_Destroy_range@V?$allocator@N@std@@@std@@YAXPEANQEANAEAV?$allocator@N@0@@Z
	??$_Destroy_range@V?$allocator@PEAV?$BindlessTexture2D@M@UtilsCuda@@@std@@@std@@YAXPEAPEAV?$BindlessTexture2D@M@UtilsCuda@@QEAPEAV12@AEAV?$allocator@PEAV?$BindlessTexture2D@M@UtilsCuda@@@0@@Z
	??$_Destroy_range@V?$allocator@PEAVRadonIntermediate@EpipolarConsistency@@@std@@@std@@YAXPEAPEAVRadonIntermediate@EpipolarConsistency@@QEAPEAV12@AEAV?$allocator@PEAVRadonIntermediate@EpipolarConsistency@@@0@@Z
	??$_Destroy_range@V?$allocator@U?$pair@MM@std@@@std@@@std@@YAXPEAU?$pair@MM@0@QEAU10@AEAV?$allocator@U?$pair@MM@std@@@0@@Z
	??$_Destroy_range@V?$allocator@U?$pair@V?$Matrix@M$02$00$0A@$02$00@Eigen@@V12@@std@@@std@@@std@@YAXPEAU?$pair@V?$Matrix@M$02$00$0A@$02$00@Eigen@@V12@@0@QEAU10@AEAV?$allocator@U?$pair@V?$Matrix@M$02$00$0A@$02$00@Eigen@@V12@@std@@@0@@Z
	??$_Destroy_range@V?$allocator@UFBCC_weighting_info@@@std@@@std@@YAXPEAUFBCC_weighting_info@@QEAU1@AEAV?$allocator@UFBCC_weighting_info@@@0@@Z
	??$_Destroy_range@V?$allocator@V?$Matrix@H$03$00$0A@$03$00@Eigen@@@std@@@std@@YAXPEAV?$Matrix@H$03$00$0A@$03$00@Eigen@@QEAV12@AEAV?$allocator@V?$Matrix@H$03$00$0A@$03$00@Eigen@@@0@@Z
	??$_Destroy_range@V?$allocator@V?$Matrix@M$02$03$0A@$02$03@Eigen@@@std@@@std@@YAXPEAV?$Matrix@M$02$03$0A@$02$03@Eigen@@QEAV12@AEAV?$allocator@V?$Matrix@M$02$03$0A@$02$03@Eigen@@@0@@Z
	??$_Destroy_range@V?$allocator@V?$Matrix@M$03$00$0A@$03$00@Eigen@@@std@@@std@@YAXPEAV?$Matrix@M$03$00$0A@$03$00@Eigen@@QEAV12@AEAV?$allocator@V?$Matrix@M$03$00$0A@$03$00@Eigen@@@0@@Z
	??$_Destroy_range@V?$allocator@V?$Matrix@N$02$03$0A@$02$03@Eigen@@@std@@@std@@YAXPEAV?$Matrix@N$02$03$0A@$02$03@Eigen@@QEAV12@AEAV?$allocator@V?$Matrix@N$02$03$0A@$02$03@Eigen@@@0@@Z
	??$_Destroy_range@V?$allocator@_K@std@@@std@@YAXPEA_KQEA_KAEAV?$allocator@_K@0@@Z
	??$_Emplace_back@$$V@?$_Uninitialized_backout_al@V?$allocator@H@std@@@std@@QEAAXXZ
	??$_Emplace_back@$$V@?$_Uninitialized_backout_al@V?$allocator@M@std@@@std@@QEAAXXZ
	??$_Emplace_back@$$V@?$_Uninitialized_backout_al@V?$allocator@N@std@@@std@@QEAAXXZ
	??$_Emplace_back@$$V@?$_Uninitialized_backout_al@V?$allocator@U?$pair@V?$Matrix@M$02$00$0A@$02$00@Eigen@@V12@@std@@@std@@@std@@QEAAXXZ
	??$_Emplace_back@$$V@?$_Uninitialized_backout_al@V?$allocator@UFBCC_weighting_info@@@std@@@std@@QEAAXXZ
	??$_Emplace_back@$$V@?$_Uninitialized_backout_al@V?$allocator@V?$Matrix@M$02$03$0A@$02$03@Eigen@@@std@@@std@@QEAAXXZ
	??$_Emplace_back@$$V@?$_Uninitialized_backout_al@V?$allocator@V?$Matrix@M$03$00$0A@$03$00@Eigen@@@std@@@std@@QEAAXXZ
	??$_Emplace_back@$$V@?$_Uninitialized_backout_al@V?$allocator@_K@std@@@std@@QEAAXXZ
	??$_Emplace_back@AEAPEAV?$BindlessTexture2D@M@UtilsCuda@@@?$_Uninitialized_backout_al@V?$allocator@PEAV?$BindlessTexture2D@M@UtilsCuda@@@std@@@std@@QEAAXAEAPEAV?$BindlessTexture2D@M@UtilsCuda@@@Z
	??$_Emplace_back@AEAPEAVRadonIntermediate@EpipolarConsistency@@@?$_Uninitialized_backout_al@V?$allocator@PEAVRadonIntermediate@EpipolarConsistency@@@std@@@std@@QEAAXAEAPEAVRadonIntermediate@EpipolarConsistency@@@Z
	??$_Emplace_back@AEAV?$Matrix@N$02$03$0A@$02$03@Eigen@@@?$_Uninitialized_backout_al@V?$allocator@V?$Matrix@N$02$03$0A@$02$03@Eigen@@@std@@@std@@QEAAXAEAV?$Matrix@N$02$03$0A@$02$03@Eigen@@@Z
	??$_Emplace_back@AEBM@?$_Uninitialized_backout_al@V?$allocator@M@std@@@std@@QEAAXAEBM@Z
	??$_Emplace_back@H@?$_Uninitialized_backout_al@V?$allocator@H@std@@@std@@QEAAX$$QEAH@Z
	??$_Emplace_back@M@?$_Uninitialized_backout_al@V?$allocator@M@std@@@std@@QEAAX$$QEAM@Z
	??$_Emplace_back@N@?$_Uninitialized_backout_al@V?$allocator@N@std@@@std@@QEAAX$$QEAN@Z
	??$_Emplace_back@U?$pair@MM@std@@@?$_Uninitialized_backout_al@V?$allocator@U?$pair@MM@std@@@std@@@std@@QEAAX$$QEAU?$pair@MM@1@@Z
	??$_Emplace_back@V?$Matrix@H$03$00$0A@$03$00@Eigen@@@?$_Uninitialized_backout_al@V?$allocator@V?$Matrix@H$03$00$0A@$03$00@Eigen@@@std@@@std@@QEAAX$$QEAV?$Matrix@H$03$00$0A@$03$00@Eigen@@@Z
	??$_Emplace_back_with_unused_capacity@AEBM@?$vector@MV?$allocator@M@std@@@std@@AEAAAEAMAEBM@Z
	??$_Emplace_back_with_unused_capacity@H@?$vector@HV?$allocator@H@std@@@std@@AEAAAEAH$$QEAH@Z
	??$_Emplace_back_with_unused_capacity@N@?$vector@NV?$allocator@N@std@@@std@@AEAAAEAN$$QEAN@Z
	??$_Emplace_back_with_unused_capacity@U?$pair@MM@std@@@?$vector@U?$pair@MM@std@@V?$allocator@U?$pair@MM@std@@@2@@std@@AEAAAEAU?$pair@MM@1@$$QEAU21@@Z
	??$_Emplace_back_with_unused_capacity@V?$Matrix@H$03$00$0A@$03$00@Eigen@@@?$vector@V?$Matrix@H$03$00$0A@$03$00@Eigen@@V?$allocator@V?$Matrix@H$03$00$0A@$03$00@Eigen@@@std@@@std@@AEAAAEAV?$Matrix@H$03$00$0A@$03$00@Eigen@@$$QEAV23@@Z
	??$_Emplace_one_at_back@AEBM@?$vector@MV?$allocator@M@std@@@std@@AEAAAEAMAEBM@Z
	??$_Emplace_one_at_back@H@?$vector@HV?$allocator@H@std@@@std@@AEAAAEAH$$QEAH@Z
	??$_Emplace_one_at_back@N@?$vector@NV?$allocator@N@std@@@std@@AEAAAEAN$$QEAN@Z
	??$_Emplace_one_at_back@U?$pair@MM@std@@@?$vector@U?$pair@MM@std@@V?$allocator@U?$pair@MM@std@@@2@@std@@AEAAAEAU?$pair@MM@1@$$QEAU21@@Z
	??$_Emplace_one_at_back@V?$Matrix@H$03$00$0A@$03$00@Eigen@@@?$vector@V?$Matrix@H$03$00$0A@$03$00@Eigen@@V?$allocator@V?$Matrix@H$03$00$0A@$03$00@Eigen@@@std@@@std@@AEAAAEAV?$Matrix@H$03$00$0A@$03$00@Eigen@@$$QEAV23@@Z
	??$_Emplace_reallocate@AEBM@?$vector@MV?$allocator@M@std@@@std@@AEAAPEAMQEAMAEBM@Z
	??$_Emplace_reallocate@H@?$vector@HV?$allocator@H@std@@@std@@AEAAPEAHQEAH$$QEAH@Z
	??$_Emplace_reallocate@N@?$vector@NV?$allocator@N@std@@@std@@AEAAPEANQEAN$$QEAN@Z
	??$_Emplace_reallocate@U?$pair@MM@std@@@?$vector@U?$pair@MM@std@@V?$allocator@U?$pair@MM@std@@@2@@std@@AEAAPEAU?$pair@MM@1@QEAU21@$$QEAU21@@Z
	??$_Emplace_reallocate@V?$Matrix@H$03$00$0A@$03$00@Eigen@@@?$vector@V?$Matrix@H$03$00$0A@$03$00@Eigen@@V?$allocator@V?$Matrix@H$03$00$0A@$03$00@Eigen@@@std@@@std@@AEAAPEAV?$Matrix@H$03$00$0A@$03$00@Eigen@@QEAV23@$$QEAV23@@Z
	??$_Erase_head@V?$allocator@U?$_Tree_node@U?$pair@$$CBV?$basic_string@DU?$char_traits@D@std@@V?$allocator@D@2@@std@@V12@@std@@PEAX@std@@@std@@@?$_Tree_val@U?$_Tree_simple_types@U?$pair@$$CBV?$basic_string@DU?$char_traits@D@std@@V?$allocator@D@2@@std@@V12@@std@@@std@@@std@@QEAAXAEAV?$allocator@U?$_Tree_node@U?$pair@$$CBV?$basic_string@DU?$char_traits@D@std@@V?$allocator@D@2@@std@@V12@@std@@PEAX@std@@@1@@Z
	??$_Erase_tree@V?$allocator@U?$_Tree_node@U?$pair@$$CBV?$basic_string@DU?$char_traits@D@std@@V?$allocator@D@2@@std@@V12@@std@@PEAX@std@@@std@@@?$_Tree_val@U?$_Tree_simple_types@U?$pair@$$CBV?$basic_string@DU?$char_traits@D@std@@V?$allocator@D@2@@std@@V12@@std@@@std@@@std@@QEAAXAEAV?$allocator@U?$_Tree_node@U?$pair@$$CBV?$basic_string@DU?$char_traits@D@std@@V?$allocator@D@2@@std@@V12@@std@@PEAX@std@@@1@PEAU?$_Tree_node@U?$pair@$$CBV?$basic_string@DU?$char_traits@D@std@@V?$allocator@D@2@@std@@V12@@std@@PEAX@1@@Z
	??$_Erase_tree_and_orphan@V?$allocator@U?$_Tree_node@U?$pair@$$CBV?$basic_string@DU?$char_traits@D@std@@V?$allocator@D@2@@std@@V12@@std@@PEAX@std@@@std@@@?$_Tree_val@U?$_Tree_simple_types@U?$pair@$$CBV?$basic_string@DU?$char_traits@D@std@@V?$allocator@D@2@@std@@V12@@std@@@std@@@std@@QEAAXAEAV?$allocator@U?$_Tree_node@U?$pair@$$CBV?$basic_string@DU?$char_traits@D@std@@V?$allocator@D@2@@std@@V12@@std@@PEAX@std@@@1@PEAU?$_Tree_node@U?$pair@$$CBV?$basic_string@DU?$char_traits@D@std@@V?$allocator@D@2@@std@@V12@@std@@PEAX@1@@Z
	??$_Fgetc@D@std@@YA_NAEADPEAU_iobuf@@@Z
	??$_Fill_zero_memset@PEAM@std@@YAXPEAM_K@Z
	??$_Find@V?$basic_string@DU?$char_traits@D@std@@V?$allocator@D@2@@std@@@?$_Tree@V?$_Tmap_traits@V?$basic_string@DU?$char_traits@D@std@@V?$allocator@D@2@@std@@V12@U?$less@V?$basic_string@DU?$char_traits@D@std@@V?$allocator@D@2@@std@@@2@V?$allocator@U?$pair@$$CBV?$basic_string@DU?$char_traits@D@std@@V?$allocator@D@2@@std@@V12@@std@@@2@$0A@@std@@@std@@AEBAPEAU?$_Tree_node@U?$pair@$$CBV?$basic_string@DU?$char_traits@D@std@@V?$allocator@D@2@@std@@V12@@std@@PEAX@1@AEBV?$basic_string@DU?$char_traits@D@std@@V?$allocator@D@2@@1@@Z
	??$_Find_lower_bound@V?$basic_string@DU?$char_traits@D@std@@V?$allocator@D@2@@std@@@?$_Tree@V?$_Tmap_traits@V?$basic_string@DU?$char_traits@D@std@@V?$allocator@D@2@@std@@V12@U?$less@V?$basic_string@DU?$char_traits@D@std@@V?$allocator@D@2@@std@@@2@V?$allocator@U?$pair@$$CBV?$basic_string@DU?$char_traits@D@std@@V?$allocator@D@2@@std@@V12@@std@@@2@$0A@@std@@@std@@IEBA?AU?$_Tree_find_result@PEAU?$_Tree_node@U?$pair@$$CBV?$basic_string@DU?$char_traits@D@std@@V?$allocator@D@2@@std@@V12@@std@@PEAX@std@@@1@AEBV?$basic_string@DU?$char_traits@D@std@@V?$allocator@D@2@@1@@Z
	??$_Fputc@D@std@@YA_NDPEAU_iobuf@@@Z
	??$_Freenode0@V?$allocator@U?$_Tree_node@U?$pair@$$CBV?$basic_string@DU?$char_traits@D@std@@V?$allocator@D@2@@std@@V12@@std@@PEAX@std@@@std@@@?$_Tree_node@U?$pair@$$CBV?$basic_string@DU?$char_traits@D@std@@V?$allocator@D@2@@std@@V12@@std@@PEAX@std@@SAXAEAV?$allocator@U?$_Tree_node@U?$pair@$$CBV?$basic_string@DU?$char_traits@D@std@@V?$allocator@D@2@@std@@V12@@std@@PEAX@std@@@1@PEAU01@@Z
	??$_Freenode@V?$allocator@U?$_Tree_node@U?$pair@$$CBV?$basic_string@DU?$char_traits@D@std@@V?$allocator@D@2@@std@@V12@@std@@PEAX@std@@@std@@@?$_Tree_node@U?$pair@$$CBV?$basic_string@DU?$char_traits@D@std@@V?$allocator@D@2@@std@@V12@@std@@PEAX@std@@SAXAEAV?$allocator@U?$_Tree_node@U?$pair@$$CBV?$basic_string@DU?$char_traits@D@std@@V?$allocator@D@2@@std@@V12@@std@@PEAX@std@@@1@PEAU01@@Z
	??$_Get_index@$0A@@id@locale@std@@QEAA_KXZ
	??$_Get_proxy_allocator@V?$allocator@D@std@@@std@@YA?AU_Fake_allocator@0@AEBV?$allocator@D@0@@Z
	??$_Get_proxy_allocator@V?$allocator@H@std@@@std@@YA?AU_Fake_allocator@0@AEBV?$allocator@H@0@@Z
	??$_Get_proxy_allocator@V?$allocator@M@std@@@std@@YA?AU_Fake_allocator@0@AEBV?$allocator@M@0@@Z
	??$_Get_proxy_allocator@V?$allocator@N@std@@@std@@YA?AU_Fake_allocator@0@AEBV?$allocator@N@0@@Z
	??$_Get_proxy_allocator@V?$allocator@PEAV?$BindlessTexture2D@M@UtilsCuda@@@std@@@std@@YA?AU_Fake_allocator@0@AEBV?$allocator@PEAV?$BindlessTexture2D@M@UtilsCuda@@@0@@Z
	??$_Get_proxy_allocator@V?$allocator@PEAVRadonIntermediate@EpipolarConsistency@@@std@@@std@@YA?AU_Fake_allocator@0@AEBV?$allocator@PEAVRadonIntermediate@EpipolarConsistency@@@0@@Z
	??$_Get_proxy_allocator@V?$allocator@U?$_Tree_node@U?$pair@$$CBV?$basic_string@DU?$char_traits@D@std@@V?$allocator@D@2@@std@@V12@@std@@PEAX@std@@@std@@@std@@YA?AU_Fake_allocator@0@AEBV?$allocator@U?$_Tree_node@U?$pair@$$CBV?$basic_string@DU?$char_traits@D@std@@V?$allocator@D@2@@std@@V12@@std@@PEAX@std@@@0@@Z
	??$_Get_proxy_allocator@V?$allocator@U?$pair@V?$Matrix@M$02$00$0A@$02$00@Eigen@@V12@@std@@@std@@@std@@YA?AU_Fake_allocator@0@AEBV?$allocator@U?$pair@V?$Matrix@M$02$00$0A@$02$00@Eigen@@V12@@std@@@0@@Z
	??$_Get_proxy_allocator@V?$allocator@UFBCC_weighting_info@@@std@@@std@@YA?AU_Fake_allocator@0@AEBV?$allocator@UFBCC_weighting_info@@@0@@Z
	??$_Get_proxy_allocator@V?$allocator@V?$Matrix@H$03$00$0A@$03$00@Eigen@@@std@@@std@@YA?AU_Fake_allocator@0@AEBV?$allocator@V?$Matrix@H$03$00$0A@$03$00@Eigen@@@0@@Z
	??$_Get_proxy_allocator@V?$allocator@V?$Matrix@M$02$03$0A@$02$03@Eigen@@@std@@@std@@YA?AU_Fake_allocator@0@AEBV?$allocator@V?$Matrix@M$02$03$0A@$02$03@Eigen@@@0@@Z
	??$_Get_proxy_allocator@V?$allocator@V?$Matrix@M$03$00$0A@$03$00@Eigen@@@std@@@std@@YA?AU_Fake_allocator@0@AEBV?$allocator@V?$Matrix@M$03$00$0A@$03$00@Eigen@@@0@@Z
	??$_Get_proxy_allocator@V?$allocator@V?$Matrix@N$02$03$0A@$02$03@Eigen@@@std@@@std@@YA?AU_Fake_allocator@0@AEBV?$allocator@V?$Matrix@N$02$03$0A@$02$03@Eigen@@@0@@Z
	??$_Get_proxy_allocator@V?$allocator@_K@std@@@std@@YA?AU_Fake_allocator@0@AEBV?$allocator@_K@0@@Z
	??$_Get_size_of_n@$00@std@@YA_K_K@Z
	??$_Get_size_of_n@$03@std@@YA_K_K@Z
	??$_Get_size_of_n@$07@std@@YA_K_K@Z
	??$_Get_size_of_n@$0BA@@std@@YA_K_K@Z
	??$_Get_size_of_n@$0BI@@std@@YA_K_K@Z
	??$_Get_size_of_n@$0CA@@std@@YA_K_K@Z
	??$_Get_size_of_n@$0DA@@std@@YA_K_K@Z
	??$_Get_size_of_n@$0GA@@std@@YA_K_K@Z
	??$_Get_unwrapped@AEBQEAH@std@@YA?A_TAEBQEAH@Z
	??$_Get_unwrapped@AEBQEAM@std@@YA?A_TAEBQEAM@Z
	??$_Get_unwrapped@AEBQEAN@std@@YA?A_TAEBQEAN@Z
	??$_Get_unwrapped@AEBQEAU?$pair@MM@std@@@std@@YA?A_TAEBQEAU?$pair@MM@0@@Z
	??$_Get_unwrapped@AEBQEAV?$Matrix@H$03$00$0A@$03$00@Eigen@@@std@@YA?A_TAEBQEAV?$Matrix@H$03$00$0A@$03$00@Eigen@@@Z
	??$_Get_unwrapped@AEBV?$_String_iterator@V?$_String_val@U?$_Simple_types@D@std@@@std@@@std@@@std@@YA?A_TAEBV?$_String_iterator@V?$_String_val@U?$_Simple_types@D@std@@@std@@@0@@Z
	??$_Get_unwrapped@PEAPEAV?$BindlessTexture2D@M@UtilsCuda@@@std@@YA?A_T$$QEAPEAPEAV?$BindlessTexture2D@M@UtilsCuda@@@Z
	??$_Get_unwrapped@PEAPEAVRadonIntermediate@EpipolarConsistency@@@std@@YA?A_T$$QEAPEAPEAVRadonIntermediate@EpipolarConsistency@@@Z
	??$_Get_unwrapped@PEAV?$Matrix@N$02$03$0A@$02$03@Eigen@@@std@@YA?A_T$$QEAPEAV?$Matrix@N$02$03$0A@$02$03@Eigen@@@Z
	??$_Getvals@_W@?$time_get@DV?$istreambuf_iterator@DU?$char_traits@D@std@@@std@@@std@@IEAAX_WAEBV_Locinfo@1@@Z
	??$_Getvals@_W@?$time_get@_WV?$istreambuf_iterator@_WU?$char_traits@_W@std@@@std@@@std@@IEAAX_WAEBV_Locinfo@1@@Z
	??$_Impl_copy_memmeow@$00PEAHPEAH@std@@YAPEAHPEAH00@Z
	??$_Impl_copy_memmeow@$00PEAMPEAM@std@@YAPEAMPEAM00@Z
	??$_Impl_copy_memmeow@$00PEANPEAN@std@@YAPEANPEAN00@Z
	??$_Impl_copy_memmeow@$00PEAU?$pair@MM@std@@PEAU12@@std@@YAPEAU?$pair@MM@0@PEAU10@00@Z
	??$_Impl_copy_memmeow@$00PEAV?$Matrix@H$03$00$0A@$03$00@Eigen@@PEAV12@@std@@YAPEAV?$Matrix@H$03$00$0A@$03$00@Eigen@@PEAV12@00@Z
	??$_Impl_copy_memmeow_n@$00PEAPEAV?$BindlessTexture2D@M@UtilsCuda@@PEAPEAV12@@std@@YAPEAPEAV?$BindlessTexture2D@M@UtilsCuda@@PEAPEAV12@_K0@Z
	??$_Impl_copy_memmeow_n@$00PEAPEAVRadonIntermediate@EpipolarConsistency@@PEAPEAV12@@std@@YAPEAPEAVRadonIntermediate@EpipolarConsistency@@PEAPEAV12@_K0@Z
	??$_Impl_copy_memmeow_n@$00PEAV?$Matrix@N$02$03$0A@$02$03@Eigen@@PEAV12@@std@@YAPEAV?$Matrix@N$02$03$0A@$02$03@Eigen@@PEAV12@_K0@Z
	??$_Impl_copy_memmeow_n@$0A@PEAPEAV?$BindlessTexture2D@M@UtilsCuda@@PEAPEAV12@@std@@YAPEAPEAV?$BindlessTexture2D@M@UtilsCuda@@PEAPEAV12@_K0@Z
	??$_Impl_copy_memmeow_n@$0A@PEAPEAVRadonIntermediate@EpipolarConsistency@@PEAPEAV12@@std@@YAPEAPEAVRadonIntermediate@EpipolarConsistency@@PEAPEAV12@_K0@Z
	??$_Impl_copy_memmeow_tail@$00PEAH@std@@YAPEAHQEBDQEAH_K2@Z
	??$_Impl_copy_memmeow_tail@$00PEAM@std@@YAPEAMQEBDQEAM_K2@Z
	??$_Impl_copy_memmeow_tail@$00PEAN@std@@YAPEANQEBDQEAN_K2@Z
	??$_Impl_copy_memmeow_tail@$00PEAPEAV?$BindlessTexture2D@M@UtilsCuda@@@std@@YAPEAPEAV?$BindlessTexture2D@M@UtilsCuda@@QEBDQEAPEAV12@_K2@Z
	??$_Impl_copy_memmeow_tail@$00PEAPEAVRadonIntermediate@EpipolarConsistency@@@std@@YAPEAPEAVRadonIntermediate@EpipolarConsistency@@QEBDQEAPEAV12@_K2@Z
	??$_Impl_copy_memmeow_tail@$00PEAU?$pair@MM@std@@@std@@YAPEAU?$pair@MM@0@QEBDQEAU10@_K2@Z
	??$_Impl_copy_memmeow_tail@$00PEAV?$Matrix@H$03$00$0A@$03$00@Eigen@@@std@@YAPEAV?$Matrix@H$03$00$0A@$03$00@Eigen@@QEBDQEAV12@_K2@Z
	??$_Impl_copy_memmeow_tail@$00PEAV?$Matrix@N$02$03$0A@$02$03@Eigen@@@std@@YAPEAV?$Matrix@N$02$03$0A@$02$03@Eigen@@QEBDQEAV12@_K2@Z
	??$_Impl_copy_memmeow_tail@$0A@PEAPEAV?$BindlessTexture2D@M@UtilsCuda@@@std@@YAPEAPEAV?$BindlessTexture2D@M@UtilsCuda@@QEBDQEAPEAV12@_K2@Z
	??$_Impl_copy_memmeow_tail@$0A@PEAPEAVRadonIntermediate@EpipolarConsistency@@@std@@YAPEAPEAVRadonIntermediate@EpipolarConsistency@@QEBDQEAPEAV12@_K2@Z
	??$_Insert@D@?$basic_string@DU?$char_traits@D@std@@V?$allocator@D@2@@std@@AEAAAEAV01@_KQEBD0@Z
	??$_Insert_string@DU?$char_traits@D@std@@_K@std@@YAAEAV?$basic_ostream@DU?$char_traits@D@std@@@0@AEAV10@QEBD_K@Z
	??$_Is_all_bits_zero@M@std@@YA_NAEBM@Z
	??$_Kfn@$$CBV?$basic_string@DU?$char_traits@D@std@@V?$allocator@D@2@@std@@V12@@?$_Tmap_traits@V?$basic_string@DU?$char_traits@D@std@@V?$allocator@D@2@@std@@V12@U?$less@V?$basic_string@DU?$char_traits@D@std@@V?$allocator@D@2@@std@@@2@V?$allocator@U?$pair@$$CBV?$basic_string@DU?$char_traits@D@std@@V?$allocator@D@2@@std@@V12@@std@@@2@$0A@@std@@SAAEBV?$basic_string@DU?$char_traits@D@std@@V?$allocator@D@2@@1@AEBU?$pair@$$CBV?$basic_string@DU?$char_traits@D@std@@V?$allocator@D@2@@std@@V12@@1@@Z
	??$_Lower_bound_duplicate@V?$basic_string@DU?$char_traits@D@std@@V?$allocator@D@2@@std@@@?$_Tree@V?$_Tmap_traits@V?$basic_string@DU?$char_traits@D@std@@V?$allocator@D@2@@std@@V12@U?$less@V?$basic_string@DU?$char_traits@D@std@@V?$allocator@D@2@@std@@@2@V?$allocator@U?$pair@$$CBV?$basic_string@DU?$char_traits@D@std@@V?$allocator@D@2@@std@@V12@@std@@@2@$0A@@std@@@std@@IEBA_NQEAU?$_Tree_node@U?$pair@$$CBV?$basic_string@DU?$char_traits@D@std@@V?$allocator@D@2@@std@@V12@@std@@PEAX@1@AEBV?$basic_string@DU?$char_traits@D@std@@V?$allocator@D@2@@1@@Z
	??$_Max_limit@_J@std@@YA_JXZ
	??$_Pocca@V?$allocator@D@std@@@std@@YAXAEAV?$allocator@D@0@AEBV10@@Z
	??$_Pocca@V?$allocator@PEAV?$BindlessTexture2D@M@UtilsCuda@@@std@@@std@@YAXAEAV?$allocator@PEAV?$BindlessTexture2D@M@UtilsCuda@@@0@AEBV10@@Z
	??$_Pocca@V?$allocator@PEAVRadonIntermediate@EpipolarConsistency@@@std@@@std@@YAXAEAV?$allocator@PEAVRadonIntermediate@EpipolarConsistency@@@0@AEBV10@@Z
	??$_Pocca@V?$allocator@U?$_Tree_node@U?$pair@$$CBV?$basic_string@DU?$char_traits@D@std@@V?$allocator@D@2@@std@@V12@@std@@PEAX@std@@@std@@@std@@YAXAEAV?$allocator@U?$_Tree_node@U?$pair@$$CBV?$basic_string@DU?$char_traits@D@std@@V?$allocator@D@2@@std@@V12@@std@@PEAX@std@@@0@AEBV10@@Z
	??$_Pocca@V?$allocator@V?$Matrix@N$02$03$0A@$02$03@Eigen@@@std@@@std@@YAXAEAV?$allocator@V?$Matrix@N$02$03$0A@$02$03@Eigen@@@0@AEBV10@@Z
	??$_Pocma@V?$allocator@D@std@@@std@@YAXAEAV?$allocator@D@0@0@Z
	??$_Pocma@V?$allocator@H@std@@@std@@YAXAEAV?$allocator@H@0@0@Z
	??$_Pocma@V?$allocator@M@std@@@std@@YAXAEAV?$allocator@M@0@0@Z
	??$_Pocma@V?$allocator@N@std@@@std@@YAXAEAV?$allocator@N@0@0@Z
	??$_Reallocate@$0A@@?$vector@MV?$allocator@M@std@@@std@@AEAAXAEA_K@Z
	??$_Reallocate@$0A@@?$vector@U?$pair@MM@std@@V?$allocator@U?$pair@MM@std@@@2@@std@@AEAAXAEA_K@Z
	??$_Reallocate_for@V<lambda_4953394ebb2f7dc62d6889dc6b041cb6>@@PEBD@?$basic_string@DU?$char_traits@D@std@@V?$allocator@D@2@@std@@AEAAAEAV01@_KV<lambda_4953394ebb2f7dc62d6889dc6b041cb6>@@PEBD@Z
	??$_Reallocate_grow_by@V<lambda_16a3add8baeafd6065b2b3e9f729e474>@@PEBD_K@?$basic_string@DU?$char_traits@D@std@@V?$allocator@D@2@@std@@AEAAAEAV01@_KV<lambda_16a3add8baeafd6065b2b3e9f729e474>@@PEBD_K@Z
	??$_Reallocate_grow_by@V<lambda_1fd67b7cbb8957a22ddc452f87c0fbb0>@@_KPEBD_K@?$basic_string@DU?$char_traits@D@std@@V?$allocator@D@2@@std@@AEAAAEAV01@_KV<lambda_1fd67b7cbb8957a22ddc452f87c0fbb0>@@_KPEBD2@Z
	??$_Reallocate_grow_by@V<lambda_e696ef4bfc89975bc2035a0ba1f0e499>@@D@?$basic_string@DU?$char_traits@D@std@@V?$allocator@D@2@@std@@AEAAAEAV01@_KV<lambda_e696ef4bfc89975bc2035a0ba1f0e499>@@D@Z
	??$_Refancy@PEAD$0A@@std@@YAPEADPEAD@Z
	??$_Resize@U_Value_init_tag@std@@@?$vector@HV?$allocator@H@std@@@std@@AEAAX_KAEBU_Value_init_tag@1@@Z
	??$_Resize@U_Value_init_tag@std@@@?$vector@MV?$allocator@M@std@@@std@@AEAAX_KAEBU_Value_init_tag@1@@Z
	??$_Resize@U_Value_init_tag@std@@@?$vector@NV?$allocator@N@std@@@std@@AEAAX_KAEBU_Value_init_tag@1@@Z
	??$_Resize_reallocate@U_Value_init_tag@std@@@?$vector@HV?$allocator@H@std@@@std@@AEAAX_KAEBU_Value_init_tag@1@@Z
	??$_Resize_reallocate@U_Value_init_tag@std@@@?$vector@MV?$allocator@M@std@@@std@@AEAAX_KAEBU_Value_init_tag@1@@Z
	??$_Resize_reallocate@U_Value_init_tag@std@@@?$vector@NV?$allocator@N@std@@@std@@AEAAX_KAEBU_Value_init_tag@1@@Z
	??$_To_address@PEAH@std@@YA?A_PAEBQEAH@Z
	??$_To_address@PEAM@std@@YA?A_PAEBQEAM@Z
	??$_To_address@PEAN@std@@YA?A_PAEBQEAN@Z
	??$_To_address@PEAPEAV?$BindlessTexture2D@M@UtilsCuda@@@std@@YA?A_PAEBQEAPEAV?$BindlessTexture2D@M@UtilsCuda@@@Z
	??$_To_address@PEAPEAVRadonIntermediate@EpipolarConsistency@@@std@@YA?A_PAEBQEAPEAVRadonIntermediate@EpipolarConsistency@@@Z
	??$_To_address@PEAU?$pair@MM@std@@@std@@YA?A_PAEBQEAU?$pair@MM@0@@Z
	??$_To_address@PEAV?$Matrix@H$03$00$0A@$03$00@Eigen@@@std@@YA?A_PAEBQEAV?$Matrix@H$03$00$0A@$03$00@Eigen@@@Z
	??$_To_address@PEAV?$Matrix@N$02$03$0A@$02$03@Eigen@@@std@@YA?A_PAEBQEAV?$Matrix@N$02$03$0A@$02$03@Eigen@@@Z
	??$_To_address@PEA_K@std@@YA?A_PAEBQEA_K@Z
	??$_Traits_compare@U?$char_traits@D@std@@@std@@YAHQEBD_K01@Z
	??$_Traits_copy_batch@U?$char_traits@D@std@@D@std@@YAXQEADQEBD_K@Z
	??$_Traits_equal@U?$char_traits@D@std@@@std@@YA_NQEBD_K01@Z
	??$_Traits_move_batch@U?$char_traits@D@std@@D@std@@YAXQEADQEBD_K@Z
	??$_Try_emplace@AEBV?$basic_string@DU?$char_traits@D@std@@V?$allocator@D@2@@std@@$$V@?$map@V?$basic_string@DU?$char_traits@D@std@@V?$allocator@D@2@@std@@V12@U?$less@V?$basic_string@DU?$char_traits@D@std@@V?$allocator@D@2@@std@@@2@V?$allocator@U?$pair@$$CBV?$basic_string@DU?$char_traits@D@std@@V?$allocator@D@2@@std@@V12@@std@@@2@@std@@AEAA?AU?$pair@PEAU?$_Tree_node@U?$pair@$$CBV?$basic_string@DU?$char_traits@D@std@@V?$allocator@D@2@@std@@V12@@std@@PEAX@std@@_N@1@AEBV?$basic_string@DU?$char_traits@D@std@@V?$allocator@D@2@@1@@Z
	??$_Try_emplace@V?$basic_string@DU?$char_traits@D@std@@V?$allocator@D@2@@std@@$$V@?$map@V?$basic_string@DU?$char_traits@D@std@@V?$allocator@D@2@@std@@V12@U?$less@V?$basic_string@DU?$char_traits@D@std@@V?$allocator@D@2@@std@@@2@V?$allocator@U?$pair@$$CBV?$basic_string@DU?$char_traits@D@std@@V?$allocator@D@2@@std@@V12@@std@@@2@@std@@AEAA?AU?$pair@PEAU?$_Tree_node@U?$pair@$$CBV?$basic_string@DU?$char_traits@D@std@@V?$allocator@D@2@@std@@V12@@std@@PEAX@std@@_N@1@$$QEAV?$basic_string@DU?$char_traits@D@std@@V?$allocator@D@2@@1@@Z
	??$_Tuple_get@$0A@$$QEAV?$basic_string@DU?$char_traits@D@std@@V?$allocator@D@2@@std@@@std@@YA$$QEA_P$$QEAV?$tuple@$$QEAV?$basic_string@DU?$char_traits@D@std@@V?$allocator@D@2@@std@@@0@@Z
	??$_Tuple_get@$0A@AEBV?$basic_string@DU?$char_traits@D@std@@V?$allocator@D@2@@std@@@std@@YA$$QEA_P$$QEAV?$tuple@AEBV?$basic_string@DU?$char_traits@D@std@@V?$allocator@D@2@@std@@@0@@Z
	??$_Unfancy@D@std@@YAPEADPEAD@Z
	??$_Unfancy@H@std@@YAPEAHPEAH@Z
	??$_Unfancy@M@std@@YAPEAMPEAM@Z
	??$_Unfancy@N@std@@YAPEANPEAN@Z
	??$_Unfancy@PEAV?$BindlessTexture2D@M@UtilsCuda@@@std@@YAPEAPEAV?$BindlessTexture2D@M@UtilsCuda@@PEAPEAV12@@Z
	??$_Unfancy@PEAVRadonIntermediate@EpipolarConsistency@@@std@@YAPEAPEAVRadonIntermediate@EpipolarConsistency@@PEAPEAV12@@Z
	??$_Unfancy@U?$pair@MM@std@@@std@@YAPEAU?$pair@MM@0@PEAU10@@Z
	??$_Unfancy@U?$pair@V?$Matrix@M$02$00$0A@$02$00@Eigen@@V12@@std@@@std@@YAPEAU?$pair@V?$Matrix@M$02$00$0A@$02$00@Eigen@@V12@@0@PEAU10@@Z
	??$_Unfancy@UFBCC_weighting_info@@@std@@YAPEAUFBCC_weighting_info@@PEAU1@@Z
	??$_Unfancy@V?$Matrix@H$03$00$0A@$03$00@Eigen@@@std@@YAPEAV?$Matrix@H$03$00$0A@$03$00@Eigen@@PEAV12@@Z
	??$_Unfancy@V?$Matrix@M$02$03$0A@$02$03@Eigen@@@std@@YAPEAV?$Matrix@M$02$03$0A@$02$03@Eigen@@PEAV12@@Z
	??$_Unfancy@V?$Matrix@M$03$00$0A@$03$00@Eigen@@@std@@YAPEAV?$Matrix@M$03$00$0A@$03$00@Eigen@@PEAV12@@Z
	??$_Unfancy@V?$Matrix@N$02$03$0A@$02$03@Eigen@@@std@@YAPEAV?$Matrix@N$02$03$0A@$02$03@Eigen@@PEAV12@@Z
	??$_Unfancy@_K@std@@YAPEA_KPEA_K@Z
	??$_Unfancy_maybe_null@$$CBD@std@@YAPEBDPEBD@Z
	??$_Unfancy_maybe_null@H@std@@YAPEAHPEAH@Z
	??$_Unfancy_maybe_null@M@std@@YAPEAMPEAM@Z
	??$_Unfancy_maybe_null@UFBCC_weighting_info@@@std@@YAPEAUFBCC_weighting_info@@PEAU1@@Z
	??$_Ungetc@D@std@@YA_NAEBDPEAU_iobuf@@@Z
	??$_Uninitialized_copy_n@PEAPEAV?$BindlessTexture2D@M@UtilsCuda@@V?$allocator@PEAV?$BindlessTexture2D@M@UtilsCuda@@@std@@@std@@YAPEAPEAV?$BindlessTexture2D@M@UtilsCuda@@PEAPEAV12@_K0AEAV?$allocator@PEAV?$BindlessTexture2D@M@UtilsCuda@@@0@@Z
	??$_Uninitialized_copy_n@PEAPEAVRadonIntermediate@EpipolarConsistency@@V?$allocator@PEAVRadonIntermediate@EpipolarConsistency@@@std@@@std@@YAPEAPEAVRadonIntermediate@EpipolarConsistency@@PEAPEAV12@_K0AEAV?$allocator@PEAVRadonIntermediate@EpipolarConsistency@@@0@@Z
	??$_Uninitialized_copy_n@PEAV?$Matrix@N$02$03$0A@$02$03@Eigen@@V?$allocator@V?$Matrix@N$02$03$0A@$02$03@Eigen@@@std@@@std@@YAPEAV?$Matrix@N$02$03$0A@$02$03@Eigen@@PEAV12@_K0AEAV?$allocator@V?$Matrix@N$02$03$0A@$02$03@Eigen@@@0@@Z
	??$_Uninitialized_fill_n@V?$allocator@M@std@@@std@@YAPEAMPEAM_KAEBMAEAV?$allocator@M@0@@Z
	??$_Uninitialized_move@PEAHV?$allocator@H@std@@@std@@YAPEAHQEAH0PEAHAEAV?$allocator@H@0@@Z
	??$_Uninitialized_move@PEAMV?$allocator@M@std@@@std@@YAPEAMQEAM0PEAMAEAV?$allocator@M@0@@Z
	??$_Uninitialized_move@PEANV?$allocator@N@std@@@std@@YAPEANQEAN0PEANAEAV?$allocator@N@0@@Z
	??$_Uninitialized_move@PEAU?$pair@MM@std@@V?$allocator@U?$pair@MM@std@@@2@@std@@YAPEAU?$pair@MM@0@QEAU10@0PEAU10@AEAV?$allocator@U?$pair@MM@std@@@0@@Z
	??$_Uninitialized_move@PEAV?$Matrix@H$03$00$0A@$03$00@Eigen@@V?$allocator@V?$Matrix@H$03$00$0A@$03$00@Eigen@@@std@@@std@@YAPEAV?$Matrix@H$03$00$0A@$03$00@Eigen@@QEAV12@0PEAV12@AEAV?$allocator@V?$Matrix@H$03$00$0A@$03$00@Eigen@@@0@@Z
	??$_Uninitialized_value_construct_n@V?$allocator@H@std@@@std@@YAPEAHPEAH_KAEAV?$allocator@H@0@@Z
	??$_Uninitialized_value_construct_n@V?$allocator@M@std@@@std@@YAPEAMPEAM_KAEAV?$allocator@M@0@@Z
	??$_Uninitialized_value_construct_n@V?$allocator@N@std@@@std@@YAPEANPEAN_KAEAV?$allocator@N@0@@Z
	??$_Uninitialized_value_construct_n@V?$allocator@U?$pair@V?$Matrix@M$02$00$0A@$02$00@Eigen@@V12@@std@@@std@@@std@@YAPEAU?$pair@V?$Matrix@M$02$00$0A@$02$00@Eigen@@V12@@0@PEAU10@_KAEAV?$allocator@U?$pair@V?$Matrix@M$02$00$0A@$02$00@Eigen@@V12@@std@@@0@@Z
	??$_Uninitialized_value_construct_n@V?$allocator@UFBCC_weighting_info@@@std@@@std@@YAPEAUFBCC_weighting_info@@PEAU1@_KAEAV?$allocator@UFBCC_weighting_info@@@0@@Z
	??$_Uninitialized_value_construct_n@V?$allocator@V?$Matrix@M$02$03$0A@$02$03@Eigen@@@std@@@std@@YAPEAV?$Matrix@M$02$03$0A@$02$03@Eigen@@PEAV12@_KAEAV?$allocator@V?$Matrix@M$02$03$0A@$02$03@Eigen@@@0@@Z
	??$_Uninitialized_value_construct_n@V?$allocator@V?$Matrix@M$03$00$0A@$03$00@Eigen@@@std@@@std@@YAPEAV?$Matrix@M$03$00$0A@$03$00@Eigen@@PEAV12@_KAEAV?$allocator@V?$Matrix@M$03$00$0A@$03$00@Eigen@@@0@@Z
	??$_Uninitialized_value_construct_n@V?$allocator@_K@std@@@std@@YAPEA_KPEA_K_KAEAV?$allocator@_K@0@@Z
	??$_Zero_range@PEAH@std@@YAPEAHQEAH0@Z
	??$_Zero_range@PEAM@std@@YAPEAMQEAM0@Z
	??$_Zero_range@PEAN@std@@YAPEANQEAN0@Z
	??$_Zero_range@PEA_K@std@@YAPEA_KQEA_K0@Z
	??$_check_solve_assertion@$0A@V?$MatrixBase@V?$Matrix@N$02$00$0A@$02$00@Eigen@@@Eigen@@@?$SVDBase@V?$JacobiSVD@V?$Matrix@N$02$02$0A@$02$02@Eigen@@$0A@@Eigen@@@Eigen@@IEBAXAEBV?$MatrixBase@V?$Matrix@N$02$00$0A@$02$00@Eigen@@@1@@Z
	??$_init1@V?$CwiseUnaryOp@U?$core_cast_op@MN@internal@Eigen@@$$CBV?$Matrix@M$02$00$0A@$02$00@3@@Eigen@@V12@@?$PlainObjectBase@V?$Matrix@N$02$00$0A@$02$00@Eigen@@@Eigen@@IEAAXAEBV?$DenseBase@V?$CwiseUnaryOp@U?$core_cast_op@MN@internal@Eigen@@$$CBV?$Matrix@M$02$00$0A@$02$00@3@@Eigen@@@1@@Z
	??$_init1@V?$CwiseUnaryOp@U?$core_cast_op@NM@internal@Eigen@@$$CBV?$Matrix@N$03$00$0A@$03$00@3@@Eigen@@V12@@?$PlainObjectBase@V?$Matrix@M$03$00$0A@$03$00@Eigen@@@Eigen@@IEAAXAEBV?$DenseBase@V?$CwiseUnaryOp@U?$core_cast_op@NM@internal@Eigen@@$$CBV?$Matrix@N$03$00$0A@$03$00@3@@Eigen@@@1@@Z
	??$_init1@V?$CwiseUnaryOp@U?$core_cast_op@NM@internal@Eigen@@$$CBV?$Transpose@V?$Matrix@N$03$02$0A@$03$02@Eigen@@@3@@Eigen@@V12@@?$PlainObjectBase@V?$Matrix@M$02$03$00$02$03@Eigen@@@Eigen@@IEAAXAEBV?$DenseBase@V?$CwiseUnaryOp@U?$core_cast_op@NM@internal@Eigen@@$$CBV?$Transpose@V?$Matrix@N$03$02$0A@$03$02@Eigen@@@3@@Eigen@@@1@@Z
	??$_init1@V?$Product@V?$Matrix@N$02$00$0A@$02$00@Eigen@@V?$Transpose@V?$Matrix@N$02$00$0A@$02$00@Eigen@@@2@$0A@@Eigen@@V12@@?$PlainObjectBase@V?$Matrix@N$02$02$0A@$02$02@Eigen@@@Eigen@@IEAAXAEBV?$DenseBase@V?$Product@V?$Matrix@N$02$00$0A@$02$00@Eigen@@V?$Transpose@V?$Matrix@N$02$00$0A@$02$00@Eigen@@@2@$0A@@Eigen@@@1@@Z
	??$_init1@V?$Product@V?$Matrix@N$02$03$0A@$02$03@Eigen@@V?$Matrix@N$03$03$0A@$03$03@2@$0A@@Eigen@@V12@@?$PlainObjectBase@V?$Matrix@N$02$03$0A@$02$03@Eigen@@@Eigen@@IEAAXAEBV?$DenseBase@V?$Product@V?$Matrix@N$02$03$0A@$02$03@Eigen@@V?$Matrix@N$03$03$0A@$03$03@2@$0A@@Eigen@@@1@@Z
	??$_init1@V?$Transpose@V?$Matrix@N$03$02$0A@$03$02@Eigen@@@Eigen@@V12@@?$PlainObjectBase@V?$Matrix@N$02$03$00$02$03@Eigen@@@Eigen@@IEAAXAEBV?$DenseBase@V?$Transpose@V?$Matrix@N$03$02$0A@$03$02@Eigen@@@Eigen@@@1@@Z
	??$_init2@_J_J@?$PlainObjectBase@V?$Matrix@N$00$00$0A@$00$00@Eigen@@@Eigen@@IEAAX_J0PEA_J@Z
	??$_resize_to_match@V?$DiagonalWrapper@$$CBV?$Matrix@N$02$00$0A@$02$00@Eigen@@@Eigen@@@?$PlainObjectBase@V?$Matrix@N$02$02$0A@$02$02@Eigen@@@Eigen@@IEAAXAEBU?$EigenBase@V?$DiagonalWrapper@$$CBV?$Matrix@N$02$00$0A@$02$00@Eigen@@@Eigen@@@1@@Z
	??$_set@V?$CwiseBinaryOp@U?$scalar_quotient_op@NN@internal@Eigen@@$$CBV?$Block@$$CBV?$Matrix@N$02$02$0A@$02$02@Eigen@@$02$02$0A@@3@$$CBV?$CwiseNullaryOp@U?$scalar_constant_op@N@internal@Eigen@@$$CBV?$Matrix@N$02$02$0A@$02$02@3@@3@@Eigen@@@?$PlainObjectBase@V?$Matrix@N$02$02$0A@$02$02@Eigen@@@Eigen@@IEAAAEAV?$Matrix@N$02$02$0A@$02$02@1@AEBV?$DenseBase@V?$CwiseBinaryOp@U?$scalar_quotient_op@NN@internal@Eigen@@$$CBV?$Block@$$CBV?$Matrix@N$02$02$0A@$02$02@Eigen@@$02$02$0A@@3@$$CBV?$CwiseNullaryOp@U?$scalar_constant_op@N@internal@Eigen@@$$CBV?$Matrix@N$02$02$0A@$02$02@3@@3@@Eigen@@@1@@Z
	??$_set@V?$CwiseNullaryOp@U?$scalar_identity_op@N@internal@Eigen@@V?$Matrix@N$02$02$0A@$02$02@3@@Eigen@@@?$PlainObjectBase@V?$Matrix@N$02$02$0A@$02$02@Eigen@@@Eigen@@IEAAAEAV?$Matrix@N$02$02$0A@$02$02@1@AEBV?$DenseBase@V?$CwiseNullaryOp@U?$scalar_identity_op@N@internal@Eigen@@V?$Matrix@N$02$02$0A@$02$02@3@@Eigen@@@1@@Z
	??$_set@V?$CwiseUnaryOp@U?$core_cast_op@NM@internal@Eigen@@$$CBV?$Matrix@N$02$00$0A@$02$00@3@@Eigen@@@?$PlainObjectBase@V?$Matrix@M$02$00$0A@$02$00@Eigen@@@Eigen@@IEAAAEAV?$Matrix@M$02$00$0A@$02$00@1@AEBV?$DenseBase@V?$CwiseUnaryOp@U?$core_cast_op@NM@internal@Eigen@@$$CBV?$Matrix@N$02$00$0A@$02$00@3@@Eigen@@@1@@Z
	??$_set@V?$Matrix@N$02$03$0A@$02$03@Eigen@@@?$PlainObjectBase@V?$Matrix@N$02$03$0A@$02$03@Eigen@@@Eigen@@IEAAAEAV?$Matrix@N$02$03$0A@$02$03@1@AEBV?$DenseBase@V?$Matrix@N$02$03$0A@$02$03@Eigen@@@1@@Z
	??$_set@V?$Product@V?$DiagonalWrapper@$$CBV?$CwiseUnaryOp@U?$scalar_inverse_op@N@internal@Eigen@@$$CBV?$Block@$$CBV?$Matrix@N$02$00$0A@$02$00@Eigen@@$0?0$00$0A@@3@@Eigen@@@Eigen@@V?$Matrix@N$0?0$00$0A@$02$00@2@$00@Eigen@@@?$PlainObjectBase@V?$Matrix@N$0?0$00$0A@$02$00@Eigen@@@Eigen@@IEAAAEAV?$Matrix@N$0?0$00$0A@$02$00@1@AEBV?$DenseBase@V?$Product@V?$DiagonalWrapper@$$CBV?$CwiseUnaryOp@U?$scalar_inverse_op@N@internal@Eigen@@$$CBV?$Block@$$CBV?$Matrix@N$02$00$0A@$02$00@Eigen@@$0?0$00$0A@@3@@Eigen@@@Eigen@@V?$Matrix@N$0?0$00$0A@$02$00@2@$00@Eigen@@@1@@Z
	??$_set_noalias@V?$Block@$$CBV?$Matrix@N$02$03$0A@$02$03@Eigen@@$00$02$0A@@Eigen@@@?$PlainObjectBase@V?$Matrix@N$00$02$00$00$02@Eigen@@@Eigen@@IEAAAEAV?$Matrix@N$00$02$00$00$02@1@AEBV?$DenseBase@V?$Block@$$CBV?$Matrix@N$02$03$0A@$02$03@Eigen@@$00$02$0A@@Eigen@@@1@@Z
	??$_set_noalias@V?$Block@V?$Matrix@N$03$00$0A@$03$00@Eigen@@$02$00$0A@@Eigen@@@?$PlainObjectBase@V?$Matrix@N$02$00$0A@$02$00@Eigen@@@Eigen@@IEAAAEAV?$Matrix@N$02$00$0A@$02$00@1@AEBV?$DenseBase@V?$Block@V?$Matrix@N$03$00$0A@$03$00@Eigen@@$02$00$0A@@Eigen@@@1@@Z
	??$_set_noalias@V?$CwiseBinaryOp@U?$scalar_quotient_op@NN@internal@Eigen@@$$CBV?$Block@$$CBV?$Matrix@N$02$03$0A@$02$03@Eigen@@$00$02$0A@@3@$$CBV?$CwiseNullaryOp@U?$scalar_constant_op@N@internal@Eigen@@$$CBV?$Matrix@N$00$02$00$00$02@3@@3@@Eigen@@@?$PlainObjectBase@V?$Matrix@N$00$02$00$00$02@Eigen@@@Eigen@@IEAAAEAV?$Matrix@N$00$02$00$00$02@1@AEBV?$DenseBase@V?$CwiseBinaryOp@U?$scalar_quotient_op@NN@internal@Eigen@@$$CBV?$Block@$$CBV?$Matrix@N$02$03$0A@$02$03@Eigen@@$00$02$0A@@3@$$CBV?$CwiseNullaryOp@U?$scalar_constant_op@N@internal@Eigen@@$$CBV?$Matrix@N$00$02$00$00$02@3@@3@@Eigen@@@1@@Z
	??$_set_noalias@V?$CwiseBinaryOp@U?$scalar_quotient_op@NN@internal@Eigen@@$$CBV?$Matrix@N$02$00$0A@$02$00@3@$$CBV?$CwiseNullaryOp@U?$scalar_constant_op@N@internal@Eigen@@$$CBV?$Matrix@N$02$00$0A@$02$00@3@@3@@Eigen@@@?$PlainObjectBase@V?$Matrix@N$02$00$0A@$02$00@Eigen@@@Eigen@@IEAAAEAV?$Matrix@N$02$00$0A@$02$00@1@AEBV?$DenseBase@V?$CwiseBinaryOp@U?$scalar_quotient_op@NN@internal@Eigen@@$$CBV?$Matrix@N$02$00$0A@$02$00@3@$$CBV?$CwiseNullaryOp@U?$scalar_constant_op@N@internal@Eigen@@$$CBV?$Matrix@N$02$00$0A@$02$00@3@@3@@Eigen@@@1@@Z
	??$_set_noalias@V?$CwiseBinaryOp@U?$scalar_sum_op@NN@internal@Eigen@@$$CBV?$CwiseBinaryOp@U?$scalar_product_op@NN@internal@Eigen@@$$CBV?$CwiseNullaryOp@U?$scalar_constant_op@N@internal@Eigen@@$$CBV?$Matrix@N$03$00$0A@$03$00@3@@3@$$CBV?$Matrix@N$03$00$0A@$03$00@3@@3@$$CBV43@@Eigen@@@?$PlainObjectBase@V?$Matrix@N$03$00$0A@$03$00@Eigen@@@Eigen@@IEAAAEAV?$Matrix@N$03$00$0A@$03$00@1@AEBV?$DenseBase@V?$CwiseBinaryOp@U?$scalar_sum_op@NN@internal@Eigen@@$$CBV?$CwiseBinaryOp@U?$scalar_product_op@NN@internal@Eigen@@$$CBV?$CwiseNullaryOp@U?$scalar_constant_op@N@internal@Eigen@@$$CBV?$Matrix@N$03$00$0A@$03$00@3@@3@$$CBV?$Matrix@N$03$00$0A@$03$00@3@@3@$$CBV43@@Eigen@@@1@@Z
	??$_set_noalias@V?$CwiseNullaryOp@U?$scalar_zero_op@N@internal@Eigen@@V?$Matrix@N$02$03$0A@$02$03@3@@Eigen@@@?$PlainObjectBase@V?$Matrix@N$02$03$0A@$02$03@Eigen@@@Eigen@@IEAAAEAV?$Matrix@N$02$03$0A@$02$03@1@AEBV?$DenseBase@V?$CwiseNullaryOp@U?$scalar_zero_op@N@internal@Eigen@@V?$Matrix@N$02$03$0A@$02$03@3@@Eigen@@@1@@Z
	??$_set_noalias@V?$CwiseUnaryOp@U?$core_cast_op@MN@internal@Eigen@@$$CBV?$Matrix@M$02$00$0A@$02$00@3@@Eigen@@@?$PlainObjectBase@V?$Matrix@N$02$00$0A@$02$00@Eigen@@@Eigen@@IEAAAEAV?$Matrix@N$02$00$0A@$02$00@1@AEBV?$DenseBase@V?$CwiseUnaryOp@U?$core_cast_op@MN@internal@Eigen@@$$CBV?$Matrix@M$02$00$0A@$02$00@3@@Eigen@@@1@@Z
	??$_set_noalias@V?$CwiseUnaryOp@U?$core_cast_op@NM@internal@Eigen@@$$CBV?$Matrix@N$03$00$0A@$03$00@3@@Eigen@@@?$PlainObjectBase@V?$Matrix@M$03$00$0A@$03$00@Eigen@@@Eigen@@IEAAAEAV?$Matrix@M$03$00$0A@$03$00@1@AEBV?$DenseBase@V?$CwiseUnaryOp@U?$core_cast_op@NM@internal@Eigen@@$$CBV?$Matrix@N$03$00$0A@$03$00@3@@Eigen@@@1@@Z
	??$_set_noalias@V?$CwiseUnaryOp@U?$core_cast_op@NM@internal@Eigen@@$$CBV?$Transpose@V?$Matrix@N$03$02$0A@$03$02@Eigen@@@3@@Eigen@@@?$PlainObjectBase@V?$Matrix@M$02$03$00$02$03@Eigen@@@Eigen@@IEAAAEAV?$Matrix@M$02$03$00$02$03@1@AEBV?$DenseBase@V?$CwiseUnaryOp@U?$core_cast_op@NM@internal@Eigen@@$$CBV?$Transpose@V?$Matrix@N$03$02$0A@$03$02@Eigen@@@3@@Eigen@@@1@@Z
	??$_set_noalias@V?$Matrix@M$02$03$00$02$03@Eigen@@@?$PlainObjectBase@V?$Matrix@M$02$03$0A@$02$03@Eigen@@@Eigen@@IEAAAEAV?$Matrix@M$02$03$0A@$02$03@1@AEBV?$DenseBase@V?$Matrix@M$02$03$00$02$03@Eigen@@@1@@Z
	??$_set_noalias@V?$Matrix@N$00$02$00$00$02@Eigen@@@?$PlainObjectBase@V?$Matrix@N$02$00$0A@$02$00@Eigen@@@Eigen@@IEAAAEAV?$Matrix@N$02$00$0A@$02$00@1@AEBV?$DenseBase@V?$Matrix@N$00$02$00$00$02@Eigen@@@1@@Z
	??$_set_noalias@V?$Product@V?$Matrix@N$02$00$0A@$02$00@Eigen@@V?$Transpose@V?$Matrix@N$02$00$0A@$02$00@Eigen@@@2@$0A@@Eigen@@@?$PlainObjectBase@V?$Matrix@N$02$02$0A@$02$02@Eigen@@@Eigen@@IEAAAEAV?$Matrix@N$02$02$0A@$02$02@1@AEBV?$DenseBase@V?$Product@V?$Matrix@N$02$00$0A@$02$00@Eigen@@V?$Transpose@V?$Matrix@N$02$00$0A@$02$00@Eigen@@@2@$0A@@Eigen@@@1@@Z
	??$_set_noalias@V?$Product@V?$Matrix@N$02$03$00$02$03@Eigen@@V?$Matrix@N$03$00$0A@$03$00@2@$0A@@Eigen@@@?$PlainObjectBase@V?$Matrix@N$02$00$0A@$02$00@Eigen@@@Eigen@@IEAAAEAV?$Matrix@N$02$00$0A@$02$00@1@AEBV?$DenseBase@V?$Product@V?$Matrix@N$02$03$00$02$03@Eigen@@V?$Matrix@N$03$00$0A@$03$00@2@$0A@@Eigen@@@1@@Z
	??$_set_noalias@V?$Product@V?$Matrix@N$02$03$0A@$02$03@Eigen@@V?$Matrix@N$03$00$0A@$03$00@2@$0A@@Eigen@@@?$PlainObjectBase@V?$Matrix@N$02$00$0A@$02$00@Eigen@@@Eigen@@IEAAAEAV?$Matrix@N$02$00$0A@$02$00@1@AEBV?$DenseBase@V?$Product@V?$Matrix@N$02$03$0A@$02$03@Eigen@@V?$Matrix@N$03$00$0A@$03$00@2@$0A@@Eigen@@@1@@Z
	??$_set_noalias@V?$Product@V?$Matrix@N$02$03$0A@$02$03@Eigen@@V?$Matrix@N$03$03$0A@$03$03@2@$0A@@Eigen@@@?$PlainObjectBase@V?$Matrix@N$02$03$0A@$02$03@Eigen@@@Eigen@@IEAAAEAV?$Matrix@N$02$03$0A@$02$03@1@AEBV?$DenseBase@V?$Product@V?$Matrix@N$02$03$0A@$02$03@Eigen@@V?$Matrix@N$03$03$0A@$03$03@2@$0A@@Eigen@@@1@@Z
	??$_set_noalias@V?$Product@V?$Product@V?$Matrix@N$02$03$0A@$02$03@Eigen@@V?$Matrix@N$03$03$0A@$03$03@2@$0A@@Eigen@@V?$Matrix@N$03$02$0A@$03$02@2@$0A@@Eigen@@@?$PlainObjectBase@V?$Matrix@N$02$02$0A@$02$02@Eigen@@@Eigen@@IEAAAEAV?$Matrix@N$02$02$0A@$02$02@1@AEBV?$DenseBase@V?$Product@V?$Product@V?$Matrix@N$02$03$0A@$02$03@Eigen@@V?$Matrix@N$03$03$0A@$03$03@2@$0A@@Eigen@@V?$Matrix@N$03$02$0A@$03$02@2@$0A@@Eigen@@@1@@Z
	??$_set_noalias@V?$Product@V?$Transpose@$$CBV?$Matrix@N$02$03$0A@$02$03@Eigen@@@Eigen@@V?$CwiseUnaryOp@U?$core_cast_op@MN@internal@Eigen@@$$CBV?$Matrix@M$02$00$0A@$02$00@3@@2@$0A@@Eigen@@@?$PlainObjectBase@V?$Matrix@N$03$00$0A@$03$00@Eigen@@@Eigen@@IEAAAEAV?$Matrix@N$03$00$0A@$03$00@1@AEBV?$DenseBase@V?$Product@V?$Transpose@$$CBV?$Matrix@N$02$03$0A@$02$03@Eigen@@@Eigen@@V?$CwiseUnaryOp@U?$core_cast_op@MN@internal@Eigen@@$$CBV?$Matrix@M$02$00$0A@$02$00@3@@2@$0A@@Eigen@@@1@@Z
	??$_set_noalias@V?$Transpose@V?$Matrix@N$03$02$0A@$03$02@Eigen@@@Eigen@@@?$PlainObjectBase@V?$Matrix@N$02$03$00$02$03@Eigen@@@Eigen@@IEAAAEAV?$Matrix@N$02$03$00$02$03@1@AEBV?$DenseBase@V?$Transpose@V?$Matrix@N$03$02$0A@$03$02@Eigen@@@Eigen@@@1@@Z
	??$_solve_impl@V?$Matrix@N$02$00$0A@$02$00@Eigen@@V?$Block@V?$Matrix@N$03$00$0A@$03$00@Eigen@@$02$00$0A@@2@@?$SVDBase@V?$JacobiSVD@V?$Matrix@N$02$02$0A@$02$02@Eigen@@$0A@@Eigen@@@Eigen@@QEBAXAEBV?$Matrix@N$02$00$0A@$02$00@1@AEAV?$Block@V?$Matrix@N$03$00$0A@$03$00@Eigen@@$02$00$0A@@1@@Z
	??$abs2@N@numext@Eigen@@YANAEBN@Z
	??$abs@N@numext@Eigen@@YANAEBN@Z
	??$add_to_nullable_pointer@$$CBN@?$BlockImpl_dense@$$CBV?$Block@$$CBV?$Matrix@N$02$02$0A@$02$02@Eigen@@$02$0?0$00@Eigen@@$00$0?0$0A@$00@internal@Eigen@@CAPEBNPEBN_J@Z
	??$add_to_nullable_pointer@$$CBN@?$BlockImpl_dense@$$CBV?$Matrix@N$02$00$0A@$02$00@Eigen@@$00$00$0A@$00@internal@Eigen@@CAPEBNPEBN_J@Z
	??$add_to_nullable_pointer@$$CBN@?$BlockImpl_dense@$$CBV?$Matrix@N$02$00$0A@$02$00@Eigen@@$02$00$00$00@internal@Eigen@@CAPEBNPEBN_J@Z
	??$add_to_nullable_pointer@$$CBN@?$BlockImpl_dense@$$CBV?$Matrix@N$02$00$0A@$02$00@Eigen@@$0?0$00$0A@$00@internal@Eigen@@CAPEBNPEBN_J@Z
	??$add_to_nullable_pointer@$$CBN@?$BlockImpl_dense@$$CBV?$Matrix@N$02$02$0A@$02$02@Eigen@@$02$02$0A@$00@internal@Eigen@@CAPEBNPEBN_J@Z
	??$add_to_nullable_pointer@$$CBN@?$BlockImpl_dense@$$CBV?$Matrix@N$02$02$0A@$02$02@Eigen@@$02$0?0$00$00@internal@Eigen@@CAPEBNPEBN_J@Z
	??$add_to_nullable_pointer@$$CBN@?$BlockImpl_dense@$$CBV?$Matrix@N$02$03$00$02$03@Eigen@@$00$03$00$00@internal@Eigen@@CAPEBNPEBN_J@Z
	??$add_to_nullable_pointer@$$CBN@?$BlockImpl_dense@$$CBV?$Matrix@N$02$03$0A@$02$03@Eigen@@$00$02$0A@$00@internal@Eigen@@CAPEBNPEBN_J@Z
	??$add_to_nullable_pointer@$$CBN@?$BlockImpl_dense@$$CBV?$Matrix@N$02$03$0A@$02$03@Eigen@@$00$03$0A@$00@internal@Eigen@@CAPEBNPEBN_J@Z
	??$add_to_nullable_pointer@$$CBN@?$BlockImpl_dense@$$CBV?$Matrix@N$03$00$0A@$03$00@Eigen@@$03$00$00$00@internal@Eigen@@CAPEBNPEBN_J@Z
	??$add_to_nullable_pointer@$$CBN@?$BlockImpl_dense@$$CBV?$Matrix@N$03$02$0A@$03$02@Eigen@@$03$00$00$00@internal@Eigen@@CAPEBNPEBN_J@Z
	??$add_to_nullable_pointer@$$CBN@?$BlockImpl_dense@$$CBV?$Matrix@N$03$03$0A@$03$03@Eigen@@$03$00$00$00@internal@Eigen@@CAPEBNPEBN_J@Z
	??$add_to_nullable_pointer@$$CBN@?$BlockImpl_dense@$$CBV?$Matrix@N$0?0$00$0A@$02$00@Eigen@@$0?0$00$00$00@internal@Eigen@@CAPEBNPEBN_J@Z
	??$add_to_nullable_pointer@$$CBN@?$BlockImpl_dense@$$CBV?$Transpose@$$CBV?$Block@$$CBV?$Matrix@N$02$02$0A@$02$02@Eigen@@$02$0?0$00@Eigen@@@Eigen@@$00$02$00$00@internal@Eigen@@CAPEBNPEBN_J@Z
	??$add_to_nullable_pointer@$$CBN@?$BlockImpl_dense@$$CBV?$Transpose@$$CBV?$Matrix@N$02$03$0A@$02$03@Eigen@@@Eigen@@$00$02$00$00@internal@Eigen@@CAPEBNPEBN_J@Z
	??$add_to_nullable_pointer@$$CBN@?$BlockImpl_dense@$$CBV?$Transpose@V?$Matrix@N$02$00$0A@$02$00@Eigen@@@Eigen@@$00$00$0A@$00@internal@Eigen@@CAPEBNPEBN_J@Z
	??$add_to_nullable_pointer@N@?$BlockImpl_dense@V?$Matrix@N$01$01$0A@$01$01@Eigen@@$00$01$0A@$00@internal@Eigen@@CAPEANPEAN_J@Z
	??$add_to_nullable_pointer@N@?$BlockImpl_dense@V?$Matrix@N$02$00$0A@$02$00@Eigen@@$0?0$00$0A@$00@internal@Eigen@@CAPEANPEAN_J@Z
	??$add_to_nullable_pointer@N@?$BlockImpl_dense@V?$Matrix@N$02$02$0A@$02$02@Eigen@@$00$02$0A@$00@internal@Eigen@@CAPEANPEAN_J@Z
	??$add_to_nullable_pointer@N@?$BlockImpl_dense@V?$Matrix@N$02$02$0A@$02$02@Eigen@@$02$00$00$00@internal@Eigen@@CAPEANPEAN_J@Z
	??$add_to_nullable_pointer@N@?$BlockImpl_dense@V?$Matrix@N$02$03$0A@$02$03@Eigen@@$00$02$0A@$00@internal@Eigen@@CAPEANPEAN_J@Z
	??$add_to_nullable_pointer@N@?$BlockImpl_dense@V?$Matrix@N$03$00$0A@$03$00@Eigen@@$02$00$0A@$00@internal@Eigen@@CAPEANPEAN_J@Z
	??$add_to_nullable_pointer@N@?$BlockImpl_dense@V?$Matrix@N$03$00$0A@$03$00@Eigen@@$0?0$00$0A@$00@internal@Eigen@@CAPEANPEAN_J@Z
	??$addressof@$$CBU?$pair@$$CBV?$basic_string@DU?$char_traits@D@std@@V?$allocator@D@2@@std@@V12@@std@@@std@@YAPEBU?$pair@$$CBV?$basic_string@DU?$char_traits@D@std@@V?$allocator@D@2@@std@@V12@@0@AEBU10@@Z
	??$addressof@$$CBV?$_Tree@V?$_Tmap_traits@V?$basic_string@DU?$char_traits@D@std@@V?$allocator@D@2@@std@@V12@U?$less@V?$basic_string@DU?$char_traits@D@std@@V?$allocator@D@2@@std@@@2@V?$allocator@U?$pair@$$CBV?$basic_string@DU?$char_traits@D@std@@V?$allocator@D@2@@std@@V12@@std@@@2@$0A@@std@@@std@@@std@@YAPEBV?$_Tree@V?$_Tmap_traits@V?$basic_string@DU?$char_traits@D@std@@V?$allocator@D@2@@std@@V12@U?$less@V?$basic_string@DU?$char_traits@D@std@@V?$allocator@D@2@@std@@@2@V?$allocator@U?$pair@$$CBV?$basic_string@DU?$char_traits@D@std@@V?$allocator@D@2@@std@@V12@@std@@@2@$0A@@std@@@0@AEBV10@@Z
	??$addressof@$$CBV?$_Tree_val@U?$_Tree_simple_types@H@std@@@std@@@std@@YAPEBV?$_Tree_val@U?$_Tree_simple_types@H@std@@@0@AEBV10@@Z
	??$addressof@$$CBV?$_Tree_val@U?$_Tree_simple_types@U?$pair@$$CBV?$basic_string@DU?$char_traits@D@std@@V?$allocator@D@2@@std@@V12@@std@@@std@@@std@@@std@@YAPEBV?$_Tree_val@U?$_Tree_simple_types@U?$pair@$$CBV?$basic_string@DU?$char_traits@D@std@@V?$allocator@D@2@@std@@V12@@std@@@std@@@0@AEBV10@@Z
	??$addressof@$$CBV?$_Vector_val@U?$_Simple_types@N@std@@@std@@@std@@YAPEBV?$_Vector_val@U?$_Simple_types@N@std@@@0@AEBV10@@Z
	??$addressof@$$CBV?$basic_string@DU?$char_traits@D@std@@V?$allocator@D@2@@std@@@std@@YAPEBV?$basic_string@DU?$char_traits@D@std@@V?$allocator@D@2@@0@AEBV10@@Z
	??$addressof@$$CBV?$codecvt@DDU_Mbstatet@@@std@@@std@@YAPEBV?$codecvt@DDU_Mbstatet@@@0@AEBV10@@Z
	??$addressof@$$CBV?$vector@PEAV?$BindlessTexture2D@M@UtilsCuda@@V?$allocator@PEAV?$BindlessTexture2D@M@UtilsCuda@@@std@@@std@@@std@@YAPEBV?$vector@PEAV?$BindlessTexture2D@M@UtilsCuda@@V?$allocator@PEAV?$BindlessTexture2D@M@UtilsCuda@@@std@@@0@AEBV10@@Z
	??$addressof@$$CBV?$vector@PEAVRadonIntermediate@EpipolarConsistency@@V?$allocator@PEAVRadonIntermediate@EpipolarConsistency@@@std@@@std@@@std@@YAPEBV?$vector@PEAVRadonIntermediate@EpipolarConsistency@@V?$allocator@PEAVRadonIntermediate@EpipolarConsistency@@@std@@@0@AEBV10@@Z
	??$addressof@$$CBV?$vector@V?$Matrix@N$02$03$0A@$02$03@Eigen@@V?$allocator@V?$Matrix@N$02$03$0A@$02$03@Eigen@@@std@@@std@@@std@@YAPEBV?$vector@V?$Matrix@N$02$03$0A@$02$03@Eigen@@V?$allocator@V?$Matrix@N$02$03$0A@$02$03@Eigen@@@std@@@0@AEBV10@@Z
	??$addressof@D@std@@YAPEADAEAD@Z
	??$addressof@H@std@@YAPEAHAEAH@Z
	??$addressof@M@std@@YAPEAMAEAM@Z
	??$addressof@N@std@@YAPEANAEAN@Z
	??$addressof@PEAD@std@@YAPEAPEADAEAPEAD@Z
	??$addressof@PEAU?$_Tree_node@U?$pair@$$CBV?$basic_string@DU?$char_traits@D@std@@V?$allocator@D@2@@std@@V12@@std@@PEAX@std@@@std@@YAPEAPEAU?$_Tree_node@U?$pair@$$CBV?$basic_string@DU?$char_traits@D@std@@V?$allocator@D@2@@std@@V12@@std@@PEAX@0@AEAPEAU10@@Z
	??$addressof@U?$pair@$$CBV?$basic_string@DU?$char_traits@D@std@@V?$allocator@D@2@@std@@V12@@std@@@std@@YAPEAU?$pair@$$CBV?$basic_string@DU?$char_traits@D@std@@V?$allocator@D@2@@std@@V12@@0@AEAU10@@Z
	??$addressof@U?$pair@MM@std@@@std@@YAPEAU?$pair@MM@0@AEAU10@@Z
	??$addressof@V?$Matrix@H$03$00$0A@$03$00@Eigen@@@std@@YAPEAV?$Matrix@H$03$00$0A@$03$00@Eigen@@AEAV12@@Z
	??$addressof@V?$_String_val@U?$_Simple_types@D@std@@@std@@@std@@YAPEAV?$_String_val@U?$_Simple_types@D@std@@@0@AEAV10@@Z
	??$addressof@V?$_Tree_val@U?$_Tree_simple_types@U?$pair@$$CBV?$basic_string@DU?$char_traits@D@std@@V?$allocator@D@2@@std@@V12@@std@@@std@@@std@@@std@@YAPEAV?$_Tree_val@U?$_Tree_simple_types@U?$pair@$$CBV?$basic_string@DU?$char_traits@D@std@@V?$allocator@D@2@@std@@V12@@std@@@std@@@0@AEAV10@@Z
	??$addressof@V?$basic_filebuf@DU?$char_traits@D@std@@@std@@@std@@YAPEAV?$basic_filebuf@DU?$char_traits@D@std@@@0@AEAV10@@Z
	??$addressof@V?$basic_ostream@DU?$char_traits@D@std@@@std@@@std@@YAPEAV?$basic_ostream@DU?$char_traits@D@std@@@0@AEAV10@@Z
	??$addressof@V?$basic_string@DU?$char_traits@D@std@@V?$allocator@D@2@@std@@@std@@YAPEAV?$basic_string@DU?$char_traits@D@std@@V?$allocator@D@2@@0@AEAV10@@Z
	??$addressof@V?$basic_stringbuf@DU?$char_traits@D@std@@V?$allocator@D@2@@std@@@std@@YAPEAV?$basic_stringbuf@DU?$char_traits@D@std@@V?$allocator@D@2@@0@AEAV10@@Z
	??$addressof@V?$vector@HV?$allocator@H@std@@@std@@@std@@YAPEAV?$vector@HV?$allocator@H@std@@@0@AEAV10@@Z
	??$addressof@V?$vector@MV?$allocator@M@std@@@std@@@std@@YAPEAV?$vector@MV?$allocator@M@std@@@0@AEAV10@@Z
	??$addressof@V?$vector@NV?$allocator@N@std@@@std@@@std@@YAPEAV?$vector@NV?$allocator@N@std@@@0@AEAV10@@Z
	??$applyOnTheLeft@N@?$MatrixBase@V?$Matrix@N$01$01$0A@$01$01@Eigen@@@Eigen@@QEAAX_J0AEBV?$JacobiRotation@N@1@@Z
	??$applyOnTheLeft@N@?$MatrixBase@V?$Matrix@N$02$02$0A@$02$02@Eigen@@@Eigen@@QEAAX_J0AEBV?$JacobiRotation@N@1@@Z
	??$applyOnTheRight@N@?$MatrixBase@V?$Matrix@N$02$02$0A@$02$02@Eigen@@@Eigen@@QEAAX_J0AEBV?$JacobiRotation@N@1@@Z
	??$apply_rotation_in_the_plane@V?$Block@V?$Matrix@N$01$01$0A@$01$01@Eigen@@$00$01$0A@@Eigen@@V12@N@internal@Eigen@@YAXAEAV?$DenseBase@V?$Block@V?$Matrix@N$01$01$0A@$01$01@Eigen@@$00$01$0A@@Eigen@@@1@0AEBV?$JacobiRotation@N@1@@Z
	??$apply_rotation_in_the_plane@V?$Block@V?$Matrix@N$02$02$0A@$02$02@Eigen@@$00$02$0A@@Eigen@@V12@N@internal@Eigen@@YAXAEAV?$DenseBase@V?$Block@V?$Matrix@N$02$02$0A@$02$02@Eigen@@$00$02$0A@@Eigen@@@1@0AEBV?$JacobiRotation@N@1@@Z
	??$apply_rotation_in_the_plane@V?$Block@V?$Matrix@N$02$02$0A@$02$02@Eigen@@$02$00$00@Eigen@@V12@N@internal@Eigen@@YAXAEAV?$DenseBase@V?$Block@V?$Matrix@N$02$02$0A@$02$02@Eigen@@$02$00$00@Eigen@@@1@0AEBV?$JacobiRotation@N@1@@Z
	??$assignPacket@$0A@$0A@U__m128d@@@?$generic_dense_assignment_kernel@U?$evaluator@V?$Block@V?$Matrix@N$02$02$0A@$02$02@Eigen@@$02$00$00@Eigen@@@internal@Eigen@@U123@U?$swap_assign_op@N@23@$0A@@internal@Eigen@@QEAAX_J@Z
	??$assignPacket@$0A@$0A@U__m128d@@@?$generic_dense_assignment_kernel@U?$evaluator@V?$Block@V?$Matrix@N$02$02$0A@$02$02@Eigen@@$02$00$00@Eigen@@@internal@Eigen@@U?$evaluator@V?$CwiseUnaryOp@U?$scalar_opposite_op@N@internal@Eigen@@$$CBV?$Block@V?$Matrix@N$02$02$0A@$02$02@Eigen@@$02$00$00@3@@Eigen@@@23@U?$assign_op@NN@23@$0A@@internal@Eigen@@QEAAX_J@Z
	??$assignPacket@$0A@$0A@U__m128d@@@?$generic_dense_assignment_kernel@U?$evaluator@V?$Block@V?$Matrix@N$03$00$0A@$03$00@Eigen@@$0?0$00$0A@@Eigen@@@internal@Eigen@@U?$evaluator@V?$Matrix@N$02$00$0A@$02$00@Eigen@@@23@U?$assign_op@NN@23@$0A@@internal@Eigen@@QEAAX_J@Z
	??$assignPacket@$0A@$0A@U__m128d@@@?$generic_dense_assignment_kernel@U?$evaluator@V?$Matrix@N$02$00$0A@$02$00@Eigen@@@internal@Eigen@@U?$evaluator@V?$Block@V?$Matrix@N$03$00$0A@$03$00@Eigen@@$02$00$0A@@Eigen@@@23@U?$assign_op@NN@23@$0A@@internal@Eigen@@QEAAX_J@Z
	??$assignPacket@$0A@$0A@U__m128d@@@?$generic_dense_assignment_kernel@U?$evaluator@V?$Matrix@N$02$00$0A@$02$00@Eigen@@@internal@Eigen@@U?$evaluator@V?$CwiseBinaryOp@U?$scalar_difference_op@NN@internal@Eigen@@$$CBV?$Matrix@N$02$00$0A@$02$00@3@$$CBV?$CwiseBinaryOp@U?$scalar_product_op@NN@internal@Eigen@@$$CBV?$Matrix@N$02$00$0A@$02$00@3@$$CBV?$CwiseNullaryOp@U?$scalar_constant_op@N@internal@Eigen@@$$CBV?$Matrix@N$02$00$0A@$02$00@3@@3@@3@@Eigen@@@23@U?$add_assign_op@NN@23@$0A@@internal@Eigen@@QEAAX_J@Z
	??$assignPacket@$0A@$0A@U__m128d@@@?$generic_dense_assignment_kernel@U?$evaluator@V?$Matrix@N$02$00$0A@$02$00@Eigen@@@internal@Eigen@@U?$evaluator@V?$CwiseBinaryOp@U?$scalar_quotient_op@NN@internal@Eigen@@$$CBV?$Matrix@N$02$00$0A@$02$00@3@$$CBV?$CwiseNullaryOp@U?$scalar_constant_op@N@internal@Eigen@@$$CBV?$Matrix@N$02$00$0A@$02$00@3@@3@@Eigen@@@23@U?$assign_op@NN@23@$0A@@internal@Eigen@@QEAAX_J@Z
	??$assignPacket@$0A@$0A@U__m128d@@@?$generic_dense_assignment_kernel@U?$evaluator@V?$Matrix@N$02$00$0A@$02$00@Eigen@@@internal@Eigen@@U?$evaluator@V?$CwiseUnaryOp@U?$core_cast_op@MN@internal@Eigen@@$$CBV?$Matrix@M$02$00$0A@$02$00@3@@Eigen@@@23@U?$assign_op@NN@23@$0A@@internal@Eigen@@QEAAX_J@Z
	??$assignPacket@$0A@$0A@U__m128d@@@?$generic_dense_assignment_kernel@U?$evaluator@V?$Matrix@N$02$00$0A@$02$00@Eigen@@@internal@Eigen@@U?$evaluator@V?$Product@V?$Matrix@N$02$03$0A@$02$03@Eigen@@V?$Matrix@N$03$00$0A@$03$00@2@$00@Eigen@@@23@U?$assign_op@NN@23@$0A@@internal@Eigen@@QEAAX_J@Z
	??$assignPacket@$0A@$0A@U__m128d@@@?$generic_dense_assignment_kernel@U?$evaluator@V?$Matrix@N$02$02$0A@$02$02@Eigen@@@internal@Eigen@@U123@U?$sub_assign_op@NN@23@$0A@@internal@Eigen@@QEAAX_J@Z
	??$assignPacket@$0A@$0A@U__m128d@@@?$generic_dense_assignment_kernel@U?$evaluator@V?$Matrix@N$02$02$0A@$02$02@Eigen@@@internal@Eigen@@U?$evaluator@V?$CwiseBinaryOp@U?$scalar_quotient_op@NN@internal@Eigen@@$$CBV?$Block@$$CBV?$Matrix@N$02$02$0A@$02$02@Eigen@@$02$02$0A@@3@$$CBV?$CwiseNullaryOp@U?$scalar_constant_op@N@internal@Eigen@@$$CBV?$Matrix@N$02$02$0A@$02$02@3@@3@@Eigen@@@23@U?$assign_op@NN@23@$0A@@internal@Eigen@@QEAAX_J0@Z
	??$assignPacket@$0A@$0A@U__m128d@@@?$generic_dense_assignment_kernel@U?$evaluator@V?$Matrix@N$02$02$0A@$02$02@Eigen@@@internal@Eigen@@U?$evaluator@V?$Product@V?$Matrix@N$02$00$0A@$02$00@Eigen@@V?$Transpose@V?$Matrix@N$02$00$0A@$02$00@Eigen@@@2@$00@Eigen@@@23@U?$assign_op@NN@23@$0A@@internal@Eigen@@QEAAX_J0@Z
	??$assignPacket@$0A@$0A@U__m128d@@@?$generic_dense_assignment_kernel@U?$evaluator@V?$Matrix@N$02$02$0A@$02$02@Eigen@@@internal@Eigen@@U?$evaluator@V?$Product@V?$Product@V?$Matrix@N$02$03$0A@$02$03@Eigen@@V?$Matrix@N$03$03$0A@$03$03@2@$0A@@Eigen@@V?$Matrix@N$03$02$0A@$03$02@2@$00@Eigen@@@23@U?$assign_op@NN@23@$0A@@internal@Eigen@@QEAAX_J0@Z
	??$assignPacket@$0A@$0A@U__m128d@@@?$generic_dense_assignment_kernel@U?$evaluator@V?$Matrix@N$02$03$0A@$02$03@Eigen@@@internal@Eigen@@U?$evaluator@V?$Product@V?$Matrix@N$02$03$0A@$02$03@Eigen@@V?$Matrix@N$03$03$0A@$03$03@2@$00@Eigen@@@23@U?$assign_op@NN@23@$0A@@internal@Eigen@@QEAAX_J0@Z
	??$assignPacket@$0A@$0A@U__m128d@@@?$generic_dense_assignment_kernel@U?$evaluator@V?$Transpose@V?$Matrix@N$02$00$0A@$02$00@Eigen@@@Eigen@@@internal@Eigen@@U?$evaluator@V?$Matrix@N$00$02$00$00$02@Eigen@@@23@U?$assign_op@NN@23@$0A@@internal@Eigen@@QEAAX_J@Z
	??$assignPacket@$0A@$0BA@U__m128d@@@?$generic_dense_assignment_kernel@U?$evaluator@V?$Block@V?$Matrix@N$02$02$0A@$02$02@Eigen@@$02$00$00@Eigen@@@internal@Eigen@@U?$evaluator@V?$CwiseNullaryOp@U?$scalar_constant_op@N@internal@Eigen@@$$CBV?$Matrix@N$02$00$0A@$02$00@3@@Eigen@@@23@U?$mul_assign_op@NN@23@$0A@@internal@Eigen@@QEAAX_J@Z
	??$assignPacket@$0A@$0BA@U__m128d@@@?$generic_dense_assignment_kernel@U?$evaluator@V?$Matrix@N$02$00$0A@$02$00@Eigen@@@internal@Eigen@@U?$evaluator@V?$CwiseNullaryOp@U?$scalar_constant_op@N@internal@Eigen@@$$CBV?$Matrix@N$02$00$0A@$02$00@3@@Eigen@@@23@U?$div_assign_op@NN@23@$0A@@internal@Eigen@@QEAAX_J@Z
	??$assignPacket@$0A@$0BA@U__m128d@@@?$generic_dense_assignment_kernel@U?$evaluator@V?$Matrix@N$02$00$0A@$02$00@Eigen@@@internal@Eigen@@U?$evaluator@V?$CwiseNullaryOp@U?$scalar_constant_op@N@internal@Eigen@@$$CBV?$Matrix@N$02$00$0A@$02$00@3@@Eigen@@@23@U?$mul_assign_op@NN@23@$0A@@internal@Eigen@@QEAAX_J@Z
	??$assignPacket@$0A@U__m128d@@@?$assign_op@NN@internal@Eigen@@QEBAXPEANAEBU__m128d@@@Z
	??$assignPacket@$0A@U__m128d@@@?$compound_assign_op@NNU?$scalar_difference_op@NN@internal@Eigen@@@internal@Eigen@@QEBAXPEANAEBU__m128d@@@Z
	??$assignPacket@$0A@U__m128d@@@?$compound_assign_op@NNU?$scalar_product_op@NN@internal@Eigen@@@internal@Eigen@@QEBAXPEANAEBU__m128d@@@Z
	??$assignPacket@$0A@U__m128d@@@?$compound_assign_op@NNU?$scalar_quotient_op@NN@internal@Eigen@@@internal@Eigen@@QEBAXPEANAEBU__m128d@@@Z
	??$assignPacket@$0A@U__m128d@@@?$compound_assign_op@NNU?$scalar_sum_op@NN@internal@Eigen@@@internal@Eigen@@QEBAXPEANAEBU__m128d@@@Z
	??$assignPacket@$0BA@$0A@U__m128d@@@?$generic_dense_assignment_kernel@U?$evaluator@V?$Block@V?$Matrix@N$03$00$0A@$03$00@Eigen@@$02$00$0A@@Eigen@@@internal@Eigen@@U?$evaluator@V?$Product@V?$Block@$$CBV?$Matrix@N$02$02$0A@$02$02@Eigen@@$02$0?0$00@Eigen@@V?$Matrix@N$0?0$00$0A@$02$00@2@$00@Eigen@@@23@U?$assign_op@NN@23@$0A@@internal@Eigen@@QEAAX_J@Z
	??$assignPacket@$0BA@$0A@U__m128d@@@?$generic_dense_assignment_kernel@U?$evaluator@V?$Matrix@N$0?0$00$0A@$02$00@Eigen@@@internal@Eigen@@U?$evaluator@V?$Product@V?$DiagonalWrapper@$$CBV?$CwiseUnaryOp@U?$scalar_inverse_op@N@internal@Eigen@@$$CBV?$Block@$$CBV?$Matrix@N$02$00$0A@$02$00@Eigen@@$0?0$00$0A@@3@@Eigen@@@Eigen@@V?$Matrix@N$0?0$00$0A@$02$00@2@$00@Eigen@@@23@U?$assign_op@NN@23@$0A@@internal@Eigen@@QEAAX_J@Z
	??$assignPacket@$0BA@$0BA@T__m128@@@?$generic_dense_assignment_kernel@U?$evaluator@V?$Matrix@M$02$03$00$02$03@Eigen@@@internal@Eigen@@U?$evaluator@V?$CwiseUnaryOp@U?$core_cast_op@NM@internal@Eigen@@$$CBV?$Transpose@V?$Matrix@N$03$02$0A@$03$02@Eigen@@@3@@Eigen@@@23@U?$assign_op@MM@23@$0A@@internal@Eigen@@QEAAX_J0@Z
	??$assignPacket@$0BA@$0BA@T__m128@@@?$generic_dense_assignment_kernel@U?$evaluator@V?$Matrix@M$03$00$0A@$03$00@Eigen@@@internal@Eigen@@U?$evaluator@V?$CwiseUnaryOp@U?$core_cast_op@NM@internal@Eigen@@$$CBV?$Matrix@N$03$00$0A@$03$00@3@@Eigen@@@23@U?$assign_op@MM@23@$0A@@internal@Eigen@@QEAAX_J0@Z
	??$assignPacket@$0BA@$0BA@U__m128d@@@?$generic_dense_assignment_kernel@U?$evaluator@V?$Matrix@N$02$03$00$02$03@Eigen@@@internal@Eigen@@U?$evaluator@V?$Transpose@V?$Matrix@N$03$02$0A@$03$02@Eigen@@@Eigen@@@23@U?$assign_op@NN@23@$0A@@internal@Eigen@@QEAAX_J0@Z
	??$assignPacket@$0BA@$0BA@U__m128d@@@?$generic_dense_assignment_kernel@U?$evaluator@V?$Matrix@N$02$03$0A@$02$03@Eigen@@@internal@Eigen@@U123@U?$assign_op@NN@23@$0A@@internal@Eigen@@QEAAX_J@Z
	??$assignPacket@$0BA@$0BA@U__m128d@@@?$generic_dense_assignment_kernel@U?$evaluator@V?$Matrix@N$03$00$0A@$03$00@Eigen@@@internal@Eigen@@U?$evaluator@V?$CwiseBinaryOp@U?$scalar_sum_op@NN@internal@Eigen@@$$CBV?$CwiseBinaryOp@U?$scalar_product_op@NN@internal@Eigen@@$$CBV?$CwiseNullaryOp@U?$scalar_constant_op@N@internal@Eigen@@$$CBV?$Matrix@N$03$00$0A@$03$00@3@@3@$$CBV?$Matrix@N$03$00$0A@$03$00@3@@3@$$CBV43@@Eigen@@@23@U?$assign_op@NN@23@$0A@@internal@Eigen@@QEAAX_J0@Z
	??$assignPacket@$0BA@$0BA@U__m128d@@@?$generic_dense_assignment_kernel@U?$evaluator@V?$Matrix@N$03$00$0A@$03$00@Eigen@@@internal@Eigen@@U?$evaluator@V?$CwiseNullaryOp@U?$scalar_constant_op@N@internal@Eigen@@$$CBV?$Matrix@N$03$00$0A@$03$00@3@@Eigen@@@23@U?$div_assign_op@NN@23@$0A@@internal@Eigen@@QEAAX_J0@Z
	??$assignPacket@$0BA@T__m128@@@?$assign_op@MM@internal@Eigen@@QEBAXPEAMAEBT__m128@@@Z
	??$assignPacket@$0BA@U__m128d@@@?$assign_op@NN@internal@Eigen@@QEBAXPEANAEBU__m128d@@@Z
	??$assignPacket@$0BA@U__m128d@@@?$compound_assign_op@NNU?$scalar_quotient_op@NN@internal@Eigen@@@internal@Eigen@@QEBAXPEANAEBU__m128d@@@Z
	??$assignPacketByOuterInner@$0A@$0A@U__m128d@@@?$generic_dense_assignment_kernel@U?$evaluator@V?$Matrix@N$02$02$0A@$02$02@Eigen@@@internal@Eigen@@U?$evaluator@V?$CwiseBinaryOp@U?$scalar_quotient_op@NN@internal@Eigen@@$$CBV?$Block@$$CBV?$Matrix@N$02$02$0A@$02$02@Eigen@@$02$02$0A@@3@$$CBV?$CwiseNullaryOp@U?$scalar_constant_op@N@internal@Eigen@@$$CBV?$Matrix@N$02$02$0A@$02$02@3@@3@@Eigen@@@23@U?$assign_op@NN@23@$0A@@internal@Eigen@@QEAAX_J0@Z
	??$assignPacketByOuterInner@$0A@$0A@U__m128d@@@?$generic_dense_assignment_kernel@U?$evaluator@V?$Matrix@N$02$02$0A@$02$02@Eigen@@@internal@Eigen@@U?$evaluator@V?$Product@V?$Matrix@N$02$00$0A@$02$00@Eigen@@V?$Transpose@V?$Matrix@N$02$00$0A@$02$00@Eigen@@@2@$00@Eigen@@@23@U?$assign_op@NN@23@$0A@@internal@Eigen@@QEAAX_J0@Z
	??$assignPacketByOuterInner@$0A@$0A@U__m128d@@@?$generic_dense_assignment_kernel@U?$evaluator@V?$Matrix@N$02$02$0A@$02$02@Eigen@@@internal@Eigen@@U?$evaluator@V?$Product@V?$Product@V?$Matrix@N$02$03$0A@$02$03@Eigen@@V?$Matrix@N$03$03$0A@$03$03@2@$0A@@Eigen@@V?$Matrix@N$03$02$0A@$03$02@2@$00@Eigen@@@23@U?$assign_op@NN@23@$0A@@internal@Eigen@@QEAAX_J0@Z
	??$assignPacketByOuterInner@$0A@$0A@U__m128d@@@?$generic_dense_assignment_kernel@U?$evaluator@V?$Matrix@N$02$03$0A@$02$03@Eigen@@@internal@Eigen@@U?$evaluator@V?$Product@V?$Matrix@N$02$03$0A@$02$03@Eigen@@V?$Matrix@N$03$03$0A@$03$03@2@$00@Eigen@@@23@U?$assign_op@NN@23@$0A@@internal@Eigen@@QEAAX_J0@Z
	??$assignPacketByOuterInner@$0BA@$0BA@T__m128@@@?$generic_dense_assignment_kernel@U?$evaluator@V?$Matrix@M$02$03$00$02$03@Eigen@@@internal@Eigen@@U?$evaluator@V?$CwiseUnaryOp@U?$core_cast_op@NM@internal@Eigen@@$$CBV?$Transpose@V?$Matrix@N$03$02$0A@$03$02@Eigen@@@3@@Eigen@@@23@U?$assign_op@MM@23@$0A@@internal@Eigen@@QEAAX_J0@Z
	??$assignPacketByOuterInner@$0BA@$0BA@T__m128@@@?$generic_dense_assignment_kernel@U?$evaluator@V?$Matrix@M$03$00$0A@$03$00@Eigen@@@internal@Eigen@@U?$evaluator@V?$CwiseUnaryOp@U?$core_cast_op@NM@internal@Eigen@@$$CBV?$Matrix@N$03$00$0A@$03$00@3@@Eigen@@@23@U?$assign_op@MM@23@$0A@@internal@Eigen@@QEAAX_J0@Z
	??$assignPacketByOuterInner@$0BA@$0BA@U__m128d@@@?$generic_dense_assignment_kernel@U?$evaluator@V?$Matrix@N$02$03$00$02$03@Eigen@@@internal@Eigen@@U?$evaluator@V?$Transpose@V?$Matrix@N$03$02$0A@$03$02@Eigen@@@Eigen@@@23@U?$assign_op@NN@23@$0A@@internal@Eigen@@QEAAX_J0@Z
	??$assignPacketByOuterInner@$0BA@$0BA@U__m128d@@@?$generic_dense_assignment_kernel@U?$evaluator@V?$Matrix@N$03$00$0A@$03$00@Eigen@@@internal@Eigen@@U?$evaluator@V?$CwiseBinaryOp@U?$scalar_sum_op@NN@internal@Eigen@@$$CBV?$CwiseBinaryOp@U?$scalar_product_op@NN@internal@Eigen@@$$CBV?$CwiseNullaryOp@U?$scalar_constant_op@N@internal@Eigen@@$$CBV?$Matrix@N$03$00$0A@$03$00@3@@3@$$CBV?$Matrix@N$03$00$0A@$03$00@3@@3@$$CBV43@@Eigen@@@23@U?$assign_op@NN@23@$0A@@internal@Eigen@@QEAAX_J0@Z
	??$assignPacketByOuterInner@$0BA@$0BA@U__m128d@@@?$generic_dense_assignment_kernel@U?$evaluator@V?$Matrix@N$03$00$0A@$03$00@Eigen@@@internal@Eigen@@U?$evaluator@V?$CwiseNullaryOp@U?$scalar_constant_op@N@internal@Eigen@@$$CBV?$Matrix@N$03$00$0A@$03$00@3@@Eigen@@@23@U?$div_assign_op@NN@23@$0A@@internal@Eigen@@QEAAX_J0@Z
	??$block@$00$02@?$DenseBase@V?$Matrix@N$02$03$0A@$02$03@Eigen@@@Eigen@@QEAA?AV?$Block@V?$Matrix@N$02$03$0A@$02$03@Eigen@@$00$02$0A@@1@_J0@Z
	??$block@$00$02@?$DenseBase@V?$Matrix@N$02$03$0A@$02$03@Eigen@@@Eigen@@QEBA?BV?$Block@$$CBV?$Matrix@N$02$03$0A@$02$03@Eigen@@$00$02$0A@@1@_J0@Z
	??$block@$02$00@?$DenseBase@V?$Matrix@N$03$00$0A@$03$00@Eigen@@@Eigen@@QEAA?AV?$Block@V?$Matrix@N$03$00$0A@$03$00@Eigen@@$02$00$0A@@1@_J0@Z
	??$call_assignment@V?$Block@V?$Matrix@N$02$02$0A@$02$02@Eigen@@$02$00$00@Eigen@@V12@U?$swap_assign_op@N@internal@2@@internal@Eigen@@YAXAEAV?$Block@V?$Matrix@N$02$02$0A@$02$02@Eigen@@$02$00$00@1@AEBV21@AEBU?$swap_assign_op@N@01@PEAX@Z
	??$call_assignment@V?$Block@V?$Matrix@N$02$02$0A@$02$02@Eigen@@$02$00$00@Eigen@@V?$CwiseNullaryOp@U?$scalar_constant_op@N@internal@Eigen@@$$CBV?$Matrix@N$02$00$0A@$02$00@3@@2@U?$mul_assign_op@NN@internal@2@@internal@Eigen@@YAXAEAV?$Block@V?$Matrix@N$02$02$0A@$02$02@Eigen@@$02$00$00@1@AEBV?$CwiseNullaryOp@U?$scalar_constant_op@N@internal@Eigen@@$$CBV?$Matrix@N$02$00$0A@$02$00@3@@1@AEBU?$mul_assign_op@NN@01@PEAX@Z
	??$call_assignment@V?$Block@V?$Matrix@N$02$02$0A@$02$02@Eigen@@$02$00$00@Eigen@@V?$CwiseUnaryOp@U?$scalar_opposite_op@N@internal@Eigen@@$$CBV?$Block@V?$Matrix@N$02$02$0A@$02$02@Eigen@@$02$00$00@3@@2@@internal@Eigen@@YAXAEAV?$Block@V?$Matrix@N$02$02$0A@$02$02@Eigen@@$02$00$00@1@AEBV?$CwiseUnaryOp@U?$scalar_opposite_op@N@internal@Eigen@@$$CBV?$Block@V?$Matrix@N$02$02$0A@$02$02@Eigen@@$02$00$00@3@@1@@Z
	??$call_assignment@V?$Block@V?$Matrix@N$02$02$0A@$02$02@Eigen@@$02$00$00@Eigen@@V?$CwiseUnaryOp@U?$scalar_opposite_op@N@internal@Eigen@@$$CBV?$Block@V?$Matrix@N$02$02$0A@$02$02@Eigen@@$02$00$00@3@@2@U?$assign_op@NN@internal@2@@internal@Eigen@@YAXAEAV?$Block@V?$Matrix@N$02$02$0A@$02$02@Eigen@@$02$00$00@1@AEBV?$CwiseUnaryOp@U?$scalar_opposite_op@N@internal@Eigen@@$$CBV?$Block@V?$Matrix@N$02$02$0A@$02$02@Eigen@@$02$00$00@3@@1@AEBU?$assign_op@NN@01@PEAX@Z
	??$call_assignment@V?$Block@V?$Matrix@N$02$03$0A@$02$03@Eigen@@$00$02$0A@@Eigen@@V?$Transpose@V?$Matrix@N$02$00$0A@$02$00@Eigen@@@2@@internal@Eigen@@YAXAEAV?$Block@V?$Matrix@N$02$03$0A@$02$03@Eigen@@$00$02$0A@@1@AEBV?$Transpose@V?$Matrix@N$02$00$0A@$02$00@Eigen@@@1@@Z
	??$call_assignment@V?$Block@V?$Matrix@N$02$03$0A@$02$03@Eigen@@$00$02$0A@@Eigen@@V?$Transpose@V?$Matrix@N$02$00$0A@$02$00@Eigen@@@2@U?$assign_op@NN@internal@2@@internal@Eigen@@YAXAEAV?$Block@V?$Matrix@N$02$03$0A@$02$03@Eigen@@$00$02$0A@@1@AEBV?$Transpose@V?$Matrix@N$02$00$0A@$02$00@Eigen@@@1@AEBU?$assign_op@NN@01@PEAX@Z
	??$call_assignment@V?$Block@V?$Matrix@N$03$00$0A@$03$00@Eigen@@$02$00$0A@@Eigen@@V?$Solve@V?$SVDBase@V?$JacobiSVD@V?$Matrix@N$02$02$0A@$02$02@Eigen@@$0A@@Eigen@@@Eigen@@V?$Matrix@N$02$00$0A@$02$00@2@@2@@internal@Eigen@@YAXAEAV?$Block@V?$Matrix@N$03$00$0A@$03$00@Eigen@@$02$00$0A@@1@AEBV?$Solve@V?$SVDBase@V?$JacobiSVD@V?$Matrix@N$02$02$0A@$02$02@Eigen@@$0A@@Eigen@@@Eigen@@V?$Matrix@N$02$00$0A@$02$00@2@@1@@Z
	??$call_assignment@V?$Block@V?$Matrix@N$03$00$0A@$03$00@Eigen@@$02$00$0A@@Eigen@@V?$Solve@V?$SVDBase@V?$JacobiSVD@V?$Matrix@N$02$02$0A@$02$02@Eigen@@$0A@@Eigen@@@Eigen@@V?$Matrix@N$02$00$0A@$02$00@2@@2@U?$assign_op@NN@internal@2@@internal@Eigen@@YAXAEAV?$Block@V?$Matrix@N$03$00$0A@$03$00@Eigen@@$02$00$0A@@1@AEBV?$Solve@V?$SVDBase@V?$JacobiSVD@V?$Matrix@N$02$02$0A@$02$02@Eigen@@$0A@@Eigen@@@Eigen@@V?$Matrix@N$02$00$0A@$02$00@2@@1@AEBU?$assign_op@NN@01@PEAX@Z
	??$call_assignment@V?$Block@V?$Matrix@N$03$00$0A@$03$00@Eigen@@$0?0$00$0A@@Eigen@@V?$Matrix@N$02$00$0A@$02$00@2@@internal@Eigen@@YAXAEAV?$Block@V?$Matrix@N$03$00$0A@$03$00@Eigen@@$0?0$00$0A@@1@AEBV?$Matrix@N$02$00$0A@$02$00@1@@Z
	??$call_assignment@V?$Block@V?$Matrix@N$03$00$0A@$03$00@Eigen@@$0?0$00$0A@@Eigen@@V?$Matrix@N$02$00$0A@$02$00@2@U?$assign_op@NN@internal@2@@internal@Eigen@@YAXAEAV?$Block@V?$Matrix@N$03$00$0A@$03$00@Eigen@@$0?0$00$0A@@1@AEBV?$Matrix@N$02$00$0A@$02$00@1@AEBU?$assign_op@NN@01@PEAX@Z
	??$call_assignment@V?$Diagonal@V?$Matrix@N$02$02$0A@$02$02@Eigen@@$0A@@Eigen@@V?$Matrix@N$02$00$0A@$02$00@2@@internal@Eigen@@YAXAEAV?$Diagonal@V?$Matrix@N$02$02$0A@$02$02@Eigen@@$0A@@1@AEBV?$Matrix@N$02$00$0A@$02$00@1@@Z
	??$call_assignment@V?$Diagonal@V?$Matrix@N$02$02$0A@$02$02@Eigen@@$0A@@Eigen@@V?$Matrix@N$02$00$0A@$02$00@2@U?$assign_op@NN@internal@2@@internal@Eigen@@YAXAEAV?$Diagonal@V?$Matrix@N$02$02$0A@$02$02@Eigen@@$0A@@1@AEBV?$Matrix@N$02$00$0A@$02$00@1@AEBU?$assign_op@NN@01@PEAX@Z
	??$call_assignment@V?$Matrix@M$02$00$0A@$02$00@Eigen@@V?$CwiseUnaryOp@U?$core_cast_op@NM@internal@Eigen@@$$CBV?$Matrix@N$02$00$0A@$02$00@3@@2@@internal@Eigen@@YAXAEAV?$Matrix@M$02$00$0A@$02$00@1@AEBV?$CwiseUnaryOp@U?$core_cast_op@NM@internal@Eigen@@$$CBV?$Matrix@N$02$00$0A@$02$00@3@@1@@Z
	??$call_assignment@V?$Matrix@M$02$00$0A@$02$00@Eigen@@V?$CwiseUnaryOp@U?$core_cast_op@NM@internal@Eigen@@$$CBV?$Matrix@N$02$00$0A@$02$00@3@@2@U?$assign_op@MM@internal@2@@internal@Eigen@@YAXAEAV?$Matrix@M$02$00$0A@$02$00@1@AEBV?$CwiseUnaryOp@U?$core_cast_op@NM@internal@Eigen@@$$CBV?$Matrix@N$02$00$0A@$02$00@3@@1@AEBU?$assign_op@MM@01@PEAX@Z
	??$call_assignment@V?$Matrix@N$02$00$0A@$02$00@Eigen@@V?$CwiseBinaryOp@U?$scalar_difference_op@NN@internal@Eigen@@$$CBV?$Matrix@N$02$00$0A@$02$00@3@$$CBV?$CwiseBinaryOp@U?$scalar_product_op@NN@internal@Eigen@@$$CBV?$Matrix@N$02$00$0A@$02$00@3@$$CBV?$CwiseNullaryOp@U?$scalar_constant_op@N@internal@Eigen@@$$CBV?$Matrix@N$02$00$0A@$02$00@3@@3@@3@@2@U?$add_assign_op@NN@internal@2@@internal@Eigen@@YAXAEAV?$Matrix@N$02$00$0A@$02$00@1@AEBV?$CwiseBinaryOp@U?$scalar_difference_op@NN@internal@Eigen@@$$CBV?$Matrix@N$02$00$0A@$02$00@3@$$CBV?$CwiseBinaryOp@U?$scalar_product_op@NN@internal@Eigen@@$$CBV?$Matrix@N$02$00$0A@$02$00@3@$$CBV?$CwiseNullaryOp@U?$scalar_constant_op@N@internal@Eigen@@$$CBV?$Matrix@N$02$00$0A@$02$00@3@@3@@3@@1@AEBU?$add_assign_op@NN@01@PEAX@Z
	??$call_assignment@V?$Matrix@N$02$00$0A@$02$00@Eigen@@V?$CwiseNullaryOp@U?$scalar_constant_op@N@internal@Eigen@@$$CBV?$Matrix@N$02$00$0A@$02$00@3@@2@U?$div_assign_op@NN@internal@2@@internal@Eigen@@YAXAEAV?$Matrix@N$02$00$0A@$02$00@1@AEBV?$CwiseNullaryOp@U?$scalar_constant_op@N@internal@Eigen@@$$CBV?$Matrix@N$02$00$0A@$02$00@3@@1@AEBU?$div_assign_op@NN@01@PEAX@Z
	??$call_assignment@V?$Matrix@N$02$00$0A@$02$00@Eigen@@V?$CwiseNullaryOp@U?$scalar_constant_op@N@internal@Eigen@@$$CBV?$Matrix@N$02$00$0A@$02$00@3@@2@U?$mul_assign_op@NN@internal@2@@internal@Eigen@@YAXAEAV?$Matrix@N$02$00$0A@$02$00@1@AEBV?$CwiseNullaryOp@U?$scalar_constant_op@N@internal@Eigen@@$$CBV?$Matrix@N$02$00$0A@$02$00@3@@1@AEBU?$mul_assign_op@NN@01@PEAX@Z
	??$call_assignment@V?$Matrix@N$02$02$0A@$02$02@Eigen@@V?$CwiseBinaryOp@U?$scalar_quotient_op@NN@internal@Eigen@@$$CBV?$Block@$$CBV?$Matrix@N$02$02$0A@$02$02@Eigen@@$02$02$0A@@3@$$CBV?$CwiseNullaryOp@U?$scalar_constant_op@N@internal@Eigen@@$$CBV?$Matrix@N$02$02$0A@$02$02@3@@3@@2@@internal@Eigen@@YAXAEAV?$Matrix@N$02$02$0A@$02$02@1@AEBV?$CwiseBinaryOp@U?$scalar_quotient_op@NN@internal@Eigen@@$$CBV?$Block@$$CBV?$Matrix@N$02$02$0A@$02$02@Eigen@@$02$02$0A@@3@$$CBV?$CwiseNullaryOp@U?$scalar_constant_op@N@internal@Eigen@@$$CBV?$Matrix@N$02$02$0A@$02$02@3@@3@@1@@Z
	??$call_assignment@V?$Matrix@N$02$02$0A@$02$02@Eigen@@V?$CwiseBinaryOp@U?$scalar_quotient_op@NN@internal@Eigen@@$$CBV?$Block@$$CBV?$Matrix@N$02$02$0A@$02$02@Eigen@@$02$02$0A@@3@$$CBV?$CwiseNullaryOp@U?$scalar_constant_op@N@internal@Eigen@@$$CBV?$Matrix@N$02$02$0A@$02$02@3@@3@@2@U?$assign_op@NN@internal@2@@internal@Eigen@@YAXAEAV?$Matrix@N$02$02$0A@$02$02@1@AEBV?$CwiseBinaryOp@U?$scalar_quotient_op@NN@internal@Eigen@@$$CBV?$Block@$$CBV?$Matrix@N$02$02$0A@$02$02@Eigen@@$02$02$0A@@3@$$CBV?$CwiseNullaryOp@U?$scalar_constant_op@N@internal@Eigen@@$$CBV?$Matrix@N$02$02$0A@$02$02@3@@3@@1@AEBU?$assign_op@NN@01@PEAX@Z
	??$call_assignment@V?$Matrix@N$02$02$0A@$02$02@Eigen@@V?$CwiseNullaryOp@U?$scalar_identity_op@N@internal@Eigen@@V?$Matrix@N$02$02$0A@$02$02@3@@2@@internal@Eigen@@YAXAEAV?$Matrix@N$02$02$0A@$02$02@1@AEBV?$CwiseNullaryOp@U?$scalar_identity_op@N@internal@Eigen@@V?$Matrix@N$02$02$0A@$02$02@3@@1@@Z
	??$call_assignment@V?$Matrix@N$02$02$0A@$02$02@Eigen@@V?$CwiseNullaryOp@U?$scalar_identity_op@N@internal@Eigen@@V?$Matrix@N$02$02$0A@$02$02@3@@2@U?$assign_op@NN@internal@2@@internal@Eigen@@YAXAEAV?$Matrix@N$02$02$0A@$02$02@1@AEBV?$CwiseNullaryOp@U?$scalar_identity_op@N@internal@Eigen@@V?$Matrix@N$02$02$0A@$02$02@3@@1@AEBU?$assign_op@NN@01@PEAX@Z
	??$call_assignment@V?$Matrix@N$02$02$0A@$02$02@Eigen@@V?$DiagonalWrapper@$$CBV?$Matrix@N$02$00$0A@$02$00@Eigen@@@2@@internal@Eigen@@YAXAEAV?$Matrix@N$02$02$0A@$02$02@1@AEBV?$DiagonalWrapper@$$CBV?$Matrix@N$02$00$0A@$02$00@Eigen@@@1@@Z
	??$call_assignment@V?$Matrix@N$02$02$0A@$02$02@Eigen@@V?$DiagonalWrapper@$$CBV?$Matrix@N$02$00$0A@$02$00@Eigen@@@2@U?$assign_op@NN@internal@2@@internal@Eigen@@YAXAEAV?$Matrix@N$02$02$0A@$02$02@1@AEBV?$DiagonalWrapper@$$CBV?$Matrix@N$02$00$0A@$02$00@Eigen@@@1@AEBU?$assign_op@NN@01@PEAX@Z
	??$call_assignment@V?$Matrix@N$02$02$0A@$02$02@Eigen@@V?$Product@V?$Matrix@N$02$00$0A@$02$00@Eigen@@V?$Transpose@V?$Matrix@N$02$00$0A@$02$00@Eigen@@@2@$0A@@2@U?$sub_assign_op@NN@internal@2@@internal@Eigen@@YAXAEAV?$Matrix@N$02$02$0A@$02$02@1@AEBV?$Product@V?$Matrix@N$02$00$0A@$02$00@Eigen@@V?$Transpose@V?$Matrix@N$02$00$0A@$02$00@Eigen@@@2@$0A@@1@AEBU?$sub_assign_op@NN@01@PEAX@Z
	??$call_assignment@V?$Matrix@N$02$03$0A@$02$03@Eigen@@V12@@internal@Eigen@@YAXAEAV?$Matrix@N$02$03$0A@$02$03@1@AEBV21@@Z
	??$call_assignment@V?$Matrix@N$02$03$0A@$02$03@Eigen@@V12@U?$assign_op@NN@internal@2@@internal@Eigen@@YAXAEAV?$Matrix@N$02$03$0A@$02$03@1@AEBV21@AEBU?$assign_op@NN@01@PEAX@Z
	??$call_assignment@V?$Matrix@N$03$00$0A@$03$00@Eigen@@V?$CwiseNullaryOp@U?$scalar_constant_op@N@internal@Eigen@@$$CBV?$Matrix@N$03$00$0A@$03$00@3@@2@U?$div_assign_op@NN@internal@2@@internal@Eigen@@YAXAEAV?$Matrix@N$03$00$0A@$03$00@1@AEBV?$CwiseNullaryOp@U?$scalar_constant_op@N@internal@Eigen@@$$CBV?$Matrix@N$03$00$0A@$03$00@3@@1@AEBU?$div_assign_op@NN@01@PEAX@Z
	??$call_assignment@V?$Matrix@N$0?0$00$0A@$02$00@Eigen@@V?$Product@V?$DiagonalWrapper@$$CBV?$CwiseUnaryOp@U?$scalar_inverse_op@N@internal@Eigen@@$$CBV?$Block@$$CBV?$Matrix@N$02$00$0A@$02$00@Eigen@@$0?0$00$0A@@3@@Eigen@@@Eigen@@V?$Matrix@N$0?0$00$0A@$02$00@2@$00@2@@internal@Eigen@@YAXAEAV?$Matrix@N$0?0$00$0A@$02$00@1@AEBV?$Product@V?$DiagonalWrapper@$$CBV?$CwiseUnaryOp@U?$scalar_inverse_op@N@internal@Eigen@@$$CBV?$Block@$$CBV?$Matrix@N$02$00$0A@$02$00@Eigen@@$0?0$00$0A@@3@@Eigen@@@Eigen@@V?$Matrix@N$0?0$00$0A@$02$00@2@$00@1@@Z
	??$call_assignment@V?$Matrix@N$0?0$00$0A@$02$00@Eigen@@V?$Product@V?$DiagonalWrapper@$$CBV?$CwiseUnaryOp@U?$scalar_inverse_op@N@internal@Eigen@@$$CBV?$Block@$$CBV?$Matrix@N$02$00$0A@$02$00@Eigen@@$0?0$00$0A@@3@@Eigen@@@Eigen@@V?$Matrix@N$0?0$00$0A@$02$00@2@$00@2@U?$assign_op@NN@internal@2@@internal@Eigen@@YAXAEAV?$Matrix@N$0?0$00$0A@$02$00@1@AEBV?$Product@V?$DiagonalWrapper@$$CBV?$CwiseUnaryOp@U?$scalar_inverse_op@N@internal@Eigen@@$$CBV?$Block@$$CBV?$Matrix@N$02$00$0A@$02$00@Eigen@@$0?0$00$0A@@3@@Eigen@@@Eigen@@V?$Matrix@N$0?0$00$0A@$02$00@2@$00@1@AEBU?$assign_op@NN@01@PEAX@Z
	??$call_assignment_no_alias@V?$Block@V?$Matrix@N$02$02$0A@$02$02@Eigen@@$02$00$00@Eigen@@V12@U?$swap_assign_op@N@internal@2@@internal@Eigen@@YAXAEAV?$Block@V?$Matrix@N$02$02$0A@$02$02@Eigen@@$02$00$00@1@AEBV21@AEBU?$swap_assign_op@N@01@@Z
	??$call_assignment_no_alias@V?$Block@V?$Matrix@N$02$02$0A@$02$02@Eigen@@$02$00$00@Eigen@@V?$CwiseNullaryOp@U?$scalar_constant_op@N@internal@Eigen@@$$CBV?$Matrix@N$02$00$0A@$02$00@3@@2@U?$mul_assign_op@NN@internal@2@@internal@Eigen@@YAXAEAV?$Block@V?$Matrix@N$02$02$0A@$02$02@Eigen@@$02$00$00@1@AEBV?$CwiseNullaryOp@U?$scalar_constant_op@N@internal@Eigen@@$$CBV?$Matrix@N$02$00$0A@$02$00@3@@1@AEBU?$mul_assign_op@NN@01@@Z
	??$call_assignment_no_alias@V?$Block@V?$Matrix@N$02$02$0A@$02$02@Eigen@@$02$00$00@Eigen@@V?$CwiseUnaryOp@U?$scalar_opposite_op@N@internal@Eigen@@$$CBV?$Block@V?$Matrix@N$02$02$0A@$02$02@Eigen@@$02$00$00@3@@2@U?$assign_op@NN@internal@2@@internal@Eigen@@YAXAEAV?$Block@V?$Matrix@N$02$02$0A@$02$02@Eigen@@$02$00$00@1@AEBV?$CwiseUnaryOp@U?$scalar_opposite_op@N@internal@Eigen@@$$CBV?$Block@V?$Matrix@N$02$02$0A@$02$02@Eigen@@$02$00$00@3@@1@AEBU?$assign_op@NN@01@@Z
	??$call_assignment_no_alias@V?$Block@V?$Matrix@N$02$03$0A@$02$03@Eigen@@$00$02$0A@@Eigen@@V?$Transpose@V?$Matrix@N$02$00$0A@$02$00@Eigen@@@2@U?$assign_op@NN@internal@2@@internal@Eigen@@YAXAEAV?$Block@V?$Matrix@N$02$03$0A@$02$03@Eigen@@$00$02$0A@@1@AEBV?$Transpose@V?$Matrix@N$02$00$0A@$02$00@Eigen@@@1@AEBU?$assign_op@NN@01@@Z
	??$call_assignment_no_alias@V?$Block@V?$Matrix@N$03$00$0A@$03$00@Eigen@@$02$00$0A@@Eigen@@V?$Product@V?$Block@$$CBV?$Matrix@N$02$02$0A@$02$02@Eigen@@$02$0?0$00@Eigen@@V?$Matrix@N$0?0$00$0A@$02$00@2@$00@2@U?$assign_op@NN@internal@2@@internal@Eigen@@YAXAEAV?$Block@V?$Matrix@N$03$00$0A@$03$00@Eigen@@$02$00$0A@@1@AEBV?$Product@V?$Block@$$CBV?$Matrix@N$02$02$0A@$02$02@Eigen@@$02$0?0$00@Eigen@@V?$Matrix@N$0?0$00$0A@$02$00@2@$00@1@AEBU?$assign_op@NN@01@@Z
	??$call_assignment_no_alias@V?$Block@V?$Matrix@N$03$00$0A@$03$00@Eigen@@$02$00$0A@@Eigen@@V?$Product@V?$Block@$$CBV?$Matrix@N$02$02$0A@$02$02@Eigen@@$02$0?0$00@Eigen@@V?$Matrix@N$0?0$00$0A@$02$00@2@$0A@@2@U?$assign_op@NN@internal@2@@internal@Eigen@@YAXAEAV?$Block@V?$Matrix@N$03$00$0A@$03$00@Eigen@@$02$00$0A@@1@AEBV?$Product@V?$Block@$$CBV?$Matrix@N$02$02$0A@$02$02@Eigen@@$02$0?0$00@Eigen@@V?$Matrix@N$0?0$00$0A@$02$00@2@$0A@@1@AEBU?$assign_op@NN@01@@Z
	??$call_assignment_no_alias@V?$Block@V?$Matrix@N$03$00$0A@$03$00@Eigen@@$02$00$0A@@Eigen@@V?$Solve@V?$SVDBase@V?$JacobiSVD@V?$Matrix@N$02$02$0A@$02$02@Eigen@@$0A@@Eigen@@@Eigen@@V?$Matrix@N$02$00$0A@$02$00@2@@2@U?$assign_op@NN@internal@2@@internal@Eigen@@YAXAEAV?$Block@V?$Matrix@N$03$00$0A@$03$00@Eigen@@$02$00$0A@@1@AEBV?$Solve@V?$SVDBase@V?$JacobiSVD@V?$Matrix@N$02$02$0A@$02$02@Eigen@@$0A@@Eigen@@@Eigen@@V?$Matrix@N$02$00$0A@$02$00@2@@1@AEBU?$assign_op@NN@01@@Z
	??$call_assignment_no_alias@V?$Block@V?$Matrix@N$03$00$0A@$03$00@Eigen@@$0?0$00$0A@@Eigen@@V?$Matrix@N$02$00$0A@$02$00@2@U?$assign_op@NN@internal@2@@internal@Eigen@@YAXAEAV?$Block@V?$Matrix@N$03$00$0A@$03$00@Eigen@@$0?0$00$0A@@1@AEBV?$Matrix@N$02$00$0A@$02$00@1@AEBU?$assign_op@NN@01@@Z
	??$call_assignment_no_alias@V?$Diagonal@V?$Matrix@N$02$02$0A@$02$02@Eigen@@$0A@@Eigen@@V?$Matrix@N$02$00$0A@$02$00@2@U?$assign_op@NN@internal@2@@internal@Eigen@@YAXAEAV?$Diagonal@V?$Matrix@N$02$02$0A@$02$02@Eigen@@$0A@@1@AEBV?$Matrix@N$02$00$0A@$02$00@1@AEBU?$assign_op@NN@01@@Z
	??$call_assignment_no_alias@V?$Matrix@M$02$00$0A@$02$00@Eigen@@V?$CwiseUnaryOp@U?$core_cast_op@NM@internal@Eigen@@$$CBV?$Matrix@N$02$00$0A@$02$00@3@@2@U?$assign_op@MM@internal@2@@internal@Eigen@@YAXAEAV?$Matrix@M$02$00$0A@$02$00@1@AEBV?$CwiseUnaryOp@U?$core_cast_op@NM@internal@Eigen@@$$CBV?$Matrix@N$02$00$0A@$02$00@3@@1@AEBU?$assign_op@MM@01@@Z
	??$call_assignment_no_alias@V?$Matrix@M$02$03$00$02$03@Eigen@@V?$CwiseUnaryOp@U?$core_cast_op@NM@internal@Eigen@@$$CBV?$Transpose@V?$Matrix@N$03$02$0A@$03$02@Eigen@@@3@@2@U?$assign_op@MM@internal@2@@internal@Eigen@@YAXAEAV?$Matrix@M$02$03$00$02$03@1@AEBV?$CwiseUnaryOp@U?$core_cast_op@NM@internal@Eigen@@$$CBV?$Transpose@V?$Matrix@N$03$02$0A@$03$02@Eigen@@@3@@1@AEBU?$assign_op@MM@01@@Z
	??$call_assignment_no_alias@V?$Matrix@M$02$03$0A@$02$03@Eigen@@V?$Matrix@M$02$03$00$02$03@2@U?$assign_op@MM@internal@2@@internal@Eigen@@YAXAEAV?$Matrix@M$02$03$0A@$02$03@1@AEBV?$Matrix@M$02$03$00$02$03@1@AEBU?$assign_op@MM@01@@Z
	??$call_assignment_no_alias@V?$Matrix@M$03$00$0A@$03$00@Eigen@@V?$CwiseUnaryOp@U?$core_cast_op@NM@internal@Eigen@@$$CBV?$Matrix@N$03$00$0A@$03$00@3@@2@U?$assign_op@MM@internal@2@@internal@Eigen@@YAXAEAV?$Matrix@M$03$00$0A@$03$00@1@AEBV?$CwiseUnaryOp@U?$core_cast_op@NM@internal@Eigen@@$$CBV?$Matrix@N$03$00$0A@$03$00@3@@1@AEBU?$assign_op@MM@01@@Z
	??$call_assignment_no_alias@V?$Matrix@N$00$02$00$00$02@Eigen@@V?$Block@$$CBV?$Matrix@N$02$03$0A@$02$03@Eigen@@$00$02$0A@@2@U?$assign_op@NN@internal@2@@internal@Eigen@@YAXAEAV?$Matrix@N$00$02$00$00$02@1@AEBV?$Block@$$CBV?$Matrix@N$02$03$0A@$02$03@Eigen@@$00$02$0A@@1@AEBU?$assign_op@NN@01@@Z
	??$call_assignment_no_alias@V?$Matrix@N$00$02$00$00$02@Eigen@@V?$CwiseBinaryOp@U?$scalar_quotient_op@NN@internal@Eigen@@$$CBV?$Block@$$CBV?$Matrix@N$02$03$0A@$02$03@Eigen@@$00$02$0A@@3@$$CBV?$CwiseNullaryOp@U?$scalar_constant_op@N@internal@Eigen@@$$CBV?$Matrix@N$00$02$00$00$02@3@@3@@2@U?$assign_op@NN@internal@2@@internal@Eigen@@YAXAEAV?$Matrix@N$00$02$00$00$02@1@AEBV?$CwiseBinaryOp@U?$scalar_quotient_op@NN@internal@Eigen@@$$CBV?$Block@$$CBV?$Matrix@N$02$03$0A@$02$03@Eigen@@$00$02$0A@@3@$$CBV?$CwiseNullaryOp@U?$scalar_constant_op@N@internal@Eigen@@$$CBV?$Matrix@N$00$02$00$00$02@3@@3@@1@AEBU?$assign_op@NN@01@@Z
	??$call_assignment_no_alias@V?$Matrix@N$02$00$0A@$02$00@Eigen@@V?$Block@V?$Matrix@N$03$00$0A@$03$00@Eigen@@$02$00$0A@@2@U?$assign_op@NN@internal@2@@internal@Eigen@@YAXAEAV?$Matrix@N$02$00$0A@$02$00@1@AEBV?$Block@V?$Matrix@N$03$00$0A@$03$00@Eigen@@$02$00$0A@@1@AEBU?$assign_op@NN@01@@Z
	??$call_assignment_no_alias@V?$Matrix@N$02$00$0A@$02$00@Eigen@@V?$CwiseBinaryOp@U?$scalar_difference_op@NN@internal@Eigen@@$$CBV?$Matrix@N$02$00$0A@$02$00@3@$$CBV?$CwiseBinaryOp@U?$scalar_product_op@NN@internal@Eigen@@$$CBV?$Matrix@N$02$00$0A@$02$00@3@$$CBV?$CwiseNullaryOp@U?$scalar_constant_op@N@internal@Eigen@@$$CBV?$Matrix@N$02$00$0A@$02$00@3@@3@@3@@2@U?$add_assign_op@NN@internal@2@@internal@Eigen@@YAXAEAV?$Matrix@N$02$00$0A@$02$00@1@AEBV?$CwiseBinaryOp@U?$scalar_difference_op@NN@internal@Eigen@@$$CBV?$Matrix@N$02$00$0A@$02$00@3@$$CBV?$CwiseBinaryOp@U?$scalar_product_op@NN@internal@Eigen@@$$CBV?$Matrix@N$02$00$0A@$02$00@3@$$CBV?$CwiseNullaryOp@U?$scalar_constant_op@N@internal@Eigen@@$$CBV?$Matrix@N$02$00$0A@$02$00@3@@3@@3@@1@AEBU?$add_assign_op@NN@01@@Z
	??$call_assignment_no_alias@V?$Matrix@N$02$00$0A@$02$00@Eigen@@V?$CwiseBinaryOp@U?$scalar_quotient_op@NN@internal@Eigen@@$$CBV?$Matrix@N$02$00$0A@$02$00@3@$$CBV?$CwiseNullaryOp@U?$scalar_constant_op@N@internal@Eigen@@$$CBV?$Matrix@N$02$00$0A@$02$00@3@@3@@2@U?$assign_op@NN@internal@2@@internal@Eigen@@YAXAEAV?$Matrix@N$02$00$0A@$02$00@1@AEBV?$CwiseBinaryOp@U?$scalar_quotient_op@NN@internal@Eigen@@$$CBV?$Matrix@N$02$00$0A@$02$00@3@$$CBV?$CwiseNullaryOp@U?$scalar_constant_op@N@internal@Eigen@@$$CBV?$Matrix@N$02$00$0A@$02$00@3@@3@@1@AEBU?$assign_op@NN@01@@Z
	??$call_assignment_no_alias@V?$Matrix@N$02$00$0A@$02$00@Eigen@@V?$CwiseNullaryOp@U?$scalar_constant_op@N@internal@Eigen@@$$CBV?$Matrix@N$02$00$0A@$02$00@3@@2@U?$div_assign_op@NN@internal@2@@internal@Eigen@@YAXAEAV?$Matrix@N$02$00$0A@$02$00@1@AEBV?$CwiseNullaryOp@U?$scalar_constant_op@N@internal@Eigen@@$$CBV?$Matrix@N$02$00$0A@$02$00@3@@1@AEBU?$div_assign_op@NN@01@@Z
	??$call_assignment_no_alias@V?$Matrix@N$02$00$0A@$02$00@Eigen@@V?$CwiseNullaryOp@U?$scalar_constant_op@N@internal@Eigen@@$$CBV?$Matrix@N$02$00$0A@$02$00@3@@2@U?$mul_assign_op@NN@internal@2@@internal@Eigen@@YAXAEAV?$Matrix@N$02$00$0A@$02$00@1@AEBV?$CwiseNullaryOp@U?$scalar_constant_op@N@internal@Eigen@@$$CBV?$Matrix@N$02$00$0A@$02$00@3@@1@AEBU?$mul_assign_op@NN@01@@Z
	??$call_assignment_no_alias@V?$Matrix@N$02$00$0A@$02$00@Eigen@@V?$CwiseUnaryOp@U?$core_cast_op@MN@internal@Eigen@@$$CBV?$Matrix@M$02$00$0A@$02$00@3@@2@U?$assign_op@NN@internal@2@@internal@Eigen@@YAXAEAV?$Matrix@N$02$00$0A@$02$00@1@AEBV?$CwiseUnaryOp@U?$core_cast_op@MN@internal@Eigen@@$$CBV?$Matrix@M$02$00$0A@$02$00@3@@1@AEBU?$assign_op@NN@01@@Z
	??$call_assignment_no_alias@V?$Matrix@N$02$00$0A@$02$00@Eigen@@V?$Matrix@N$00$02$00$00$02@2@U?$assign_op@NN@internal@2@@internal@Eigen@@YAXAEAV?$Matrix@N$02$00$0A@$02$00@1@AEBV?$Matrix@N$00$02$00$00$02@1@AEBU?$assign_op@NN@01@@Z
	??$call_assignment_no_alias@V?$Matrix@N$02$00$0A@$02$00@Eigen@@V?$Product@V?$Matrix@N$02$03$00$02$03@Eigen@@V?$Matrix@N$03$00$0A@$03$00@2@$00@2@U?$assign_op@NN@internal@2@@internal@Eigen@@YAXAEAV?$Matrix@N$02$00$0A@$02$00@1@AEBV?$Product@V?$Matrix@N$02$03$00$02$03@Eigen@@V?$Matrix@N$03$00$0A@$03$00@2@$00@1@AEBU?$assign_op@NN@01@@Z
	??$call_assignment_no_alias@V?$Matrix@N$02$00$0A@$02$00@Eigen@@V?$Product@V?$Matrix@N$02$03$00$02$03@Eigen@@V?$Matrix@N$03$00$0A@$03$00@2@$0A@@2@U?$assign_op@NN@internal@2@@internal@Eigen@@YAXAEAV?$Matrix@N$02$00$0A@$02$00@1@AEBV?$Product@V?$Matrix@N$02$03$00$02$03@Eigen@@V?$Matrix@N$03$00$0A@$03$00@2@$0A@@1@AEBU?$assign_op@NN@01@@Z
	??$call_assignment_no_alias@V?$Matrix@N$02$00$0A@$02$00@Eigen@@V?$Product@V?$Matrix@N$02$03$0A@$02$03@Eigen@@V?$Matrix@N$03$00$0A@$03$00@2@$00@2@U?$assign_op@NN@internal@2@@internal@Eigen@@YAXAEAV?$Matrix@N$02$00$0A@$02$00@1@AEBV?$Product@V?$Matrix@N$02$03$0A@$02$03@Eigen@@V?$Matrix@N$03$00$0A@$03$00@2@$00@1@AEBU?$assign_op@NN@01@@Z
	??$call_assignment_no_alias@V?$Matrix@N$02$00$0A@$02$00@Eigen@@V?$Product@V?$Matrix@N$02$03$0A@$02$03@Eigen@@V?$Matrix@N$03$00$0A@$03$00@2@$0A@@2@U?$assign_op@NN@internal@2@@internal@Eigen@@YAXAEAV?$Matrix@N$02$00$0A@$02$00@1@AEBV?$Product@V?$Matrix@N$02$03$0A@$02$03@Eigen@@V?$Matrix@N$03$00$0A@$03$00@2@$0A@@1@AEBU?$assign_op@NN@01@@Z
	??$call_assignment_no_alias@V?$Matrix@N$02$02$0A@$02$02@Eigen@@V12@U?$sub_assign_op@NN@internal@2@@internal@Eigen@@YAXAEAV?$Matrix@N$02$02$0A@$02$02@1@AEBV21@AEBU?$sub_assign_op@NN@01@@Z
	??$call_assignment_no_alias@V?$Matrix@N$02$02$0A@$02$02@Eigen@@V?$CwiseBinaryOp@U?$scalar_quotient_op@NN@internal@Eigen@@$$CBV?$Block@$$CBV?$Matrix@N$02$02$0A@$02$02@Eigen@@$02$02$0A@@3@$$CBV?$CwiseNullaryOp@U?$scalar_constant_op@N@internal@Eigen@@$$CBV?$Matrix@N$02$02$0A@$02$02@3@@3@@2@U?$assign_op@NN@internal@2@@internal@Eigen@@YAXAEAV?$Matrix@N$02$02$0A@$02$02@1@AEBV?$CwiseBinaryOp@U?$scalar_quotient_op@NN@internal@Eigen@@$$CBV?$Block@$$CBV?$Matrix@N$02$02$0A@$02$02@Eigen@@$02$02$0A@@3@$$CBV?$CwiseNullaryOp@U?$scalar_constant_op@N@internal@Eigen@@$$CBV?$Matrix@N$02$02$0A@$02$02@3@@3@@1@AEBU?$assign_op@NN@01@@Z
	??$call_assignment_no_alias@V?$Matrix@N$02$02$0A@$02$02@Eigen@@V?$CwiseNullaryOp@U?$scalar_identity_op@N@internal@Eigen@@V?$Matrix@N$02$02$0A@$02$02@3@@2@U?$assign_op@NN@internal@2@@internal@Eigen@@YAXAEAV?$Matrix@N$02$02$0A@$02$02@1@AEBV?$CwiseNullaryOp@U?$scalar_identity_op@N@internal@Eigen@@V?$Matrix@N$02$02$0A@$02$02@3@@1@AEBU?$assign_op@NN@01@@Z
	??$call_assignment_no_alias@V?$Matrix@N$02$02$0A@$02$02@Eigen@@V?$DiagonalWrapper@$$CBV?$Matrix@N$02$00$0A@$02$00@Eigen@@@2@U?$assign_op@NN@internal@2@@internal@Eigen@@YAXAEAV?$Matrix@N$02$02$0A@$02$02@1@AEBV?$DiagonalWrapper@$$CBV?$Matrix@N$02$00$0A@$02$00@Eigen@@@1@AEBU?$assign_op@NN@01@@Z
	??$call_assignment_no_alias@V?$Matrix@N$02$02$0A@$02$02@Eigen@@V?$Product@V?$Matrix@N$02$00$0A@$02$00@Eigen@@V?$Transpose@V?$Matrix@N$02$00$0A@$02$00@Eigen@@@2@$00@2@U?$assign_op@NN@internal@2@@internal@Eigen@@YAXAEAV?$Matrix@N$02$02$0A@$02$02@1@AEBV?$Product@V?$Matrix@N$02$00$0A@$02$00@Eigen@@V?$Transpose@V?$Matrix@N$02$00$0A@$02$00@Eigen@@@2@$00@1@AEBU?$assign_op@NN@01@@Z
	??$call_assignment_no_alias@V?$Matrix@N$02$02$0A@$02$02@Eigen@@V?$Product@V?$Matrix@N$02$00$0A@$02$00@Eigen@@V?$Transpose@V?$Matrix@N$02$00$0A@$02$00@Eigen@@@2@$0A@@2@U?$assign_op@NN@internal@2@@internal@Eigen@@YAXAEAV?$Matrix@N$02$02$0A@$02$02@1@AEBV?$Product@V?$Matrix@N$02$00$0A@$02$00@Eigen@@V?$Transpose@V?$Matrix@N$02$00$0A@$02$00@Eigen@@@2@$0A@@1@AEBU?$assign_op@NN@01@@Z
	??$call_assignment_no_alias@V?$Matrix@N$02$02$0A@$02$02@Eigen@@V?$Product@V?$Product@V?$Matrix@N$02$03$0A@$02$03@Eigen@@V?$Matrix@N$03$03$0A@$03$03@2@$0A@@Eigen@@V?$Matrix@N$03$02$0A@$03$02@2@$00@2@U?$assign_op@NN@internal@2@@internal@Eigen@@YAXAEAV?$Matrix@N$02$02$0A@$02$02@1@AEBV?$Product@V?$Product@V?$Matrix@N$02$03$0A@$02$03@Eigen@@V?$Matrix@N$03$03$0A@$03$03@2@$0A@@Eigen@@V?$Matrix@N$03$02$0A@$03$02@2@$00@1@AEBU?$assign_op@NN@01@@Z
	??$call_assignment_no_alias@V?$Matrix@N$02$02$0A@$02$02@Eigen@@V?$Product@V?$Product@V?$Matrix@N$02$03$0A@$02$03@Eigen@@V?$Matrix@N$03$03$0A@$03$03@2@$0A@@Eigen@@V?$Matrix@N$03$02$0A@$03$02@2@$0A@@2@U?$assign_op@NN@internal@2@@internal@Eigen@@YAXAEAV?$Matrix@N$02$02$0A@$02$02@1@AEBV?$Product@V?$Product@V?$Matrix@N$02$03$0A@$02$03@Eigen@@V?$Matrix@N$03$03$0A@$03$03@2@$0A@@Eigen@@V?$Matrix@N$03$02$0A@$03$02@2@$0A@@1@AEBU?$assign_op@NN@01@@Z
	??$call_assignment_no_alias@V?$Matrix@N$02$03$00$02$03@Eigen@@V?$Transpose@V?$Matrix@N$03$02$0A@$03$02@Eigen@@@2@U?$assign_op@NN@internal@2@@internal@Eigen@@YAXAEAV?$Matrix@N$02$03$00$02$03@1@AEBV?$Transpose@V?$Matrix@N$03$02$0A@$03$02@Eigen@@@1@AEBU?$assign_op@NN@01@@Z
	??$call_assignment_no_alias@V?$Matrix@N$02$03$0A@$02$03@Eigen@@V12@U?$assign_op@NN@internal@2@@internal@Eigen@@YAXAEAV?$Matrix@N$02$03$0A@$02$03@1@AEBV21@AEBU?$assign_op@NN@01@@Z
	??$call_assignment_no_alias@V?$Matrix@N$02$03$0A@$02$03@Eigen@@V?$CwiseNullaryOp@U?$scalar_zero_op@N@internal@Eigen@@V?$Matrix@N$02$03$0A@$02$03@3@@2@U?$assign_op@NN@internal@2@@internal@Eigen@@YAXAEAV?$Matrix@N$02$03$0A@$02$03@1@AEBV?$CwiseNullaryOp@U?$scalar_zero_op@N@internal@Eigen@@V?$Matrix@N$02$03$0A@$02$03@3@@1@AEBU?$assign_op@NN@01@@Z
	??$call_assignment_no_alias@V?$Matrix@N$02$03$0A@$02$03@Eigen@@V?$Product@V?$Matrix@N$02$03$0A@$02$03@Eigen@@V?$Matrix@N$03$03$0A@$03$03@2@$00@2@U?$assign_op@NN@internal@2@@internal@Eigen@@YAXAEAV?$Matrix@N$02$03$0A@$02$03@1@AEBV?$Product@V?$Matrix@N$02$03$0A@$02$03@Eigen@@V?$Matrix@N$03$03$0A@$03$03@2@$00@1@AEBU?$assign_op@NN@01@@Z
	??$call_assignment_no_alias@V?$Matrix@N$02$03$0A@$02$03@Eigen@@V?$Product@V?$Matrix@N$02$03$0A@$02$03@Eigen@@V?$Matrix@N$03$03$0A@$03$03@2@$0A@@2@U?$assign_op@NN@internal@2@@internal@Eigen@@YAXAEAV?$Matrix@N$02$03$0A@$02$03@1@AEBV?$Product@V?$Matrix@N$02$03$0A@$02$03@Eigen@@V?$Matrix@N$03$03$0A@$03$03@2@$0A@@1@AEBU?$assign_op@NN@01@@Z
	??$call_assignment_no_alias@V?$Matrix@N$03$00$0A@$03$00@Eigen@@V?$CwiseBinaryOp@U?$scalar_sum_op@NN@internal@Eigen@@$$CBV?$CwiseBinaryOp@U?$scalar_product_op@NN@internal@Eigen@@$$CBV?$CwiseNullaryOp@U?$scalar_constant_op@N@internal@Eigen@@$$CBV?$Matrix@N$03$00$0A@$03$00@3@@3@$$CBV?$Matrix@N$03$00$0A@$03$00@3@@3@$$CBV43@@2@U?$assign_op@NN@internal@2@@internal@Eigen@@YAXAEAV?$Matrix@N$03$00$0A@$03$00@1@AEBV?$CwiseBinaryOp@U?$scalar_sum_op@NN@internal@Eigen@@$$CBV?$CwiseBinaryOp@U?$scalar_product_op@NN@internal@Eigen@@$$CBV?$CwiseNullaryOp@U?$scalar_constant_op@N@internal@Eigen@@$$CBV?$Matrix@N$03$00$0A@$03$00@3@@3@$$CBV?$Matrix@N$03$00$0A@$03$00@3@@3@$$CBV43@@1@AEBU?$assign_op@NN@01@@Z
	??$call_assignment_no_alias@V?$Matrix@N$03$00$0A@$03$00@Eigen@@V?$CwiseNullaryOp@U?$scalar_constant_op@N@internal@Eigen@@$$CBV?$Matrix@N$03$00$0A@$03$00@3@@2@U?$div_assign_op@NN@internal@2@@internal@Eigen@@YAXAEAV?$Matrix@N$03$00$0A@$03$00@1@AEBV?$CwiseNullaryOp@U?$scalar_constant_op@N@internal@Eigen@@$$CBV?$Matrix@N$03$00$0A@$03$00@3@@1@AEBU?$div_assign_op@NN@01@@Z
	??$call_assignment_no_alias@V?$Matrix@N$03$00$0A@$03$00@Eigen@@V?$Product@V?$Transpose@$$CBV?$Matrix@N$02$03$0A@$02$03@Eigen@@@Eigen@@V?$CwiseUnaryOp@U?$core_cast_op@MN@internal@Eigen@@$$CBV?$Matrix@M$02$00$0A@$02$00@3@@2@$00@2@U?$assign_op@NN@internal@2@@internal@Eigen@@YAXAEAV?$Matrix@N$03$00$0A@$03$00@1@AEBV?$Product@V?$Transpose@$$CBV?$Matrix@N$02$03$0A@$02$03@Eigen@@@Eigen@@V?$CwiseUnaryOp@U?$core_cast_op@MN@internal@Eigen@@$$CBV?$Matrix@M$02$00$0A@$02$00@3@@2@$00@1@AEBU?$assign_op@NN@01@@Z
	??$call_assignment_no_alias@V?$Matrix@N$03$00$0A@$03$00@Eigen@@V?$Product@V?$Transpose@$$CBV?$Matrix@N$02$03$0A@$02$03@Eigen@@@Eigen@@V?$CwiseUnaryOp@U?$core_cast_op@MN@internal@Eigen@@$$CBV?$Matrix@M$02$00$0A@$02$00@3@@2@$0A@@2@U?$assign_op@NN@internal@2@@internal@Eigen@@YAXAEAV?$Matrix@N$03$00$0A@$03$00@1@AEBV?$Product@V?$Transpose@$$CBV?$Matrix@N$02$03$0A@$02$03@Eigen@@@Eigen@@V?$CwiseUnaryOp@U?$core_cast_op@MN@internal@Eigen@@$$CBV?$Matrix@M$02$00$0A@$02$00@3@@2@$0A@@1@AEBU?$assign_op@NN@01@@Z
	??$call_assignment_no_alias@V?$Matrix@N$0?0$00$0A@$02$00@Eigen@@V?$Product@V?$DiagonalWrapper@$$CBV?$CwiseUnaryOp@U?$scalar_inverse_op@N@internal@Eigen@@$$CBV?$Block@$$CBV?$Matrix@N$02$00$0A@$02$00@Eigen@@$0?0$00$0A@@3@@Eigen@@@Eigen@@V?$Matrix@N$0?0$00$0A@$02$00@2@$00@2@U?$assign_op@NN@internal@2@@internal@Eigen@@YAXAEAV?$Matrix@N$0?0$00$0A@$02$00@1@AEBV?$Product@V?$DiagonalWrapper@$$CBV?$CwiseUnaryOp@U?$scalar_inverse_op@N@internal@Eigen@@$$CBV?$Block@$$CBV?$Matrix@N$02$00$0A@$02$00@Eigen@@$0?0$00$0A@@3@@Eigen@@@Eigen@@V?$Matrix@N$0?0$00$0A@$02$00@2@$00@1@AEBU?$assign_op@NN@01@@Z
	??$call_assignment_no_alias@V?$Matrix@N$0?0$00$0A@$02$00@Eigen@@V?$Product@V?$Transpose@$$CBV?$Block@$$CBV?$Matrix@N$02$02$0A@$02$02@Eigen@@$02$0?0$00@Eigen@@@Eigen@@V?$Matrix@N$02$00$0A@$02$00@2@$00@2@U?$assign_op@NN@internal@2@@internal@Eigen@@YAXAEAV?$Matrix@N$0?0$00$0A@$02$00@1@AEBV?$Product@V?$Transpose@$$CBV?$Block@$$CBV?$Matrix@N$02$02$0A@$02$02@Eigen@@$02$0?0$00@Eigen@@@Eigen@@V?$Matrix@N$02$00$0A@$02$00@2@$00@1@AEBU?$assign_op@NN@01@@Z
	??$call_assignment_no_alias@V?$Matrix@N$0?0$00$0A@$02$00@Eigen@@V?$Product@V?$Transpose@$$CBV?$Block@$$CBV?$Matrix@N$02$02$0A@$02$02@Eigen@@$02$0?0$00@Eigen@@@Eigen@@V?$Matrix@N$02$00$0A@$02$00@2@$0A@@2@U?$assign_op@NN@internal@2@@internal@Eigen@@YAXAEAV?$Matrix@N$0?0$00$0A@$02$00@1@AEBV?$Product@V?$Transpose@$$CBV?$Block@$$CBV?$Matrix@N$02$02$0A@$02$02@Eigen@@$02$0?0$00@Eigen@@@Eigen@@V?$Matrix@N$02$00$0A@$02$00@2@$0A@@1@AEBU?$assign_op@NN@01@@Z
	??$call_dense_assignment_loop@V?$Block@V?$Matrix@N$02$02$0A@$02$02@Eigen@@$02$00$00@Eigen@@V12@U?$swap_assign_op@N@internal@2@@internal@Eigen@@YAXAEAV?$Block@V?$Matrix@N$02$02$0A@$02$02@Eigen@@$02$00$00@1@AEBV21@AEBU?$swap_assign_op@N@01@@Z
	??$call_dense_assignment_loop@V?$Block@V?$Matrix@N$02$02$0A@$02$02@Eigen@@$02$00$00@Eigen@@V?$CwiseNullaryOp@U?$scalar_constant_op@N@internal@Eigen@@$$CBV?$Matrix@N$02$00$0A@$02$00@3@@2@U?$mul_assign_op@NN@internal@2@@internal@Eigen@@YAXAEAV?$Block@V?$Matrix@N$02$02$0A@$02$02@Eigen@@$02$00$00@1@AEBV?$CwiseNullaryOp@U?$scalar_constant_op@N@internal@Eigen@@$$CBV?$Matrix@N$02$00$0A@$02$00@3@@1@AEBU?$mul_assign_op@NN@01@@Z
	??$call_dense_assignment_loop@V?$Block@V?$Matrix@N$02$02$0A@$02$02@Eigen@@$02$00$00@Eigen@@V?$CwiseUnaryOp@U?$scalar_opposite_op@N@internal@Eigen@@$$CBV?$Block@V?$Matrix@N$02$02$0A@$02$02@Eigen@@$02$00$00@3@@2@U?$assign_op@NN@internal@2@@internal@Eigen@@YAXAEAV?$Block@V?$Matrix@N$02$02$0A@$02$02@Eigen@@$02$00$00@1@AEBV?$CwiseUnaryOp@U?$scalar_opposite_op@N@internal@Eigen@@$$CBV?$Block@V?$Matrix@N$02$02$0A@$02$02@Eigen@@$02$00$00@3@@1@AEBU?$assign_op@NN@01@@Z
	??$call_dense_assignment_loop@V?$Block@V?$Matrix@N$02$03$0A@$02$03@Eigen@@$00$02$0A@@Eigen@@V?$Transpose@V?$Matrix@N$02$00$0A@$02$00@Eigen@@@2@U?$assign_op@NN@internal@2@@internal@Eigen@@YAXAEAV?$Block@V?$Matrix@N$02$03$0A@$02$03@Eigen@@$00$02$0A@@1@AEBV?$Transpose@V?$Matrix@N$02$00$0A@$02$00@Eigen@@@1@AEBU?$assign_op@NN@01@@Z
	??$call_dense_assignment_loop@V?$Block@V?$Matrix@N$03$00$0A@$03$00@Eigen@@$02$00$0A@@Eigen@@V?$Product@V?$Block@$$CBV?$Matrix@N$02$02$0A@$02$02@Eigen@@$02$0?0$00@Eigen@@V?$Matrix@N$0?0$00$0A@$02$00@2@$00@2@U?$assign_op@NN@internal@2@@internal@Eigen@@YAXAEAV?$Block@V?$Matrix@N$03$00$0A@$03$00@Eigen@@$02$00$0A@@1@AEBV?$Product@V?$Block@$$CBV?$Matrix@N$02$02$0A@$02$02@Eigen@@$02$0?0$00@Eigen@@V?$Matrix@N$0?0$00$0A@$02$00@2@$00@1@AEBU?$assign_op@NN@01@@Z
	??$call_dense_assignment_loop@V?$Block@V?$Matrix@N$03$00$0A@$03$00@Eigen@@$0?0$00$0A@@Eigen@@V?$Matrix@N$02$00$0A@$02$00@2@U?$assign_op@NN@internal@2@@internal@Eigen@@YAXAEAV?$Block@V?$Matrix@N$03$00$0A@$03$00@Eigen@@$0?0$00$0A@@1@AEBV?$Matrix@N$02$00$0A@$02$00@1@AEBU?$assign_op@NN@01@@Z
	??$call_dense_assignment_loop@V?$Diagonal@V?$Matrix@N$02$02$0A@$02$02@Eigen@@$0A@@Eigen@@V?$Matrix@N$02$00$0A@$02$00@2@U?$assign_op@NN@internal@2@@internal@Eigen@@YAXAEAV?$Diagonal@V?$Matrix@N$02$02$0A@$02$02@Eigen@@$0A@@1@AEBV?$Matrix@N$02$00$0A@$02$00@1@AEBU?$assign_op@NN@01@@Z
	??$call_dense_assignment_loop@V?$Matrix@M$02$00$0A@$02$00@Eigen@@V?$CwiseUnaryOp@U?$core_cast_op@NM@internal@Eigen@@$$CBV?$Matrix@N$02$00$0A@$02$00@3@@2@U?$assign_op@MM@internal@2@@internal@Eigen@@YAXAEAV?$Matrix@M$02$00$0A@$02$00@1@AEBV?$CwiseUnaryOp@U?$core_cast_op@NM@internal@Eigen@@$$CBV?$Matrix@N$02$00$0A@$02$00@3@@1@AEBU?$assign_op@MM@01@@Z
	??$call_dense_assignment_loop@V?$Matrix@M$02$03$00$02$03@Eigen@@V?$CwiseUnaryOp@U?$core_cast_op@NM@internal@Eigen@@$$CBV?$Transpose@V?$Matrix@N$03$02$0A@$03$02@Eigen@@@3@@2@U?$assign_op@MM@internal@2@@internal@Eigen@@YAXAEAV?$Matrix@M$02$03$00$02$03@1@AEBV?$CwiseUnaryOp@U?$core_cast_op@NM@internal@Eigen@@$$CBV?$Transpose@V?$Matrix@N$03$02$0A@$03$02@Eigen@@@3@@1@AEBU?$assign_op@MM@01@@Z
	??$call_dense_assignment_loop@V?$Matrix@M$02$03$0A@$02$03@Eigen@@V?$Matrix@M$02$03$00$02$03@2@U?$assign_op@MM@internal@2@@internal@Eigen@@YAXAEAV?$Matrix@M$02$03$0A@$02$03@1@AEBV?$Matrix@M$02$03$00$02$03@1@AEBU?$assign_op@MM@01@@Z
	??$call_dense_assignment_loop@V?$Matrix@M$03$00$0A@$03$00@Eigen@@V?$CwiseUnaryOp@U?$core_cast_op@NM@internal@Eigen@@$$CBV?$Matrix@N$03$00$0A@$03$00@3@@2@U?$assign_op@MM@internal@2@@internal@Eigen@@YAXAEAV?$Matrix@M$03$00$0A@$03$00@1@AEBV?$CwiseUnaryOp@U?$core_cast_op@NM@internal@Eigen@@$$CBV?$Matrix@N$03$00$0A@$03$00@3@@1@AEBU?$assign_op@MM@01@@Z
	??$call_dense_assignment_loop@V?$Matrix@N$00$02$00$00$02@Eigen@@V?$Block@$$CBV?$Matrix@N$02$03$0A@$02$03@Eigen@@$00$02$0A@@2@U?$assign_op@NN@internal@2@@internal@Eigen@@YAXAEAV?$Matrix@N$00$02$00$00$02@1@AEBV?$Block@$$CBV?$Matrix@N$02$03$0A@$02$03@Eigen@@$00$02$0A@@1@AEBU?$assign_op@NN@01@@Z
	??$call_dense_assignment_loop@V?$Matrix@N$00$02$00$00$02@Eigen@@V?$CwiseBinaryOp@U?$scalar_quotient_op@NN@internal@Eigen@@$$CBV?$Block@$$CBV?$Matrix@N$02$03$0A@$02$03@Eigen@@$00$02$0A@@3@$$CBV?$CwiseNullaryOp@U?$scalar_constant_op@N@internal@Eigen@@$$CBV?$Matrix@N$00$02$00$00$02@3@@3@@2@U?$assign_op@NN@internal@2@@internal@Eigen@@YAXAEAV?$Matrix@N$00$02$00$00$02@1@AEBV?$CwiseBinaryOp@U?$scalar_quotient_op@NN@internal@Eigen@@$$CBV?$Block@$$CBV?$Matrix@N$02$03$0A@$02$03@Eigen@@$00$02$0A@@3@$$CBV?$CwiseNullaryOp@U?$scalar_constant_op@N@internal@Eigen@@$$CBV?$Matrix@N$00$02$00$00$02@3@@3@@1@AEBU?$assign_op@NN@01@@Z
	??$call_dense_assignment_loop@V?$Matrix@N$02$00$0A@$02$00@Eigen@@V?$Block@V?$Matrix@N$03$00$0A@$03$00@Eigen@@$02$00$0A@@2@U?$assign_op@NN@internal@2@@internal@Eigen@@YAXAEAV?$Matrix@N$02$00$0A@$02$00@1@AEBV?$Block@V?$Matrix@N$03$00$0A@$03$00@Eigen@@$02$00$0A@@1@AEBU?$assign_op@NN@01@@Z
	??$call_dense_assignment_loop@V?$Matrix@N$02$00$0A@$02$00@Eigen@@V?$CwiseBinaryOp@U?$scalar_difference_op@NN@internal@Eigen@@$$CBV?$Matrix@N$02$00$0A@$02$00@3@$$CBV?$CwiseBinaryOp@U?$scalar_product_op@NN@internal@Eigen@@$$CBV?$Matrix@N$02$00$0A@$02$00@3@$$CBV?$CwiseNullaryOp@U?$scalar_constant_op@N@internal@Eigen@@$$CBV?$Matrix@N$02$00$0A@$02$00@3@@3@@3@@2@U?$add_assign_op@NN@internal@2@@internal@Eigen@@YAXAEAV?$Matrix@N$02$00$0A@$02$00@1@AEBV?$CwiseBinaryOp@U?$scalar_difference_op@NN@internal@Eigen@@$$CBV?$Matrix@N$02$00$0A@$02$00@3@$$CBV?$CwiseBinaryOp@U?$scalar_product_op@NN@internal@Eigen@@$$CBV?$Matrix@N$02$00$0A@$02$00@3@$$CBV?$CwiseNullaryOp@U?$scalar_constant_op@N@internal@Eigen@@$$CBV?$Matrix@N$02$00$0A@$02$00@3@@3@@3@@1@AEBU?$add_assign_op@NN@01@@Z
	??$call_dense_assignment_loop@V?$Matrix@N$02$00$0A@$02$00@Eigen@@V?$CwiseBinaryOp@U?$scalar_quotient_op@NN@internal@Eigen@@$$CBV?$Matrix@N$02$00$0A@$02$00@3@$$CBV?$CwiseNullaryOp@U?$scalar_constant_op@N@internal@Eigen@@$$CBV?$Matrix@N$02$00$0A@$02$00@3@@3@@2@U?$assign_op@NN@internal@2@@internal@Eigen@@YAXAEAV?$Matrix@N$02$00$0A@$02$00@1@AEBV?$CwiseBinaryOp@U?$scalar_quotient_op@NN@internal@Eigen@@$$CBV?$Matrix@N$02$00$0A@$02$00@3@$$CBV?$CwiseNullaryOp@U?$scalar_constant_op@N@internal@Eigen@@$$CBV?$Matrix@N$02$00$0A@$02$00@3@@3@@1@AEBU?$assign_op@NN@01@@Z
	??$call_dense_assignment_loop@V?$Matrix@N$02$00$0A@$02$00@Eigen@@V?$CwiseNullaryOp@U?$scalar_constant_op@N@internal@Eigen@@$$CBV?$Matrix@N$02$00$0A@$02$00@3@@2@U?$div_assign_op@NN@internal@2@@internal@Eigen@@YAXAEAV?$Matrix@N$02$00$0A@$02$00@1@AEBV?$CwiseNullaryOp@U?$scalar_constant_op@N@internal@Eigen@@$$CBV?$Matrix@N$02$00$0A@$02$00@3@@1@AEBU?$div_assign_op@NN@01@@Z
	??$call_dense_assignment_loop@V?$Matrix@N$02$00$0A@$02$00@Eigen@@V?$CwiseNullaryOp@U?$scalar_constant_op@N@internal@Eigen@@$$CBV?$Matrix@N$02$00$0A@$02$00@3@@2@U?$mul_assign_op@NN@internal@2@@internal@Eigen@@YAXAEAV?$Matrix@N$02$00$0A@$02$00@1@AEBV?$CwiseNullaryOp@U?$scalar_constant_op@N@internal@Eigen@@$$CBV?$Matrix@N$02$00$0A@$02$00@3@@1@AEBU?$mul_assign_op@NN@01@@Z
	??$call_dense_assignment_loop@V?$Matrix@N$02$00$0A@$02$00@Eigen@@V?$CwiseUnaryOp@U?$core_cast_op@MN@internal@Eigen@@$$CBV?$Matrix@M$02$00$0A@$02$00@3@@2@U?$assign_op@NN@internal@2@@internal@Eigen@@YAXAEAV?$Matrix@N$02$00$0A@$02$00@1@AEBV?$CwiseUnaryOp@U?$core_cast_op@MN@internal@Eigen@@$$CBV?$Matrix@M$02$00$0A@$02$00@3@@1@AEBU?$assign_op@NN@01@@Z
	??$call_dense_assignment_loop@V?$Matrix@N$02$00$0A@$02$00@Eigen@@V?$Product@V?$Matrix@N$02$03$00$02$03@Eigen@@V?$Matrix@N$03$00$0A@$03$00@2@$00@2@U?$assign_op@NN@internal@2@@internal@Eigen@@YAXAEAV?$Matrix@N$02$00$0A@$02$00@1@AEBV?$Product@V?$Matrix@N$02$03$00$02$03@Eigen@@V?$Matrix@N$03$00$0A@$03$00@2@$00@1@AEBU?$assign_op@NN@01@@Z
	??$call_dense_assignment_loop@V?$Matrix@N$02$00$0A@$02$00@Eigen@@V?$Product@V?$Matrix@N$02$03$0A@$02$03@Eigen@@V?$Matrix@N$03$00$0A@$03$00@2@$00@2@U?$assign_op@NN@internal@2@@internal@Eigen@@YAXAEAV?$Matrix@N$02$00$0A@$02$00@1@AEBV?$Product@V?$Matrix@N$02$03$0A@$02$03@Eigen@@V?$Matrix@N$03$00$0A@$03$00@2@$00@1@AEBU?$assign_op@NN@01@@Z
	??$call_dense_assignment_loop@V?$Matrix@N$02$02$0A@$02$02@Eigen@@V12@U?$sub_assign_op@NN@internal@2@@internal@Eigen@@YAXAEAV?$Matrix@N$02$02$0A@$02$02@1@AEBV21@AEBU?$sub_assign_op@NN@01@@Z
	??$call_dense_assignment_loop@V?$Matrix@N$02$02$0A@$02$02@Eigen@@V?$CwiseBinaryOp@U?$scalar_quotient_op@NN@internal@Eigen@@$$CBV?$Block@$$CBV?$Matrix@N$02$02$0A@$02$02@Eigen@@$02$02$0A@@3@$$CBV?$CwiseNullaryOp@U?$scalar_constant_op@N@internal@Eigen@@$$CBV?$Matrix@N$02$02$0A@$02$02@3@@3@@2@U?$assign_op@NN@internal@2@@internal@Eigen@@YAXAEAV?$Matrix@N$02$02$0A@$02$02@1@AEBV?$CwiseBinaryOp@U?$scalar_quotient_op@NN@internal@Eigen@@$$CBV?$Block@$$CBV?$Matrix@N$02$02$0A@$02$02@Eigen@@$02$02$0A@@3@$$CBV?$CwiseNullaryOp@U?$scalar_constant_op@N@internal@Eigen@@$$CBV?$Matrix@N$02$02$0A@$02$02@3@@3@@1@AEBU?$assign_op@NN@01@@Z
	??$call_dense_assignment_loop@V?$Matrix@N$02$02$0A@$02$02@Eigen@@V?$CwiseNullaryOp@U?$scalar_identity_op@N@internal@Eigen@@V?$Matrix@N$02$02$0A@$02$02@3@@2@U?$assign_op@NN@internal@2@@internal@Eigen@@YAXAEAV?$Matrix@N$02$02$0A@$02$02@1@AEBV?$CwiseNullaryOp@U?$scalar_identity_op@N@internal@Eigen@@V?$Matrix@N$02$02$0A@$02$02@3@@1@AEBU?$assign_op@NN@01@@Z
	??$call_dense_assignment_loop@V?$Matrix@N$02$02$0A@$02$02@Eigen@@V?$Product@V?$Matrix@N$02$00$0A@$02$00@Eigen@@V?$Transpose@V?$Matrix@N$02$00$0A@$02$00@Eigen@@@2@$00@2@U?$assign_op@NN@internal@2@@internal@Eigen@@YAXAEAV?$Matrix@N$02$02$0A@$02$02@1@AEBV?$Product@V?$Matrix@N$02$00$0A@$02$00@Eigen@@V?$Transpose@V?$Matrix@N$02$00$0A@$02$00@Eigen@@@2@$00@1@AEBU?$assign_op@NN@01@@Z
	??$call_dense_assignment_loop@V?$Matrix@N$02$02$0A@$02$02@Eigen@@V?$Product@V?$Product@V?$Matrix@N$02$03$0A@$02$03@Eigen@@V?$Matrix@N$03$03$0A@$03$03@2@$0A@@Eigen@@V?$Matrix@N$03$02$0A@$03$02@2@$00@2@U?$assign_op@NN@internal@2@@internal@Eigen@@YAXAEAV?$Matrix@N$02$02$0A@$02$02@1@AEBV?$Product@V?$Product@V?$Matrix@N$02$03$0A@$02$03@Eigen@@V?$Matrix@N$03$03$0A@$03$03@2@$0A@@Eigen@@V?$Matrix@N$03$02$0A@$03$02@2@$00@1@AEBU?$assign_op@NN@01@@Z
	??$call_dense_assignment_loop@V?$Matrix@N$02$03$00$02$03@Eigen@@V?$Transpose@V?$Matrix@N$03$02$0A@$03$02@Eigen@@@2@U?$assign_op@NN@internal@2@@internal@Eigen@@YAXAEAV?$Matrix@N$02$03$00$02$03@1@AEBV?$Transpose@V?$Matrix@N$03$02$0A@$03$02@Eigen@@@1@AEBU?$assign_op@NN@01@@Z
	??$call_dense_assignment_loop@V?$Matrix@N$02$03$0A@$02$03@Eigen@@V12@U?$assign_op@NN@internal@2@@internal@Eigen@@YAXAEAV?$Matrix@N$02$03$0A@$02$03@1@AEBV21@AEBU?$assign_op@NN@01@@Z
	??$call_dense_assignment_loop@V?$Matrix@N$02$03$0A@$02$03@Eigen@@V?$Product@V?$Matrix@N$02$03$0A@$02$03@Eigen@@V?$Matrix@N$03$03$0A@$03$03@2@$00@2@U?$assign_op@NN@internal@2@@internal@Eigen@@YAXAEAV?$Matrix@N$02$03$0A@$02$03@1@AEBV?$Product@V?$Matrix@N$02$03$0A@$02$03@Eigen@@V?$Matrix@N$03$03$0A@$03$03@2@$00@1@AEBU?$assign_op@NN@01@@Z
	??$call_dense_assignment_loop@V?$Matrix@N$03$00$0A@$03$00@Eigen@@V?$CwiseBinaryOp@U?$scalar_sum_op@NN@internal@Eigen@@$$CBV?$CwiseBinaryOp@U?$scalar_product_op@NN@internal@Eigen@@$$CBV?$CwiseNullaryOp@U?$scalar_constant_op@N@internal@Eigen@@$$CBV?$Matrix@N$03$00$0A@$03$00@3@@3@$$CBV?$Matrix@N$03$00$0A@$03$00@3@@3@$$CBV43@@2@U?$assign_op@NN@internal@2@@internal@Eigen@@YAXAEAV?$Matrix@N$03$00$0A@$03$00@1@AEBV?$CwiseBinaryOp@U?$scalar_sum_op@NN@internal@Eigen@@$$CBV?$CwiseBinaryOp@U?$scalar_product_op@NN@internal@Eigen@@$$CBV?$CwiseNullaryOp@U?$scalar_constant_op@N@internal@Eigen@@$$CBV?$Matrix@N$03$00$0A@$03$00@3@@3@$$CBV?$Matrix@N$03$00$0A@$03$00@3@@3@$$CBV43@@1@AEBU?$assign_op@NN@01@@Z
	??$call_dense_assignment_loop@V?$Matrix@N$03$00$0A@$03$00@Eigen@@V?$CwiseNullaryOp@U?$scalar_constant_op@N@internal@Eigen@@$$CBV?$Matrix@N$03$00$0A@$03$00@3@@2@U?$div_assign_op@NN@internal@2@@internal@Eigen@@YAXAEAV?$Matrix@N$03$00$0A@$03$00@1@AEBV?$CwiseNullaryOp@U?$scalar_constant_op@N@internal@Eigen@@$$CBV?$Matrix@N$03$00$0A@$03$00@3@@1@AEBU?$div_assign_op@NN@01@@Z
	??$call_dense_assignment_loop@V?$Matrix@N$03$00$0A@$03$00@Eigen@@V?$Product@V?$Transpose@$$CBV?$Matrix@N$02$03$0A@$02$03@Eigen@@@Eigen@@V?$CwiseUnaryOp@U?$core_cast_op@MN@internal@Eigen@@$$CBV?$Matrix@M$02$00$0A@$02$00@3@@2@$00@2@U?$assign_op@NN@internal@2@@internal@Eigen@@YAXAEAV?$Matrix@N$03$00$0A@$03$00@1@AEBV?$Product@V?$Transpose@$$CBV?$Matrix@N$02$03$0A@$02$03@Eigen@@@Eigen@@V?$CwiseUnaryOp@U?$core_cast_op@MN@internal@Eigen@@$$CBV?$Matrix@M$02$00$0A@$02$00@3@@2@$00@1@AEBU?$assign_op@NN@01@@Z
	??$call_dense_assignment_loop@V?$Matrix@N$0?0$00$0A@$02$00@Eigen@@V?$Product@V?$DiagonalWrapper@$$CBV?$CwiseUnaryOp@U?$scalar_inverse_op@N@internal@Eigen@@$$CBV?$Block@$$CBV?$Matrix@N$02$00$0A@$02$00@Eigen@@$0?0$00$0A@@3@@Eigen@@@Eigen@@V?$Matrix@N$0?0$00$0A@$02$00@2@$00@2@U?$assign_op@NN@internal@2@@internal@Eigen@@YAXAEAV?$Matrix@N$0?0$00$0A@$02$00@1@AEBV?$Product@V?$DiagonalWrapper@$$CBV?$CwiseUnaryOp@U?$scalar_inverse_op@N@internal@Eigen@@$$CBV?$Block@$$CBV?$Matrix@N$02$00$0A@$02$00@Eigen@@$0?0$00$0A@@3@@Eigen@@@Eigen@@V?$Matrix@N$0?0$00$0A@$02$00@2@$00@1@AEBU?$assign_op@NN@01@@Z
	??$call_dense_assignment_loop@V?$Matrix@N$0?0$00$0A@$02$00@Eigen@@V?$Product@V?$Transpose@$$CBV?$Block@$$CBV?$Matrix@N$02$02$0A@$02$02@Eigen@@$02$0?0$00@Eigen@@@Eigen@@V?$Matrix@N$02$00$0A@$02$00@2@$00@2@U?$assign_op@NN@internal@2@@internal@Eigen@@YAXAEAV?$Matrix@N$0?0$00$0A@$02$00@1@AEBV?$Product@V?$Transpose@$$CBV?$Block@$$CBV?$Matrix@N$02$02$0A@$02$02@Eigen@@$02$0?0$00@Eigen@@@Eigen@@V?$Matrix@N$02$00$0A@$02$00@2@$00@1@AEBU?$assign_op@NN@01@@Z
	??$call_dense_assignment_loop@V?$Transpose@V?$Matrix@N$02$00$0A@$02$00@Eigen@@@Eigen@@V?$Matrix@N$00$02$00$00$02@2@U?$assign_op@NN@internal@2@@internal@Eigen@@YAXAEAV?$Transpose@V?$Matrix@N$02$00$0A@$02$00@Eigen@@@1@AEBV?$Matrix@N$00$02$00$00$02@1@AEBU?$assign_op@NN@01@@Z
	??$cast@M@?$DenseBase@V?$Matrix@N$02$00$0A@$02$00@Eigen@@@Eigen@@QEBA?BV?$CwiseUnaryOp@U?$core_cast_op@NM@internal@Eigen@@$$CBV?$Matrix@N$02$00$0A@$02$00@3@@1@XZ
	??$cast@M@?$DenseBase@V?$Matrix@N$03$00$0A@$03$00@Eigen@@@Eigen@@QEBA?BV?$CwiseUnaryOp@U?$core_cast_op@NM@internal@Eigen@@$$CBV?$Matrix@N$03$00$0A@$03$00@3@@1@XZ
	??$cast@M@?$DenseBase@V?$Transpose@V?$Matrix@N$03$02$0A@$03$02@Eigen@@@Eigen@@@Eigen@@QEBA?BV?$CwiseUnaryOp@U?$core_cast_op@NM@internal@Eigen@@$$CBV?$Transpose@V?$Matrix@N$03$02$0A@$03$02@Eigen@@@3@@1@XZ
	??$cast@MN@internal@Eigen@@YANAEBM@Z
	??$cast@N@?$DenseBase@V?$Matrix@M$02$00$0A@$02$00@Eigen@@@Eigen@@QEBA?BV?$CwiseUnaryOp@U?$core_cast_op@MN@internal@Eigen@@$$CBV?$Matrix@M$02$00$0A@$02$00@3@@1@XZ
	??$cast@NM@internal@Eigen@@YAMAEBN@Z
	??$checkSanity@V?$Block@$$CBV?$Block@$$CBV?$Matrix@N$02$02$0A@$02$02@Eigen@@$02$0?0$00@Eigen@@$00$0?0$0A@@Eigen@@@?$MapBase@V?$Block@$$CBV?$Block@$$CBV?$Matrix@N$02$02$0A@$02$02@Eigen@@$02$0?0$00@Eigen@@$00$0?0$0A@@Eigen@@$0A@@Eigen@@IEBAXPEAX@Z
	??$checkSanity@V?$Block@$$CBV?$Matrix@N$02$00$0A@$02$00@Eigen@@$00$00$0A@@Eigen@@@?$MapBase@V?$Block@$$CBV?$Matrix@N$02$00$0A@$02$00@Eigen@@$00$00$0A@@Eigen@@$0A@@Eigen@@IEBAXPEAX@Z
	??$checkSanity@V?$Block@$$CBV?$Matrix@N$02$00$0A@$02$00@Eigen@@$02$00$00@Eigen@@@?$MapBase@V?$Block@$$CBV?$Matrix@N$02$00$0A@$02$00@Eigen@@$02$00$00@Eigen@@$0A@@Eigen@@IEBAXPEAX@Z
	??$checkSanity@V?$Block@$$CBV?$Matrix@N$02$00$0A@$02$00@Eigen@@$0?0$00$0A@@Eigen@@@?$MapBase@V?$Block@$$CBV?$Matrix@N$02$00$0A@$02$00@Eigen@@$0?0$00$0A@@Eigen@@$0A@@Eigen@@IEBAXPEAX@Z
	??$checkSanity@V?$Block@$$CBV?$Matrix@N$02$02$0A@$02$02@Eigen@@$02$02$0A@@Eigen@@@?$MapBase@V?$Block@$$CBV?$Matrix@N$02$02$0A@$02$02@Eigen@@$02$02$0A@@Eigen@@$0A@@Eigen@@IEBAXPEAX@Z
	??$checkSanity@V?$Block@$$CBV?$Matrix@N$02$02$0A@$02$02@Eigen@@$02$0?0$00@Eigen@@@?$MapBase@V?$Block@$$CBV?$Matrix@N$02$02$0A@$02$02@Eigen@@$02$0?0$00@Eigen@@$0A@@Eigen@@IEBAXPEAX@Z
	??$checkSanity@V?$Block@$$CBV?$Matrix@N$02$03$00$02$03@Eigen@@$00$03$00@Eigen@@@?$MapBase@V?$Block@$$CBV?$Matrix@N$02$03$00$02$03@Eigen@@$00$03$00@Eigen@@$0A@@Eigen@@IEBAXPEAX@Z
	??$checkSanity@V?$Block@$$CBV?$Matrix@N$02$03$0A@$02$03@Eigen@@$00$02$0A@@Eigen@@@?$MapBase@V?$Block@$$CBV?$Matrix@N$02$03$0A@$02$03@Eigen@@$00$02$0A@@Eigen@@$0A@@Eigen@@IEBAXPEAX@Z
	??$checkSanity@V?$Block@$$CBV?$Matrix@N$02$03$0A@$02$03@Eigen@@$00$03$0A@@Eigen@@@?$MapBase@V?$Block@$$CBV?$Matrix@N$02$03$0A@$02$03@Eigen@@$00$03$0A@@Eigen@@$0A@@Eigen@@IEBAXPEAX@Z
	??$checkSanity@V?$Block@$$CBV?$Matrix@N$03$00$0A@$03$00@Eigen@@$03$00$00@Eigen@@@?$MapBase@V?$Block@$$CBV?$Matrix@N$03$00$0A@$03$00@Eigen@@$03$00$00@Eigen@@$0A@@Eigen@@IEBAXPEAX@Z
	??$checkSanity@V?$Block@$$CBV?$Matrix@N$03$02$0A@$03$02@Eigen@@$03$00$00@Eigen@@@?$MapBase@V?$Block@$$CBV?$Matrix@N$03$02$0A@$03$02@Eigen@@$03$00$00@Eigen@@$0A@@Eigen@@IEBAXPEAX@Z
	??$checkSanity@V?$Block@$$CBV?$Matrix@N$03$03$0A@$03$03@Eigen@@$03$00$00@Eigen@@@?$MapBase@V?$Block@$$CBV?$Matrix@N$03$03$0A@$03$03@Eigen@@$03$00$00@Eigen@@$0A@@Eigen@@IEBAXPEAX@Z
	??$checkSanity@V?$Block@$$CBV?$Matrix@N$0?0$00$0A@$02$00@Eigen@@$0?0$00$00@Eigen@@@?$MapBase@V?$Block@$$CBV?$Matrix@N$0?0$00$0A@$02$00@Eigen@@$0?0$00$00@Eigen@@$0A@@Eigen@@IEBAXPEAX@Z
	??$checkSanity@V?$Block@$$CBV?$Transpose@$$CBV?$Block@$$CBV?$Matrix@N$02$02$0A@$02$02@Eigen@@$02$0?0$00@Eigen@@@Eigen@@$00$02$00@Eigen@@@?$MapBase@V?$Block@$$CBV?$Transpose@$$CBV?$Block@$$CBV?$Matrix@N$02$02$0A@$02$02@Eigen@@$02$0?0$00@Eigen@@@Eigen@@$00$02$00@Eigen@@$0A@@Eigen@@IEBAXPEAX@Z
	??$checkSanity@V?$Block@$$CBV?$Transpose@$$CBV?$Matrix@N$02$03$0A@$02$03@Eigen@@@Eigen@@$00$02$00@Eigen@@@?$MapBase@V?$Block@$$CBV?$Transpose@$$CBV?$Matrix@N$02$03$0A@$02$03@Eigen@@@Eigen@@$00$02$00@Eigen@@$0A@@Eigen@@IEBAXPEAX@Z
	??$checkSanity@V?$Block@$$CBV?$Transpose@V?$Matrix@N$02$00$0A@$02$00@Eigen@@@Eigen@@$00$00$0A@@Eigen@@@?$MapBase@V?$Block@$$CBV?$Transpose@V?$Matrix@N$02$00$0A@$02$00@Eigen@@@Eigen@@$00$00$0A@@Eigen@@$0A@@Eigen@@IEBAXPEAX@Z
	??$checkSanity@V?$Block@V?$Matrix@N$01$01$0A@$01$01@Eigen@@$00$01$0A@@Eigen@@@?$MapBase@V?$Block@V?$Matrix@N$01$01$0A@$01$01@Eigen@@$00$01$0A@@Eigen@@$0A@@Eigen@@IEBAXPEAX@Z
	??$checkSanity@V?$Block@V?$Matrix@N$02$00$0A@$02$00@Eigen@@$0?0$00$0A@@Eigen@@@?$MapBase@V?$Block@V?$Matrix@N$02$00$0A@$02$00@Eigen@@$0?0$00$0A@@Eigen@@$0A@@Eigen@@IEBAXPEAX@Z
	??$checkSanity@V?$Block@V?$Matrix@N$02$02$0A@$02$02@Eigen@@$00$02$0A@@Eigen@@@?$MapBase@V?$Block@V?$Matrix@N$02$02$0A@$02$02@Eigen@@$00$02$0A@@Eigen@@$0A@@Eigen@@IEBAXPEAX@Z
	??$checkSanity@V?$Block@V?$Matrix@N$02$02$0A@$02$02@Eigen@@$02$00$00@Eigen@@@?$MapBase@V?$Block@V?$Matrix@N$02$02$0A@$02$02@Eigen@@$02$00$00@Eigen@@$0A@@Eigen@@IEBAXPEAX@Z
	??$checkSanity@V?$Block@V?$Matrix@N$02$03$0A@$02$03@Eigen@@$00$02$0A@@Eigen@@@?$MapBase@V?$Block@V?$Matrix@N$02$03$0A@$02$03@Eigen@@$00$02$0A@@Eigen@@$0A@@Eigen@@IEBAXPEAX@Z
	??$checkSanity@V?$Block@V?$Matrix@N$03$00$0A@$03$00@Eigen@@$02$00$0A@@Eigen@@@?$MapBase@V?$Block@V?$Matrix@N$03$00$0A@$03$00@Eigen@@$02$00$0A@@Eigen@@$0A@@Eigen@@IEBAXPEAX@Z
	??$checkSanity@V?$Block@V?$Matrix@N$03$00$0A@$03$00@Eigen@@$0?0$00$0A@@Eigen@@@?$MapBase@V?$Block@V?$Matrix@N$03$00$0A@$03$00@Eigen@@$0?0$00$0A@@Eigen@@$0A@@Eigen@@IEBAXPEAX@Z
	??$check_svd_options_assertions@V?$MatrixBase@V?$Matrix@N$02$02$0A@$02$02@Eigen@@@Eigen@@$0A@@internal@Eigen@@YAXI_J0@Z
	??$clone@M@?$Image@M@NRRD@@QEAAAEAV01@AEBV?$ImageView@M@1@@Z
	??$coeff@_J@?$evaluator@V?$CwiseNullaryOp@U?$scalar_constant_op@N@internal@Eigen@@$$CBV?$Matrix@N$00$02$00$00$02@3@@Eigen@@@internal@Eigen@@QEBAN_J@Z
	??$coeff@_J@?$evaluator@V?$CwiseNullaryOp@U?$scalar_constant_op@N@internal@Eigen@@$$CBV?$Matrix@N$02$00$0A@$02$00@3@@Eigen@@@internal@Eigen@@QEBAN_J@Z
	??$coeff@_J@?$evaluator@V?$CwiseNullaryOp@U?$scalar_constant_op@N@internal@Eigen@@$$CBV?$Matrix@N$02$02$0A@$02$02@3@@Eigen@@@internal@Eigen@@QEBAN_J0@Z
	??$coeff@_J@?$evaluator@V?$CwiseNullaryOp@U?$scalar_identity_op@N@internal@Eigen@@V?$Matrix@N$02$02$0A@$02$02@3@@Eigen@@@internal@Eigen@@QEBAN_J0@Z
	??$comparePacket@U__m128d@@@?$max_coeff_functor@N$0A@$0A@@internal@Eigen@@QEBA?AU__m128d@@AEBU3@0@Z
	??$compute_impl@V?$Matrix@N$02$02$0A@$02$02@Eigen@@@?$JacobiSVD@V?$Matrix@N$02$02$0A@$02$02@Eigen@@$0A@@Eigen@@AEAAAEAV01@AEBV?$MatrixBase@V?$Matrix@N$02$02$0A@$02$02@Eigen@@@1@I@Z
	??$conj@N@numext@Eigen@@YANAEBN@Z
	??$construct@H$$V@?$_Default_allocator_traits@V?$allocator@H@std@@@std@@SAXAEAV?$allocator@H@1@QEAH@Z
	??$construct@HH@?$_Default_allocator_traits@V?$allocator@H@std@@@std@@SAXAEAV?$allocator@H@1@QEAH$$QEAH@Z
	??$construct@M$$V@?$_Default_allocator_traits@V?$allocator@M@std@@@std@@SAXAEAV?$allocator@M@1@QEAM@Z
	??$construct@MAEBM@?$_Default_allocator_traits@V?$allocator@M@std@@@std@@SAXAEAV?$allocator@M@1@QEAMAEBM@Z
	??$construct@MM@?$_Default_allocator_traits@V?$allocator@M@std@@@std@@SAXAEAV?$allocator@M@1@QEAM$$QEAM@Z
	??$construct@N$$V@?$_Default_allocator_traits@V?$allocator@N@std@@@std@@SAXAEAV?$allocator@N@1@QEAN@Z
	??$construct@NN@?$_Default_allocator_traits@V?$allocator@N@std@@@std@@SAXAEAV?$allocator@N@1@QEAN$$QEAN@Z
	??$construct@PEAV?$BindlessTexture2D@M@UtilsCuda@@AEAPEAV12@@?$_Default_allocator_traits@V?$allocator@PEAV?$BindlessTexture2D@M@UtilsCuda@@@std@@@std@@SAXAEAV?$allocator@PEAV?$BindlessTexture2D@M@UtilsCuda@@@1@QEAPEAV?$BindlessTexture2D@M@UtilsCuda@@AEAPEAV34@@Z
	??$construct@PEAVRadonIntermediate@EpipolarConsistency@@AEAPEAV12@@?$_Default_allocator_traits@V?$allocator@PEAVRadonIntermediate@EpipolarConsistency@@@std@@@std@@SAXAEAV?$allocator@PEAVRadonIntermediate@EpipolarConsistency@@@1@QEAPEAVRadonIntermediate@EpipolarConsistency@@AEAPEAV34@@Z
	??$construct@U?$pair@$$CBV?$basic_string@DU?$char_traits@D@std@@V?$allocator@D@2@@std@@V12@@std@@AEAU12@@?$_Default_allocator_traits@V?$allocator@U?$_Tree_node@U?$pair@$$CBV?$basic_string@DU?$char_traits@D@std@@V?$allocator@D@2@@std@@V12@@std@@PEAX@std@@@std@@@std@@SAXAEAV?$allocator@U?$_Tree_node@U?$pair@$$CBV?$basic_string@DU?$char_traits@D@std@@V?$allocator@D@2@@std@@V12@@std@@PEAX@std@@@1@QEAU?$pair@$$CBV?$basic_string@DU?$char_traits@D@std@@V?$allocator@D@2@@std@@V12@@1@AEAU31@@Z
	??$construct@U?$pair@$$CBV?$basic_string@DU?$char_traits@D@std@@V?$allocator@D@2@@std@@V12@@std@@AEBUpiecewise_construct_t@2@V?$tuple@$$QEAV?$basic_string@DU?$char_traits@D@std@@V?$allocator@D@2@@std@@@2@V?$tuple@$$V@2@@?$_Default_allocator_traits@V?$allocator@U?$_Tree_node@U?$pair@$$CBV?$basic_string@DU?$char_traits@D@std@@V?$allocator@D@2@@std@@V12@@std@@PEAX@std@@@std@@@std@@SAXAEAV?$allocator@U?$_Tree_node@U?$pair@$$CBV?$basic_string@DU?$char_traits@D@std@@V?$allocator@D@2@@std@@V12@@std@@PEAX@std@@@1@QEAU?$pair@$$CBV?$basic_string@DU?$char_traits@D@std@@V?$allocator@D@2@@std@@V12@@1@AEBUpiecewise_construct_t@1@$$QEAV?$tuple@$$QEAV?$basic_string@DU?$char_traits@D@std@@V?$allocator@D@2@@std@@@1@$$QEAV?$tuple@$$V@1@@Z
	??$construct@U?$pair@$$CBV?$basic_string@DU?$char_traits@D@std@@V?$allocator@D@2@@std@@V12@@std@@AEBUpiecewise_construct_t@2@V?$tuple@AEBV?$basic_string@DU?$char_traits@D@std@@V?$allocator@D@2@@std@@@2@V?$tuple@$$V@2@@?$_Default_allocator_traits@V?$allocator@U?$_Tree_node@U?$pair@$$CBV?$basic_string@DU?$char_traits@D@std@@V?$allocator@D@2@@std@@V12@@std@@PEAX@std@@@std@@@std@@SAXAEAV?$allocator@U?$_Tree_node@U?$pair@$$CBV?$basic_string@DU?$char_traits@D@std@@V?$allocator@D@2@@std@@V12@@std@@PEAX@std@@@1@QEAU?$pair@$$CBV?$basic_string@DU?$char_traits@D@std@@V?$allocator@D@2@@std@@V12@@1@AEBUpiecewise_construct_t@1@$$QEAV?$tuple@AEBV?$basic_string@DU?$char_traits@D@std@@V?$allocator@D@2@@std@@@1@$$QEAV?$tuple@$$V@1@@Z
	??$construct@U?$pair@MM@std@@U12@@?$_Default_allocator_traits@V?$allocator@U?$pair@MM@std@@@std@@@std@@SAXAEAV?$allocator@U?$pair@MM@std@@@1@QEAU?$pair@MM@1@$$QEAU31@@Z
	??$construct@U?$pair@V?$Matrix@M$02$00$0A@$02$00@Eigen@@V12@@std@@$$V@?$_Default_allocator_traits@V?$allocator@U?$pair@V?$Matrix@M$02$00$0A@$02$00@Eigen@@V12@@std@@@std@@@std@@SAXAEAV?$allocator@U?$pair@V?$Matrix@M$02$00$0A@$02$00@Eigen@@V12@@std@@@1@QEAU?$pair@V?$Matrix@M$02$00$0A@$02$00@Eigen@@V12@@1@@Z
	??$construct@UFBCC_weighting_info@@$$V@?$_Default_allocator_traits@V?$allocator@UFBCC_weighting_info@@@std@@@std@@SAXAEAV?$allocator@UFBCC_weighting_info@@@1@QEAUFBCC_weighting_info@@@Z
	??$construct@V?$Matrix@H$03$00$0A@$03$00@Eigen@@V12@@?$_Default_allocator_traits@V?$allocator@V?$Matrix@H$03$00$0A@$03$00@Eigen@@@std@@@std@@SAXAEAV?$allocator@V?$Matrix@H$03$00$0A@$03$00@Eigen@@@1@QEAV?$Matrix@H$03$00$0A@$03$00@Eigen@@$$QEAV34@@Z
	??$construct@V?$Matrix@M$02$03$0A@$02$03@Eigen@@$$V@?$_Default_allocator_traits@V?$allocator@V?$Matrix@M$02$03$0A@$02$03@Eigen@@@std@@@std@@SAXAEAV?$allocator@V?$Matrix@M$02$03$0A@$02$03@Eigen@@@1@QEAV?$Matrix@M$02$03$0A@$02$03@Eigen@@@Z
	??$construct@V?$Matrix@M$03$00$0A@$03$00@Eigen@@$$V@?$_Default_allocator_traits@V?$allocator@V?$Matrix@M$03$00$0A@$03$00@Eigen@@@std@@@std@@SAXAEAV?$allocator@V?$Matrix@M$03$00$0A@$03$00@Eigen@@@1@QEAV?$Matrix@M$03$00$0A@$03$00@Eigen@@@Z
	??$construct@V?$Matrix@N$02$03$0A@$02$03@Eigen@@AEAV12@@?$_Default_allocator_traits@V?$allocator@V?$Matrix@N$02$03$0A@$02$03@Eigen@@@std@@@std@@SAXAEAV?$allocator@V?$Matrix@N$02$03$0A@$02$03@Eigen@@@1@QEAV?$Matrix@N$02$03$0A@$02$03@Eigen@@AEAV34@@Z
	??$construct@_K$$V@?$_Default_allocator_traits@V?$allocator@_K@std@@@std@@SAXAEAV?$allocator@_K@1@QEA_K@Z
	??$construct_at@U?$evaluator@V?$Matrix@N$00$00$0A@$00$00@Eigen@@@internal@Eigen@@AEAV?$Matrix@N$00$00$0A@$00$00@3@@internal@Eigen@@YAPEAU?$evaluator@V?$Matrix@N$00$00$0A@$00$00@Eigen@@@01@PEAU201@AEAV?$Matrix@N$00$00$0A@$00$00@1@@Z
	??$convert@DD@NRRD@@YAPEADPEADH@Z
	??$convert@DE@NRRD@@YAPEAEPEADH@Z
	??$convert@DF@NRRD@@YAPEAFPEADH@Z
	??$convert@DG@NRRD@@YAPEAGPEADH@Z
	??$convert@DH@NRRD@@YAPEAHPEADH@Z
	??$convert@DI@NRRD@@YAPEAIPEADH@Z
	??$convert@DJ@NRRD@@YAPEAJPEADH@Z
	??$convert@DK@NRRD@@YAPEAKPEADH@Z
	??$convert@DM@NRRD@@YAPEAMPEADH@Z
	??$convert@DN@NRRD@@YAPEANPEADH@Z
	??$convert@ED@NRRD@@YAPEADPEAEH@Z
	??$convert@EE@NRRD@@YAPEAEPEAEH@Z
	??$convert@EF@NRRD@@YAPEAFPEAEH@Z
	??$convert@EG@NRRD@@YAPEAGPEAEH@Z
	??$convert@EH@NRRD@@YAPEAHPEAEH@Z
	??$convert@EI@NRRD@@YAPEAIPEAEH@Z
	??$convert@EJ@NRRD@@YAPEAJPEAEH@Z
	??$convert@EK@NRRD@@YAPEAKPEAEH@Z
	??$convert@EM@NRRD@@YAPEAMPEAEH@Z
	??$convert@EN@NRRD@@YAPEANPEAEH@Z
	??$convert@FD@NRRD@@YAPEADPEAFH@Z
	??$convert@FE@NRRD@@YAPEAEPEAFH@Z
	??$convert@FF@NRRD@@YAPEAFPEAFH@Z
	??$convert@FG@NRRD@@YAPEAGPEAFH@Z
	??$convert@FH@NRRD@@YAPEAHPEAFH@Z
	??$convert@FI@NRRD@@YAPEAIPEAFH@Z
	??$convert@FJ@NRRD@@YAPEAJPEAFH@Z
	??$convert@FK@NRRD@@YAPEAKPEAFH@Z
	??$convert@FM@NRRD@@YAPEAMPEAFH@Z
	??$convert@FN@NRRD@@YAPEANPEAFH@Z
	??$convert@GD@NRRD@@YAPEADPEAGH@Z
	??$convert@GE@NRRD@@YAPEAEPEAGH@Z
	??$convert@GF@NRRD@@YAPEAFPEAGH@Z
	??$convert@GG@NRRD@@YAPEAGPEAGH@Z
	??$convert@GH@NRRD@@YAPEAHPEAGH@Z
	??$convert@GI@NRRD@@YAPEAIPEAGH@Z
	??$convert@GJ@NRRD@@YAPEAJPEAGH@Z
	??$convert@GK@NRRD@@YAPEAKPEAGH@Z
	??$convert@GM@NRRD@@YAPEAMPEAGH@Z
	??$convert@GN@NRRD@@YAPEANPEAGH@Z
	??$convert@HD@NRRD@@YAPEADPEAHH@Z
	??$convert@HE@NRRD@@YAPEAEPEAHH@Z
	??$convert@HF@NRRD@@YAPEAFPEAHH@Z
	??$convert@HG@NRRD@@YAPEAGPEAHH@Z
	??$convert@HH@NRRD@@YAPEAHPEAHH@Z
	??$convert@HI@NRRD@@YAPEAIPEAHH@Z
	??$convert@HJ@NRRD@@YAPEAJPEAHH@Z
	??$convert@HK@NRRD@@YAPEAKPEAHH@Z
	??$convert@HM@NRRD@@YAPEAMPEAHH@Z
	??$convert@HN@NRRD@@YAPEANPEAHH@Z
	??$convert@ID@NRRD@@YAPEADPEAIH@Z
	??$convert@IE@NRRD@@YAPEAEPEAIH@Z
	??$convert@IF@NRRD@@YAPEAFPEAIH@Z
	??$convert@IG@NRRD@@YAPEAGPEAIH@Z
	??$convert@IH@NRRD@@YAPEAHPEAIH@Z
	??$convert@II@NRRD@@YAPEAIPEAIH@Z
	??$convert@IJ@NRRD@@YAPEAJPEAIH@Z
	??$convert@IK@NRRD@@YAPEAKPEAIH@Z
	??$convert@IM@NRRD@@YAPEAMPEAIH@Z
	??$convert@IN@NRRD@@YAPEANPEAIH@Z
	??$convert@JD@NRRD@@YAPEADPEAJH@Z
	??$convert@JE@NRRD@@YAPEAEPEAJH@Z
	??$convert@JF@NRRD@@YAPEAFPEAJH@Z
	??$convert@JG@NRRD@@YAPEAGPEAJH@Z
	??$convert@JH@NRRD@@YAPEAHPEAJH@Z
	??$convert@JI@NRRD@@YAPEAIPEAJH@Z
	??$convert@JJ@NRRD@@YAPEAJPEAJH@Z
	??$convert@JK@NRRD@@YAPEAKPEAJH@Z
	??$convert@JM@NRRD@@YAPEAMPEAJH@Z
	??$convert@JN@NRRD@@YAPEANPEAJH@Z
	??$convert@KD@NRRD@@YAPEADPEAKH@Z
	??$convert@KE@NRRD@@YAPEAEPEAKH@Z
	??$convert@KF@NRRD@@YAPEAFPEAKH@Z
	??$convert@KG@NRRD@@YAPEAGPEAKH@Z
	??$convert@KH@NRRD@@YAPEAHPEAKH@Z
	??$convert@KI@NRRD@@YAPEAIPEAKH@Z
	??$convert@KJ@NRRD@@YAPEAJPEAKH@Z
	??$convert@KK@NRRD@@YAPEAKPEAKH@Z
	??$convert@KM@NRRD@@YAPEAMPEAKH@Z
	??$convert@KN@NRRD@@YAPEANPEAKH@Z
	??$convert@MD@NRRD@@YAPEADPEAMH@Z
	??$convert@ME@NRRD@@YAPEAEPEAMH@Z
	??$convert@MF@NRRD@@YAPEAFPEAMH@Z
	??$convert@MG@NRRD@@YAPEAGPEAMH@Z
	??$convert@MH@NRRD@@YAPEAHPEAMH@Z
	??$convert@MI@NRRD@@YAPEAIPEAMH@Z
	??$convert@MJ@NRRD@@YAPEAJPEAMH@Z
	??$convert@MK@NRRD@@YAPEAKPEAMH@Z
	??$convert@MM@NRRD@@YAPEAMPEAMH@Z
	??$convert@MN@NRRD@@YAPEANPEAMH@Z
	??$convert@ND@NRRD@@YAPEADPEANH@Z
	??$convert@NE@NRRD@@YAPEAEPEANH@Z
	??$convert@NF@NRRD@@YAPEAFPEANH@Z
	??$convert@NG@NRRD@@YAPEAGPEANH@Z
	??$convert@NH@NRRD@@YAPEAHPEANH@Z
	??$convert@NI@NRRD@@YAPEAIPEANH@Z
	??$convert@NJ@NRRD@@YAPEAJPEANH@Z
	??$convert@NK@NRRD@@YAPEAKPEANH@Z
	??$convert@NM@NRRD@@YAPEAMPEANH@Z
	??$convert@NN@NRRD@@YAPEANPEANH@Z
	??$convertEndian@D@NRRD@@YAXAEAD@Z
	??$convertEndian@E@NRRD@@YAXAEAE@Z
	??$convertEndian@F@NRRD@@YAXAEAF@Z
	??$convertEndian@G@NRRD@@YAXAEAG@Z
	??$convertEndian@H@NRRD@@YAXAEAH@Z
	??$convertEndian@I@NRRD@@YAXAEAI@Z
	??$convertEndian@J@NRRD@@YAXAEAJ@Z
	??$convertEndian@K@NRRD@@YAXAEAK@Z
	??$convertEndian@M@NRRD@@YAXAEAM@Z
	??$convertEndian@N@NRRD@@YAXAEAN@Z
	??$convert_index@_J_J@internal@Eigen@@YA_JAEB_J@Z
	??$copyDataFrom@M@?$ImageView@M@NRRD@@QEAAXPEBM@Z
	??$cross@V?$Matrix@N$02$00$0A@$02$00@Eigen@@@?$MatrixBase@V?$Matrix@N$02$00$0A@$02$00@Eigen@@@Eigen@@QEBA?AV?$Matrix@N$02$00$0A@$02$00@1@AEBV01@@Z
	??$cwiseProduct@V?$Block@$$CBV?$Matrix@N$02$00$0A@$02$00@Eigen@@$02$00$00@Eigen@@@?$MatrixBase@V?$Transpose@$$CBV?$Block@$$CBV?$Transpose@$$CBV?$Block@$$CBV?$Matrix@N$02$02$0A@$02$02@Eigen@@$02$0?0$00@Eigen@@@Eigen@@$00$02$00@Eigen@@@Eigen@@@Eigen@@QEBA?BV?$CwiseBinaryOp@U?$scalar_product_op@NN@internal@Eigen@@$$CBV?$Transpose@$$CBV?$Block@$$CBV?$Transpose@$$CBV?$Block@$$CBV?$Matrix@N$02$02$0A@$02$02@Eigen@@$02$0?0$00@Eigen@@@Eigen@@$00$02$00@Eigen@@@3@$$CBV?$Block@$$CBV?$Matrix@N$02$00$0A@$02$00@Eigen@@$02$00$00@3@@1@AEBV?$MatrixBase@V?$Block@$$CBV?$Matrix@N$02$00$0A@$02$00@Eigen@@$02$00$00@Eigen@@@1@@Z
	??$cwiseProduct@V?$Block@$$CBV?$Matrix@N$02$00$0A@$02$00@Eigen@@$02$00$00@Eigen@@@?$MatrixBase@V?$Transpose@$$CBV?$Block@$$CBV?$Transpose@$$CBV?$Matrix@N$02$03$0A@$02$03@Eigen@@@Eigen@@$00$02$00@Eigen@@@Eigen@@@Eigen@@QEBA?BV?$CwiseBinaryOp@U?$scalar_product_op@NN@internal@Eigen@@$$CBV?$Transpose@$$CBV?$Block@$$CBV?$Transpose@$$CBV?$Matrix@N$02$03$0A@$02$03@Eigen@@@Eigen@@$00$02$00@Eigen@@@3@$$CBV?$Block@$$CBV?$Matrix@N$02$00$0A@$02$00@Eigen@@$02$00$00@3@@1@AEBV?$MatrixBase@V?$Block@$$CBV?$Matrix@N$02$00$0A@$02$00@Eigen@@$02$00$00@Eigen@@@1@@Z
	??$cwiseProduct@V?$Block@$$CBV?$Matrix@N$03$00$0A@$03$00@Eigen@@$03$00$00@Eigen@@@?$MatrixBase@V?$Transpose@$$CBV?$Block@$$CBV?$Matrix@N$02$03$00$02$03@Eigen@@$00$03$00@Eigen@@@Eigen@@@Eigen@@QEBA?BV?$CwiseBinaryOp@U?$scalar_product_op@NN@internal@Eigen@@$$CBV?$Transpose@$$CBV?$Block@$$CBV?$Matrix@N$02$03$00$02$03@Eigen@@$00$03$00@Eigen@@@3@$$CBV?$Block@$$CBV?$Matrix@N$03$00$0A@$03$00@Eigen@@$03$00$00@3@@1@AEBV?$MatrixBase@V?$Block@$$CBV?$Matrix@N$03$00$0A@$03$00@Eigen@@$03$00$00@Eigen@@@1@@Z
	??$cwiseProduct@V?$Block@$$CBV?$Matrix@N$03$00$0A@$03$00@Eigen@@$03$00$00@Eigen@@@?$MatrixBase@V?$Transpose@$$CBV?$Block@$$CBV?$Matrix@N$02$03$0A@$02$03@Eigen@@$00$03$0A@@Eigen@@@Eigen@@@Eigen@@QEBA?BV?$CwiseBinaryOp@U?$scalar_product_op@NN@internal@Eigen@@$$CBV?$Transpose@$$CBV?$Block@$$CBV?$Matrix@N$02$03$0A@$02$03@Eigen@@$00$03$0A@@Eigen@@@3@$$CBV?$Block@$$CBV?$Matrix@N$03$00$0A@$03$00@Eigen@@$03$00$00@3@@1@AEBV?$MatrixBase@V?$Block@$$CBV?$Matrix@N$03$00$0A@$03$00@Eigen@@$03$00$00@Eigen@@@1@@Z
	??$cwiseProduct@V?$Block@$$CBV?$Matrix@N$03$02$0A@$03$02@Eigen@@$03$00$00@Eigen@@@?$MatrixBase@V?$Transpose@$$CBV?$Block@$$CBV?$Matrix@N$02$03$0A@$02$03@Eigen@@$00$03$0A@@Eigen@@@Eigen@@@Eigen@@QEBA?BV?$CwiseBinaryOp@U?$scalar_product_op@NN@internal@Eigen@@$$CBV?$Transpose@$$CBV?$Block@$$CBV?$Matrix@N$02$03$0A@$02$03@Eigen@@$00$03$0A@@Eigen@@@3@$$CBV?$Block@$$CBV?$Matrix@N$03$02$0A@$03$02@Eigen@@$03$00$00@3@@1@AEBV?$MatrixBase@V?$Block@$$CBV?$Matrix@N$03$02$0A@$03$02@Eigen@@$03$00$00@Eigen@@@1@@Z
	??$cwiseProduct@V?$Block@$$CBV?$Matrix@N$03$03$0A@$03$03@Eigen@@$03$00$00@Eigen@@@?$MatrixBase@V?$Transpose@$$CBV?$Block@$$CBV?$Matrix@N$02$03$0A@$02$03@Eigen@@$00$03$0A@@Eigen@@@Eigen@@@Eigen@@QEBA?BV?$CwiseBinaryOp@U?$scalar_product_op@NN@internal@Eigen@@$$CBV?$Transpose@$$CBV?$Block@$$CBV?$Matrix@N$02$03$0A@$02$03@Eigen@@$00$03$0A@@Eigen@@@3@$$CBV?$Block@$$CBV?$Matrix@N$03$03$0A@$03$03@Eigen@@$03$00$00@3@@1@AEBV?$MatrixBase@V?$Block@$$CBV?$Matrix@N$03$03$0A@$03$03@Eigen@@$03$00$00@Eigen@@@1@@Z
	??$cwiseProduct@V?$Block@$$CBV?$Matrix@N$0?0$00$0A@$02$00@Eigen@@$0?0$00$00@Eigen@@@?$MatrixBase@V?$Transpose@$$CBV?$Block@$$CBV?$Block@$$CBV?$Matrix@N$02$02$0A@$02$02@Eigen@@$02$0?0$00@Eigen@@$00$0?0$0A@@Eigen@@@Eigen@@@Eigen@@QEBA?BV?$CwiseBinaryOp@U?$scalar_product_op@NN@internal@Eigen@@$$CBV?$Transpose@$$CBV?$Block@$$CBV?$Block@$$CBV?$Matrix@N$02$02$0A@$02$02@Eigen@@$02$0?0$00@Eigen@@$00$0?0$0A@@Eigen@@@3@$$CBV?$Block@$$CBV?$Matrix@N$0?0$00$0A@$02$00@Eigen@@$0?0$00$00@3@@1@AEBV?$MatrixBase@V?$Block@$$CBV?$Matrix@N$0?0$00$0A@$02$00@Eigen@@$0?0$00$00@Eigen@@@1@@Z
	??$cwiseProduct@V?$Block@$$CBV?$Transpose@V?$Matrix@N$02$00$0A@$02$00@Eigen@@@Eigen@@$00$00$0A@@Eigen@@@?$MatrixBase@V?$Transpose@$$CBV?$Block@$$CBV?$Matrix@N$02$00$0A@$02$00@Eigen@@$00$00$0A@@Eigen@@@Eigen@@@Eigen@@QEBA?BV?$CwiseBinaryOp@U?$scalar_product_op@NN@internal@Eigen@@$$CBV?$Transpose@$$CBV?$Block@$$CBV?$Matrix@N$02$00$0A@$02$00@Eigen@@$00$00$0A@@Eigen@@@3@$$CBV?$Block@$$CBV?$Transpose@V?$Matrix@N$02$00$0A@$02$00@Eigen@@@Eigen@@$00$00$0A@@3@@1@AEBV?$MatrixBase@V?$Block@$$CBV?$Transpose@V?$Matrix@N$02$00$0A@$02$00@Eigen@@@Eigen@@$00$00$0A@@Eigen@@@1@@Z
	??$default_value@H@@YAHXZ
	??$default_value@N@@YANXZ
	??$destroy@U?$pair@$$CBV?$basic_string@DU?$char_traits@D@std@@V?$allocator@D@2@@std@@V12@@std@@@?$_Default_allocator_traits@V?$allocator@U?$_Tree_node@U?$pair@$$CBV?$basic_string@DU?$char_traits@D@std@@V?$allocator@D@2@@std@@V12@@std@@PEAX@std@@@std@@@std@@SAXAEAV?$allocator@U?$_Tree_node@U?$pair@$$CBV?$basic_string@DU?$char_traits@D@std@@V?$allocator@D@2@@std@@V12@@std@@PEAX@std@@@1@QEAU?$pair@$$CBV?$basic_string@DU?$char_traits@D@std@@V?$allocator@D@2@@std@@V12@@1@@Z
	??$dot@V?$Block@V?$Matrix@N$03$00$0A@$03$00@Eigen@@$0?0$00$0A@@Eigen@@@?$MatrixBase@V?$Matrix@N$02$00$0A@$02$00@Eigen@@@Eigen@@QEBANAEBV?$MatrixBase@V?$Block@V?$Matrix@N$03$00$0A@$03$00@Eigen@@$0?0$00$0A@@Eigen@@@1@@Z
	??$endl@DU?$char_traits@D@std@@@std@@YAAEAV?$basic_ostream@DU?$char_traits@D@std@@@0@AEAV10@@Z
	??$equal_strict@NN@numext@Eigen@@YA_NAEBN0@Z
	??$erase@V?$_Tree_iterator@V?$_Tree_val@U?$_Tree_simple_types@U?$pair@$$CBV?$basic_string@DU?$char_traits@D@std@@V?$allocator@D@2@@std@@V12@@std@@@std@@@std@@@std@@$0A@@?$_Tree@V?$_Tmap_traits@V?$basic_string@DU?$char_traits@D@std@@V?$allocator@D@2@@std@@V12@U?$less@V?$basic_string@DU?$char_traits@D@std@@V?$allocator@D@2@@std@@@2@V?$allocator@U?$pair@$$CBV?$basic_string@DU?$char_traits@D@std@@V?$allocator@D@2@@std@@V12@@std@@@2@$0A@@std@@@std@@QEAA?AV?$_Tree_iterator@V?$_Tree_val@U?$_Tree_simple_types@U?$pair@$$CBV?$basic_string@DU?$char_traits@D@std@@V?$allocator@D@2@@std@@V12@@std@@@std@@@std@@@1@V21@@Z
	??$evalTo@V?$Block@V?$Matrix@N$03$00$0A@$03$00@Eigen@@$02$00$0A@@Eigen@@@?$generic_product_impl@V?$Block@$$CBV?$Matrix@N$02$02$0A@$02$02@Eigen@@$02$0?0$00@Eigen@@V?$Matrix@N$0?0$00$0A@$02$00@2@UDenseShape@2@U42@$02@internal@Eigen@@SAXAEAV?$Block@V?$Matrix@N$03$00$0A@$03$00@Eigen@@$02$00$0A@@2@AEBV?$Block@$$CBV?$Matrix@N$02$02$0A@$02$02@Eigen@@$02$0?0$00@2@AEBV?$Matrix@N$0?0$00$0A@$02$00@2@@Z
	??$evalTo@V?$Matrix@N$00$00$0A@$00$00@Eigen@@@?$generic_product_impl@V?$Transpose@V?$Matrix@N$02$00$0A@$02$00@Eigen@@@Eigen@@V?$Matrix@N$02$00$0A@$02$00@2@UDenseShape@2@U42@$05@internal@Eigen@@SAXAEAV?$Matrix@N$00$00$0A@$00$00@2@AEBV?$Transpose@V?$Matrix@N$02$00$0A@$02$00@Eigen@@@2@AEBV?$Matrix@N$02$00$0A@$02$00@2@@Z
	??$evalTo@V?$Matrix@N$02$00$0A@$02$00@Eigen@@@?$generic_product_impl@V?$Matrix@N$02$03$00$02$03@Eigen@@V?$Matrix@N$03$00$0A@$03$00@2@UDenseShape@2@U42@$02@internal@Eigen@@SAXAEAV?$Matrix@N$02$00$0A@$02$00@2@AEBV?$Matrix@N$02$03$00$02$03@2@AEBV?$Matrix@N$03$00$0A@$03$00@2@@Z
	??$evalTo@V?$Matrix@N$02$00$0A@$02$00@Eigen@@@?$generic_product_impl@V?$Matrix@N$02$03$0A@$02$03@Eigen@@V?$Matrix@N$03$00$0A@$03$00@2@UDenseShape@2@U42@$02@internal@Eigen@@SAXAEAV?$Matrix@N$02$00$0A@$02$00@2@AEBV?$Matrix@N$02$03$0A@$02$03@2@AEBV?$Matrix@N$03$00$0A@$03$00@2@@Z
	??$evalTo@V?$Matrix@N$02$02$0A@$02$02@Eigen@@@?$generic_product_impl@V?$Matrix@N$02$00$0A@$02$00@Eigen@@V?$Transpose@V?$Matrix@N$02$00$0A@$02$00@Eigen@@@2@UDenseShape@2@U42@$02@internal@Eigen@@SAXAEAV?$Matrix@N$02$02$0A@$02$02@2@AEBV?$Matrix@N$02$00$0A@$02$00@2@AEBV?$Transpose@V?$Matrix@N$02$00$0A@$02$00@Eigen@@@2@@Z
	??$evalTo@V?$Matrix@N$02$02$0A@$02$02@Eigen@@@?$generic_product_impl@V?$Product@V?$Matrix@N$02$03$0A@$02$03@Eigen@@V?$Matrix@N$03$03$0A@$03$03@2@$0A@@Eigen@@V?$Matrix@N$03$02$0A@$03$02@2@UDenseShape@2@U42@$02@internal@Eigen@@SAXAEAV?$Matrix@N$02$02$0A@$02$02@2@AEBV?$Product@V?$Matrix@N$02$03$0A@$02$03@Eigen@@V?$Matrix@N$03$03$0A@$03$03@2@$0A@@2@AEBV?$Matrix@N$03$02$0A@$03$02@2@@Z
	??$evalTo@V?$Matrix@N$02$03$0A@$02$03@Eigen@@@?$generic_product_impl@V?$Matrix@N$02$03$0A@$02$03@Eigen@@V?$Matrix@N$03$03$0A@$03$03@2@UDenseShape@2@U42@$02@internal@Eigen@@SAXAEAV?$Matrix@N$02$03$0A@$02$03@2@AEBV32@AEBV?$Matrix@N$03$03$0A@$03$03@2@@Z
	??$evalTo@V?$Matrix@N$03$00$0A@$03$00@Eigen@@@?$generic_product_impl@V?$Transpose@$$CBV?$Matrix@N$02$03$0A@$02$03@Eigen@@@Eigen@@V?$CwiseUnaryOp@U?$core_cast_op@MN@internal@Eigen@@$$CBV?$Matrix@M$02$00$0A@$02$00@3@@2@UDenseShape@2@U42@$02@internal@Eigen@@SAXAEAV?$Matrix@N$03$00$0A@$03$00@2@AEBV?$Transpose@$$CBV?$Matrix@N$02$03$0A@$02$03@Eigen@@@2@AEBV?$CwiseUnaryOp@U?$core_cast_op@MN@internal@Eigen@@$$CBV?$Matrix@M$02$00$0A@$02$00@3@@2@@Z
	??$evalTo@V?$Matrix@N$0?0$00$0A@$02$00@Eigen@@@?$generic_product_impl@V?$Transpose@$$CBV?$Block@$$CBV?$Matrix@N$02$02$0A@$02$02@Eigen@@$02$0?0$00@Eigen@@@Eigen@@V?$Matrix@N$02$00$0A@$02$00@2@UDenseShape@2@U42@$02@internal@Eigen@@SAXAEAV?$Matrix@N$0?0$00$0A@$02$00@2@AEBV?$Transpose@$$CBV?$Block@$$CBV?$Matrix@N$02$02$0A@$02$02@Eigen@@$02$0?0$00@Eigen@@@2@AEBV?$Matrix@N$02$00$0A@$02$00@2@@Z
	??$exchange@PEAH$$T@std@@YAPEAHAEAPEAH$$QEA$$T@Z
	??$exchange@PEAN$$T@std@@YAPEANAEAPEAN$$QEA$$T@Z
	??$exchange@PEAU?$_Tree_node@U?$pair@$$CBV?$basic_string@DU?$char_traits@D@std@@V?$allocator@D@2@@std@@V12@@std@@PEAX@std@@$$T@std@@YAPEAU?$_Tree_node@U?$pair@$$CBV?$basic_string@DU?$char_traits@D@std@@V?$allocator@D@2@@std@@V12@@std@@PEAX@0@AEAPEAU10@$$QEA$$T@Z
	??$exchange@PEAU?$_Tree_node@U?$pair@$$CBV?$basic_string@DU?$char_traits@D@std@@V?$allocator@D@2@@std@@V12@@std@@PEAX@std@@AEAPEAU12@@std@@YAPEAU?$_Tree_node@U?$pair@$$CBV?$basic_string@DU?$char_traits@D@std@@V?$allocator@D@2@@std@@V12@@std@@PEAX@0@AEAPEAU10@0@Z
	??$exchange@PEAU?$pair@V?$Matrix@M$02$00$0A@$02$00@Eigen@@V12@@std@@$$T@std@@YAPEAU?$pair@V?$Matrix@M$02$00$0A@$02$00@Eigen@@V12@@0@AEAPEAU10@$$QEA$$T@Z
	??$exchange@PEAV_Facet_base@std@@$$T@std@@YAPEAV_Facet_base@0@AEAPEAV10@$$QEA$$T@Z
	??$findCoeff@V?$Block@V?$Matrix@N$02$00$0A@$02$00@Eigen@@$0?0$00$0A@@Eigen@@_JU?$max_coeff_functor@N$0A@$0A@@internal@2@@internal@Eigen@@YANAEBV?$DenseBase@V?$Block@V?$Matrix@N$02$00$0A@$02$00@Eigen@@$0?0$00$0A@@Eigen@@@1@AEAU?$max_coeff_functor@N$0A@$0A@@01@PEA_J@Z
	??$first_aligned@$0BA@N_J@internal@Eigen@@YA_JPEBN_J@Z
	??$first_default_aligned@N_J@internal@Eigen@@YA_JPEBN_J@Z
	??$forward@$$CBV?$CwiseUnaryOp@U?$core_cast_op@NM@internal@Eigen@@$$CBV?$Matrix@N$02$00$0A@$02$00@3@@Eigen@@@std@@YA$$QEBV?$CwiseUnaryOp@U?$core_cast_op@NM@internal@Eigen@@$$CBV?$Matrix@N$02$00$0A@$02$00@3@@Eigen@@AEBV12@@Z
	??$forward@AEAM@std@@YAAEAMAEAM@Z
	??$forward@AEAN@std@@YAAEANAEAN@Z
	??$forward@AEAPEAD@std@@YAAEAPEADAEAPEAD@Z
	??$forward@AEAPEAU?$_Tree_node@U?$pair@$$CBV?$basic_string@DU?$char_traits@D@std@@V?$allocator@D@2@@std@@V12@@std@@PEAX@std@@@std@@YAAEAPEAU?$_Tree_node@U?$pair@$$CBV?$basic_string@DU?$char_traits@D@std@@V?$allocator@D@2@@std@@V12@@std@@PEAX@0@AEAPEAU10@@Z
	??$forward@AEAPEAV?$BindlessTexture2D@M@UtilsCuda@@@std@@YAAEAPEAV?$BindlessTexture2D@M@UtilsCuda@@AEAPEAV12@@Z
	??$forward@AEAPEAVRadonIntermediate@EpipolarConsistency@@@std@@YAAEAPEAVRadonIntermediate@EpipolarConsistency@@AEAPEAV12@@Z
	??$forward@AEAPEAV_Facet_base@std@@@std@@YAAEAPEAV_Facet_base@0@AEAPEAV10@@Z
	??$forward@AEAU?$pair@$$CBV?$basic_string@DU?$char_traits@D@std@@V?$allocator@D@2@@std@@V12@@std@@@std@@YAAEAU?$pair@$$CBV?$basic_string@DU?$char_traits@D@std@@V?$allocator@D@2@@std@@V12@@0@AEAU10@@Z
	??$forward@AEAV?$Matrix@N$00$00$0A@$00$00@Eigen@@@std@@YAAEAV?$Matrix@N$00$00$0A@$00$00@Eigen@@AEAV12@@Z
	??$forward@AEAV?$Matrix@N$02$03$0A@$02$03@Eigen@@@std@@YAAEAV?$Matrix@N$02$03$0A@$02$03@Eigen@@AEAV12@@Z
	??$forward@AEBM@std@@YAAEBMAEBM@Z
	??$forward@AEBQEAD@std@@YAAEBQEADAEBQEAD@Z
	??$forward@AEBQEAU?$_Tree_node@U?$pair@$$CBV?$basic_string@DU?$char_traits@D@std@@V?$allocator@D@2@@std@@V12@@std@@PEAX@std@@@std@@YAAEBQEAU?$_Tree_node@U?$pair@$$CBV?$basic_string@DU?$char_traits@D@std@@V?$allocator@D@2@@std@@V12@@std@@PEAX@0@AEBQEAU10@@Z
	??$forward@AEBU?$less@V?$basic_string@DU?$char_traits@D@std@@V?$allocator@D@2@@std@@@std@@@std@@YAAEBU?$less@V?$basic_string@DU?$char_traits@D@std@@V?$allocator@D@2@@std@@@0@AEBU10@@Z
	??$forward@AEBUpiecewise_construct_t@std@@@std@@YAAEBUpiecewise_construct_t@0@AEBU10@@Z
	??$forward@AEBV?$allocator@D@std@@@std@@YAAEBV?$allocator@D@0@AEBV10@@Z
	??$forward@AEBV?$allocator@H@std@@@std@@YAAEBV?$allocator@H@0@AEBV10@@Z
	??$forward@AEBV?$allocator@M@std@@@std@@YAAEBV?$allocator@M@0@AEBV10@@Z
	??$forward@AEBV?$allocator@U?$pair@V?$Matrix@M$02$00$0A@$02$00@Eigen@@V12@@std@@@std@@@std@@YAAEBV?$allocator@U?$pair@V?$Matrix@M$02$00$0A@$02$00@Eigen@@V12@@std@@@0@AEBV10@@Z
	??$forward@AEBV?$allocator@UFBCC_weighting_info@@@std@@@std@@YAAEBV?$allocator@UFBCC_weighting_info@@@0@AEBV10@@Z
	??$forward@AEBV?$allocator@V?$Matrix@M$02$03$0A@$02$03@Eigen@@@std@@@std@@YAAEBV?$allocator@V?$Matrix@M$02$03$0A@$02$03@Eigen@@@0@AEBV10@@Z
	??$forward@AEBV?$allocator@V?$Matrix@M$03$00$0A@$03$00@Eigen@@@std@@@std@@YAAEBV?$allocator@V?$Matrix@M$03$00$0A@$03$00@Eigen@@@0@AEBV10@@Z
	??$forward@AEBV?$allocator@_K@std@@@std@@YAAEBV?$allocator@_K@0@AEBV10@@Z
	??$forward@AEBV?$basic_string@DU?$char_traits@D@std@@V?$allocator@D@2@@std@@@std@@YAAEBV?$basic_string@DU?$char_traits@D@std@@V?$allocator@D@2@@0@AEBV10@@Z
	??$forward@H@std@@YA$$QEAHAEAH@Z
	??$forward@M@std@@YA$$QEAMAEAM@Z
	??$forward@N@std@@YA$$QEANAEAN@Z
	??$forward@PEAH@std@@YA$$QEAPEAHAEAPEAH@Z
	??$forward@PEAN@std@@YA$$QEAPEANAEAPEAN@Z
	??$forward@PEAU?$_Tree_node@U?$pair@$$CBV?$basic_string@DU?$char_traits@D@std@@V?$allocator@D@2@@std@@V12@@std@@PEAX@std@@@std@@YA$$QEAPEAU?$_Tree_node@U?$pair@$$CBV?$basic_string@DU?$char_traits@D@std@@V?$allocator@D@2@@std@@V12@@std@@PEAX@0@AEAPEAU10@@Z
	??$forward@PEAU?$pair@V?$Matrix@M$02$00$0A@$02$00@Eigen@@V12@@std@@@std@@YA$$QEAPEAU?$pair@V?$Matrix@M$02$00$0A@$02$00@Eigen@@V12@@0@AEAPEAU10@@Z
	??$forward@U?$less@V?$basic_string@DU?$char_traits@D@std@@V?$allocator@D@2@@std@@@std@@@std@@YA$$QEAU?$less@V?$basic_string@DU?$char_traits@D@std@@V?$allocator@D@2@@std@@@0@AEAU10@@Z
	??$forward@U?$pair@MM@std@@@std@@YA$$QEAU?$pair@MM@0@AEAU10@@Z
	??$forward@U_One_then_variadic_args_t@std@@@std@@YA$$QEAU_One_then_variadic_args_t@0@AEAU10@@Z
	??$forward@U_Zero_then_variadic_args_t@std@@@std@@YA$$QEAU_Zero_then_variadic_args_t@0@AEAU10@@Z
	??$forward@V?$CwiseUnaryOp@U?$core_cast_op@NM@internal@Eigen@@$$CBV?$Matrix@N$02$00$0A@$02$00@3@@Eigen@@@std@@YA$$QEAV?$CwiseUnaryOp@U?$core_cast_op@NM@internal@Eigen@@$$CBV?$Matrix@N$02$00$0A@$02$00@3@@Eigen@@AEAV12@@Z
	??$forward@V?$Matrix@H$03$00$0A@$03$00@Eigen@@@std@@YA$$QEAV?$Matrix@H$03$00$0A@$03$00@Eigen@@AEAV12@@Z
	??$forward@V?$allocator@D@std@@@std@@YA$$QEAV?$allocator@D@0@AEAV10@@Z
	??$forward@V?$allocator@H@std@@@std@@YA$$QEAV?$allocator@H@0@AEAV10@@Z
	??$forward@V?$allocator@N@std@@@std@@YA$$QEAV?$allocator@N@0@AEAV10@@Z
	??$forward@V?$allocator@U?$_Tree_node@U?$pair@$$CBV?$basic_string@DU?$char_traits@D@std@@V?$allocator@D@2@@std@@V12@@std@@PEAX@std@@@std@@@std@@YA$$QEAV?$allocator@U?$_Tree_node@U?$pair@$$CBV?$basic_string@DU?$char_traits@D@std@@V?$allocator@D@2@@std@@V12@@std@@PEAX@std@@@0@AEAV10@@Z
	??$forward@V?$allocator@U?$pair@V?$Matrix@M$02$00$0A@$02$00@Eigen@@V12@@std@@@std@@@std@@YA$$QEAV?$allocator@U?$pair@V?$Matrix@M$02$00$0A@$02$00@Eigen@@V12@@std@@@0@AEAV10@@Z
	??$forward@V?$basic_string@DU?$char_traits@D@std@@V?$allocator@D@2@@std@@@std@@YA$$QEAV?$basic_string@DU?$char_traits@D@std@@V?$allocator@D@2@@0@AEAV10@@Z
	??$forward@V?$tuple@$$QEAV?$basic_string@DU?$char_traits@D@std@@V?$allocator@D@2@@std@@@std@@@std@@YA$$QEAV?$tuple@$$QEAV?$basic_string@DU?$char_traits@D@std@@V?$allocator@D@2@@std@@@0@AEAV10@@Z
	??$forward@V?$tuple@$$V@std@@@std@@YA$$QEAV?$tuple@$$V@0@AEAV10@@Z
	??$forward@V?$tuple@AEBV?$basic_string@DU?$char_traits@D@std@@V?$allocator@D@2@@std@@@std@@@std@@YA$$QEAV?$tuple@AEBV?$basic_string@DU?$char_traits@D@std@@V?$allocator@D@2@@std@@@0@AEAV10@@Z
	??$forward@_N@std@@YA$$QEA_NAEA_N@Z
	??$forward_as_tuple@$$V@std@@YA?AV?$tuple@$$V@0@XZ
	??$forward_as_tuple@AEBV?$basic_string@DU?$char_traits@D@std@@V?$allocator@D@2@@std@@@std@@YA?AV?$tuple@AEBV?$basic_string@DU?$char_traits@D@std@@V?$allocator@D@2@@std@@@0@AEBV?$basic_string@DU?$char_traits@D@std@@V?$allocator@D@2@@0@@Z
	??$forward_as_tuple@V?$basic_string@DU?$char_traits@D@std@@V?$allocator@D@2@@std@@@std@@YA?AV?$tuple@$$QEAV?$basic_string@DU?$char_traits@D@std@@V?$allocator@D@2@@std@@@0@$$QEAV?$basic_string@DU?$char_traits@D@std@@V?$allocator@D@2@@0@@Z
	??$get_runtime_value@H@internal@Eigen@@YA_JAEBH@Z
	??$get_runtime_value@_J@internal@Eigen@@YA_JAEB_J@Z
	??$getline@DU?$char_traits@D@std@@V?$allocator@D@2@@std@@YAAEAV?$basic_istream@DU?$char_traits@D@std@@@0@$$QEAV10@AEAV?$basic_string@DU?$char_traits@D@std@@V?$allocator@D@2@@0@D@Z
	??$getline@DU?$char_traits@D@std@@V?$allocator@D@2@@std@@YAAEAV?$basic_istream@DU?$char_traits@D@std@@@0@AEAV10@AEAV?$basic_string@DU?$char_traits@D@std@@V?$allocator@D@2@@0@@Z
	??$getline@DU?$char_traits@D@std@@V?$allocator@D@2@@std@@YAAEAV?$basic_istream@DU?$char_traits@D@std@@@0@AEAV10@AEAV?$basic_string@DU?$char_traits@D@std@@V?$allocator@D@2@@0@D@Z
	??$head@H@?$DenseBase@V?$Matrix@N$02$00$0A@$02$00@Eigen@@@Eigen@@QEAA?AV?$VectorBlock@V?$Matrix@N$02$00$0A@$02$00@Eigen@@$0?0@1@H@Z
	??$head@H@?$DenseBase@V?$Matrix@N$03$00$0A@$03$00@Eigen@@@Eigen@@QEAA?AV?$VectorBlock@V?$Matrix@N$03$00$0A@$03$00@Eigen@@$0?0@1@H@Z
	??$head@_J@?$DenseBase@V?$Matrix@N$02$00$0A@$02$00@Eigen@@@Eigen@@QEBA?BV?$VectorBlock@$$CBV?$Matrix@N$02$00$0A@$02$00@Eigen@@$0?0@1@_J@Z
	??$ignore@D$0A@@?$basic_istream@DU?$char_traits@D@std@@@std@@QEAAAEAV01@_JD@Z
	??$ignore_unused_variable@V?$Block@V?$Matrix@N$02$02$0A@$02$02@Eigen@@$02$00$00@Eigen@@@internal@Eigen@@YAXAEBV?$Block@V?$Matrix@N$02$02$0A@$02$02@Eigen@@$02$00$00@1@@Z
	??$ignore_unused_variable@V?$CwiseBinaryOp@U?$scalar_difference_op@NN@internal@Eigen@@$$CBV?$Matrix@N$02$00$0A@$02$00@3@$$CBV?$CwiseBinaryOp@U?$scalar_product_op@NN@internal@Eigen@@$$CBV?$Matrix@N$02$00$0A@$02$00@3@$$CBV?$CwiseNullaryOp@U?$scalar_constant_op@N@internal@Eigen@@$$CBV?$Matrix@N$02$00$0A@$02$00@3@@3@@3@@Eigen@@@internal@Eigen@@YAXAEBV?$CwiseBinaryOp@U?$scalar_difference_op@NN@internal@Eigen@@$$CBV?$Matrix@N$02$00$0A@$02$00@3@$$CBV?$CwiseBinaryOp@U?$scalar_product_op@NN@internal@Eigen@@$$CBV?$Matrix@N$02$00$0A@$02$00@3@$$CBV?$CwiseNullaryOp@U?$scalar_constant_op@N@internal@Eigen@@$$CBV?$Matrix@N$02$00$0A@$02$00@3@@3@@3@@1@@Z
	??$ignore_unused_variable@V?$CwiseBinaryOp@U?$scalar_product_op@NN@internal@Eigen@@$$CBV?$Transpose@$$CBV?$Block@$$CBV?$Matrix@N$02$00$0A@$02$00@Eigen@@$00$00$0A@@Eigen@@@3@$$CBV?$Block@$$CBV?$Transpose@V?$Matrix@N$02$00$0A@$02$00@Eigen@@@Eigen@@$00$00$0A@@3@@Eigen@@@internal@Eigen@@YAXAEBV?$CwiseBinaryOp@U?$scalar_product_op@NN@internal@Eigen@@$$CBV?$Transpose@$$CBV?$Block@$$CBV?$Matrix@N$02$00$0A@$02$00@Eigen@@$00$00$0A@@Eigen@@@3@$$CBV?$Block@$$CBV?$Transpose@V?$Matrix@N$02$00$0A@$02$00@Eigen@@@Eigen@@$00$00$0A@@3@@1@@Z
	??$ignore_unused_variable@V?$CwiseBinaryOp@U?$scalar_product_op@NN@internal@Eigen@@$$CBV?$Transpose@$$CBV?$Block@$$CBV?$Matrix@N$02$03$00$02$03@Eigen@@$00$03$00@Eigen@@@3@$$CBV?$Block@$$CBV?$Matrix@N$03$00$0A@$03$00@Eigen@@$03$00$00@3@@Eigen@@@internal@Eigen@@YAXAEBV?$CwiseBinaryOp@U?$scalar_product_op@NN@internal@Eigen@@$$CBV?$Transpose@$$CBV?$Block@$$CBV?$Matrix@N$02$03$00$02$03@Eigen@@$00$03$00@Eigen@@@3@$$CBV?$Block@$$CBV?$Matrix@N$03$00$0A@$03$00@Eigen@@$03$00$00@3@@1@@Z
	??$ignore_unused_variable@V?$CwiseBinaryOp@U?$scalar_product_op@NN@internal@Eigen@@$$CBV?$Transpose@$$CBV?$Block@$$CBV?$Transpose@$$CBV?$Block@$$CBV?$Matrix@N$02$02$0A@$02$02@Eigen@@$02$0?0$00@Eigen@@@Eigen@@$00$02$00@Eigen@@@3@$$CBV?$Block@$$CBV?$Matrix@N$02$00$0A@$02$00@Eigen@@$02$00$00@3@@Eigen@@@internal@Eigen@@YAXAEBV?$CwiseBinaryOp@U?$scalar_product_op@NN@internal@Eigen@@$$CBV?$Transpose@$$CBV?$Block@$$CBV?$Transpose@$$CBV?$Block@$$CBV?$Matrix@N$02$02$0A@$02$02@Eigen@@$02$0?0$00@Eigen@@@Eigen@@$00$02$00@Eigen@@@3@$$CBV?$Block@$$CBV?$Matrix@N$02$00$0A@$02$00@Eigen@@$02$00$00@3@@1@@Z
	??$ignore_unused_variable@V?$CwiseBinaryOp@U?$scalar_product_op@NN@internal@Eigen@@$$CBV?$Transpose@$$CBV?$Block@$$CBV?$Transpose@$$CBV?$Matrix@N$02$03$0A@$02$03@Eigen@@@Eigen@@$00$02$00@Eigen@@@3@$$CBV?$Block@$$CBV?$Matrix@N$02$00$0A@$02$00@Eigen@@$02$00$00@3@@Eigen@@@internal@Eigen@@YAXAEBV?$CwiseBinaryOp@U?$scalar_product_op@NN@internal@Eigen@@$$CBV?$Transpose@$$CBV?$Block@$$CBV?$Transpose@$$CBV?$Matrix@N$02$03$0A@$02$03@Eigen@@@Eigen@@$00$02$00@Eigen@@@3@$$CBV?$Block@$$CBV?$Matrix@N$02$00$0A@$02$00@Eigen@@$02$00$00@3@@1@@Z
	??$ignore_unused_variable@V?$CwiseNullaryOp@U?$scalar_constant_op@N@internal@Eigen@@$$CBV?$Matrix@N$02$00$0A@$02$00@3@@Eigen@@@internal@Eigen@@YAXAEBV?$CwiseNullaryOp@U?$scalar_constant_op@N@internal@Eigen@@$$CBV?$Matrix@N$02$00$0A@$02$00@3@@1@@Z
	??$ignore_unused_variable@V?$CwiseNullaryOp@U?$scalar_constant_op@N@internal@Eigen@@$$CBV?$Matrix@N$03$00$0A@$03$00@3@@Eigen@@@internal@Eigen@@YAXAEBV?$CwiseNullaryOp@U?$scalar_constant_op@N@internal@Eigen@@$$CBV?$Matrix@N$03$00$0A@$03$00@3@@1@@Z
	??$ignore_unused_variable@V?$CwiseUnaryOp@U?$scalar_abs_op@N@internal@Eigen@@$$CBV?$Matrix@N$02$02$0A@$02$02@3@@Eigen@@@internal@Eigen@@YAXAEBV?$CwiseUnaryOp@U?$scalar_abs_op@N@internal@Eigen@@$$CBV?$Matrix@N$02$02$0A@$02$02@3@@1@@Z
	??$ignore_unused_variable@V?$CwiseUnaryOp@U?$squared_norm_functor@N$0A@@internal@Eigen@@$$CBV?$CwiseBinaryOp@U?$scalar_difference_op@NN@internal@Eigen@@$$CBV?$Matrix@N$03$00$0A@$03$00@3@$$CBV43@@3@@Eigen@@@internal@Eigen@@YAXAEBV?$CwiseUnaryOp@U?$squared_norm_functor@N$0A@@internal@Eigen@@$$CBV?$CwiseBinaryOp@U?$scalar_difference_op@NN@internal@Eigen@@$$CBV?$Matrix@N$03$00$0A@$03$00@3@$$CBV43@@3@@1@@Z
	??$ignore_unused_variable@V?$CwiseUnaryOp@U?$squared_norm_functor@N$0A@@internal@Eigen@@$$CBV?$Matrix@N$02$00$0A@$02$00@3@@Eigen@@@internal@Eigen@@YAXAEBV?$CwiseUnaryOp@U?$squared_norm_functor@N$0A@@internal@Eigen@@$$CBV?$Matrix@N$02$00$0A@$02$00@3@@1@@Z
	??$ignore_unused_variable@V?$Matrix@N$02$00$0A@$02$00@Eigen@@@internal@Eigen@@YAXAEBV?$Matrix@N$02$00$0A@$02$00@1@@Z
	??$ignore_unused_variable@V?$Matrix@N$02$02$0A@$02$02@Eigen@@@internal@Eigen@@YAXAEBV?$Matrix@N$02$02$0A@$02$02@1@@Z
	??$ignore_unused_variable@V?$Matrix@N$03$00$0A@$03$00@Eigen@@@internal@Eigen@@YAXAEBV?$Matrix@N$03$00$0A@$03$00@1@@Z
	??$ignore_unused_variable@V?$MatrixBase@V?$Matrix@N$02$00$0A@$02$00@Eigen@@@Eigen@@@internal@Eigen@@YAXAEBV?$MatrixBase@V?$Matrix@N$02$00$0A@$02$00@Eigen@@@1@@Z
	??$ignore_unused_variable@_J@internal@Eigen@@YAXAEB_J@Z
	??$imag@N@numext@Eigen@@YANAEBN@Z
	??$is_exactly_one@N@numext@Eigen@@YA_NAEBN@Z
	??$is_exactly_zero@N@numext@Eigen@@YA_NAEBN@Z
	??$isfinite@N@@YA_NN@Z
	??$isfinite@N@numext@Eigen@@YA_NAEBN@Z
	??$isfinite_impl@N@internal@Eigen@@YA_NAEBN@Z
	??$lazyProduct@V?$CwiseUnaryOp@U?$core_cast_op@MN@internal@Eigen@@$$CBV?$Matrix@M$02$00$0A@$02$00@3@@Eigen@@@?$MatrixBase@V?$Transpose@$$CBV?$Matrix@N$02$03$0A@$02$03@Eigen@@@Eigen@@@Eigen@@QEBA?BV?$Product@V?$Transpose@$$CBV?$Matrix@N$02$03$0A@$02$03@Eigen@@@Eigen@@V?$CwiseUnaryOp@U?$core_cast_op@MN@internal@Eigen@@$$CBV?$Matrix@M$02$00$0A@$02$00@3@@2@$00@1@AEBV?$MatrixBase@V?$CwiseUnaryOp@U?$core_cast_op@MN@internal@Eigen@@$$CBV?$Matrix@M$02$00$0A@$02$00@3@@Eigen@@@1@@Z
	??$lazyProduct@V?$Matrix@N$02$00$0A@$02$00@Eigen@@@?$MatrixBase@V?$Transpose@$$CBV?$Block@$$CBV?$Matrix@N$02$02$0A@$02$02@Eigen@@$02$0?0$00@Eigen@@@Eigen@@@Eigen@@QEBA?BV?$Product@V?$Transpose@$$CBV?$Block@$$CBV?$Matrix@N$02$02$0A@$02$02@Eigen@@$02$0?0$00@Eigen@@@Eigen@@V?$Matrix@N$02$00$0A@$02$00@2@$00@1@AEBV?$MatrixBase@V?$Matrix@N$02$00$0A@$02$00@Eigen@@@1@@Z
	??$lazyProduct@V?$Matrix@N$03$00$0A@$03$00@Eigen@@@?$MatrixBase@V?$Matrix@N$02$03$00$02$03@Eigen@@@Eigen@@QEBA?BV?$Product@V?$Matrix@N$02$03$00$02$03@Eigen@@V?$Matrix@N$03$00$0A@$03$00@2@$00@1@AEBV?$MatrixBase@V?$Matrix@N$03$00$0A@$03$00@Eigen@@@1@@Z
	??$lazyProduct@V?$Matrix@N$03$00$0A@$03$00@Eigen@@@?$MatrixBase@V?$Matrix@N$02$03$0A@$02$03@Eigen@@@Eigen@@QEBA?BV?$Product@V?$Matrix@N$02$03$0A@$02$03@Eigen@@V?$Matrix@N$03$00$0A@$03$00@2@$00@1@AEBV?$MatrixBase@V?$Matrix@N$03$00$0A@$03$00@Eigen@@@1@@Z
	??$lazyProduct@V?$Matrix@N$03$02$0A@$03$02@Eigen@@@?$MatrixBase@V?$Product@V?$Matrix@N$02$03$0A@$02$03@Eigen@@V?$Matrix@N$03$03$0A@$03$03@2@$0A@@Eigen@@@Eigen@@QEBA?BV?$Product@V?$Product@V?$Matrix@N$02$03$0A@$02$03@Eigen@@V?$Matrix@N$03$03$0A@$03$03@2@$0A@@Eigen@@V?$Matrix@N$03$02$0A@$03$02@2@$00@1@AEBV?$MatrixBase@V?$Matrix@N$03$02$0A@$03$02@Eigen@@@1@@Z
	??$lazyProduct@V?$Matrix@N$03$03$0A@$03$03@Eigen@@@?$MatrixBase@V?$Matrix@N$02$03$0A@$02$03@Eigen@@@Eigen@@QEBA?BV?$Product@V?$Matrix@N$02$03$0A@$02$03@Eigen@@V?$Matrix@N$03$03$0A@$03$03@2@$00@1@AEBV?$MatrixBase@V?$Matrix@N$03$03$0A@$03$03@Eigen@@@1@@Z
	??$lazyProduct@V?$Matrix@N$0?0$00$0A@$02$00@Eigen@@@?$MatrixBase@V?$Block@$$CBV?$Matrix@N$02$02$0A@$02$02@Eigen@@$02$0?0$00@Eigen@@@Eigen@@QEBA?BV?$Product@V?$Block@$$CBV?$Matrix@N$02$02$0A@$02$02@Eigen@@$02$0?0$00@Eigen@@V?$Matrix@N$0?0$00$0A@$02$00@2@$00@1@AEBV?$MatrixBase@V?$Matrix@N$0?0$00$0A@$02$00@Eigen@@@1@@Z
	??$lazyProduct@V?$Transpose@V?$Matrix@N$02$00$0A@$02$00@Eigen@@@Eigen@@@?$MatrixBase@V?$Matrix@N$02$00$0A@$02$00@Eigen@@@Eigen@@QEBA?BV?$Product@V?$Matrix@N$02$00$0A@$02$00@Eigen@@V?$Transpose@V?$Matrix@N$02$00$0A@$02$00@Eigen@@@2@$00@1@AEBV?$MatrixBase@V?$Transpose@V?$Matrix@N$02$00$0A@$02$00@Eigen@@@Eigen@@@1@@Z
	??$leftCols@_J@?$DenseBase@V?$Matrix@N$02$02$0A@$02$02@Eigen@@@Eigen@@QEBA?BV?$Block@$$CBV?$Matrix@N$02$02$0A@$02$02@Eigen@@$02$0?0$00@1@_J@Z
	??$lineToSampleDtr@$$BY02M@@YA_NAEAY02MM@Z
	??$load@D@NRRD@@YA_NAEBV?$basic_string@DU?$char_traits@D@std@@V?$allocator@D@2@@std@@PEAPEADPEAV?$vector@HV?$allocator@H@std@@@2@PEAV?$map@V?$basic_string@DU?$char_traits@D@std@@V?$allocator@D@2@@std@@V12@U?$less@V?$basic_string@DU?$char_traits@D@std@@V?$allocator@D@2@@std@@@2@V?$allocator@U?$pair@$$CBV?$basic_string@DU?$char_traits@D@std@@V?$allocator@D@2@@std@@V12@@std@@@2@@2@3@Z
	??$load@E@NRRD@@YA_NAEBV?$basic_string@DU?$char_traits@D@std@@V?$allocator@D@2@@std@@PEAPEAEPEAV?$vector@HV?$allocator@H@std@@@2@PEAV?$map@V?$basic_string@DU?$char_traits@D@std@@V?$allocator@D@2@@std@@V12@U?$less@V?$basic_string@DU?$char_traits@D@std@@V?$allocator@D@2@@std@@@2@V?$allocator@U?$pair@$$CBV?$basic_string@DU?$char_traits@D@std@@V?$allocator@D@2@@std@@V12@@std@@@2@@2@3@Z
	??$load@F@NRRD@@YA_NAEBV?$basic_string@DU?$char_traits@D@std@@V?$allocator@D@2@@std@@PEAPEAFPEAV?$vector@HV?$allocator@H@std@@@2@PEAV?$map@V?$basic_string@DU?$char_traits@D@std@@V?$allocator@D@2@@std@@V12@U?$less@V?$basic_string@DU?$char_traits@D@std@@V?$allocator@D@2@@std@@@2@V?$allocator@U?$pair@$$CBV?$basic_string@DU?$char_traits@D@std@@V?$allocator@D@2@@std@@V12@@std@@@2@@2@3@Z
	??$load@G@NRRD@@YA_NAEBV?$basic_string@DU?$char_traits@D@std@@V?$allocator@D@2@@std@@PEAPEAGPEAV?$vector@HV?$allocator@H@std@@@2@PEAV?$map@V?$basic_string@DU?$char_traits@D@std@@V?$allocator@D@2@@std@@V12@U?$less@V?$basic_string@DU?$char_traits@D@std@@V?$allocator@D@2@@std@@@2@V?$allocator@U?$pair@$$CBV?$basic_string@DU?$char_traits@D@std@@V?$allocator@D@2@@std@@V12@@std@@@2@@2@3@Z
	??$load@H@NRRD@@YA_NAEBV?$basic_string@DU?$char_traits@D@std@@V?$allocator@D@2@@std@@PEAPEAHPEAV?$vector@HV?$allocator@H@std@@@2@PEAV?$map@V?$basic_string@DU?$char_traits@D@std@@V?$allocator@D@2@@std@@V12@U?$less@V?$basic_string@DU?$char_traits@D@std@@V?$allocator@D@2@@std@@@2@V?$allocator@U?$pair@$$CBV?$basic_string@DU?$char_traits@D@std@@V?$allocator@D@2@@std@@V12@@std@@@2@@2@3@Z
	??$load@I@NRRD@@YA_NAEBV?$basic_string@DU?$char_traits@D@std@@V?$allocator@D@2@@std@@PEAPEAIPEAV?$vector@HV?$allocator@H@std@@@2@PEAV?$map@V?$basic_string@DU?$char_traits@D@std@@V?$allocator@D@2@@std@@V12@U?$less@V?$basic_string@DU?$char_traits@D@std@@V?$allocator@D@2@@std@@@2@V?$allocator@U?$pair@$$CBV?$basic_string@DU?$char_traits@D@std@@V?$allocator@D@2@@std@@V12@@std@@@2@@2@3@Z
	??$load@J@NRRD@@YA_NAEBV?$basic_string@DU?$char_traits@D@std@@V?$allocator@D@2@@std@@PEAPEAJPEAV?$vector@HV?$allocator@H@std@@@2@PEAV?$map@V?$basic_string@DU?$char_traits@D@std@@V?$allocator@D@2@@std@@V12@U?$less@V?$basic_string@DU?$char_traits@D@std@@V?$allocator@D@2@@std@@@2@V?$allocator@U?$pair@$$CBV?$basic_string@DU?$char_traits@D@std@@V?$allocator@D@2@@std@@V12@@std@@@2@@2@3@Z
	??$load@K@NRRD@@YA_NAEBV?$basic_string@DU?$char_traits@D@std@@V?$allocator@D@2@@std@@PEAPEAKPEAV?$vector@HV?$allocator@H@std@@@2@PEAV?$map@V?$basic_string@DU?$char_traits@D@std@@V?$allocator@D@2@@std@@V12@U?$less@V?$basic_string@DU?$char_traits@D@std@@V?$allocator@D@2@@std@@@2@V?$allocator@U?$pair@$$CBV?$basic_string@DU?$char_traits@D@std@@V?$allocator@D@2@@std@@V12@@std@@@2@@2@3@Z
	??$load@M@NRRD@@YA_NAEBV?$basic_string@DU?$char_traits@D@std@@V?$allocator@D@2@@std@@PEAPEAMPEAV?$vector@HV?$allocator@H@std@@@2@PEAV?$map@V?$basic_string@DU?$char_traits@D@std@@V?$allocator@D@2@@std@@V12@U?$less@V?$basic_string@DU?$char_traits@D@std@@V?$allocator@D@2@@std@@@2@V?$allocator@U?$pair@$$CBV?$basic_string@DU?$char_traits@D@std@@V?$allocator@D@2@@std@@V12@@std@@@2@@2@3@Z
	??$load@N@NRRD@@YA_NAEBV?$basic_string@DU?$char_traits@D@std@@V?$allocator@D@2@@std@@PEAPEANPEAV?$vector@HV?$allocator@H@std@@@2@PEAV?$map@V?$basic_string@DU?$char_traits@D@std@@V?$allocator@D@2@@std@@V12@U?$less@V?$basic_string@DU?$char_traits@D@std@@V?$allocator@D@2@@std@@@2@V?$allocator@U?$pair@$$CBV?$basic_string@DU?$char_traits@D@std@@V?$allocator@D@2@@std@@V12@@std@@@2@@2@3@Z
	??$madd@N@numext@Eigen@@YANAEBN00@Z
	??$makeJacobi@V?$Matrix@N$01$01$0A@$01$01@Eigen@@@?$JacobiRotation@N@Eigen@@QEAA_NAEBV?$MatrixBase@V?$Matrix@N$01$01$0A@$01$01@Eigen@@@1@_J1@Z
	??$make_pair@$$CBV?$CwiseUnaryOp@U?$core_cast_op@NM@internal@Eigen@@$$CBV?$Matrix@N$02$00$0A@$02$00@3@@Eigen@@$$CBV12@@std@@YA?AU?$pair@V?$CwiseUnaryOp@U?$core_cast_op@NM@internal@Eigen@@$$CBV?$Matrix@N$02$00$0A@$02$00@3@@Eigen@@V12@@0@$$QEBV?$CwiseUnaryOp@U?$core_cast_op@NM@internal@Eigen@@$$CBV?$Matrix@N$02$00$0A@$02$00@3@@Eigen@@0@Z
	??$make_pair@AEAMAEAM@std@@YA?AU?$pair@MM@0@AEAM0@Z
	??$make_pair@NAEAN@std@@YA?AU?$pair@NN@0@$$QEANAEAN@Z
	??$make_pair@NN@std@@YA?AU?$pair@NN@0@$$QEAN0@Z
	??$max@N@std@@YAAEBNAEBN0@Z
	??$max@PEAD@std@@YAAEBQEADAEBQEAD0@Z
	??$max@_J@std@@YAAEB_JAEB_J0@Z
	??$max@_K@std@@YAAEB_KAEB_K0@Z
	??$maxCoeff@$00@?$DenseBase@V?$CwiseUnaryOp@U?$scalar_abs_op@N@internal@Eigen@@$$CBV?$Matrix@N$02$02$0A@$02$02@3@@Eigen@@@Eigen@@QEBANXZ
	??$maxCoeff@$0A@@?$DenseBase@V?$Diagonal@$$CBV?$CwiseUnaryOp@U?$scalar_abs_op@N@internal@Eigen@@$$CBV?$Matrix@N$02$02$0A@$02$02@3@@Eigen@@$0A@@Eigen@@@Eigen@@QEBANXZ
	??$maxCoeff@$0A@_J@?$DenseBase@V?$Block@V?$Matrix@N$02$00$0A@$02$00@Eigen@@$0?0$00$0A@@Eigen@@@Eigen@@QEBANPEA_J@Z
	??$maxCoeff@_J@?$DenseBase@V?$Block@V?$Matrix@N$02$00$0A@$02$00@Eigen@@$0?0$00$0A@@Eigen@@@Eigen@@QEBANPEA_J@Z
	??$maxi@N@numext@Eigen@@YANAEBN0@Z
	??$min@_J@std@@YAAEB_JAEB_J0@Z
	??$min@_K@std@@YAAEB_KAEB_K0@Z
	??$mini@_J@numext@Eigen@@YA_JAEB_J0@Z
	??$move@AEAD@std@@YA$$QEADAEAD@Z
	??$move@AEAF@std@@YA$$QEAFAEAF@Z
	??$move@AEAH@std@@YA$$QEAHAEAH@Z
	??$move@AEAM@std@@YA$$QEAMAEAM@Z
	??$move@AEAN@std@@YA$$QEANAEAN@Z
	??$move@AEAPEAH@std@@YA$$QEAPEAHAEAPEAH@Z
	??$move@AEAPEAM@std@@YA$$QEAPEAMAEAPEAM@Z
	??$move@AEAPEAN@std@@YA$$QEAPEANAEAPEAN@Z
	??$move@AEAPEAPEAV?$BindlessTexture2D@M@UtilsCuda@@@std@@YA$$QEAPEAPEAV?$BindlessTexture2D@M@UtilsCuda@@AEAPEAPEAV12@@Z
	??$move@AEAPEAPEAVRadonIntermediate@EpipolarConsistency@@@std@@YA$$QEAPEAPEAVRadonIntermediate@EpipolarConsistency@@AEAPEAPEAV12@@Z
	??$move@AEAPEAU?$pair@MM@std@@@std@@YA$$QEAPEAU?$pair@MM@0@AEAPEAU10@@Z
	??$move@AEAPEAV?$Matrix@H$03$00$0A@$03$00@Eigen@@@std@@YA$$QEAPEAV?$Matrix@H$03$00$0A@$03$00@Eigen@@AEAPEAV12@@Z
	??$move@AEAPEAV?$Matrix@N$02$03$0A@$02$03@Eigen@@@std@@YA$$QEAPEAV?$Matrix@N$02$03$0A@$02$03@Eigen@@AEAPEAV12@@Z
	??$move@AEAU?$pair@MM@std@@@std@@YA$$QEAU?$pair@MM@0@AEAU10@@Z
	??$move@AEAV?$Matrix@H$03$00$0A@$03$00@Eigen@@@std@@YA$$QEAV?$Matrix@H$03$00$0A@$03$00@Eigen@@AEAV12@@Z
	??$move@AEAV?$allocator@D@std@@@std@@YA$$QEAV?$allocator@D@0@AEAV10@@Z
	??$move@AEAV?$allocator@H@std@@@std@@YA$$QEAV?$allocator@H@0@AEAV10@@Z
	??$move@AEAV?$allocator@M@std@@@std@@YA$$QEAV?$allocator@M@0@AEAV10@@Z
	??$move@AEAV?$allocator@N@std@@@std@@YA$$QEAV?$allocator@N@0@AEAV10@@Z
	??$move@AEAV?$allocator@U?$pair@V?$Matrix@M$02$00$0A@$02$00@Eigen@@V12@@std@@@std@@@std@@YA$$QEAV?$allocator@U?$pair@V?$Matrix@M$02$00$0A@$02$00@Eigen@@V12@@std@@@0@AEAV10@@Z
	??$move@AEAV?$basic_istream@DU?$char_traits@D@std@@@std@@@std@@YA$$QEAV?$basic_istream@DU?$char_traits@D@std@@@0@AEAV10@@Z
	??$move@AEAV?$basic_string@DU?$char_traits@D@std@@V?$allocator@D@2@@std@@@std@@YA$$QEAV?$basic_string@DU?$char_traits@D@std@@V?$allocator@D@2@@0@AEAV10@@Z
	??$move@AEAV?$tuple@$$QEAV?$basic_string@DU?$char_traits@D@std@@V?$allocator@D@2@@std@@@std@@@std@@YA$$QEAV?$tuple@$$QEAV?$basic_string@DU?$char_traits@D@std@@V?$allocator@D@2@@std@@@0@AEAV10@@Z
	??$move@AEAV?$tuple@AEBV?$basic_string@DU?$char_traits@D@std@@V?$allocator@D@2@@std@@@std@@@std@@YA$$QEAV?$tuple@AEBV?$basic_string@DU?$char_traits@D@std@@V?$allocator@D@2@@std@@@0@AEAV10@@Z
	??$negate@N@numext@Eigen@@YANAEBN@Z
	??$pabs@U__m128d@@@internal@Eigen@@YA?AU__m128d@@AEBU2@@Z
	??$packet@$0A@U__m128d@@$00@?$unary_evaluator@V?$CwiseUnaryOp@U?$core_cast_op@MN@internal@Eigen@@$$CBV?$Matrix@M$02$00$0A@$02$00@3@@Eigen@@UIndexBased@internal@2@N@internal@Eigen@@QEBA?AU__m128d@@_J@Z
	??$packet@$0A@U__m128d@@@?$binary_evaluator@V?$CwiseBinaryOp@U?$scalar_difference_op@NN@internal@Eigen@@$$CBV?$Matrix@N$02$00$0A@$02$00@3@$$CBV?$CwiseBinaryOp@U?$scalar_product_op@NN@internal@Eigen@@$$CBV?$Matrix@N$02$00$0A@$02$00@3@$$CBV?$CwiseNullaryOp@U?$scalar_constant_op@N@internal@Eigen@@$$CBV?$Matrix@N$02$00$0A@$02$00@3@@3@@3@@Eigen@@UIndexBased@internal@2@U342@NN@internal@Eigen@@QEBA?AU__m128d@@_J@Z
	??$packet@$0A@U__m128d@@@?$binary_evaluator@V?$CwiseBinaryOp@U?$scalar_product_op@NN@internal@Eigen@@$$CBV?$Matrix@N$02$00$0A@$02$00@3@$$CBV?$CwiseNullaryOp@U?$scalar_constant_op@N@internal@Eigen@@$$CBV?$Matrix@N$02$00$0A@$02$00@3@@3@@Eigen@@UIndexBased@internal@2@U342@NN@internal@Eigen@@QEBA?AU__m128d@@_J@Z
	??$packet@$0A@U__m128d@@@?$binary_evaluator@V?$CwiseBinaryOp@U?$scalar_product_op@NN@internal@Eigen@@$$CBV?$Transpose@$$CBV?$Block@$$CBV?$Transpose@$$CBV?$Block@$$CBV?$Matrix@N$02$02$0A@$02$02@Eigen@@$02$0?0$00@Eigen@@@Eigen@@$00$02$00@Eigen@@@3@$$CBV?$Block@$$CBV?$Matrix@N$02$00$0A@$02$00@Eigen@@$02$00$00@3@@Eigen@@UIndexBased@internal@2@U342@NN@internal@Eigen@@QEBA?AU__m128d@@_J@Z
	??$packet@$0A@U__m128d@@@?$binary_evaluator@V?$CwiseBinaryOp@U?$scalar_product_op@NN@internal@Eigen@@$$CBV?$Transpose@$$CBV?$Block@$$CBV?$Transpose@$$CBV?$Matrix@N$02$03$0A@$02$03@Eigen@@@Eigen@@$00$02$00@Eigen@@@3@$$CBV?$Block@$$CBV?$Matrix@N$02$00$0A@$02$00@Eigen@@$02$00$00@3@@Eigen@@UIndexBased@internal@2@U342@NN@internal@Eigen@@QEBA?AU__m128d@@_J@Z
	??$packet@$0A@U__m128d@@@?$binary_evaluator@V?$CwiseBinaryOp@U?$scalar_quotient_op@NN@internal@Eigen@@$$CBV?$Block@$$CBV?$Matrix@N$02$02$0A@$02$02@Eigen@@$02$02$0A@@3@$$CBV?$CwiseNullaryOp@U?$scalar_constant_op@N@internal@Eigen@@$$CBV?$Matrix@N$02$02$0A@$02$02@3@@3@@Eigen@@UIndexBased@internal@2@U342@NN@internal@Eigen@@QEBA?AU__m128d@@_J0@Z
	??$packet@$0A@U__m128d@@@?$binary_evaluator@V?$CwiseBinaryOp@U?$scalar_quotient_op@NN@internal@Eigen@@$$CBV?$Matrix@N$02$00$0A@$02$00@3@$$CBV?$CwiseNullaryOp@U?$scalar_constant_op@N@internal@Eigen@@$$CBV?$Matrix@N$02$00$0A@$02$00@3@@3@@Eigen@@UIndexBased@internal@2@U342@NN@internal@Eigen@@QEBA?AU__m128d@@_J@Z
	??$packet@$0A@U__m128d@@@?$evaluator@V?$PlainObjectBase@V?$Matrix@N$00$02$00$00$02@Eigen@@@Eigen@@@internal@Eigen@@QEBA?AU__m128d@@_J@Z
	??$packet@$0A@U__m128d@@@?$evaluator@V?$PlainObjectBase@V?$Matrix@N$02$00$0A@$02$00@Eigen@@@Eigen@@@internal@Eigen@@QEBA?AU__m128d@@_J0@Z
	??$packet@$0A@U__m128d@@@?$evaluator@V?$PlainObjectBase@V?$Matrix@N$02$00$0A@$02$00@Eigen@@@Eigen@@@internal@Eigen@@QEBA?AU__m128d@@_J@Z
	??$packet@$0A@U__m128d@@@?$evaluator@V?$PlainObjectBase@V?$Matrix@N$02$02$0A@$02$02@Eigen@@@Eigen@@@internal@Eigen@@QEBA?AU__m128d@@_J@Z
	??$packet@$0A@U__m128d@@@?$evaluator@V?$PlainObjectBase@V?$Matrix@N$02$03$0A@$02$03@Eigen@@@Eigen@@@internal@Eigen@@QEBA?AU__m128d@@_J0@Z
	??$packet@$0A@U__m128d@@@?$evaluator@V?$PlainObjectBase@V?$Matrix@N$02$03$0A@$02$03@Eigen@@@Eigen@@@internal@Eigen@@QEBA?AU__m128d@@_J@Z
	??$packet@$0A@U__m128d@@@?$evaluator@V?$PlainObjectBase@V?$Matrix@N$0?0$00$0A@$02$00@Eigen@@@Eigen@@@internal@Eigen@@QEBA?AU__m128d@@_J0@Z
	??$packet@$0A@U__m128d@@@?$evaluator@V?$PlainObjectBase@V?$Matrix@N$0?0$00$0A@$02$00@Eigen@@@Eigen@@@internal@Eigen@@QEBA?AU__m128d@@_J@Z
	??$packet@$0A@U__m128d@@@?$mapbase_evaluator@V?$Block@$$CBV?$Matrix@N$02$00$0A@$02$00@Eigen@@$02$00$00@Eigen@@V?$Matrix@N$02$00$0A@$02$00@2@@internal@Eigen@@QEBA?AU__m128d@@_J@Z
	??$packet@$0A@U__m128d@@@?$mapbase_evaluator@V?$Block@$$CBV?$Matrix@N$02$00$0A@$02$00@Eigen@@$0?0$00$0A@@Eigen@@V?$Matrix@N$0?0$00$0A@$02$00@2@@internal@Eigen@@QEBA?AU__m128d@@_J@Z
	??$packet@$0A@U__m128d@@@?$mapbase_evaluator@V?$Block@$$CBV?$Matrix@N$02$02$0A@$02$02@Eigen@@$02$02$0A@@Eigen@@V?$Matrix@N$02$02$0A@$02$02@2@@internal@Eigen@@QEBA?AU__m128d@@_J0@Z
	??$packet@$0A@U__m128d@@@?$mapbase_evaluator@V?$Block@$$CBV?$Matrix@N$02$02$0A@$02$02@Eigen@@$02$0?0$00@Eigen@@V?$Matrix@N$02$0?0$0A@$02$02@2@@internal@Eigen@@QEBA?AU__m128d@@_J0@Z
	??$packet@$0A@U__m128d@@@?$mapbase_evaluator@V?$Block@$$CBV?$Transpose@$$CBV?$Block@$$CBV?$Matrix@N$02$02$0A@$02$02@Eigen@@$02$0?0$00@Eigen@@@Eigen@@$00$02$00@Eigen@@V?$Matrix@N$00$02$00$00$02@2@@internal@Eigen@@QEBA?AU__m128d@@_J@Z
	??$packet@$0A@U__m128d@@@?$mapbase_evaluator@V?$Block@$$CBV?$Transpose@$$CBV?$Matrix@N$02$03$0A@$02$03@Eigen@@@Eigen@@$00$02$00@Eigen@@V?$Matrix@N$00$02$00$00$02@2@@internal@Eigen@@QEBA?AU__m128d@@_J@Z
	??$packet@$0A@U__m128d@@@?$mapbase_evaluator@V?$Block@V?$Matrix@N$02$00$0A@$02$00@Eigen@@$0?0$00$0A@@Eigen@@V?$Matrix@N$0?0$00$0A@$02$00@2@@internal@Eigen@@QEBA?AU__m128d@@_J@Z
	??$packet@$0A@U__m128d@@@?$mapbase_evaluator@V?$Block@V?$Matrix@N$02$02$0A@$02$02@Eigen@@$02$00$00@Eigen@@V?$Matrix@N$02$00$0A@$02$00@2@@internal@Eigen@@QEBA?AU__m128d@@_J@Z
	??$packet@$0A@U__m128d@@@?$mapbase_evaluator@V?$Block@V?$Matrix@N$03$00$0A@$03$00@Eigen@@$02$00$0A@@Eigen@@V?$Matrix@N$02$00$0A@$02$00@2@@internal@Eigen@@QEBA?AU__m128d@@_J@Z
	??$packet@$0A@U__m128d@@@?$mapbase_evaluator@V?$Block@V?$Matrix@N$03$00$0A@$03$00@Eigen@@$0?0$00$0A@@Eigen@@V?$Matrix@N$0?0$00$0A@$03$00@2@@internal@Eigen@@QEBA?AU__m128d@@_J@Z
	??$packet@$0A@U__m128d@@@?$product_evaluator@V?$Product@V?$Block@$$CBV?$Matrix@N$02$02$0A@$02$02@Eigen@@$02$0?0$00@Eigen@@V?$Matrix@N$0?0$00$0A@$02$00@2@$00@Eigen@@$02UDenseShape@2@U32@NN@internal@Eigen@@QEBA?BU__m128d@@_J0@Z
	??$packet@$0A@U__m128d@@@?$product_evaluator@V?$Product@V?$Block@$$CBV?$Matrix@N$02$02$0A@$02$02@Eigen@@$02$0?0$00@Eigen@@V?$Matrix@N$0?0$00$0A@$02$00@2@$00@Eigen@@$02UDenseShape@2@U32@NN@internal@Eigen@@QEBA?BU__m128d@@_J@Z
	??$packet@$0A@U__m128d@@@?$product_evaluator@V?$Product@V?$DiagonalWrapper@$$CBV?$CwiseUnaryOp@U?$scalar_inverse_op@N@internal@Eigen@@$$CBV?$Block@$$CBV?$Matrix@N$02$00$0A@$02$00@Eigen@@$0?0$00$0A@@3@@Eigen@@@Eigen@@V?$Matrix@N$0?0$00$0A@$02$00@2@$00@Eigen@@$02UDiagonalShape@2@UDenseShape@2@NN@internal@Eigen@@QEBA?AU__m128d@@_J0@Z
	??$packet@$0A@U__m128d@@@?$product_evaluator@V?$Product@V?$DiagonalWrapper@$$CBV?$CwiseUnaryOp@U?$scalar_inverse_op@N@internal@Eigen@@$$CBV?$Block@$$CBV?$Matrix@N$02$00$0A@$02$00@Eigen@@$0?0$00$0A@@3@@Eigen@@@Eigen@@V?$Matrix@N$0?0$00$0A@$02$00@2@$00@Eigen@@$02UDiagonalShape@2@UDenseShape@2@NN@internal@Eigen@@QEBA?AU__m128d@@_J@Z
	??$packet@$0A@U__m128d@@@?$product_evaluator@V?$Product@V?$Matrix@N$02$00$0A@$02$00@Eigen@@V?$Transpose@V?$Matrix@N$02$00$0A@$02$00@Eigen@@@2@$00@Eigen@@$03UDenseShape@2@U32@NN@internal@Eigen@@QEBA?BU__m128d@@_J0@Z
	??$packet@$0A@U__m128d@@@?$product_evaluator@V?$Product@V?$Matrix@N$02$03$0A@$02$03@Eigen@@V?$Matrix@N$03$00$0A@$03$00@2@$00@Eigen@@$02UDenseShape@2@U32@NN@internal@Eigen@@QEBA?BU__m128d@@_J0@Z
	??$packet@$0A@U__m128d@@@?$product_evaluator@V?$Product@V?$Matrix@N$02$03$0A@$02$03@Eigen@@V?$Matrix@N$03$00$0A@$03$00@2@$00@Eigen@@$02UDenseShape@2@U32@NN@internal@Eigen@@QEBA?BU__m128d@@_J@Z
	??$packet@$0A@U__m128d@@@?$product_evaluator@V?$Product@V?$Matrix@N$02$03$0A@$02$03@Eigen@@V?$Matrix@N$03$03$0A@$03$03@2@$00@Eigen@@$02UDenseShape@2@U32@NN@internal@Eigen@@QEBA?BU__m128d@@_J0@Z
	??$packet@$0A@U__m128d@@@?$product_evaluator@V?$Product@V?$Product@V?$Matrix@N$02$03$0A@$02$03@Eigen@@V?$Matrix@N$03$03$0A@$03$03@2@$0A@@Eigen@@V?$Matrix@N$03$02$0A@$03$02@2@$00@Eigen@@$02UDenseShape@2@U32@NN@internal@Eigen@@QEBA?BU__m128d@@_J0@Z
	??$packet@$0A@U__m128d@@@?$unary_evaluator@V?$CwiseUnaryOp@U?$scalar_abs_op@N@internal@Eigen@@$$CBV?$Matrix@N$02$02$0A@$02$02@3@@Eigen@@UIndexBased@internal@2@N@internal@Eigen@@QEBA?AU__m128d@@_J@Z
	??$packet@$0A@U__m128d@@@?$unary_evaluator@V?$CwiseUnaryOp@U?$scalar_inverse_op@N@internal@Eigen@@$$CBV?$Block@$$CBV?$Matrix@N$02$00$0A@$02$00@Eigen@@$0?0$00$0A@@3@@Eigen@@UIndexBased@internal@2@N@internal@Eigen@@QEBA?AU__m128d@@_J@Z
	??$packet@$0A@U__m128d@@@?$unary_evaluator@V?$CwiseUnaryOp@U?$scalar_opposite_op@N@internal@Eigen@@$$CBV?$Block@V?$Matrix@N$02$02$0A@$02$02@Eigen@@$02$00$00@3@@Eigen@@UIndexBased@internal@2@N@internal@Eigen@@QEBA?AU__m128d@@_J@Z
	??$packet@$0A@U__m128d@@@?$unary_evaluator@V?$CwiseUnaryOp@U?$squared_norm_functor@N$0A@@internal@Eigen@@$$CBV?$Block@V?$Matrix@N$02$00$0A@$02$00@Eigen@@$0?0$00$0A@@3@@Eigen@@UIndexBased@internal@2@N@internal@Eigen@@QEBA?AU__m128d@@_J@Z
	??$packet@$0A@U__m128d@@@?$unary_evaluator@V?$CwiseUnaryOp@U?$squared_norm_functor@N$0A@@internal@Eigen@@$$CBV?$Block@V?$Matrix@N$03$00$0A@$03$00@Eigen@@$0?0$00$0A@@3@@Eigen@@UIndexBased@internal@2@N@internal@Eigen@@QEBA?AU__m128d@@_J@Z
	??$packet@$0A@U__m128d@@@?$unary_evaluator@V?$CwiseUnaryOp@U?$squared_norm_functor@N$0A@@internal@Eigen@@$$CBV?$Matrix@N$02$00$0A@$02$00@3@@Eigen@@UIndexBased@internal@2@N@internal@Eigen@@QEBA?AU__m128d@@_J@Z
	??$packet@$0A@U__m128d@@@?$unary_evaluator@V?$Transpose@$$CBV?$Block@$$CBV?$Transpose@$$CBV?$Block@$$CBV?$Matrix@N$02$02$0A@$02$02@Eigen@@$02$0?0$00@Eigen@@@Eigen@@$00$02$00@Eigen@@@Eigen@@UIndexBased@internal@2@N@internal@Eigen@@QEBA?AU__m128d@@_J@Z
	??$packet@$0A@U__m128d@@@?$unary_evaluator@V?$Transpose@$$CBV?$Block@$$CBV?$Transpose@$$CBV?$Matrix@N$02$03$0A@$02$03@Eigen@@@Eigen@@$00$02$00@Eigen@@@Eigen@@UIndexBased@internal@2@N@internal@Eigen@@QEBA?AU__m128d@@_J@Z
	??$packet@$0A@U__m128d@@@?$unary_evaluator@V?$Transpose@V?$Matrix@N$02$00$0A@$02$00@Eigen@@@Eigen@@UIndexBased@internal@2@N@internal@Eigen@@QEBA?AU__m128d@@_J@Z
	??$packet@$0A@U__m128d@@_J@?$evaluator@V?$CwiseNullaryOp@U?$scalar_constant_op@N@internal@Eigen@@$$CBV?$Matrix@N$02$00$0A@$02$00@3@@Eigen@@@internal@Eigen@@QEBA?AU__m128d@@_J@Z
	??$packet@$0A@U__m128d@@_J@?$evaluator@V?$CwiseNullaryOp@U?$scalar_constant_op@N@internal@Eigen@@$$CBV?$Matrix@N$02$02$0A@$02$02@3@@Eigen@@@internal@Eigen@@QEBA?AU__m128d@@_J0@Z
	??$packet@$0BA@T__m128@@$00@?$unary_evaluator@V?$CwiseUnaryOp@U?$core_cast_op@NM@internal@Eigen@@$$CBV?$Matrix@N$03$00$0A@$03$00@3@@Eigen@@UIndexBased@internal@2@M@internal@Eigen@@QEBA?AT__m128@@_J0@Z
	??$packet@$0BA@T__m128@@$00@?$unary_evaluator@V?$CwiseUnaryOp@U?$core_cast_op@NM@internal@Eigen@@$$CBV?$Transpose@V?$Matrix@N$03$02$0A@$03$02@Eigen@@@3@@Eigen@@UIndexBased@internal@2@M@internal@Eigen@@QEBA?AT__m128@@_J0@Z
	??$packet@$0BA@U__m128d@@@?$binary_evaluator@V?$CwiseBinaryOp@U?$scalar_difference_op@NN@internal@Eigen@@$$CBV?$Matrix@N$03$00$0A@$03$00@3@$$CBV43@@Eigen@@UIndexBased@internal@2@U342@NN@internal@Eigen@@QEBA?AU__m128d@@_J@Z
	??$packet@$0BA@U__m128d@@@?$binary_evaluator@V?$CwiseBinaryOp@U?$scalar_product_op@NN@internal@Eigen@@$$CBV?$CwiseNullaryOp@U?$scalar_constant_op@N@internal@Eigen@@$$CBV?$Matrix@N$03$00$0A@$03$00@3@@3@$$CBV?$Matrix@N$03$00$0A@$03$00@3@@Eigen@@UIndexBased@internal@2@U342@NN@internal@Eigen@@QEBA?AU__m128d@@_J0@Z
	??$packet@$0BA@U__m128d@@@?$binary_evaluator@V?$CwiseBinaryOp@U?$scalar_product_op@NN@internal@Eigen@@$$CBV?$Transpose@$$CBV?$Block@$$CBV?$Matrix@N$02$03$00$02$03@Eigen@@$00$03$00@Eigen@@@3@$$CBV?$Block@$$CBV?$Matrix@N$03$00$0A@$03$00@Eigen@@$03$00$00@3@@Eigen@@UIndexBased@internal@2@U342@NN@internal@Eigen@@QEBA?AU__m128d@@_J@Z
	??$packet@$0BA@U__m128d@@@?$binary_evaluator@V?$CwiseBinaryOp@U?$scalar_sum_op@NN@internal@Eigen@@$$CBV?$CwiseBinaryOp@U?$scalar_product_op@NN@internal@Eigen@@$$CBV?$CwiseNullaryOp@U?$scalar_constant_op@N@internal@Eigen@@$$CBV?$Matrix@N$03$00$0A@$03$00@3@@3@$$CBV?$Matrix@N$03$00$0A@$03$00@3@@3@$$CBV43@@Eigen@@UIndexBased@internal@2@U342@NN@internal@Eigen@@QEBA?AU__m128d@@_J0@Z
	??$packet@$0BA@U__m128d@@@?$evaluator@V?$PlainObjectBase@V?$Matrix@N$02$03$0A@$02$03@Eigen@@@Eigen@@@internal@Eigen@@QEBA?AU__m128d@@_J@Z
	??$packet@$0BA@U__m128d@@@?$evaluator@V?$PlainObjectBase@V?$Matrix@N$03$00$0A@$03$00@Eigen@@@Eigen@@@internal@Eigen@@QEBA?AU__m128d@@_J0@Z
	??$packet@$0BA@U__m128d@@@?$evaluator@V?$PlainObjectBase@V?$Matrix@N$03$00$0A@$03$00@Eigen@@@Eigen@@@internal@Eigen@@QEBA?AU__m128d@@_J@Z
	??$packet@$0BA@U__m128d@@@?$evaluator@V?$PlainObjectBase@V?$Matrix@N$03$02$0A@$03$02@Eigen@@@Eigen@@@internal@Eigen@@QEBA?AU__m128d@@_J0@Z
	??$packet@$0BA@U__m128d@@@?$evaluator@V?$PlainObjectBase@V?$Matrix@N$03$02$0A@$03$02@Eigen@@@Eigen@@@internal@Eigen@@QEBA?AU__m128d@@_J@Z
	??$packet@$0BA@U__m128d@@@?$mapbase_evaluator@V?$Block@$$CBV?$Matrix@N$02$03$00$02$03@Eigen@@$00$03$00@Eigen@@V?$Matrix@N$00$03$00$00$03@2@@internal@Eigen@@QEBA?AU__m128d@@_J@Z
	??$packet@$0BA@U__m128d@@@?$mapbase_evaluator@V?$Block@$$CBV?$Matrix@N$03$00$0A@$03$00@Eigen@@$03$00$00@Eigen@@V?$Matrix@N$03$00$0A@$03$00@2@@internal@Eigen@@QEBA?AU__m128d@@_J@Z
	??$packet@$0BA@U__m128d@@@?$unary_evaluator@V?$CwiseUnaryOp@U?$squared_norm_functor@N$0A@@internal@Eigen@@$$CBV?$CwiseBinaryOp@U?$scalar_difference_op@NN@internal@Eigen@@$$CBV?$Matrix@N$03$00$0A@$03$00@3@$$CBV43@@3@@Eigen@@UIndexBased@internal@2@N@internal@Eigen@@QEBA?AU__m128d@@_J@Z
	??$packet@$0BA@U__m128d@@@?$unary_evaluator@V?$Transpose@$$CBV?$Block@$$CBV?$Matrix@N$02$03$00$02$03@Eigen@@$00$03$00@Eigen@@@Eigen@@UIndexBased@internal@2@N@internal@Eigen@@QEBA?AU__m128d@@_J@Z
	??$packet@$0BA@U__m128d@@@?$unary_evaluator@V?$Transpose@V?$Matrix@N$03$02$0A@$03$02@Eigen@@@Eigen@@UIndexBased@internal@2@N@internal@Eigen@@QEBA?AU__m128d@@_J0@Z
	??$packet@$0BA@U__m128d@@_J@?$evaluator@V?$CwiseNullaryOp@U?$scalar_constant_op@N@internal@Eigen@@$$CBV?$Matrix@N$02$00$0A@$02$00@3@@Eigen@@@internal@Eigen@@QEBA?AU__m128d@@_J@Z
	??$packet@$0BA@U__m128d@@_J@?$evaluator@V?$CwiseNullaryOp@U?$scalar_constant_op@N@internal@Eigen@@$$CBV?$Matrix@N$03$00$0A@$03$00@3@@Eigen@@@internal@Eigen@@QEBA?AU__m128d@@_J0@Z
	??$packet@U__m128d@@$0A@$0A@@?$inner_product_evaluator@U?$scalar_inner_product_op@NN$00@internal@Eigen@@V?$Matrix@N$02$00$0A@$02$00@3@V?$Block@V?$Matrix@N$03$00$0A@$03$00@Eigen@@$0?0$00$0A@@3@@internal@Eigen@@QEBA?AU__m128d@@AEBU3@_J@Z
	??$packet@U__m128d@@$0A@$0A@@?$inner_product_evaluator@U?$scalar_inner_product_op@NN$00@internal@Eigen@@V?$Matrix@N$02$00$0A@$02$00@3@V?$Block@V?$Matrix@N$03$00$0A@$03$00@Eigen@@$0?0$00$0A@@3@@internal@Eigen@@QEBA?AU__m128d@@_J@Z
	??$packet@U__m128d@@$0A@$0A@@?$inner_product_evaluator@U?$scalar_inner_product_op@NN$0A@@internal@Eigen@@V?$Transpose@V?$Matrix@N$02$00$0A@$02$00@Eigen@@@3@V?$Matrix@N$02$00$0A@$02$00@3@@internal@Eigen@@QEBA?AU__m128d@@AEBU3@_J@Z
	??$packet@U__m128d@@$0A@$0A@@?$inner_product_evaluator@U?$scalar_inner_product_op@NN$0A@@internal@Eigen@@V?$Transpose@V?$Matrix@N$02$00$0A@$02$00@Eigen@@@3@V?$Matrix@N$02$00$0A@$02$00@3@@internal@Eigen@@QEBA?AU__m128d@@_J@Z
	??$packet@U__m128d@@@?$conditional_conj@N$00@internal@Eigen@@SA?AU__m128d@@AEBU3@@Z
	??$packet@U__m128d@@@?$conditional_conj@N$0A@@internal@Eigen@@SA?AU__m128d@@AEBU3@@Z
	??$packet@U__m128d@@@?$scalar_inner_product_op@NN$00@internal@Eigen@@QEBA?AU__m128d@@AEBU3@00@Z
	??$packet@U__m128d@@@?$scalar_inner_product_op@NN$00@internal@Eigen@@QEBA?AU__m128d@@AEBU3@0@Z
	??$packet@U__m128d@@@?$scalar_inner_product_op@NN$0A@@internal@Eigen@@QEBA?AU__m128d@@AEBU3@00@Z
	??$packet@U__m128d@@@?$scalar_inner_product_op@NN$0A@@internal@Eigen@@QEBA?AU__m128d@@AEBU3@0@Z
	??$packetOp@U__m128d@@@?$scalar_abs2_op@N@internal@Eigen@@QEBA?BU__m128d@@AEBU3@@Z
	??$packetOp@U__m128d@@@?$scalar_abs_op@N@internal@Eigen@@QEBA?BU__m128d@@AEBU3@@Z
	??$packetOp@U__m128d@@@?$scalar_constant_op@N@internal@Eigen@@QEBA?BU__m128d@@XZ
	??$packetOp@U__m128d@@@?$scalar_difference_op@NN@internal@Eigen@@QEBA?BU__m128d@@AEBU3@0@Z
	??$packetOp@U__m128d@@@?$scalar_inverse_op@N@internal@Eigen@@QEBA?BU__m128d@@AEBU3@@Z
	??$packetOp@U__m128d@@@?$scalar_max_op@NN$00@internal@Eigen@@QEBA?AU__m128d@@AEBU3@0@Z
	??$packetOp@U__m128d@@@?$scalar_opposite_op@N@internal@Eigen@@QEBA?BU__m128d@@AEBU3@@Z
	??$packetOp@U__m128d@@@?$scalar_product_op@NN@internal@Eigen@@QEBA?AU__m128d@@AEBU3@0@Z
	??$packetOp@U__m128d@@@?$scalar_quotient_op@NN@internal@Eigen@@QEBA?BU__m128d@@AEBU3@0@Z
	??$packetOp@U__m128d@@@?$scalar_sum_op@NN@internal@Eigen@@QEBA?AU__m128d@@AEBU3@0@Z
	??$packetOp@U__m128d@@_J@?$nullary_wrapper@NU?$scalar_constant_op@N@internal@Eigen@@$00$0A@$0A@@internal@Eigen@@QEBA?AU__m128d@@AEBU?$scalar_constant_op@N@12@_J1@Z
	??$packetSegment@$0A@T__m128@@@?$evaluator@V?$PlainObjectBase@V?$Matrix@M$02$00$0A@$02$00@Eigen@@@Eigen@@@internal@Eigen@@QEBA?AT__m128@@_J00@Z
	??$packet_impl@$0A@U__m128d@@@?$diagonal_product_evaluator_base@V?$Matrix@N$0?0$00$0A@$02$00@Eigen@@$$CBV?$CwiseUnaryOp@U?$scalar_inverse_op@N@internal@Eigen@@$$CBV?$Block@$$CBV?$Matrix@N$02$00$0A@$02$00@Eigen@@$0?0$00$0A@@3@@2@V?$Product@V?$DiagonalWrapper@$$CBV?$CwiseUnaryOp@U?$scalar_inverse_op@N@internal@Eigen@@$$CBV?$Block@$$CBV?$Matrix@N$02$00$0A@$02$00@Eigen@@$0?0$00$0A@@3@@Eigen@@@Eigen@@V?$Matrix@N$0?0$00$0A@$02$00@2@$00@2@$00@internal@Eigen@@IEBA?AU__m128d@@_J00U?$integral_constant@_N$0A@@std@@@Z
	??$padd@U__m128d@@@internal@Eigen@@YA?AU__m128d@@AEBU2@0@Z
	??$pand@U__m128d@@@internal@Eigen@@YA?AU__m128d@@AEBU2@0@Z
	??$pandnot@U__m128d@@@internal@Eigen@@YA?AU__m128d@@AEBU2@0@Z
	??$pcast@T__m128@@U__m128d@@@internal@Eigen@@YA?AU__m128d@@AEBT__m128@@@Z
	??$pcast@U__m128d@@T__m128@@@internal@Eigen@@YA?AT__m128@@AEBU__m128d@@0@Z
	??$pcmp_eq@N@internal@Eigen@@YANAEBN0@Z
	??$pcmp_eq@U__m128d@@@internal@Eigen@@YA?AU__m128d@@AEBU2@0@Z
	??$pcmp_lt@U__m128d@@@internal@Eigen@@YA?AU__m128d@@AEBU2@0@Z
	??$pconj@U__m128d@@@?$conj_if@$0A@@internal@Eigen@@QEBAAEBU__m128d@@AEBU3@@Z
	??$pconj@U__m128d@@@internal@Eigen@@YA?AU__m128d@@AEBU2@@Z
	??$pdiv@U__m128d@@@internal@Eigen@@YA?AU__m128d@@AEBU2@0@Z
	??$pfirst@U__m128d@@@internal@Eigen@@YANAEBU__m128d@@@Z
	??$pload@U__m128d@@@internal@Eigen@@YA?AU__m128d@@PEBN@Z
	??$ploadSegment@T__m128@@@internal@Eigen@@YA?AT__m128@@PEBM_J1@Z
	??$ploadt@U__m128d@@$0A@@internal@Eigen@@YA?AU__m128d@@PEBN@Z
	??$ploadt@U__m128d@@$0BA@@internal@Eigen@@YA?AU__m128d@@PEBN@Z
	??$ploadtSegment@T__m128@@$0A@@internal@Eigen@@YA?AT__m128@@PEBM_J1@Z
	??$ploadu@T__m128@@@internal@Eigen@@YA?AT__m128@@PEBM@Z
	??$ploadu@U__m128d@@@internal@Eigen@@YA?AU__m128d@@PEBN@Z
	??$ploaduSegment@T__m128@@@internal@Eigen@@YA?AT__m128@@PEBM_J1@Z
	??$pmadd@N@internal@Eigen@@YANAEBN00@Z
	??$pmadd@U__m128d@@@internal@Eigen@@YA?AU__m128d@@AEBU2@00@Z
	??$pmax@$00N@internal@Eigen@@YANAEBN0@Z
	??$pmax@$00U__m128d@@@internal@Eigen@@YA?AU__m128d@@AEBU2@0@Z
	??$pmax@$0A@N@internal@Eigen@@YANAEBN0@Z
	??$pmax@N@internal@Eigen@@YANAEBN0@Z
	??$pmax@U__m128d@@@internal@Eigen@@YA?AU__m128d@@AEBU2@0@Z
	??$pminmax_propagate_nan@U__m128d@@P6A?AU1@AEBU1@0@Z@internal@Eigen@@YA?AU__m128d@@AEBU2@0P6A?AU2@00@Z@Z
	??$pmul@N@internal@Eigen@@YANAEBN0@Z
	??$pmul@U__m128d@@@internal@Eigen@@YA?AU__m128d@@AEBU2@0@Z
	??$pnegate@U__m128d@@@internal@Eigen@@YA?AU__m128d@@AEBU2@@Z
	??$por@U__m128d@@@internal@Eigen@@YA?AU__m128d@@AEBU2@0@Z
	??$preciprocal@U__m128d@@@internal@Eigen@@YA?AU__m128d@@AEBU2@@Z
	??$predux@U__m128d@@@?$max_coeff_functor@N$0A@$0A@@internal@Eigen@@QEBANAEBU__m128d@@@Z
	??$predux@U__m128d@@@?$scalar_max_op@NN$00@internal@Eigen@@QEBANAEBU__m128d@@@Z
	??$predux@U__m128d@@@?$scalar_sum_op@NN@internal@Eigen@@QEBANAEBU__m128d@@@Z
	??$predux@U__m128d@@@internal@Eigen@@YANAEBU__m128d@@@Z
	??$predux_any@U__m128d@@@internal@Eigen@@YA_NAEBU__m128d@@@Z
	??$predux_max@$00U__m128d@@@internal@Eigen@@YANAEBU__m128d@@@Z
	??$predux_max@U__m128d@@@internal@Eigen@@YANAEBU__m128d@@@Z
	??$projection_matrix_pseudoinverse_transpose@NM@culaut@@YAXPEBNPEAM@Z
	??$projection_matrix_source_position@NM@culaut@@YAXPEBNPEAM@Z
	??$pselect@N@internal@Eigen@@YANAEBN00@Z
	??$pselect@U__m128d@@@internal@Eigen@@YA?AU__m128d@@AEBU2@00@Z
	??$pset1@U__m128d@@@internal@Eigen@@YA?AU__m128d@@AEBN@Z
	??$pstore@MT__m128@@@internal@Eigen@@YAXPEAMAEBT__m128@@@Z
	??$pstore@NU__m128d@@@internal@Eigen@@YAXPEANAEBU__m128d@@@Z
	??$pstoret@MT__m128@@$0BA@@internal@Eigen@@YAXPEAMAEBT__m128@@@Z
	??$pstoret@NU__m128d@@$0A@@internal@Eigen@@YAXPEANAEBU__m128d@@@Z
	??$pstoret@NU__m128d@@$0BA@@internal@Eigen@@YAXPEANAEBU__m128d@@@Z
	??$pstoreu@MT__m128@@@internal@Eigen@@YAXPEAMAEBT__m128@@@Z
	??$pstoreu@NU__m128d@@@internal@Eigen@@YAXPEANAEBU__m128d@@@Z
	??$psub@U__m128d@@@internal@Eigen@@YA?AU__m128d@@AEBU2@0@Z
	??$ptrue@N@internal@Eigen@@YANAEBN@Z
	??$pzero@N@internal@Eigen@@YANAEBN@Z
	??$real@N@numext@Eigen@@YANAEBN@Z
	??$real_2x2_jacobi_svd@V?$Matrix@N$02$02$0A@$02$02@Eigen@@N_J@internal@Eigen@@YAXAEBV?$Matrix@N$02$02$0A@$02$02@1@_J1PEAV?$JacobiRotation@N@1@2@Z
	??$redux@U?$scalar_max_op@NN$00@internal@Eigen@@@?$DenseBase@V?$CwiseUnaryOp@U?$scalar_abs_op@N@internal@Eigen@@$$CBV?$Matrix@N$02$02$0A@$02$02@3@@Eigen@@@Eigen@@QEBANAEBU?$scalar_max_op@NN$00@internal@1@@Z
	??$redux@U?$scalar_max_op@NN$0A@@internal@Eigen@@@?$DenseBase@V?$Diagonal@$$CBV?$CwiseUnaryOp@U?$scalar_abs_op@N@internal@Eigen@@$$CBV?$Matrix@N$02$02$0A@$02$02@3@@Eigen@@$0A@@Eigen@@@Eigen@@QEBANAEBU?$scalar_max_op@NN$0A@@internal@1@@Z
	??$redux@U?$scalar_sum_op@NN@internal@Eigen@@@?$DenseBase@V?$CwiseBinaryOp@U?$scalar_product_op@NN@internal@Eigen@@$$CBV?$Transpose@$$CBV?$Block@$$CBV?$Block@$$CBV?$Matrix@N$02$02$0A@$02$02@Eigen@@$02$0?0$00@Eigen@@$00$0?0$0A@@Eigen@@@3@$$CBV?$Block@$$CBV?$Matrix@N$0?0$00$0A@$02$00@Eigen@@$0?0$00$00@3@@Eigen@@@Eigen@@QEBANAEBU?$scalar_sum_op@NN@internal@1@@Z
	??$redux@U?$scalar_sum_op@NN@internal@Eigen@@@?$DenseBase@V?$CwiseBinaryOp@U?$scalar_product_op@NN@internal@Eigen@@$$CBV?$Transpose@$$CBV?$Block@$$CBV?$Matrix@N$02$00$0A@$02$00@Eigen@@$00$00$0A@@Eigen@@@3@$$CBV?$Block@$$CBV?$Transpose@V?$Matrix@N$02$00$0A@$02$00@Eigen@@@Eigen@@$00$00$0A@@3@@Eigen@@@Eigen@@QEBANAEBU?$scalar_sum_op@NN@internal@1@@Z
	??$redux@U?$scalar_sum_op@NN@internal@Eigen@@@?$DenseBase@V?$CwiseBinaryOp@U?$scalar_product_op@NN@internal@Eigen@@$$CBV?$Transpose@$$CBV?$Block@$$CBV?$Matrix@N$02$03$00$02$03@Eigen@@$00$03$00@Eigen@@@3@$$CBV?$Block@$$CBV?$Matrix@N$03$00$0A@$03$00@Eigen@@$03$00$00@3@@Eigen@@@Eigen@@QEBANAEBU?$scalar_sum_op@NN@internal@1@@Z
	??$redux@U?$scalar_sum_op@NN@internal@Eigen@@@?$DenseBase@V?$CwiseBinaryOp@U?$scalar_product_op@NN@internal@Eigen@@$$CBV?$Transpose@$$CBV?$Block@$$CBV?$Matrix@N$02$03$0A@$02$03@Eigen@@$00$03$0A@@Eigen@@@3@$$CBV?$Block@$$CBV?$Matrix@N$03$00$0A@$03$00@Eigen@@$03$00$00@3@@Eigen@@@Eigen@@QEBANAEBU?$scalar_sum_op@NN@internal@1@@Z
	??$redux@U?$scalar_sum_op@NN@internal@Eigen@@@?$DenseBase@V?$CwiseBinaryOp@U?$scalar_product_op@NN@internal@Eigen@@$$CBV?$Transpose@$$CBV?$Block@$$CBV?$Matrix@N$02$03$0A@$02$03@Eigen@@$00$03$0A@@Eigen@@@3@$$CBV?$Block@$$CBV?$Matrix@N$03$02$0A@$03$02@Eigen@@$03$00$00@3@@Eigen@@@Eigen@@QEBANAEBU?$scalar_sum_op@NN@internal@1@@Z
	??$redux@U?$scalar_sum_op@NN@internal@Eigen@@@?$DenseBase@V?$CwiseBinaryOp@U?$scalar_product_op@NN@internal@Eigen@@$$CBV?$Transpose@$$CBV?$Block@$$CBV?$Matrix@N$02$03$0A@$02$03@Eigen@@$00$03$0A@@Eigen@@@3@$$CBV?$Block@$$CBV?$Matrix@N$03$03$0A@$03$03@Eigen@@$03$00$00@3@@Eigen@@@Eigen@@QEBANAEBU?$scalar_sum_op@NN@internal@1@@Z
	??$redux@U?$scalar_sum_op@NN@internal@Eigen@@@?$DenseBase@V?$CwiseBinaryOp@U?$scalar_product_op@NN@internal@Eigen@@$$CBV?$Transpose@$$CBV?$Block@$$CBV?$Transpose@$$CBV?$Block@$$CBV?$Matrix@N$02$02$0A@$02$02@Eigen@@$02$0?0$00@Eigen@@@Eigen@@$00$02$00@Eigen@@@3@$$CBV?$Block@$$CBV?$Matrix@N$02$00$0A@$02$00@Eigen@@$02$00$00@3@@Eigen@@@Eigen@@QEBANAEBU?$scalar_sum_op@NN@internal@1@@Z
	??$redux@U?$scalar_sum_op@NN@internal@Eigen@@@?$DenseBase@V?$CwiseBinaryOp@U?$scalar_product_op@NN@internal@Eigen@@$$CBV?$Transpose@$$CBV?$Block@$$CBV?$Transpose@$$CBV?$Matrix@N$02$03$0A@$02$03@Eigen@@@Eigen@@$00$02$00@Eigen@@@3@$$CBV?$Block@$$CBV?$Matrix@N$02$00$0A@$02$00@Eigen@@$02$00$00@3@@Eigen@@@Eigen@@QEBANAEBU?$scalar_sum_op@NN@internal@1@@Z
	??$redux@U?$scalar_sum_op@NN@internal@Eigen@@@?$DenseBase@V?$CwiseUnaryOp@U?$squared_norm_functor@N$0A@@internal@Eigen@@$$CBV?$Block@$$CBV?$Matrix@N$02$03$0A@$02$03@Eigen@@$00$02$0A@@3@@Eigen@@@Eigen@@QEBANAEBU?$scalar_sum_op@NN@internal@1@@Z
	??$redux@U?$scalar_sum_op@NN@internal@Eigen@@@?$DenseBase@V?$CwiseUnaryOp@U?$squared_norm_functor@N$0A@@internal@Eigen@@$$CBV?$Block@V?$Matrix@N$02$00$0A@$02$00@Eigen@@$0?0$00$0A@@3@@Eigen@@@Eigen@@QEBANAEBU?$scalar_sum_op@NN@internal@1@@Z
	??$redux@U?$scalar_sum_op@NN@internal@Eigen@@@?$DenseBase@V?$CwiseUnaryOp@U?$squared_norm_functor@N$0A@@internal@Eigen@@$$CBV?$Block@V?$Matrix@N$03$00$0A@$03$00@Eigen@@$0?0$00$0A@@3@@Eigen@@@Eigen@@QEBANAEBU?$scalar_sum_op@NN@internal@1@@Z
	??$redux@U?$scalar_sum_op@NN@internal@Eigen@@@?$DenseBase@V?$CwiseUnaryOp@U?$squared_norm_functor@N$0A@@internal@Eigen@@$$CBV?$CwiseBinaryOp@U?$scalar_difference_op@NN@internal@Eigen@@$$CBV?$Matrix@N$03$00$0A@$03$00@3@$$CBV43@@3@@Eigen@@@Eigen@@QEBANAEBU?$scalar_sum_op@NN@internal@1@@Z
	??$redux@U?$scalar_sum_op@NN@internal@Eigen@@@?$DenseBase@V?$CwiseUnaryOp@U?$squared_norm_functor@N$0A@@internal@Eigen@@$$CBV?$Matrix@N$02$00$0A@$02$00@3@@Eigen@@@Eigen@@QEBANAEBU?$scalar_sum_op@NN@internal@1@@Z
	??$replace@V?$_String_iterator@V?$_String_val@U?$_Simple_types@D@std@@@std@@@std@@D@std@@YAXV?$_String_iterator@V?$_String_val@U?$_Simple_types@D@std@@@std@@@0@0AEBD1@Z
	??$resizeLike@V?$Block@$$CBV?$Matrix@N$02$03$0A@$02$03@Eigen@@$00$02$0A@@Eigen@@@?$PlainObjectBase@V?$Matrix@N$00$02$00$00$02@Eigen@@@Eigen@@QEAAXAEBU?$EigenBase@V?$Block@$$CBV?$Matrix@N$02$03$0A@$02$03@Eigen@@$00$02$0A@@Eigen@@@1@@Z
	??$resizeLike@V?$Block@V?$Matrix@N$03$00$0A@$03$00@Eigen@@$02$00$0A@@Eigen@@@?$PlainObjectBase@V?$Matrix@N$02$00$0A@$02$00@Eigen@@@Eigen@@QEAAXAEBU?$EigenBase@V?$Block@V?$Matrix@N$03$00$0A@$03$00@Eigen@@$02$00$0A@@Eigen@@@1@@Z
	??$resizeLike@V?$CwiseBinaryOp@U?$scalar_quotient_op@NN@internal@Eigen@@$$CBV?$Block@$$CBV?$Matrix@N$02$03$0A@$02$03@Eigen@@$00$02$0A@@3@$$CBV?$CwiseNullaryOp@U?$scalar_constant_op@N@internal@Eigen@@$$CBV?$Matrix@N$00$02$00$00$02@3@@3@@Eigen@@@?$PlainObjectBase@V?$Matrix@N$00$02$00$00$02@Eigen@@@Eigen@@QEAAXAEBU?$EigenBase@V?$CwiseBinaryOp@U?$scalar_quotient_op@NN@internal@Eigen@@$$CBV?$Block@$$CBV?$Matrix@N$02$03$0A@$02$03@Eigen@@$00$02$0A@@3@$$CBV?$CwiseNullaryOp@U?$scalar_constant_op@N@internal@Eigen@@$$CBV?$Matrix@N$00$02$00$00$02@3@@3@@Eigen@@@1@@Z
	??$resizeLike@V?$CwiseBinaryOp@U?$scalar_quotient_op@NN@internal@Eigen@@$$CBV?$Matrix@N$02$00$0A@$02$00@3@$$CBV?$CwiseNullaryOp@U?$scalar_constant_op@N@internal@Eigen@@$$CBV?$Matrix@N$02$00$0A@$02$00@3@@3@@Eigen@@@?$PlainObjectBase@V?$Matrix@N$02$00$0A@$02$00@Eigen@@@Eigen@@QEAAXAEBU?$EigenBase@V?$CwiseBinaryOp@U?$scalar_quotient_op@NN@internal@Eigen@@$$CBV?$Matrix@N$02$00$0A@$02$00@3@$$CBV?$CwiseNullaryOp@U?$scalar_constant_op@N@internal@Eigen@@$$CBV?$Matrix@N$02$00$0A@$02$00@3@@3@@Eigen@@@1@@Z
	??$resizeLike@V?$CwiseBinaryOp@U?$scalar_sum_op@NN@internal@Eigen@@$$CBV?$CwiseBinaryOp@U?$scalar_product_op@NN@internal@Eigen@@$$CBV?$CwiseNullaryOp@U?$scalar_constant_op@N@internal@Eigen@@$$CBV?$Matrix@N$03$00$0A@$03$00@3@@3@$$CBV?$Matrix@N$03$00$0A@$03$00@3@@3@$$CBV43@@Eigen@@@?$PlainObjectBase@V?$Matrix@N$03$00$0A@$03$00@Eigen@@@Eigen@@QEAAXAEBU?$EigenBase@V?$CwiseBinaryOp@U?$scalar_sum_op@NN@internal@Eigen@@$$CBV?$CwiseBinaryOp@U?$scalar_product_op@NN@internal@Eigen@@$$CBV?$CwiseNullaryOp@U?$scalar_constant_op@N@internal@Eigen@@$$CBV?$Matrix@N$03$00$0A@$03$00@3@@3@$$CBV?$Matrix@N$03$00$0A@$03$00@3@@3@$$CBV43@@Eigen@@@1@@Z
	??$resizeLike@V?$CwiseNullaryOp@U?$scalar_zero_op@N@internal@Eigen@@V?$Matrix@N$02$03$0A@$02$03@3@@Eigen@@@?$PlainObjectBase@V?$Matrix@N$02$03$0A@$02$03@Eigen@@@Eigen@@QEAAXAEBU?$EigenBase@V?$CwiseNullaryOp@U?$scalar_zero_op@N@internal@Eigen@@V?$Matrix@N$02$03$0A@$02$03@3@@Eigen@@@1@@Z
	??$resizeLike@V?$CwiseUnaryOp@U?$core_cast_op@MN@internal@Eigen@@$$CBV?$Matrix@M$02$00$0A@$02$00@3@@Eigen@@@?$PlainObjectBase@V?$Matrix@N$02$00$0A@$02$00@Eigen@@@Eigen@@QEAAXAEBU?$EigenBase@V?$CwiseUnaryOp@U?$core_cast_op@MN@internal@Eigen@@$$CBV?$Matrix@M$02$00$0A@$02$00@3@@Eigen@@@1@@Z
	??$resizeLike@V?$DiagonalWrapper@$$CBV?$Matrix@N$02$00$0A@$02$00@Eigen@@@Eigen@@@?$PlainObjectBase@V?$Matrix@N$02$02$0A@$02$02@Eigen@@@Eigen@@QEAAXAEBU?$EigenBase@V?$DiagonalWrapper@$$CBV?$Matrix@N$02$00$0A@$02$00@Eigen@@@Eigen@@@1@@Z
	??$resizeLike@V?$Matrix@M$02$03$00$02$03@Eigen@@@?$PlainObjectBase@V?$Matrix@M$02$03$0A@$02$03@Eigen@@@Eigen@@QEAAXAEBU?$EigenBase@V?$Matrix@M$02$03$00$02$03@Eigen@@@1@@Z
	??$resizeLike@V?$Matrix@N$00$02$00$00$02@Eigen@@@?$PlainObjectBase@V?$Matrix@N$02$00$0A@$02$00@Eigen@@@Eigen@@QEAAXAEBU?$EigenBase@V?$Matrix@N$00$02$00$00$02@Eigen@@@1@@Z
	??$resizeLike@V?$Product@V?$Matrix@N$02$03$00$02$03@Eigen@@V?$Matrix@N$03$00$0A@$03$00@2@$0A@@Eigen@@@?$PlainObjectBase@V?$Matrix@N$02$00$0A@$02$00@Eigen@@@Eigen@@QEAAXAEBU?$EigenBase@V?$Product@V?$Matrix@N$02$03$00$02$03@Eigen@@V?$Matrix@N$03$00$0A@$03$00@2@$0A@@Eigen@@@1@@Z
	??$resizeLike@V?$Product@V?$Matrix@N$02$03$0A@$02$03@Eigen@@V?$Matrix@N$03$00$0A@$03$00@2@$0A@@Eigen@@@?$PlainObjectBase@V?$Matrix@N$02$00$0A@$02$00@Eigen@@@Eigen@@QEAAXAEBU?$EigenBase@V?$Product@V?$Matrix@N$02$03$0A@$02$03@Eigen@@V?$Matrix@N$03$00$0A@$03$00@2@$0A@@Eigen@@@1@@Z
	??$resizeLike@V?$Product@V?$Product@V?$Matrix@N$02$03$0A@$02$03@Eigen@@V?$Matrix@N$03$03$0A@$03$03@2@$0A@@Eigen@@V?$Matrix@N$03$02$0A@$03$02@2@$0A@@Eigen@@@?$PlainObjectBase@V?$Matrix@N$02$02$0A@$02$02@Eigen@@@Eigen@@QEAAXAEBU?$EigenBase@V?$Product@V?$Product@V?$Matrix@N$02$03$0A@$02$03@Eigen@@V?$Matrix@N$03$03$0A@$03$03@2@$0A@@Eigen@@V?$Matrix@N$03$02$0A@$03$02@2@$0A@@Eigen@@@1@@Z
	??$resizeLike@V?$Product@V?$Transpose@$$CBV?$Matrix@N$02$03$0A@$02$03@Eigen@@@Eigen@@V?$CwiseUnaryOp@U?$core_cast_op@MN@internal@Eigen@@$$CBV?$Matrix@M$02$00$0A@$02$00@3@@2@$0A@@Eigen@@@?$PlainObjectBase@V?$Matrix@N$03$00$0A@$03$00@Eigen@@@Eigen@@QEAAXAEBU?$EigenBase@V?$Product@V?$Transpose@$$CBV?$Matrix@N$02$03$0A@$02$03@Eigen@@@Eigen@@V?$CwiseUnaryOp@U?$core_cast_op@MN@internal@Eigen@@$$CBV?$Matrix@M$02$00$0A@$02$00@3@@2@$0A@@Eigen@@@1@@Z
	??$resize_if_allowed@V?$Block@V?$Matrix@N$02$02$0A@$02$02@Eigen@@$02$00$00@Eigen@@V12@U?$swap_assign_op@N@internal@2@@internal@Eigen@@YAXAEAV?$Block@V?$Matrix@N$02$02$0A@$02$02@Eigen@@$02$00$00@1@AEBV21@AEBU?$swap_assign_op@N@01@@Z
	??$resize_if_allowed@V?$Block@V?$Matrix@N$02$02$0A@$02$02@Eigen@@$02$00$00@Eigen@@V?$CwiseNullaryOp@U?$scalar_constant_op@N@internal@Eigen@@$$CBV?$Matrix@N$02$00$0A@$02$00@3@@2@U?$mul_assign_op@NN@internal@2@@internal@Eigen@@YAXAEAV?$Block@V?$Matrix@N$02$02$0A@$02$02@Eigen@@$02$00$00@1@AEBV?$CwiseNullaryOp@U?$scalar_constant_op@N@internal@Eigen@@$$CBV?$Matrix@N$02$00$0A@$02$00@3@@1@AEBU?$mul_assign_op@NN@01@@Z
	??$resize_if_allowed@V?$Block@V?$Matrix@N$02$02$0A@$02$02@Eigen@@$02$00$00@Eigen@@V?$CwiseUnaryOp@U?$scalar_opposite_op@N@internal@Eigen@@$$CBV?$Block@V?$Matrix@N$02$02$0A@$02$02@Eigen@@$02$00$00@3@@2@NN@internal@Eigen@@YAXAEAV?$Block@V?$Matrix@N$02$02$0A@$02$02@Eigen@@$02$00$00@1@AEBV?$CwiseUnaryOp@U?$scalar_opposite_op@N@internal@Eigen@@$$CBV?$Block@V?$Matrix@N$02$02$0A@$02$02@Eigen@@$02$00$00@3@@1@AEBU?$assign_op@NN@01@@Z
	??$resize_if_allowed@V?$Block@V?$Matrix@N$02$03$0A@$02$03@Eigen@@$00$02$0A@@Eigen@@V?$Transpose@V?$Matrix@N$02$00$0A@$02$00@Eigen@@@2@NN@internal@Eigen@@YAXAEAV?$Block@V?$Matrix@N$02$03$0A@$02$03@Eigen@@$00$02$0A@@1@AEBV?$Transpose@V?$Matrix@N$02$00$0A@$02$00@Eigen@@@1@AEBU?$assign_op@NN@01@@Z
	??$resize_if_allowed@V?$Block@V?$Matrix@N$03$00$0A@$03$00@Eigen@@$02$00$0A@@Eigen@@V?$Product@V?$Block@$$CBV?$Matrix@N$02$02$0A@$02$02@Eigen@@$02$0?0$00@Eigen@@V?$Matrix@N$0?0$00$0A@$02$00@2@$00@2@NN@internal@Eigen@@YAXAEAV?$Block@V?$Matrix@N$03$00$0A@$03$00@Eigen@@$02$00$0A@@1@AEBV?$Product@V?$Block@$$CBV?$Matrix@N$02$02$0A@$02$02@Eigen@@$02$0?0$00@Eigen@@V?$Matrix@N$0?0$00$0A@$02$00@2@$00@1@AEBU?$assign_op@NN@01@@Z
	??$resize_if_allowed@V?$Block@V?$Matrix@N$03$00$0A@$03$00@Eigen@@$0?0$00$0A@@Eigen@@V?$Matrix@N$02$00$0A@$02$00@2@NN@internal@Eigen@@YAXAEAV?$Block@V?$Matrix@N$03$00$0A@$03$00@Eigen@@$0?0$00$0A@@1@AEBV?$Matrix@N$02$00$0A@$02$00@1@AEBU?$assign_op@NN@01@@Z
	??$resize_if_allowed@V?$Diagonal@V?$Matrix@N$02$02$0A@$02$02@Eigen@@$0A@@Eigen@@V?$Matrix@N$02$00$0A@$02$00@2@NN@internal@Eigen@@YAXAEAV?$Diagonal@V?$Matrix@N$02$02$0A@$02$02@Eigen@@$0A@@1@AEBV?$Matrix@N$02$00$0A@$02$00@1@AEBU?$assign_op@NN@01@@Z
	??$resize_if_allowed@V?$Matrix@M$02$00$0A@$02$00@Eigen@@V?$CwiseUnaryOp@U?$core_cast_op@NM@internal@Eigen@@$$CBV?$Matrix@N$02$00$0A@$02$00@3@@2@MM@internal@Eigen@@YAXAEAV?$Matrix@M$02$00$0A@$02$00@1@AEBV?$CwiseUnaryOp@U?$core_cast_op@NM@internal@Eigen@@$$CBV?$Matrix@N$02$00$0A@$02$00@3@@1@AEBU?$assign_op@MM@01@@Z
	??$resize_if_allowed@V?$Matrix@M$02$03$00$02$03@Eigen@@V?$CwiseUnaryOp@U?$core_cast_op@NM@internal@Eigen@@$$CBV?$Transpose@V?$Matrix@N$03$02$0A@$03$02@Eigen@@@3@@2@MM@internal@Eigen@@YAXAEAV?$Matrix@M$02$03$00$02$03@1@AEBV?$CwiseUnaryOp@U?$core_cast_op@NM@internal@Eigen@@$$CBV?$Transpose@V?$Matrix@N$03$02$0A@$03$02@Eigen@@@3@@1@AEBU?$assign_op@MM@01@@Z
	??$resize_if_allowed@V?$Matrix@M$02$03$0A@$02$03@Eigen@@V?$Matrix@M$02$03$00$02$03@2@MM@internal@Eigen@@YAXAEAV?$Matrix@M$02$03$0A@$02$03@1@AEBV?$Matrix@M$02$03$00$02$03@1@AEBU?$assign_op@MM@01@@Z
	??$resize_if_allowed@V?$Matrix@M$03$00$0A@$03$00@Eigen@@V?$CwiseUnaryOp@U?$core_cast_op@NM@internal@Eigen@@$$CBV?$Matrix@N$03$00$0A@$03$00@3@@2@MM@internal@Eigen@@YAXAEAV?$Matrix@M$03$00$0A@$03$00@1@AEBV?$CwiseUnaryOp@U?$core_cast_op@NM@internal@Eigen@@$$CBV?$Matrix@N$03$00$0A@$03$00@3@@1@AEBU?$assign_op@MM@01@@Z
	??$resize_if_allowed@V?$Matrix@N$00$02$00$00$02@Eigen@@V?$Block@$$CBV?$Matrix@N$02$03$0A@$02$03@Eigen@@$00$02$0A@@2@NN@internal@Eigen@@YAXAEAV?$Matrix@N$00$02$00$00$02@1@AEBV?$Block@$$CBV?$Matrix@N$02$03$0A@$02$03@Eigen@@$00$02$0A@@1@AEBU?$assign_op@NN@01@@Z
	??$resize_if_allowed@V?$Matrix@N$00$02$00$00$02@Eigen@@V?$CwiseBinaryOp@U?$scalar_quotient_op@NN@internal@Eigen@@$$CBV?$Block@$$CBV?$Matrix@N$02$03$0A@$02$03@Eigen@@$00$02$0A@@3@$$CBV?$CwiseNullaryOp@U?$scalar_constant_op@N@internal@Eigen@@$$CBV?$Matrix@N$00$02$00$00$02@3@@3@@2@NN@internal@Eigen@@YAXAEAV?$Matrix@N$00$02$00$00$02@1@AEBV?$CwiseBinaryOp@U?$scalar_quotient_op@NN@internal@Eigen@@$$CBV?$Block@$$CBV?$Matrix@N$02$03$0A@$02$03@Eigen@@$00$02$0A@@3@$$CBV?$CwiseNullaryOp@U?$scalar_constant_op@N@internal@Eigen@@$$CBV?$Matrix@N$00$02$00$00$02@3@@3@@1@AEBU?$assign_op@NN@01@@Z
	??$resize_if_allowed@V?$Matrix@N$02$00$0A@$02$00@Eigen@@V?$Block@V?$Matrix@N$03$00$0A@$03$00@Eigen@@$02$00$0A@@2@NN@internal@Eigen@@YAXAEAV?$Matrix@N$02$00$0A@$02$00@1@AEBV?$Block@V?$Matrix@N$03$00$0A@$03$00@Eigen@@$02$00$0A@@1@AEBU?$assign_op@NN@01@@Z
	??$resize_if_allowed@V?$Matrix@N$02$00$0A@$02$00@Eigen@@V?$CwiseBinaryOp@U?$scalar_difference_op@NN@internal@Eigen@@$$CBV?$Matrix@N$02$00$0A@$02$00@3@$$CBV?$CwiseBinaryOp@U?$scalar_product_op@NN@internal@Eigen@@$$CBV?$Matrix@N$02$00$0A@$02$00@3@$$CBV?$CwiseNullaryOp@U?$scalar_constant_op@N@internal@Eigen@@$$CBV?$Matrix@N$02$00$0A@$02$00@3@@3@@3@@2@U?$add_assign_op@NN@internal@2@@internal@Eigen@@YAXAEAV?$Matrix@N$02$00$0A@$02$00@1@AEBV?$CwiseBinaryOp@U?$scalar_difference_op@NN@internal@Eigen@@$$CBV?$Matrix@N$02$00$0A@$02$00@3@$$CBV?$CwiseBinaryOp@U?$scalar_product_op@NN@internal@Eigen@@$$CBV?$Matrix@N$02$00$0A@$02$00@3@$$CBV?$CwiseNullaryOp@U?$scalar_constant_op@N@internal@Eigen@@$$CBV?$Matrix@N$02$00$0A@$02$00@3@@3@@3@@1@AEBU?$add_assign_op@NN@01@@Z
	??$resize_if_allowed@V?$Matrix@N$02$00$0A@$02$00@Eigen@@V?$CwiseBinaryOp@U?$scalar_quotient_op@NN@internal@Eigen@@$$CBV?$Matrix@N$02$00$0A@$02$00@3@$$CBV?$CwiseNullaryOp@U?$scalar_constant_op@N@internal@Eigen@@$$CBV?$Matrix@N$02$00$0A@$02$00@3@@3@@2@NN@internal@Eigen@@YAXAEAV?$Matrix@N$02$00$0A@$02$00@1@AEBV?$CwiseBinaryOp@U?$scalar_quotient_op@NN@internal@Eigen@@$$CBV?$Matrix@N$02$00$0A@$02$00@3@$$CBV?$CwiseNullaryOp@U?$scalar_constant_op@N@internal@Eigen@@$$CBV?$Matrix@N$02$00$0A@$02$00@3@@3@@1@AEBU?$assign_op@NN@01@@Z
	??$resize_if_allowed@V?$Matrix@N$02$00$0A@$02$00@Eigen@@V?$CwiseNullaryOp@U?$scalar_constant_op@N@internal@Eigen@@$$CBV?$Matrix@N$02$00$0A@$02$00@3@@2@U?$div_assign_op@NN@internal@2@@internal@Eigen@@YAXAEAV?$Matrix@N$02$00$0A@$02$00@1@AEBV?$CwiseNullaryOp@U?$scalar_constant_op@N@internal@Eigen@@$$CBV?$Matrix@N$02$00$0A@$02$00@3@@1@AEBU?$div_assign_op@NN@01@@Z
	??$resize_if_allowed@V?$Matrix@N$02$00$0A@$02$00@Eigen@@V?$CwiseNullaryOp@U?$scalar_constant_op@N@internal@Eigen@@$$CBV?$Matrix@N$02$00$0A@$02$00@3@@2@U?$mul_assign_op@NN@internal@2@@internal@Eigen@@YAXAEAV?$Matrix@N$02$00$0A@$02$00@1@AEBV?$CwiseNullaryOp@U?$scalar_constant_op@N@internal@Eigen@@$$CBV?$Matrix@N$02$00$0A@$02$00@3@@1@AEBU?$mul_assign_op@NN@01@@Z
	??$resize_if_allowed@V?$Matrix@N$02$00$0A@$02$00@Eigen@@V?$CwiseUnaryOp@U?$core_cast_op@MN@internal@Eigen@@$$CBV?$Matrix@M$02$00$0A@$02$00@3@@2@NN@internal@Eigen@@YAXAEAV?$Matrix@N$02$00$0A@$02$00@1@AEBV?$CwiseUnaryOp@U?$core_cast_op@MN@internal@Eigen@@$$CBV?$Matrix@M$02$00$0A@$02$00@3@@1@AEBU?$assign_op@NN@01@@Z
	??$resize_if_allowed@V?$Matrix@N$02$00$0A@$02$00@Eigen@@V?$Product@V?$Matrix@N$02$03$00$02$03@Eigen@@V?$Matrix@N$03$00$0A@$03$00@2@$00@2@NN@internal@Eigen@@YAXAEAV?$Matrix@N$02$00$0A@$02$00@1@AEBV?$Product@V?$Matrix@N$02$03$00$02$03@Eigen@@V?$Matrix@N$03$00$0A@$03$00@2@$00@1@AEBU?$assign_op@NN@01@@Z
	??$resize_if_allowed@V?$Matrix@N$02$00$0A@$02$00@Eigen@@V?$Product@V?$Matrix@N$02$03$0A@$02$03@Eigen@@V?$Matrix@N$03$00$0A@$03$00@2@$00@2@NN@internal@Eigen@@YAXAEAV?$Matrix@N$02$00$0A@$02$00@1@AEBV?$Product@V?$Matrix@N$02$03$0A@$02$03@Eigen@@V?$Matrix@N$03$00$0A@$03$00@2@$00@1@AEBU?$assign_op@NN@01@@Z
	??$resize_if_allowed@V?$Matrix@N$02$02$0A@$02$02@Eigen@@V12@U?$sub_assign_op@NN@internal@2@@internal@Eigen@@YAXAEAV?$Matrix@N$02$02$0A@$02$02@1@AEBV21@AEBU?$sub_assign_op@NN@01@@Z
	??$resize_if_allowed@V?$Matrix@N$02$02$0A@$02$02@Eigen@@V?$CwiseBinaryOp@U?$scalar_quotient_op@NN@internal@Eigen@@$$CBV?$Block@$$CBV?$Matrix@N$02$02$0A@$02$02@Eigen@@$02$02$0A@@3@$$CBV?$CwiseNullaryOp@U?$scalar_constant_op@N@internal@Eigen@@$$CBV?$Matrix@N$02$02$0A@$02$02@3@@3@@2@NN@internal@Eigen@@YAXAEAV?$Matrix@N$02$02$0A@$02$02@1@AEBV?$CwiseBinaryOp@U?$scalar_quotient_op@NN@internal@Eigen@@$$CBV?$Block@$$CBV?$Matrix@N$02$02$0A@$02$02@Eigen@@$02$02$0A@@3@$$CBV?$CwiseNullaryOp@U?$scalar_constant_op@N@internal@Eigen@@$$CBV?$Matrix@N$02$02$0A@$02$02@3@@3@@1@AEBU?$assign_op@NN@01@@Z
	??$resize_if_allowed@V?$Matrix@N$02$02$0A@$02$02@Eigen@@V?$CwiseNullaryOp@U?$scalar_identity_op@N@internal@Eigen@@V?$Matrix@N$02$02$0A@$02$02@3@@2@NN@internal@Eigen@@YAXAEAV?$Matrix@N$02$02$0A@$02$02@1@AEBV?$CwiseNullaryOp@U?$scalar_identity_op@N@internal@Eigen@@V?$Matrix@N$02$02$0A@$02$02@3@@1@AEBU?$assign_op@NN@01@@Z
	??$resize_if_allowed@V?$Matrix@N$02$02$0A@$02$02@Eigen@@V?$Product@V?$Matrix@N$02$00$0A@$02$00@Eigen@@V?$Transpose@V?$Matrix@N$02$00$0A@$02$00@Eigen@@@2@$00@2@NN@internal@Eigen@@YAXAEAV?$Matrix@N$02$02$0A@$02$02@1@AEBV?$Product@V?$Matrix@N$02$00$0A@$02$00@Eigen@@V?$Transpose@V?$Matrix@N$02$00$0A@$02$00@Eigen@@@2@$00@1@AEBU?$assign_op@NN@01@@Z
	??$resize_if_allowed@V?$Matrix@N$02$02$0A@$02$02@Eigen@@V?$Product@V?$Product@V?$Matrix@N$02$03$0A@$02$03@Eigen@@V?$Matrix@N$03$03$0A@$03$03@2@$0A@@Eigen@@V?$Matrix@N$03$02$0A@$03$02@2@$00@2@NN@internal@Eigen@@YAXAEAV?$Matrix@N$02$02$0A@$02$02@1@AEBV?$Product@V?$Product@V?$Matrix@N$02$03$0A@$02$03@Eigen@@V?$Matrix@N$03$03$0A@$03$03@2@$0A@@Eigen@@V?$Matrix@N$03$02$0A@$03$02@2@$00@1@AEBU?$assign_op@NN@01@@Z
	??$resize_if_allowed@V?$Matrix@N$02$03$00$02$03@Eigen@@V?$Transpose@V?$Matrix@N$03$02$0A@$03$02@Eigen@@@2@NN@internal@Eigen@@YAXAEAV?$Matrix@N$02$03$00$02$03@1@AEBV?$Transpose@V?$Matrix@N$03$02$0A@$03$02@Eigen@@@1@AEBU?$assign_op@NN@01@@Z
	??$resize_if_allowed@V?$Matrix@N$02$03$0A@$02$03@Eigen@@V12@NN@internal@Eigen@@YAXAEAV?$Matrix@N$02$03$0A@$02$03@1@AEBV21@AEBU?$assign_op@NN@01@@Z
	??$resize_if_allowed@V?$Matrix@N$02$03$0A@$02$03@Eigen@@V?$CwiseNullaryOp@U?$scalar_zero_op@N@internal@Eigen@@V?$Matrix@N$02$03$0A@$02$03@3@@2@NN@internal@Eigen@@YAXAEAV?$Matrix@N$02$03$0A@$02$03@1@AEBV?$CwiseNullaryOp@U?$scalar_zero_op@N@internal@Eigen@@V?$Matrix@N$02$03$0A@$02$03@3@@1@AEBU?$assign_op@NN@01@@Z
	??$resize_if_allowed@V?$Matrix@N$02$03$0A@$02$03@Eigen@@V?$Product@V?$Matrix@N$02$03$0A@$02$03@Eigen@@V?$Matrix@N$03$03$0A@$03$03@2@$00@2@NN@internal@Eigen@@YAXAEAV?$Matrix@N$02$03$0A@$02$03@1@AEBV?$Product@V?$Matrix@N$02$03$0A@$02$03@Eigen@@V?$Matrix@N$03$03$0A@$03$03@2@$00@1@AEBU?$assign_op@NN@01@@Z
	??$resize_if_allowed@V?$Matrix@N$03$00$0A@$03$00@Eigen@@V?$CwiseBinaryOp@U?$scalar_sum_op@NN@internal@Eigen@@$$CBV?$CwiseBinaryOp@U?$scalar_product_op@NN@internal@Eigen@@$$CBV?$CwiseNullaryOp@U?$scalar_constant_op@N@internal@Eigen@@$$CBV?$Matrix@N$03$00$0A@$03$00@3@@3@$$CBV?$Matrix@N$03$00$0A@$03$00@3@@3@$$CBV43@@2@NN@internal@Eigen@@YAXAEAV?$Matrix@N$03$00$0A@$03$00@1@AEBV?$CwiseBinaryOp@U?$scalar_sum_op@NN@internal@Eigen@@$$CBV?$CwiseBinaryOp@U?$scalar_product_op@NN@internal@Eigen@@$$CBV?$CwiseNullaryOp@U?$scalar_constant_op@N@internal@Eigen@@$$CBV?$Matrix@N$03$00$0A@$03$00@3@@3@$$CBV?$Matrix@N$03$00$0A@$03$00@3@@3@$$CBV43@@1@AEBU?$assign_op@NN@01@@Z
	??$resize_if_allowed@V?$Matrix@N$03$00$0A@$03$00@Eigen@@V?$CwiseNullaryOp@U?$scalar_constant_op@N@internal@Eigen@@$$CBV?$Matrix@N$03$00$0A@$03$00@3@@2@U?$div_assign_op@NN@internal@2@@internal@Eigen@@YAXAEAV?$Matrix@N$03$00$0A@$03$00@1@AEBV?$CwiseNullaryOp@U?$scalar_constant_op@N@internal@Eigen@@$$CBV?$Matrix@N$03$00$0A@$03$00@3@@1@AEBU?$div_assign_op@NN@01@@Z
	??$resize_if_allowed@V?$Matrix@N$03$00$0A@$03$00@Eigen@@V?$Product@V?$Transpose@$$CBV?$Matrix@N$02$03$0A@$02$03@Eigen@@@Eigen@@V?$CwiseUnaryOp@U?$core_cast_op@MN@internal@Eigen@@$$CBV?$Matrix@M$02$00$0A@$02$00@3@@2@$00@2@NN@internal@Eigen@@YAXAEAV?$Matrix@N$03$00$0A@$03$00@1@AEBV?$Product@V?$Transpose@$$CBV?$Matrix@N$02$03$0A@$02$03@Eigen@@@Eigen@@V?$CwiseUnaryOp@U?$core_cast_op@MN@internal@Eigen@@$$CBV?$Matrix@M$02$00$0A@$02$00@3@@2@$00@1@AEBU?$assign_op@NN@01@@Z
	??$resize_if_allowed@V?$Matrix@N$0?0$00$0A@$02$00@Eigen@@V?$Product@V?$DiagonalWrapper@$$CBV?$CwiseUnaryOp@U?$scalar_inverse_op@N@internal@Eigen@@$$CBV?$Block@$$CBV?$Matrix@N$02$00$0A@$02$00@Eigen@@$0?0$00$0A@@3@@Eigen@@@Eigen@@V?$Matrix@N$0?0$00$0A@$02$00@2@$00@2@NN@internal@Eigen@@YAXAEAV?$Matrix@N$0?0$00$0A@$02$00@1@AEBV?$Product@V?$DiagonalWrapper@$$CBV?$CwiseUnaryOp@U?$scalar_inverse_op@N@internal@Eigen@@$$CBV?$Block@$$CBV?$Matrix@N$02$00$0A@$02$00@Eigen@@$0?0$00$0A@@3@@Eigen@@@Eigen@@V?$Matrix@N$0?0$00$0A@$02$00@2@$00@1@AEBU?$assign_op@NN@01@@Z
	??$resize_if_allowed@V?$Matrix@N$0?0$00$0A@$02$00@Eigen@@V?$Product@V?$Transpose@$$CBV?$Block@$$CBV?$Matrix@N$02$02$0A@$02$02@Eigen@@$02$0?0$00@Eigen@@@Eigen@@V?$Matrix@N$02$00$0A@$02$00@2@$00@2@NN@internal@Eigen@@YAXAEAV?$Matrix@N$0?0$00$0A@$02$00@1@AEBV?$Product@V?$Transpose@$$CBV?$Block@$$CBV?$Matrix@N$02$02$0A@$02$02@Eigen@@$02$0?0$00@Eigen@@@Eigen@@V?$Matrix@N$02$00$0A@$02$00@2@$00@1@AEBU?$assign_op@NN@01@@Z
	??$resize_if_allowed@V?$Transpose@V?$Matrix@N$02$00$0A@$02$00@Eigen@@@Eigen@@V?$Matrix@N$00$02$00$00$02@2@NN@internal@Eigen@@YAXAEAV?$Transpose@V?$Matrix@N$02$00$0A@$02$00@Eigen@@@1@AEBV?$Matrix@N$00$02$00$00$02@1@AEBU?$assign_op@NN@01@@Z
	??$round_down@_JH@numext@Eigen@@YA_J_JH@Z
	??$round_down@_KH@numext@Eigen@@YA_K_KH@Z
	??$run@$0A@V?$MatrixBase@V?$Matrix@N$02$00$0A@$02$00@Eigen@@@Eigen@@@?$solve_assertion@V?$SVDBase@V?$JacobiSVD@V?$Matrix@N$02$02$0A@$02$02@Eigen@@$0A@@Eigen@@@Eigen@@@internal@Eigen@@SAXAEBV?$SVDBase@V?$JacobiSVD@V?$Matrix@N$02$02$0A@$02$02@Eigen@@$0A@@Eigen@@@2@AEBV?$MatrixBase@V?$Matrix@N$02$00$0A@$02$00@Eigen@@@2@@Z
	??$run@NV<lambda_1c580a7c628fe19a8fd42d317af12316>@@@?$pminmax_impl@$00$0A@@internal@Eigen@@SANAEBN0V<lambda_1c580a7c628fe19a8fd42d317af12316>@@@Z
	??$run@NV<lambda_f4ee5926c7c98cf496dd3d8788c61ee4>@@@?$pminmax_impl@$0A@$0A@@internal@Eigen@@SANAEBN0V<lambda_f4ee5926c7c98cf496dd3d8788c61ee4>@@@Z
	??$run@U__m128d@@@?$redux_vec_linear_unroller@U?$scalar_max_op@NN$00@internal@Eigen@@V?$redux_evaluator@V?$CwiseUnaryOp@U?$scalar_abs_op@N@internal@Eigen@@$$CBV?$Matrix@N$02$02$0A@$02$02@3@@Eigen@@@23@$00$00@internal@Eigen@@SA?AU__m128d@@AEBV?$redux_evaluator@V?$CwiseUnaryOp@U?$scalar_abs_op@N@internal@Eigen@@$$CBV?$Matrix@N$02$02$0A@$02$02@3@@Eigen@@@12@AEBU?$scalar_max_op@NN$00@12@@Z
	??$run@U__m128d@@@?$redux_vec_linear_unroller@U?$scalar_max_op@NN$00@internal@Eigen@@V?$redux_evaluator@V?$CwiseUnaryOp@U?$scalar_abs_op@N@internal@Eigen@@$$CBV?$Matrix@N$02$02$0A@$02$02@3@@Eigen@@@23@$01$00@internal@Eigen@@SA?AU__m128d@@AEBV?$redux_evaluator@V?$CwiseUnaryOp@U?$scalar_abs_op@N@internal@Eigen@@$$CBV?$Matrix@N$02$02$0A@$02$02@3@@Eigen@@@12@AEBU?$scalar_max_op@NN$00@12@@Z
	??$run@U__m128d@@@?$redux_vec_linear_unroller@U?$scalar_max_op@NN$00@internal@Eigen@@V?$redux_evaluator@V?$CwiseUnaryOp@U?$scalar_abs_op@N@internal@Eigen@@$$CBV?$Matrix@N$02$02$0A@$02$02@3@@Eigen@@@23@$01$01@internal@Eigen@@SA?AU__m128d@@AEBV?$redux_evaluator@V?$CwiseUnaryOp@U?$scalar_abs_op@N@internal@Eigen@@$$CBV?$Matrix@N$02$02$0A@$02$02@3@@Eigen@@@12@AEBU?$scalar_max_op@NN$00@12@@Z
	??$run@U__m128d@@@?$redux_vec_linear_unroller@U?$scalar_max_op@NN$00@internal@Eigen@@V?$redux_evaluator@V?$CwiseUnaryOp@U?$scalar_abs_op@N@internal@Eigen@@$$CBV?$Matrix@N$02$02$0A@$02$02@3@@Eigen@@@23@$02$00@internal@Eigen@@SA?AU__m128d@@AEBV?$redux_evaluator@V?$CwiseUnaryOp@U?$scalar_abs_op@N@internal@Eigen@@$$CBV?$Matrix@N$02$02$0A@$02$02@3@@Eigen@@@12@AEBU?$scalar_max_op@NN$00@12@@Z
	??$run@U__m128d@@@?$redux_vec_linear_unroller@U?$scalar_max_op@NN$00@internal@Eigen@@V?$redux_evaluator@V?$CwiseUnaryOp@U?$scalar_abs_op@N@internal@Eigen@@$$CBV?$Matrix@N$02$02$0A@$02$02@3@@Eigen@@@23@$0A@$00@internal@Eigen@@SA?AU__m128d@@AEBV?$redux_evaluator@V?$CwiseUnaryOp@U?$scalar_abs_op@N@internal@Eigen@@$$CBV?$Matrix@N$02$02$0A@$02$02@3@@Eigen@@@12@AEBU?$scalar_max_op@NN$00@12@@Z
	??$run@U__m128d@@@?$redux_vec_linear_unroller@U?$scalar_max_op@NN$00@internal@Eigen@@V?$redux_evaluator@V?$CwiseUnaryOp@U?$scalar_abs_op@N@internal@Eigen@@$$CBV?$Matrix@N$02$02$0A@$02$02@3@@Eigen@@@23@$0A@$01@internal@Eigen@@SA?AU__m128d@@AEBV?$redux_evaluator@V?$CwiseUnaryOp@U?$scalar_abs_op@N@internal@Eigen@@$$CBV?$Matrix@N$02$02$0A@$02$02@3@@Eigen@@@12@AEBU?$scalar_max_op@NN$00@12@@Z
	??$run@U__m128d@@@?$redux_vec_linear_unroller@U?$scalar_max_op@NN$00@internal@Eigen@@V?$redux_evaluator@V?$CwiseUnaryOp@U?$scalar_abs_op@N@internal@Eigen@@$$CBV?$Matrix@N$02$02$0A@$02$02@3@@Eigen@@@23@$0A@$03@internal@Eigen@@SA?AU__m128d@@AEBV?$redux_evaluator@V?$CwiseUnaryOp@U?$scalar_abs_op@N@internal@Eigen@@$$CBV?$Matrix@N$02$02$0A@$02$02@3@@Eigen@@@12@AEBU?$scalar_max_op@NN$00@12@@Z
	??$run@U__m128d@@@?$redux_vec_linear_unroller@U?$scalar_sum_op@NN@internal@Eigen@@V?$redux_evaluator@V?$CwiseBinaryOp@U?$scalar_product_op@NN@internal@Eigen@@$$CBV?$Transpose@$$CBV?$Block@$$CBV?$Matrix@N$02$00$0A@$02$00@Eigen@@$00$00$0A@@Eigen@@@3@$$CBV?$Block@$$CBV?$Transpose@V?$Matrix@N$02$00$0A@$02$00@Eigen@@@Eigen@@$00$00$0A@@3@@Eigen@@@23@$0A@$0A@@internal@Eigen@@SA?AU__m128d@@AEBV?$redux_evaluator@V?$CwiseBinaryOp@U?$scalar_product_op@NN@internal@Eigen@@$$CBV?$Transpose@$$CBV?$Block@$$CBV?$Matrix@N$02$00$0A@$02$00@Eigen@@$00$00$0A@@Eigen@@@3@$$CBV?$Block@$$CBV?$Transpose@V?$Matrix@N$02$00$0A@$02$00@Eigen@@@Eigen@@$00$00$0A@@3@@Eigen@@@12@AEBU?$scalar_sum_op@NN@12@@Z
	??$run@U__m128d@@@?$redux_vec_linear_unroller@U?$scalar_sum_op@NN@internal@Eigen@@V?$redux_evaluator@V?$CwiseBinaryOp@U?$scalar_product_op@NN@internal@Eigen@@$$CBV?$Transpose@$$CBV?$Block@$$CBV?$Matrix@N$02$03$00$02$03@Eigen@@$00$03$00@Eigen@@@3@$$CBV?$Block@$$CBV?$Matrix@N$03$00$0A@$03$00@Eigen@@$03$00$00@3@@Eigen@@@23@$00$00@internal@Eigen@@SA?AU__m128d@@AEBV?$redux_evaluator@V?$CwiseBinaryOp@U?$scalar_product_op@NN@internal@Eigen@@$$CBV?$Transpose@$$CBV?$Block@$$CBV?$Matrix@N$02$03$00$02$03@Eigen@@$00$03$00@Eigen@@@3@$$CBV?$Block@$$CBV?$Matrix@N$03$00$0A@$03$00@Eigen@@$03$00$00@3@@Eigen@@@12@AEBU?$scalar_sum_op@NN@12@@Z
	??$run@U__m128d@@@?$redux_vec_linear_unroller@U?$scalar_sum_op@NN@internal@Eigen@@V?$redux_evaluator@V?$CwiseBinaryOp@U?$scalar_product_op@NN@internal@Eigen@@$$CBV?$Transpose@$$CBV?$Block@$$CBV?$Matrix@N$02$03$00$02$03@Eigen@@$00$03$00@Eigen@@@3@$$CBV?$Block@$$CBV?$Matrix@N$03$00$0A@$03$00@Eigen@@$03$00$00@3@@Eigen@@@23@$0A@$00@internal@Eigen@@SA?AU__m128d@@AEBV?$redux_evaluator@V?$CwiseBinaryOp@U?$scalar_product_op@NN@internal@Eigen@@$$CBV?$Transpose@$$CBV?$Block@$$CBV?$Matrix@N$02$03$00$02$03@Eigen@@$00$03$00@Eigen@@@3@$$CBV?$Block@$$CBV?$Matrix@N$03$00$0A@$03$00@Eigen@@$03$00$00@3@@Eigen@@@12@AEBU?$scalar_sum_op@NN@12@@Z
	??$run@U__m128d@@@?$redux_vec_linear_unroller@U?$scalar_sum_op@NN@internal@Eigen@@V?$redux_evaluator@V?$CwiseBinaryOp@U?$scalar_product_op@NN@internal@Eigen@@$$CBV?$Transpose@$$CBV?$Block@$$CBV?$Matrix@N$02$03$00$02$03@Eigen@@$00$03$00@Eigen@@@3@$$CBV?$Block@$$CBV?$Matrix@N$03$00$0A@$03$00@Eigen@@$03$00$00@3@@Eigen@@@23@$0A@$01@internal@Eigen@@SA?AU__m128d@@AEBV?$redux_evaluator@V?$CwiseBinaryOp@U?$scalar_product_op@NN@internal@Eigen@@$$CBV?$Transpose@$$CBV?$Block@$$CBV?$Matrix@N$02$03$00$02$03@Eigen@@$00$03$00@Eigen@@@3@$$CBV?$Block@$$CBV?$Matrix@N$03$00$0A@$03$00@Eigen@@$03$00$00@3@@Eigen@@@12@AEBU?$scalar_sum_op@NN@12@@Z
	??$run@U__m128d@@@?$redux_vec_linear_unroller@U?$scalar_sum_op@NN@internal@Eigen@@V?$redux_evaluator@V?$CwiseBinaryOp@U?$scalar_product_op@NN@internal@Eigen@@$$CBV?$Transpose@$$CBV?$Block@$$CBV?$Transpose@$$CBV?$Block@$$CBV?$Matrix@N$02$02$0A@$02$02@Eigen@@$02$0?0$00@Eigen@@@Eigen@@$00$02$00@Eigen@@@3@$$CBV?$Block@$$CBV?$Matrix@N$02$00$0A@$02$00@Eigen@@$02$00$00@3@@Eigen@@@23@$0A@$00@internal@Eigen@@SA?AU__m128d@@AEBV?$redux_evaluator@V?$CwiseBinaryOp@U?$scalar_product_op@NN@internal@Eigen@@$$CBV?$Transpose@$$CBV?$Block@$$CBV?$Transpose@$$CBV?$Block@$$CBV?$Matrix@N$02$02$0A@$02$02@Eigen@@$02$0?0$00@Eigen@@@Eigen@@$00$02$00@Eigen@@@3@$$CBV?$Block@$$CBV?$Matrix@N$02$00$0A@$02$00@Eigen@@$02$00$00@3@@Eigen@@@12@AEBU?$scalar_sum_op@NN@12@@Z
	??$run@U__m128d@@@?$redux_vec_linear_unroller@U?$scalar_sum_op@NN@internal@Eigen@@V?$redux_evaluator@V?$CwiseBinaryOp@U?$scalar_product_op@NN@internal@Eigen@@$$CBV?$Transpose@$$CBV?$Block@$$CBV?$Transpose@$$CBV?$Matrix@N$02$03$0A@$02$03@Eigen@@@Eigen@@$00$02$00@Eigen@@@3@$$CBV?$Block@$$CBV?$Matrix@N$02$00$0A@$02$00@Eigen@@$02$00$00@3@@Eigen@@@23@$0A@$00@internal@Eigen@@SA?AU__m128d@@AEBV?$redux_evaluator@V?$CwiseBinaryOp@U?$scalar_product_op@NN@internal@Eigen@@$$CBV?$Transpose@$$CBV?$Block@$$CBV?$Transpose@$$CBV?$Matrix@N$02$03$0A@$02$03@Eigen@@@Eigen@@$00$02$00@Eigen@@@3@$$CBV?$Block@$$CBV?$Matrix@N$02$00$0A@$02$00@Eigen@@$02$00$00@3@@Eigen@@@12@AEBU?$scalar_sum_op@NN@12@@Z
	??$run@U__m128d@@@?$redux_vec_linear_unroller@U?$scalar_sum_op@NN@internal@Eigen@@V?$redux_evaluator@V?$CwiseUnaryOp@U?$squared_norm_functor@N$0A@@internal@Eigen@@$$CBV?$CwiseBinaryOp@U?$scalar_difference_op@NN@internal@Eigen@@$$CBV?$Matrix@N$03$00$0A@$03$00@3@$$CBV43@@3@@Eigen@@@23@$00$00@internal@Eigen@@SA?AU__m128d@@AEBV?$redux_evaluator@V?$CwiseUnaryOp@U?$squared_norm_functor@N$0A@@internal@Eigen@@$$CBV?$CwiseBinaryOp@U?$scalar_difference_op@NN@internal@Eigen@@$$CBV?$Matrix@N$03$00$0A@$03$00@3@$$CBV43@@3@@Eigen@@@12@AEBU?$scalar_sum_op@NN@12@@Z
	??$run@U__m128d@@@?$redux_vec_linear_unroller@U?$scalar_sum_op@NN@internal@Eigen@@V?$redux_evaluator@V?$CwiseUnaryOp@U?$squared_norm_functor@N$0A@@internal@Eigen@@$$CBV?$CwiseBinaryOp@U?$scalar_difference_op@NN@internal@Eigen@@$$CBV?$Matrix@N$03$00$0A@$03$00@3@$$CBV43@@3@@Eigen@@@23@$0A@$00@internal@Eigen@@SA?AU__m128d@@AEBV?$redux_evaluator@V?$CwiseUnaryOp@U?$squared_norm_functor@N$0A@@internal@Eigen@@$$CBV?$CwiseBinaryOp@U?$scalar_difference_op@NN@internal@Eigen@@$$CBV?$Matrix@N$03$00$0A@$03$00@3@$$CBV43@@3@@Eigen@@@12@AEBU?$scalar_sum_op@NN@12@@Z
	??$run@U__m128d@@@?$redux_vec_linear_unroller@U?$scalar_sum_op@NN@internal@Eigen@@V?$redux_evaluator@V?$CwiseUnaryOp@U?$squared_norm_functor@N$0A@@internal@Eigen@@$$CBV?$CwiseBinaryOp@U?$scalar_difference_op@NN@internal@Eigen@@$$CBV?$Matrix@N$03$00$0A@$03$00@3@$$CBV43@@3@@Eigen@@@23@$0A@$01@internal@Eigen@@SA?AU__m128d@@AEBV?$redux_evaluator@V?$CwiseUnaryOp@U?$squared_norm_functor@N$0A@@internal@Eigen@@$$CBV?$CwiseBinaryOp@U?$scalar_difference_op@NN@internal@Eigen@@$$CBV?$Matrix@N$03$00$0A@$03$00@3@$$CBV43@@3@@Eigen@@@12@AEBU?$scalar_sum_op@NN@12@@Z
	??$run@U__m128d@@@?$redux_vec_linear_unroller@U?$scalar_sum_op@NN@internal@Eigen@@V?$redux_evaluator@V?$CwiseUnaryOp@U?$squared_norm_functor@N$0A@@internal@Eigen@@$$CBV?$Matrix@N$02$00$0A@$02$00@3@@Eigen@@@23@$0A@$00@internal@Eigen@@SA?AU__m128d@@AEBV?$redux_evaluator@V?$CwiseUnaryOp@U?$squared_norm_functor@N$0A@@internal@Eigen@@$$CBV?$Matrix@N$02$00$0A@$02$00@3@@Eigen@@@12@AEBU?$scalar_sum_op@NN@12@@Z
	??$run@V?$CwiseBinaryOp@U?$scalar_product_op@NN@internal@Eigen@@$$CBV?$Transpose@$$CBV?$Block@$$CBV?$Block@$$CBV?$Matrix@N$02$02$0A@$02$02@Eigen@@$02$0?0$00@Eigen@@$00$0?0$0A@@Eigen@@@3@$$CBV?$Block@$$CBV?$Matrix@N$0?0$00$0A@$02$00@Eigen@@$0?0$00$00@3@@Eigen@@@?$redux_impl@U?$scalar_sum_op@NN@internal@Eigen@@V?$redux_evaluator@V?$CwiseBinaryOp@U?$scalar_product_op@NN@internal@Eigen@@$$CBV?$Transpose@$$CBV?$Block@$$CBV?$Block@$$CBV?$Matrix@N$02$02$0A@$02$02@Eigen@@$02$0?0$00@Eigen@@$00$0?0$0A@@Eigen@@@3@$$CBV?$Block@$$CBV?$Matrix@N$0?0$00$0A@$02$00@Eigen@@$0?0$00$00@3@@Eigen@@@23@$00$0A@@internal@Eigen@@SANAEBV?$redux_evaluator@V?$CwiseBinaryOp@U?$scalar_product_op@NN@internal@Eigen@@$$CBV?$Transpose@$$CBV?$Block@$$CBV?$Block@$$CBV?$Matrix@N$02$02$0A@$02$02@Eigen@@$02$0?0$00@Eigen@@$00$0?0$0A@@Eigen@@@3@$$CBV?$Block@$$CBV?$Matrix@N$0?0$00$0A@$02$00@Eigen@@$0?0$00$00@3@@Eigen@@@12@AEBU?$scalar_sum_op@NN@12@AEBV?$CwiseBinaryOp@U?$scalar_product_op@NN@internal@Eigen@@$$CBV?$Transpose@$$CBV?$Block@$$CBV?$Block@$$CBV?$Matrix@N$02$02$0A@$02$02@Eigen@@$02$0?0$00@Eigen@@$00$0?0$0A@@Eigen@@@3@$$CBV?$Block@$$CBV?$Matrix@N$0?0$00$0A@$02$00@Eigen@@$0?0$00$00@3@@2@@Z
	??$run@V?$CwiseBinaryOp@U?$scalar_product_op@NN@internal@Eigen@@$$CBV?$Transpose@$$CBV?$Block@$$CBV?$Matrix@N$02$00$0A@$02$00@Eigen@@$00$00$0A@@Eigen@@@3@$$CBV?$Block@$$CBV?$Transpose@V?$Matrix@N$02$00$0A@$02$00@Eigen@@@Eigen@@$00$00$0A@@3@@Eigen@@@?$redux_impl@U?$scalar_sum_op@NN@internal@Eigen@@V?$redux_evaluator@V?$CwiseBinaryOp@U?$scalar_product_op@NN@internal@Eigen@@$$CBV?$Transpose@$$CBV?$Block@$$CBV?$Matrix@N$02$00$0A@$02$00@Eigen@@$00$00$0A@@Eigen@@@3@$$CBV?$Block@$$CBV?$Transpose@V?$Matrix@N$02$00$0A@$02$00@Eigen@@@Eigen@@$00$00$0A@@3@@Eigen@@@23@$02$01@internal@Eigen@@SANAEBV?$redux_evaluator@V?$CwiseBinaryOp@U?$scalar_product_op@NN@internal@Eigen@@$$CBV?$Transpose@$$CBV?$Block@$$CBV?$Matrix@N$02$00$0A@$02$00@Eigen@@$00$00$0A@@Eigen@@@3@$$CBV?$Block@$$CBV?$Transpose@V?$Matrix@N$02$00$0A@$02$00@Eigen@@@Eigen@@$00$00$0A@@3@@Eigen@@@12@AEBU?$scalar_sum_op@NN@12@AEBV?$CwiseBinaryOp@U?$scalar_product_op@NN@internal@Eigen@@$$CBV?$Transpose@$$CBV?$Block@$$CBV?$Matrix@N$02$00$0A@$02$00@Eigen@@$00$00$0A@@Eigen@@@3@$$CBV?$Block@$$CBV?$Transpose@V?$Matrix@N$02$00$0A@$02$00@Eigen@@@Eigen@@$00$00$0A@@3@@2@@Z
	??$run@V?$CwiseBinaryOp@U?$scalar_product_op@NN@internal@Eigen@@$$CBV?$Transpose@$$CBV?$Block@$$CBV?$Matrix@N$02$03$00$02$03@Eigen@@$00$03$00@Eigen@@@3@$$CBV?$Block@$$CBV?$Matrix@N$03$00$0A@$03$00@Eigen@@$03$00$00@3@@Eigen@@@?$redux_impl@U?$scalar_sum_op@NN@internal@Eigen@@V?$redux_evaluator@V?$CwiseBinaryOp@U?$scalar_product_op@NN@internal@Eigen@@$$CBV?$Transpose@$$CBV?$Block@$$CBV?$Matrix@N$02$03$00$02$03@Eigen@@$00$03$00@Eigen@@@3@$$CBV?$Block@$$CBV?$Matrix@N$03$00$0A@$03$00@Eigen@@$03$00$00@3@@Eigen@@@23@$02$01@internal@Eigen@@SANAEBV?$redux_evaluator@V?$CwiseBinaryOp@U?$scalar_product_op@NN@internal@Eigen@@$$CBV?$Transpose@$$CBV?$Block@$$CBV?$Matrix@N$02$03$00$02$03@Eigen@@$00$03$00@Eigen@@@3@$$CBV?$Block@$$CBV?$Matrix@N$03$00$0A@$03$00@Eigen@@$03$00$00@3@@Eigen@@@12@AEBU?$scalar_sum_op@NN@12@AEBV?$CwiseBinaryOp@U?$scalar_product_op@NN@internal@Eigen@@$$CBV?$Transpose@$$CBV?$Block@$$CBV?$Matrix@N$02$03$00$02$03@Eigen@@$00$03$00@Eigen@@@3@$$CBV?$Block@$$CBV?$Matrix@N$03$00$0A@$03$00@Eigen@@$03$00$00@3@@2@@Z
	??$run@V?$CwiseBinaryOp@U?$scalar_product_op@NN@internal@Eigen@@$$CBV?$Transpose@$$CBV?$Block@$$CBV?$Matrix@N$02$03$0A@$02$03@Eigen@@$00$03$0A@@Eigen@@@3@$$CBV?$Block@$$CBV?$Matrix@N$03$00$0A@$03$00@Eigen@@$03$00$00@3@@Eigen@@@?$redux_impl@U?$scalar_sum_op@NN@internal@Eigen@@V?$redux_evaluator@V?$CwiseBinaryOp@U?$scalar_product_op@NN@internal@Eigen@@$$CBV?$Transpose@$$CBV?$Block@$$CBV?$Matrix@N$02$03$0A@$02$03@Eigen@@$00$03$0A@@Eigen@@@3@$$CBV?$Block@$$CBV?$Matrix@N$03$00$0A@$03$00@Eigen@@$03$00$00@3@@Eigen@@@23@$00$01@internal@Eigen@@SANAEBV?$redux_evaluator@V?$CwiseBinaryOp@U?$scalar_product_op@NN@internal@Eigen@@$$CBV?$Transpose@$$CBV?$Block@$$CBV?$Matrix@N$02$03$0A@$02$03@Eigen@@$00$03$0A@@Eigen@@@3@$$CBV?$Block@$$CBV?$Matrix@N$03$00$0A@$03$00@Eigen@@$03$00$00@3@@Eigen@@@12@AEBU?$scalar_sum_op@NN@12@AEBV?$CwiseBinaryOp@U?$scalar_product_op@NN@internal@Eigen@@$$CBV?$Transpose@$$CBV?$Block@$$CBV?$Matrix@N$02$03$0A@$02$03@Eigen@@$00$03$0A@@Eigen@@@3@$$CBV?$Block@$$CBV?$Matrix@N$03$00$0A@$03$00@Eigen@@$03$00$00@3@@2@@Z
	??$run@V?$CwiseBinaryOp@U?$scalar_product_op@NN@internal@Eigen@@$$CBV?$Transpose@$$CBV?$Block@$$CBV?$Matrix@N$02$03$0A@$02$03@Eigen@@$00$03$0A@@Eigen@@@3@$$CBV?$Block@$$CBV?$Matrix@N$03$02$0A@$03$02@Eigen@@$03$00$00@3@@Eigen@@@?$redux_impl@U?$scalar_sum_op@NN@internal@Eigen@@V?$redux_evaluator@V?$CwiseBinaryOp@U?$scalar_product_op@NN@internal@Eigen@@$$CBV?$Transpose@$$CBV?$Block@$$CBV?$Matrix@N$02$03$0A@$02$03@Eigen@@$00$03$0A@@Eigen@@@3@$$CBV?$Block@$$CBV?$Matrix@N$03$02$0A@$03$02@Eigen@@$03$00$00@3@@Eigen@@@23@$00$01@internal@Eigen@@SANAEBV?$redux_evaluator@V?$CwiseBinaryOp@U?$scalar_product_op@NN@internal@Eigen@@$$CBV?$Transpose@$$CBV?$Block@$$CBV?$Matrix@N$02$03$0A@$02$03@Eigen@@$00$03$0A@@Eigen@@@3@$$CBV?$Block@$$CBV?$Matrix@N$03$02$0A@$03$02@Eigen@@$03$00$00@3@@Eigen@@@12@AEBU?$scalar_sum_op@NN@12@AEBV?$CwiseBinaryOp@U?$scalar_product_op@NN@internal@Eigen@@$$CBV?$Transpose@$$CBV?$Block@$$CBV?$Matrix@N$02$03$0A@$02$03@Eigen@@$00$03$0A@@Eigen@@@3@$$CBV?$Block@$$CBV?$Matrix@N$03$02$0A@$03$02@Eigen@@$03$00$00@3@@2@@Z
	??$run@V?$CwiseBinaryOp@U?$scalar_product_op@NN@internal@Eigen@@$$CBV?$Transpose@$$CBV?$Block@$$CBV?$Matrix@N$02$03$0A@$02$03@Eigen@@$00$03$0A@@Eigen@@@3@$$CBV?$Block@$$CBV?$Matrix@N$03$03$0A@$03$03@Eigen@@$03$00$00@3@@Eigen@@@?$redux_impl@U?$scalar_sum_op@NN@internal@Eigen@@V?$redux_evaluator@V?$CwiseBinaryOp@U?$scalar_product_op@NN@internal@Eigen@@$$CBV?$Transpose@$$CBV?$Block@$$CBV?$Matrix@N$02$03$0A@$02$03@Eigen@@$00$03$0A@@Eigen@@@3@$$CBV?$Block@$$CBV?$Matrix@N$03$03$0A@$03$03@Eigen@@$03$00$00@3@@Eigen@@@23@$00$01@internal@Eigen@@SANAEBV?$redux_evaluator@V?$CwiseBinaryOp@U?$scalar_product_op@NN@internal@Eigen@@$$CBV?$Transpose@$$CBV?$Block@$$CBV?$Matrix@N$02$03$0A@$02$03@Eigen@@$00$03$0A@@Eigen@@@3@$$CBV?$Block@$$CBV?$Matrix@N$03$03$0A@$03$03@Eigen@@$03$00$00@3@@Eigen@@@12@AEBU?$scalar_sum_op@NN@12@AEBV?$CwiseBinaryOp@U?$scalar_product_op@NN@internal@Eigen@@$$CBV?$Transpose@$$CBV?$Block@$$CBV?$Matrix@N$02$03$0A@$02$03@Eigen@@$00$03$0A@@Eigen@@@3@$$CBV?$Block@$$CBV?$Matrix@N$03$03$0A@$03$03@Eigen@@$03$00$00@3@@2@@Z
	??$run@V?$CwiseBinaryOp@U?$scalar_product_op@NN@internal@Eigen@@$$CBV?$Transpose@$$CBV?$Block@$$CBV?$Transpose@$$CBV?$Block@$$CBV?$Matrix@N$02$02$0A@$02$02@Eigen@@$02$0?0$00@Eigen@@@Eigen@@$00$02$00@Eigen@@@3@$$CBV?$Block@$$CBV?$Matrix@N$02$00$0A@$02$00@Eigen@@$02$00$00@3@@Eigen@@@?$redux_impl@U?$scalar_sum_op@NN@internal@Eigen@@V?$redux_evaluator@V?$CwiseBinaryOp@U?$scalar_product_op@NN@internal@Eigen@@$$CBV?$Transpose@$$CBV?$Block@$$CBV?$Transpose@$$CBV?$Block@$$CBV?$Matrix@N$02$02$0A@$02$02@Eigen@@$02$0?0$00@Eigen@@@Eigen@@$00$02$00@Eigen@@@3@$$CBV?$Block@$$CBV?$Matrix@N$02$00$0A@$02$00@Eigen@@$02$00$00@3@@Eigen@@@23@$02$01@internal@Eigen@@SANAEBV?$redux_evaluator@V?$CwiseBinaryOp@U?$scalar_product_op@NN@internal@Eigen@@$$CBV?$Transpose@$$CBV?$Block@$$CBV?$Transpose@$$CBV?$Block@$$CBV?$Matrix@N$02$02$0A@$02$02@Eigen@@$02$0?0$00@Eigen@@@Eigen@@$00$02$00@Eigen@@@3@$$CBV?$Block@$$CBV?$Matrix@N$02$00$0A@$02$00@Eigen@@$02$00$00@3@@Eigen@@@12@AEBU?$scalar_sum_op@NN@12@AEBV?$CwiseBinaryOp@U?$scalar_product_op@NN@internal@Eigen@@$$CBV?$Transpose@$$CBV?$Block@$$CBV?$Transpose@$$CBV?$Block@$$CBV?$Matrix@N$02$02$0A@$02$02@Eigen@@$02$0?0$00@Eigen@@@Eigen@@$00$02$00@Eigen@@@3@$$CBV?$Block@$$CBV?$Matrix@N$02$00$0A@$02$00@Eigen@@$02$00$00@3@@2@@Z
	??$run@V?$CwiseBinaryOp@U?$scalar_product_op@NN@internal@Eigen@@$$CBV?$Transpose@$$CBV?$Block@$$CBV?$Transpose@$$CBV?$Matrix@N$02$03$0A@$02$03@Eigen@@@Eigen@@$00$02$00@Eigen@@@3@$$CBV?$Block@$$CBV?$Matrix@N$02$00$0A@$02$00@Eigen@@$02$00$00@3@@Eigen@@@?$redux_impl@U?$scalar_sum_op@NN@internal@Eigen@@V?$redux_evaluator@V?$CwiseBinaryOp@U?$scalar_product_op@NN@internal@Eigen@@$$CBV?$Transpose@$$CBV?$Block@$$CBV?$Transpose@$$CBV?$Matrix@N$02$03$0A@$02$03@Eigen@@@Eigen@@$00$02$00@Eigen@@@3@$$CBV?$Block@$$CBV?$Matrix@N$02$00$0A@$02$00@Eigen@@$02$00$00@3@@Eigen@@@23@$02$01@internal@Eigen@@SANAEBV?$redux_evaluator@V?$CwiseBinaryOp@U?$scalar_product_op@NN@internal@Eigen@@$$CBV?$Transpose@$$CBV?$Block@$$CBV?$Transpose@$$CBV?$Matrix@N$02$03$0A@$02$03@Eigen@@@Eigen@@$00$02$00@Eigen@@@3@$$CBV?$Block@$$CBV?$Matrix@N$02$00$0A@$02$00@Eigen@@$02$00$00@3@@Eigen@@@12@AEBU?$scalar_sum_op@NN@12@AEBV?$CwiseBinaryOp@U?$scalar_product_op@NN@internal@Eigen@@$$CBV?$Transpose@$$CBV?$Block@$$CBV?$Transpose@$$CBV?$Matrix@N$02$03$0A@$02$03@Eigen@@@Eigen@@$00$02$00@Eigen@@@3@$$CBV?$Block@$$CBV?$Matrix@N$02$00$0A@$02$00@Eigen@@$02$00$00@3@@2@@Z
	??$run@V?$CwiseBinaryOp@U?$scalar_quotient_op@NN@internal@Eigen@@$$CBV?$Matrix@N$02$02$0A@$02$02@3@$$CBV?$CwiseNullaryOp@U?$scalar_constant_op@N@internal@Eigen@@$$CBV?$Matrix@N$02$02$0A@$02$02@3@@3@@Eigen@@@?$qr_preconditioner_impl@V?$Matrix@N$02$02$0A@$02$02@Eigen@@$0A@$0A@$00$0A@@internal@Eigen@@QEAA_NAEAV?$JacobiSVD@V?$Matrix@N$02$02$0A@$02$02@Eigen@@$0A@@2@AEBV?$CwiseBinaryOp@U?$scalar_quotient_op@NN@internal@Eigen@@$$CBV?$Matrix@N$02$02$0A@$02$02@3@$$CBV?$CwiseNullaryOp@U?$scalar_constant_op@N@internal@Eigen@@$$CBV?$Matrix@N$02$02$0A@$02$02@3@@3@@2@@Z
	??$run@V?$CwiseBinaryOp@U?$scalar_quotient_op@NN@internal@Eigen@@$$CBV?$Matrix@N$02$02$0A@$02$02@3@$$CBV?$CwiseNullaryOp@U?$scalar_constant_op@N@internal@Eigen@@$$CBV?$Matrix@N$02$02$0A@$02$02@3@@3@@Eigen@@@?$qr_preconditioner_impl@V?$Matrix@N$02$02$0A@$02$02@Eigen@@$0A@$0A@$0A@$0A@@internal@Eigen@@QEAA_NAEAV?$JacobiSVD@V?$Matrix@N$02$02$0A@$02$02@Eigen@@$0A@@2@AEBV?$CwiseBinaryOp@U?$scalar_quotient_op@NN@internal@Eigen@@$$CBV?$Matrix@N$02$02$0A@$02$02@3@$$CBV?$CwiseNullaryOp@U?$scalar_constant_op@N@internal@Eigen@@$$CBV?$Matrix@N$02$02$0A@$02$02@3@@3@@2@@Z
	??$run@V?$CwiseNullaryOp@U?$scalar_zero_op@N@internal@Eigen@@V?$Matrix@N$02$03$0A@$02$03@3@@Eigen@@@?$eigen_zero_impl@V?$Matrix@N$02$03$0A@$02$03@Eigen@@$00@internal@Eigen@@SAXAEAV?$Matrix@N$02$03$0A@$02$03@2@AEBV?$CwiseNullaryOp@U?$scalar_zero_op@N@internal@Eigen@@V?$Matrix@N$02$03$0A@$02$03@3@@2@@Z
	??$run@V?$CwiseUnaryOp@U?$scalar_abs_op@N@internal@Eigen@@$$CBV?$Matrix@N$02$02$0A@$02$02@3@@Eigen@@@?$redux_impl@U?$scalar_max_op@NN$00@internal@Eigen@@V?$redux_evaluator@V?$CwiseUnaryOp@U?$scalar_abs_op@N@internal@Eigen@@$$CBV?$Matrix@N$02$02$0A@$02$02@3@@Eigen@@@23@$02$01@internal@Eigen@@SANAEBV?$redux_evaluator@V?$CwiseUnaryOp@U?$scalar_abs_op@N@internal@Eigen@@$$CBV?$Matrix@N$02$02$0A@$02$02@3@@Eigen@@@12@AEBU?$scalar_max_op@NN$00@12@AEBV?$CwiseUnaryOp@U?$scalar_abs_op@N@internal@Eigen@@$$CBV?$Matrix@N$02$02$0A@$02$02@3@@2@@Z
	??$run@V?$CwiseUnaryOp@U?$squared_norm_functor@N$0A@@internal@Eigen@@$$CBV?$Block@$$CBV?$Matrix@N$02$03$0A@$02$03@Eigen@@$00$02$0A@@3@@Eigen@@@?$redux_impl@U?$scalar_sum_op@NN@internal@Eigen@@V?$redux_evaluator@V?$CwiseUnaryOp@U?$squared_norm_functor@N$0A@@internal@Eigen@@$$CBV?$Block@$$CBV?$Matrix@N$02$03$0A@$02$03@Eigen@@$00$02$0A@@3@@Eigen@@@23@$00$01@internal@Eigen@@SANAEBV?$redux_evaluator@V?$CwiseUnaryOp@U?$squared_norm_functor@N$0A@@internal@Eigen@@$$CBV?$Block@$$CBV?$Matrix@N$02$03$0A@$02$03@Eigen@@$00$02$0A@@3@@Eigen@@@12@AEBU?$scalar_sum_op@NN@12@AEBV?$CwiseUnaryOp@U?$squared_norm_functor@N$0A@@internal@Eigen@@$$CBV?$Block@$$CBV?$Matrix@N$02$03$0A@$02$03@Eigen@@$00$02$0A@@3@@2@@Z
	??$run@V?$CwiseUnaryOp@U?$squared_norm_functor@N$0A@@internal@Eigen@@$$CBV?$Block@V?$Matrix@N$02$00$0A@$02$00@Eigen@@$0?0$00$0A@@3@@Eigen@@@?$redux_impl@U?$scalar_sum_op@NN@internal@Eigen@@V?$redux_evaluator@V?$CwiseUnaryOp@U?$squared_norm_functor@N$0A@@internal@Eigen@@$$CBV?$Block@V?$Matrix@N$02$00$0A@$02$00@Eigen@@$0?0$00$0A@@3@@Eigen@@@23@$02$0A@@internal@Eigen@@SANAEBV?$redux_evaluator@V?$CwiseUnaryOp@U?$squared_norm_functor@N$0A@@internal@Eigen@@$$CBV?$Block@V?$Matrix@N$02$00$0A@$02$00@Eigen@@$0?0$00$0A@@3@@Eigen@@@12@AEBU?$scalar_sum_op@NN@12@AEBV?$CwiseUnaryOp@U?$squared_norm_functor@N$0A@@internal@Eigen@@$$CBV?$Block@V?$Matrix@N$02$00$0A@$02$00@Eigen@@$0?0$00$0A@@3@@2@@Z
	??$run@V?$CwiseUnaryOp@U?$squared_norm_functor@N$0A@@internal@Eigen@@$$CBV?$Block@V?$Matrix@N$03$00$0A@$03$00@Eigen@@$0?0$00$0A@@3@@Eigen@@@?$redux_impl@U?$scalar_sum_op@NN@internal@Eigen@@V?$redux_evaluator@V?$CwiseUnaryOp@U?$squared_norm_functor@N$0A@@internal@Eigen@@$$CBV?$Block@V?$Matrix@N$03$00$0A@$03$00@Eigen@@$0?0$00$0A@@3@@Eigen@@@23@$02$0A@@internal@Eigen@@SANAEBV?$redux_evaluator@V?$CwiseUnaryOp@U?$squared_norm_functor@N$0A@@internal@Eigen@@$$CBV?$Block@V?$Matrix@N$03$00$0A@$03$00@Eigen@@$0?0$00$0A@@3@@Eigen@@@12@AEBU?$scalar_sum_op@NN@12@AEBV?$CwiseUnaryOp@U?$squared_norm_functor@N$0A@@internal@Eigen@@$$CBV?$Block@V?$Matrix@N$03$00$0A@$03$00@Eigen@@$0?0$00$0A@@3@@2@@Z
	??$run@V?$CwiseUnaryOp@U?$squared_norm_functor@N$0A@@internal@Eigen@@$$CBV?$CwiseBinaryOp@U?$scalar_difference_op@NN@internal@Eigen@@$$CBV?$Matrix@N$03$00$0A@$03$00@3@$$CBV43@@3@@Eigen@@@?$redux_impl@U?$scalar_sum_op@NN@internal@Eigen@@V?$redux_evaluator@V?$CwiseUnaryOp@U?$squared_norm_functor@N$0A@@internal@Eigen@@$$CBV?$CwiseBinaryOp@U?$scalar_difference_op@NN@internal@Eigen@@$$CBV?$Matrix@N$03$00$0A@$03$00@3@$$CBV43@@3@@Eigen@@@23@$02$01@internal@Eigen@@SANAEBV?$redux_evaluator@V?$CwiseUnaryOp@U?$squared_norm_functor@N$0A@@internal@Eigen@@$$CBV?$CwiseBinaryOp@U?$scalar_difference_op@NN@internal@Eigen@@$$CBV?$Matrix@N$03$00$0A@$03$00@3@$$CBV43@@3@@Eigen@@@12@AEBU?$scalar_sum_op@NN@12@AEBV?$CwiseUnaryOp@U?$squared_norm_functor@N$0A@@internal@Eigen@@$$CBV?$CwiseBinaryOp@U?$scalar_difference_op@NN@internal@Eigen@@$$CBV?$Matrix@N$03$00$0A@$03$00@3@$$CBV43@@3@@2@@Z
	??$run@V?$CwiseUnaryOp@U?$squared_norm_functor@N$0A@@internal@Eigen@@$$CBV?$Matrix@N$02$00$0A@$02$00@3@@Eigen@@@?$redux_impl@U?$scalar_sum_op@NN@internal@Eigen@@V?$redux_evaluator@V?$CwiseUnaryOp@U?$squared_norm_functor@N$0A@@internal@Eigen@@$$CBV?$Matrix@N$02$00$0A@$02$00@3@@Eigen@@@23@$02$01@internal@Eigen@@SANAEBV?$redux_evaluator@V?$CwiseUnaryOp@U?$squared_norm_functor@N$0A@@internal@Eigen@@$$CBV?$Matrix@N$02$00$0A@$02$00@3@@Eigen@@@12@AEBU?$scalar_sum_op@NN@12@AEBV?$CwiseUnaryOp@U?$squared_norm_functor@N$0A@@internal@Eigen@@$$CBV?$Matrix@N$02$00$0A@$02$00@3@@2@@Z
	??$run@V?$Diagonal@$$CBV?$CwiseUnaryOp@U?$scalar_abs_op@N@internal@Eigen@@$$CBV?$Matrix@N$02$02$0A@$02$02@3@@Eigen@@$0A@@Eigen@@@?$redux_impl@U?$scalar_max_op@NN$0A@@internal@Eigen@@V?$redux_evaluator@V?$Diagonal@$$CBV?$CwiseUnaryOp@U?$scalar_abs_op@N@internal@Eigen@@$$CBV?$Matrix@N$02$02$0A@$02$02@3@@Eigen@@$0A@@Eigen@@@23@$00$01@internal@Eigen@@SANAEBV?$redux_evaluator@V?$Diagonal@$$CBV?$CwiseUnaryOp@U?$scalar_abs_op@N@internal@Eigen@@$$CBV?$Matrix@N$02$02$0A@$02$02@3@@Eigen@@$0A@@Eigen@@@12@AEBU?$scalar_max_op@NN$0A@@12@AEBV?$Diagonal@$$CBV?$CwiseUnaryOp@U?$scalar_abs_op@N@internal@Eigen@@$$CBV?$Matrix@N$02$02$0A@$02$02@3@@Eigen@@$0A@@2@@Z
	??$run@V?$generic_dense_assignment_kernel@U?$evaluator@V?$Block@V?$Matrix@N$03$00$0A@$03$00@Eigen@@$02$00$0A@@Eigen@@@internal@Eigen@@U?$evaluator@V?$Product@V?$Block@$$CBV?$Matrix@N$02$02$0A@$02$02@Eigen@@$02$0?0$00@Eigen@@V?$Matrix@N$0?0$00$0A@$02$00@2@$00@Eigen@@@23@U?$assign_op@NN@23@$0A@@internal@Eigen@@@?$unaligned_dense_assignment_loop@U__m128d@@$07$0A@$0A@$0A@@internal@Eigen@@SAXAEAV?$generic_dense_assignment_kernel@U?$evaluator@V?$Block@V?$Matrix@N$03$00$0A@$03$00@Eigen@@$02$00$0A@@Eigen@@@internal@Eigen@@U?$evaluator@V?$Product@V?$Block@$$CBV?$Matrix@N$02$02$0A@$02$02@Eigen@@$02$0?0$00@Eigen@@V?$Matrix@N$0?0$00$0A@$02$00@2@$00@Eigen@@@23@U?$assign_op@NN@23@$0A@@12@_J1@Z
	??$run@V?$generic_dense_assignment_kernel@U?$evaluator@V?$Block@V?$Matrix@N$03$00$0A@$03$00@Eigen@@$02$00$0A@@Eigen@@@internal@Eigen@@U?$evaluator@V?$Product@V?$Block@$$CBV?$Matrix@N$02$02$0A@$02$02@Eigen@@$02$0?0$00@Eigen@@V?$Matrix@N$0?0$00$0A@$02$00@2@$00@Eigen@@@23@U?$assign_op@NN@23@$0A@@internal@Eigen@@@?$unaligned_dense_assignment_loop@U__m128d@@$0BA@$0A@$0A@$0A@@internal@Eigen@@SAXAEAV?$generic_dense_assignment_kernel@U?$evaluator@V?$Block@V?$Matrix@N$03$00$0A@$03$00@Eigen@@$02$00$0A@@Eigen@@@internal@Eigen@@U?$evaluator@V?$Product@V?$Block@$$CBV?$Matrix@N$02$02$0A@$02$02@Eigen@@$02$0?0$00@Eigen@@V?$Matrix@N$0?0$00$0A@$02$00@2@$00@Eigen@@@23@U?$assign_op@NN@23@$0A@@12@_J1@Z
	??$run@V?$generic_dense_assignment_kernel@U?$evaluator@V?$Matrix@N$0?0$00$0A@$02$00@Eigen@@@internal@Eigen@@U?$evaluator@V?$Product@V?$DiagonalWrapper@$$CBV?$CwiseUnaryOp@U?$scalar_inverse_op@N@internal@Eigen@@$$CBV?$Block@$$CBV?$Matrix@N$02$00$0A@$02$00@Eigen@@$0?0$00$0A@@3@@Eigen@@@Eigen@@V?$Matrix@N$0?0$00$0A@$02$00@2@$00@Eigen@@@23@U?$assign_op@NN@23@$0A@@internal@Eigen@@@?$unaligned_dense_assignment_loop@U__m128d@@$07$0A@$0A@$0A@@internal@Eigen@@SAXAEAV?$generic_dense_assignment_kernel@U?$evaluator@V?$Matrix@N$0?0$00$0A@$02$00@Eigen@@@internal@Eigen@@U?$evaluator@V?$Product@V?$DiagonalWrapper@$$CBV?$CwiseUnaryOp@U?$scalar_inverse_op@N@internal@Eigen@@$$CBV?$Block@$$CBV?$Matrix@N$02$00$0A@$02$00@Eigen@@$0?0$00$0A@@3@@Eigen@@@Eigen@@V?$Matrix@N$0?0$00$0A@$02$00@2@$00@Eigen@@@23@U?$assign_op@NN@23@$0A@@12@_J1@Z
	??$run@V?$generic_dense_assignment_kernel@U?$evaluator@V?$Matrix@N$0?0$00$0A@$02$00@Eigen@@@internal@Eigen@@U?$evaluator@V?$Product@V?$DiagonalWrapper@$$CBV?$CwiseUnaryOp@U?$scalar_inverse_op@N@internal@Eigen@@$$CBV?$Block@$$CBV?$Matrix@N$02$00$0A@$02$00@Eigen@@$0?0$00$0A@@3@@Eigen@@@Eigen@@V?$Matrix@N$0?0$00$0A@$02$00@2@$00@Eigen@@@23@U?$assign_op@NN@23@$0A@@internal@Eigen@@@?$unaligned_dense_assignment_loop@U__m128d@@$0BA@$0A@$0A@$0A@@internal@Eigen@@SAXAEAV?$generic_dense_assignment_kernel@U?$evaluator@V?$Matrix@N$0?0$00$0A@$02$00@Eigen@@@internal@Eigen@@U?$evaluator@V?$Product@V?$DiagonalWrapper@$$CBV?$CwiseUnaryOp@U?$scalar_inverse_op@N@internal@Eigen@@$$CBV?$Block@$$CBV?$Matrix@N$02$00$0A@$02$00@Eigen@@$0?0$00$0A@@3@@Eigen@@@Eigen@@V?$Matrix@N$0?0$00$0A@$02$00@2@$00@Eigen@@@23@U?$assign_op@NN@23@$0A@@12@_J1@Z
	??$sample@$$BY02M@RadonIntermediate@EpipolarConsistency@@QEAAMAEAY02M@Z
	??$select@N@numext@Eigen@@YANAEBN00@Z
	??$solve@V?$Matrix@N$02$00$0A@$02$00@Eigen@@@?$SolverBase@V?$SVDBase@V?$JacobiSVD@V?$Matrix@N$02$02$0A@$02$02@Eigen@@$0A@@Eigen@@@Eigen@@@Eigen@@QEBA?BV?$Solve@V?$SVDBase@V?$JacobiSVD@V?$Matrix@N$02$02$0A@$02$02@Eigen@@$0A@@Eigen@@@Eigen@@V?$Matrix@N$02$00$0A@$02$00@2@@1@AEBV?$MatrixBase@V?$Matrix@N$02$00$0A@$02$00@Eigen@@@1@@Z
	??$sqrt@H$0A@@@YANH@Z
	??$sqrt@N@numext@Eigen@@YANAEBN@Z
	??$srcPacket@$0BA@U__m128d@@@?$unary_evaluator@V?$CwiseUnaryOp@U?$core_cast_op@NM@internal@Eigen@@$$CBV?$Matrix@N$03$00$0A@$03$00@3@@Eigen@@UIndexBased@internal@2@M@internal@Eigen@@QEBA?AU__m128d@@_J00@Z
	??$srcPacket@$0BA@U__m128d@@@?$unary_evaluator@V?$CwiseUnaryOp@U?$core_cast_op@NM@internal@Eigen@@$$CBV?$Transpose@V?$Matrix@N$03$02$0A@$03$02@Eigen@@@3@@Eigen@@UIndexBased@internal@2@M@internal@Eigen@@QEBA?AU__m128d@@_J00@Z
	??$srcPacketSegment@$0A@T__m128@@@?$unary_evaluator@V?$CwiseUnaryOp@U?$core_cast_op@MN@internal@Eigen@@$$CBV?$Matrix@M$02$00$0A@$02$00@3@@Eigen@@UIndexBased@internal@2@N@internal@Eigen@@QEBA?AT__m128@@_J000@Z
	??$stringTo@H@@YAHAEBV?$basic_string@DU?$char_traits@D@std@@V?$allocator@D@2@@std@@@Z
	??$stringTo@N@@YANAEBV?$basic_string@DU?$char_traits@D@std@@V?$allocator@D@2@@std@@@Z
	??$stringToVector@H@@YA?AV?$vector@HV?$allocator@H@std@@@std@@AEBV?$basic_string@DU?$char_traits@D@std@@V?$allocator@D@2@@1@D_N@Z
	??$stringToVector@N@@YA?AV?$vector@NV?$allocator@N@std@@@std@@AEBV?$basic_string@DU?$char_traits@D@std@@V?$allocator@D@2@@1@D_N@Z
	??$swap@D$0A@@std@@YAXAEAD0@Z
	??$swap@F$0A@@std@@YAXAEAF0@Z
	??$swap@H$0A@@std@@YAXAEAH0@Z
	??$swap@N$0A@@std@@YAXAEAN0@Z
	??$swap@V?$Block@V?$Matrix@N$02$02$0A@$02$02@Eigen@@$02$00$00@Eigen@@@?$DenseBase@V?$Block@V?$Matrix@N$02$02$0A@$02$02@Eigen@@$02$00$00@Eigen@@@Eigen@@QEAAXAEBV01@@Z
	??$swapBytes@$00@NRRD@@YAXPEAX@Z
	??$swapBytes@$01@NRRD@@YAXPEAX@Z
	??$swapBytes@$03@NRRD@@YAXPEAX@Z
	??$swapBytes@$07@NRRD@@YAXPEAX@Z
	??$tail@_J@?$DenseBase@V?$Matrix@N$02$00$0A@$02$00@Eigen@@@Eigen@@QEAA?AV?$VectorBlock@V?$Matrix@N$02$00$0A@$02$00@Eigen@@$0?0@1@_J@Z
	??$toString@H@@YA?AV?$basic_string@DU?$char_traits@D@std@@V?$allocator@D@2@@std@@AEBH@Z
	??$toString@N@@YA?AV?$basic_string@DU?$char_traits@D@std@@V?$allocator@D@2@@std@@AEBN@Z
	??$topLeftCorner@$02$02@?$DenseBase@V?$Matrix@N$02$02$0A@$02$02@Eigen@@@Eigen@@QEBA?BV?$Block@$$CBV?$Matrix@N$02$02$0A@$02$02@Eigen@@$02$02$0A@@1@_J0@Z
	??$typeName@D@@YA?AV?$basic_string@DU?$char_traits@D@std@@V?$allocator@D@2@@std@@XZ
	??$typeName@E@@YA?AV?$basic_string@DU?$char_traits@D@std@@V?$allocator@D@2@@std@@XZ
	??$typeName@F@@YA?AV?$basic_string@DU?$char_traits@D@std@@V?$allocator@D@2@@std@@XZ
	??$typeName@G@@YA?AV?$basic_string@DU?$char_traits@D@std@@V?$allocator@D@2@@std@@XZ
	??$typeName@H@@YA?AV?$basic_string@DU?$char_traits@D@std@@V?$allocator@D@2@@std@@XZ
	??$typeName@I@@YA?AV?$basic_string@DU?$char_traits@D@std@@V?$allocator@D@2@@std@@XZ
	??$typeName@J@@YA?AV?$basic_string@DU?$char_traits@D@std@@V?$allocator@D@2@@std@@XZ
	??$typeName@K@@YA?AV?$basic_string@DU?$char_traits@D@std@@V?$allocator@D@2@@std@@XZ
	??$typeName@M@@YA?AV?$basic_string@DU?$char_traits@D@std@@V?$allocator@D@2@@std@@XZ
	??$typeName@N@@YA?AV?$basic_string@DU?$char_traits@D@std@@V?$allocator@D@2@@std@@XZ
	??$unaryExpr@U?$squared_norm_functor@N$0A@@internal@Eigen@@@?$DenseBase@V?$Block@$$CBV?$Matrix@N$02$03$0A@$02$03@Eigen@@$00$02$0A@@Eigen@@@Eigen@@QEBA?BV?$CwiseUnaryOp@U?$squared_norm_functor@N$0A@@internal@Eigen@@$$CBV?$Block@$$CBV?$Matrix@N$02$03$0A@$02$03@Eigen@@$00$02$0A@@3@@1@AEBU?$squared_norm_functor@N$0A@@internal@1@@Z
	??$unaryExpr@U?$squared_norm_functor@N$0A@@internal@Eigen@@@?$DenseBase@V?$Block@V?$Matrix@N$02$00$0A@$02$00@Eigen@@$0?0$00$0A@@Eigen@@@Eigen@@QEBA?BV?$CwiseUnaryOp@U?$squared_norm_functor@N$0A@@internal@Eigen@@$$CBV?$Block@V?$Matrix@N$02$00$0A@$02$00@Eigen@@$0?0$00$0A@@3@@1@AEBU?$squared_norm_functor@N$0A@@internal@1@@Z
	??$unaryExpr@U?$squared_norm_functor@N$0A@@internal@Eigen@@@?$DenseBase@V?$Block@V?$Matrix@N$03$00$0A@$03$00@Eigen@@$0?0$00$0A@@Eigen@@@Eigen@@QEBA?BV?$CwiseUnaryOp@U?$squared_norm_functor@N$0A@@internal@Eigen@@$$CBV?$Block@V?$Matrix@N$03$00$0A@$03$00@Eigen@@$0?0$00$0A@@3@@1@AEBU?$squared_norm_functor@N$0A@@internal@1@@Z
	??$unaryExpr@U?$squared_norm_functor@N$0A@@internal@Eigen@@@?$DenseBase@V?$CwiseBinaryOp@U?$scalar_difference_op@NN@internal@Eigen@@$$CBV?$Matrix@N$03$00$0A@$03$00@3@$$CBV43@@Eigen@@@Eigen@@QEBA?BV?$CwiseUnaryOp@U?$squared_norm_functor@N$0A@@internal@Eigen@@$$CBV?$CwiseBinaryOp@U?$scalar_difference_op@NN@internal@Eigen@@$$CBV?$Matrix@N$03$00$0A@$03$00@3@$$CBV43@@3@@1@AEBU?$squared_norm_functor@N$0A@@internal@1@@Z
	??$unaryExpr@U?$squared_norm_functor@N$0A@@internal@Eigen@@@?$DenseBase@V?$Matrix@N$02$00$0A@$02$00@Eigen@@@Eigen@@QEBA?BV?$CwiseUnaryOp@U?$squared_norm_functor@N$0A@@internal@Eigen@@$$CBV?$Matrix@N$02$00$0A@$02$00@3@@1@AEBU?$squared_norm_functor@N$0A@@internal@1@@Z
	??$use_facet@V?$codecvt@DDU_Mbstatet@@@std@@@std@@YAAEBV?$codecvt@DDU_Mbstatet@@@0@AEBVlocale@0@@Z
	??$vectorToString@N@@YA?AV?$basic_string@DU?$char_traits@D@std@@V?$allocator@D@2@@std@@AEBV?$vector@NV?$allocator@N@std@@@1@AEBV01@@Z
	??$writePacket@$0A@U__m128d@@@?$mapbase_evaluator@V?$Block@V?$Matrix@N$02$02$0A@$02$02@Eigen@@$02$00$00@Eigen@@V?$Matrix@N$02$00$0A@$02$00@2@@internal@Eigen@@QEAAX_JAEBU__m128d@@@Z
	??$xgeinv@N$02@culaut@@YAXPEAN0@Z
	??$xgemm@M$02$03$01@@YAXPEBM0PEAM@Z
	??$xsqqr@N$02@culaut@@YAXPEAN0@Z
	??$xsqqr@N$03@culaut@@YAXPEAN0@Z
	??$xsqqrsolve@N$02@culaut@@YAXPEBN0QEBNQEAN@Z
	??$xutsolve@N$02@culaut@@YAXPEBNQEBNQEAN@Z
	??0?$Block@$$CBV?$Block@$$CBV?$Matrix@N$02$02$0A@$02$02@Eigen@@$02$0?0$00@Eigen@@$00$0?0$0A@@Eigen@@QEAA@AEBV?$Block@$$CBV?$Matrix@N$02$02$0A@$02$02@Eigen@@$02$0?0$00@1@_J@Z
	??0?$Block@$$CBV?$Matrix@N$02$00$0A@$02$00@Eigen@@$00$00$0A@@Eigen@@QEAA@AEBV?$Matrix@N$02$00$0A@$02$00@1@_J@Z
	??0?$Block@$$CBV?$Matrix@N$02$00$0A@$02$00@Eigen@@$02$00$00@Eigen@@QEAA@AEBV?$Matrix@N$02$00$0A@$02$00@1@_J@Z
	??0?$Block@$$CBV?$Matrix@N$02$00$0A@$02$00@Eigen@@$0?0$00$0A@@Eigen@@QEAA@AEBV?$Matrix@N$02$00$0A@$02$00@1@_J111@Z
	??0?$Block@$$CBV?$Matrix@N$02$02$0A@$02$02@Eigen@@$02$02$0A@@Eigen@@QEAA@AEBV?$Matrix@N$02$02$0A@$02$02@1@_J111@Z
	??0?$Block@$$CBV?$Matrix@N$02$02$0A@$02$02@Eigen@@$02$0?0$00@Eigen@@QEAA@AEBV?$Matrix@N$02$02$0A@$02$02@1@_J111@Z
	??0?$Block@$$CBV?$Matrix@N$02$03$00$02$03@Eigen@@$00$03$00@Eigen@@QEAA@AEBV?$Matrix@N$02$03$00$02$03@1@_J@Z
	??0?$Block@$$CBV?$Matrix@N$02$03$0A@$02$03@Eigen@@$00$02$0A@@Eigen@@QEAA@AEBV?$Matrix@N$02$03$0A@$02$03@1@_J1@Z
	??0?$Block@$$CBV?$Matrix@N$02$03$0A@$02$03@Eigen@@$00$03$0A@@Eigen@@QEAA@AEBV?$Matrix@N$02$03$0A@$02$03@1@_J@Z
	??0?$Block@$$CBV?$Matrix@N$03$00$0A@$03$00@Eigen@@$03$00$00@Eigen@@QEAA@AEBV?$Matrix@N$03$00$0A@$03$00@1@_J@Z
	??0?$Block@$$CBV?$Matrix@N$03$02$0A@$03$02@Eigen@@$03$00$00@Eigen@@QEAA@AEBV?$Matrix@N$03$02$0A@$03$02@1@_J@Z
	??0?$Block@$$CBV?$Matrix@N$03$03$0A@$03$03@Eigen@@$03$00$00@Eigen@@QEAA@AEBV?$Matrix@N$03$03$0A@$03$03@1@_J@Z
	??0?$Block@$$CBV?$Matrix@N$0?0$00$0A@$02$00@Eigen@@$0?0$00$00@Eigen@@QEAA@AEBV?$Matrix@N$0?0$00$0A@$02$00@1@_J@Z
	??0?$Block@$$CBV?$Transpose@$$CBV?$Block@$$CBV?$Matrix@N$02$02$0A@$02$02@Eigen@@$02$0?0$00@Eigen@@@Eigen@@$00$02$00@Eigen@@QEAA@AEBV?$Transpose@$$CBV?$Block@$$CBV?$Matrix@N$02$02$0A@$02$02@Eigen@@$02$0?0$00@Eigen@@@1@_J@Z
	??0?$Block@$$CBV?$Transpose@$$CBV?$Matrix@N$02$03$0A@$02$03@Eigen@@@Eigen@@$00$02$00@Eigen@@QEAA@AEBV?$Transpose@$$CBV?$Matrix@N$02$03$0A@$02$03@Eigen@@@1@_J@Z
	??0?$Block@$$CBV?$Transpose@V?$Matrix@N$02$00$0A@$02$00@Eigen@@@Eigen@@$00$00$0A@@Eigen@@QEAA@AEBV?$Transpose@V?$Matrix@N$02$00$0A@$02$00@Eigen@@@1@_J@Z
	??0?$Block@V?$Matrix@N$01$01$0A@$01$01@Eigen@@$00$01$0A@@Eigen@@QEAA@AEAV?$Matrix@N$01$01$0A@$01$01@1@_J@Z
	??0?$Block@V?$Matrix@N$02$00$0A@$02$00@Eigen@@$0?0$00$0A@@Eigen@@QEAA@AEAV?$Matrix@N$02$00$0A@$02$00@1@_J111@Z
	??0?$Block@V?$Matrix@N$02$02$0A@$02$02@Eigen@@$00$02$0A@@Eigen@@QEAA@AEAV?$Matrix@N$02$02$0A@$02$02@1@_J@Z
	??0?$Block@V?$Matrix@N$02$02$0A@$02$02@Eigen@@$02$00$00@Eigen@@QEAA@AEAV?$Matrix@N$02$02$0A@$02$02@1@_J@Z
	??0?$Block@V?$Matrix@N$02$03$0A@$02$03@Eigen@@$00$02$0A@@Eigen@@QEAA@AEAV?$Matrix@N$02$03$0A@$02$03@1@_J1@Z
	??0?$Block@V?$Matrix@N$03$00$0A@$03$00@Eigen@@$02$00$0A@@Eigen@@QEAA@AEAV?$Matrix@N$03$00$0A@$03$00@1@_J1@Z
	??0?$Block@V?$Matrix@N$03$00$0A@$03$00@Eigen@@$0?0$00$0A@@Eigen@@QEAA@AEAV?$Matrix@N$03$00$0A@$03$00@1@_J111@Z
	??0?$BlockImpl@$$CBV?$Block@$$CBV?$Matrix@N$02$02$0A@$02$02@Eigen@@$02$0?0$00@Eigen@@$00$0?0$0A@UDense@2@@Eigen@@QEAA@AEBV?$Block@$$CBV?$Matrix@N$02$02$0A@$02$02@Eigen@@$02$0?0$00@1@_J@Z
	??0?$BlockImpl@$$CBV?$Matrix@N$02$00$0A@$02$00@Eigen@@$00$00$0A@UDense@2@@Eigen@@QEAA@AEBV?$Matrix@N$02$00$0A@$02$00@1@_J@Z
	??0?$BlockImpl@$$CBV?$Matrix@N$02$00$0A@$02$00@Eigen@@$02$00$00UDense@2@@Eigen@@QEAA@AEBV?$Matrix@N$02$00$0A@$02$00@1@_J@Z
	??0?$BlockImpl@$$CBV?$Matrix@N$02$00$0A@$02$00@Eigen@@$0?0$00$0A@UDense@2@@Eigen@@QEAA@AEBV?$Matrix@N$02$00$0A@$02$00@1@_J111@Z
	??0?$BlockImpl@$$CBV?$Matrix@N$02$02$0A@$02$02@Eigen@@$02$02$0A@UDense@2@@Eigen@@QEAA@AEBV?$Matrix@N$02$02$0A@$02$02@1@_J111@Z
	??0?$BlockImpl@$$CBV?$Matrix@N$02$02$0A@$02$02@Eigen@@$02$0?0$00UDense@2@@Eigen@@QEAA@AEBV?$Matrix@N$02$02$0A@$02$02@1@_J111@Z
	??0?$BlockImpl@$$CBV?$Matrix@N$02$03$00$02$03@Eigen@@$00$03$00UDense@2@@Eigen@@QEAA@AEBV?$Matrix@N$02$03$00$02$03@1@_J@Z
	??0?$BlockImpl@$$CBV?$Matrix@N$02$03$0A@$02$03@Eigen@@$00$02$0A@UDense@2@@Eigen@@QEAA@AEBV?$Matrix@N$02$03$0A@$02$03@1@_J1@Z
	??0?$BlockImpl@$$CBV?$Matrix@N$02$03$0A@$02$03@Eigen@@$00$03$0A@UDense@2@@Eigen@@QEAA@AEBV?$Matrix@N$02$03$0A@$02$03@1@_J@Z
	??0?$BlockImpl@$$CBV?$Matrix@N$03$00$0A@$03$00@Eigen@@$03$00$00UDense@2@@Eigen@@QEAA@AEBV?$Matrix@N$03$00$0A@$03$00@1@_J@Z
	??0?$BlockImpl@$$CBV?$Matrix@N$03$02$0A@$03$02@Eigen@@$03$00$00UDense@2@@Eigen@@QEAA@AEBV?$Matrix@N$03$02$0A@$03$02@1@_J@Z
	??0?$BlockImpl@$$CBV?$Matrix@N$03$03$0A@$03$03@Eigen@@$03$00$00UDense@2@@Eigen@@QEAA@AEBV?$Matrix@N$03$03$0A@$03$03@1@_J@Z
	??0?$BlockImpl@$$CBV?$Matrix@N$0?0$00$0A@$02$00@Eigen@@$0?0$00$00UDense@2@@Eigen@@QEAA@AEBV?$Matrix@N$0?0$00$0A@$02$00@1@_J@Z
	??0?$BlockImpl@$$CBV?$Transpose@$$CBV?$Block@$$CBV?$Matrix@N$02$02$0A@$02$02@Eigen@@$02$0?0$00@Eigen@@@Eigen@@$00$02$00UDense@2@@Eigen@@QEAA@AEBV?$Transpose@$$CBV?$Block@$$CBV?$Matrix@N$02$02$0A@$02$02@Eigen@@$02$0?0$00@Eigen@@@1@_J@Z
	??0?$BlockImpl@$$CBV?$Transpose@$$CBV?$Matrix@N$02$03$0A@$02$03@Eigen@@@Eigen@@$00$02$00UDense@2@@Eigen@@QEAA@AEBV?$Transpose@$$CBV?$Matrix@N$02$03$0A@$02$03@Eigen@@@1@_J@Z
	??0?$BlockImpl@$$CBV?$Transpose@V?$Matrix@N$02$00$0A@$02$00@Eigen@@@Eigen@@$00$00$0A@UDense@2@@Eigen@@QEAA@AEBV?$Transpose@V?$Matrix@N$02$00$0A@$02$00@Eigen@@@1@_J@Z
	??0?$BlockImpl@V?$Matrix@N$01$01$0A@$01$01@Eigen@@$00$01$0A@UDense@2@@Eigen@@QEAA@AEAV?$Matrix@N$01$01$0A@$01$01@1@_J@Z
	??0?$BlockImpl@V?$Matrix@N$02$00$0A@$02$00@Eigen@@$0?0$00$0A@UDense@2@@Eigen@@QEAA@AEAV?$Matrix@N$02$00$0A@$02$00@1@_J111@Z
	??0?$BlockImpl@V?$Matrix@N$02$02$0A@$02$02@Eigen@@$00$02$0A@UDense@2@@Eigen@@QEAA@AEAV?$Matrix@N$02$02$0A@$02$02@1@_J@Z
	??0?$BlockImpl@V?$Matrix@N$02$02$0A@$02$02@Eigen@@$02$00$00UDense@2@@Eigen@@QEAA@AEAV?$Matrix@N$02$02$0A@$02$02@1@_J@Z
	??0?$BlockImpl@V?$Matrix@N$02$03$0A@$02$03@Eigen@@$00$02$0A@UDense@2@@Eigen@@QEAA@AEAV?$Matrix@N$02$03$0A@$02$03@1@_J1@Z
	??0?$BlockImpl@V?$Matrix@N$03$00$0A@$03$00@Eigen@@$02$00$0A@UDense@2@@Eigen@@QEAA@AEAV?$Matrix@N$03$00$0A@$03$00@1@_J1@Z
	??0?$BlockImpl@V?$Matrix@N$03$00$0A@$03$00@Eigen@@$0?0$00$0A@UDense@2@@Eigen@@QEAA@AEAV?$Matrix@N$03$00$0A@$03$00@1@_J111@Z
	??0?$BlockImpl_dense@$$CBV?$Block@$$CBV?$Matrix@N$02$02$0A@$02$02@Eigen@@$02$0?0$00@Eigen@@$00$0?0$0A@$00@internal@Eigen@@QEAA@AEBV?$Block@$$CBV?$Matrix@N$02$02$0A@$02$02@Eigen@@$02$0?0$00@2@_J@Z
	??0?$BlockImpl_dense@$$CBV?$Matrix@N$02$00$0A@$02$00@Eigen@@$00$00$0A@$00@internal@Eigen@@QEAA@AEBV?$Matrix@N$02$00$0A@$02$00@2@_J@Z
	??0?$BlockImpl_dense@$$CBV?$Matrix@N$02$00$0A@$02$00@Eigen@@$02$00$00$00@internal@Eigen@@QEAA@AEBV?$Matrix@N$02$00$0A@$02$00@2@_J@Z
	??0?$BlockImpl_dense@$$CBV?$Matrix@N$02$00$0A@$02$00@Eigen@@$0?0$00$0A@$00@internal@Eigen@@QEAA@AEBV?$Matrix@N$02$00$0A@$02$00@2@_J111@Z
	??0?$BlockImpl_dense@$$CBV?$Matrix@N$02$02$0A@$02$02@Eigen@@$02$02$0A@$00@internal@Eigen@@QEAA@AEBV?$Matrix@N$02$02$0A@$02$02@2@_J111@Z
	??0?$BlockImpl_dense@$$CBV?$Matrix@N$02$02$0A@$02$02@Eigen@@$02$0?0$00$00@internal@Eigen@@QEAA@AEBV?$Matrix@N$02$02$0A@$02$02@2@_J111@Z
	??0?$BlockImpl_dense@$$CBV?$Matrix@N$02$03$00$02$03@Eigen@@$00$03$00$00@internal@Eigen@@QEAA@AEBV?$Matrix@N$02$03$00$02$03@2@_J@Z
	??0?$BlockImpl_dense@$$CBV?$Matrix@N$02$03$0A@$02$03@Eigen@@$00$02$0A@$00@internal@Eigen@@QEAA@AEBV?$Matrix@N$02$03$0A@$02$03@2@_J1@Z
	??0?$BlockImpl_dense@$$CBV?$Matrix@N$02$03$0A@$02$03@Eigen@@$00$03$0A@$00@internal@Eigen@@QEAA@AEBV?$Matrix@N$02$03$0A@$02$03@2@_J@Z
	??0?$BlockImpl_dense@$$CBV?$Matrix@N$03$00$0A@$03$00@Eigen@@$03$00$00$00@internal@Eigen@@QEAA@AEBV?$Matrix@N$03$00$0A@$03$00@2@_J@Z
	??0?$BlockImpl_dense@$$CBV?$Matrix@N$03$02$0A@$03$02@Eigen@@$03$00$00$00@internal@Eigen@@QEAA@AEBV?$Matrix@N$03$02$0A@$03$02@2@_J@Z
	??0?$BlockImpl_dense@$$CBV?$Matrix@N$03$03$0A@$03$03@Eigen@@$03$00$00$00@internal@Eigen@@QEAA@AEBV?$Matrix@N$03$03$0A@$03$03@2@_J@Z
	??0?$BlockImpl_dense@$$CBV?$Matrix@N$0?0$00$0A@$02$00@Eigen@@$0?0$00$00$00@internal@Eigen@@QEAA@AEBV?$Matrix@N$0?0$00$0A@$02$00@2@_J@Z
	??0?$BlockImpl_dense@$$CBV?$Transpose@$$CBV?$Block@$$CBV?$Matrix@N$02$02$0A@$02$02@Eigen@@$02$0?0$00@Eigen@@@Eigen@@$00$02$00$00@internal@Eigen@@QEAA@AEBV?$Transpose@$$CBV?$Block@$$CBV?$Matrix@N$02$02$0A@$02$02@Eigen@@$02$0?0$00@Eigen@@@2@_J@Z
	??0?$BlockImpl_dense@$$CBV?$Transpose@$$CBV?$Matrix@N$02$03$0A@$02$03@Eigen@@@Eigen@@$00$02$00$00@internal@Eigen@@QEAA@AEBV?$Transpose@$$CBV?$Matrix@N$02$03$0A@$02$03@Eigen@@@2@_J@Z
	??0?$BlockImpl_dense@$$CBV?$Transpose@V?$Matrix@N$02$00$0A@$02$00@Eigen@@@Eigen@@$00$00$0A@$00@internal@Eigen@@QEAA@AEBV?$Transpose@V?$Matrix@N$02$00$0A@$02$00@Eigen@@@2@_J@Z
	??0?$BlockImpl_dense@V?$Matrix@N$01$01$0A@$01$01@Eigen@@$00$01$0A@$00@internal@Eigen@@QEAA@AEAV?$Matrix@N$01$01$0A@$01$01@2@_J@Z
	??0?$BlockImpl_dense@V?$Matrix@N$02$00$0A@$02$00@Eigen@@$0?0$00$0A@$00@internal@Eigen@@QEAA@AEAV?$Matrix@N$02$00$0A@$02$00@2@_J111@Z
	??0?$BlockImpl_dense@V?$Matrix@N$02$02$0A@$02$02@Eigen@@$00$02$0A@$00@internal@Eigen@@QEAA@AEAV?$Matrix@N$02$02$0A@$02$02@2@_J@Z
	??0?$BlockImpl_dense@V?$Matrix@N$02$02$0A@$02$02@Eigen@@$02$00$00$00@internal@Eigen@@QEAA@AEAV?$Matrix@N$02$02$0A@$02$02@2@_J@Z
	??0?$BlockImpl_dense@V?$Matrix@N$02$03$0A@$02$03@Eigen@@$00$02$0A@$00@internal@Eigen@@QEAA@AEAV?$Matrix@N$02$03$0A@$02$03@2@_J1@Z
	??0?$BlockImpl_dense@V?$Matrix@N$03$00$0A@$03$00@Eigen@@$02$00$0A@$00@internal@Eigen@@QEAA@AEAV?$Matrix@N$03$00$0A@$03$00@2@_J1@Z
	??0?$BlockImpl_dense@V?$Matrix@N$03$00$0A@$03$00@Eigen@@$0?0$00$0A@$00@internal@Eigen@@QEAA@AEAV?$Matrix@N$03$00$0A@$03$00@2@_J111@Z
	??0?$CommaInitializer@V?$Matrix@N$01$01$0A@$01$01@Eigen@@@Eigen@@QEAA@AEAV?$Matrix@N$01$01$0A@$01$01@1@AEBN@Z
	??0?$CommaInitializer@V?$Matrix@N$03$03$0A@$03$03@Eigen@@@Eigen@@QEAA@AEAV?$Matrix@N$03$03$0A@$03$03@1@AEBN@Z
	??0?$CommaInitializer@V?$Matrix@N$05$00$0A@$05$00@Eigen@@@Eigen@@QEAA@AEAV?$Matrix@N$05$00$0A@$05$00@1@AEBN@Z
	??0?$CwiseBinaryOp@U?$scalar_difference_op@NN@internal@Eigen@@$$CBV?$Matrix@N$02$00$0A@$02$00@3@$$CBV?$CwiseBinaryOp@U?$scalar_product_op@NN@internal@Eigen@@$$CBV?$Matrix@N$02$00$0A@$02$00@3@$$CBV?$CwiseNullaryOp@U?$scalar_constant_op@N@internal@Eigen@@$$CBV?$Matrix@N$02$00$0A@$02$00@3@@3@@3@@Eigen@@QEAA@AEBV?$Matrix@N$02$00$0A@$02$00@1@AEBV?$CwiseBinaryOp@U?$scalar_product_op@NN@internal@Eigen@@$$CBV?$Matrix@N$02$00$0A@$02$00@3@$$CBV?$CwiseNullaryOp@U?$scalar_constant_op@N@internal@Eigen@@$$CBV?$Matrix@N$02$00$0A@$02$00@3@@3@@1@AEBU?$scalar_difference_op@NN@internal@1@@Z
	??0?$CwiseBinaryOp@U?$scalar_difference_op@NN@internal@Eigen@@$$CBV?$Matrix@N$03$00$0A@$03$00@3@$$CBV43@@Eigen@@QEAA@AEBV?$Matrix@N$03$00$0A@$03$00@1@0AEBU?$scalar_difference_op@NN@internal@1@@Z
	??0?$CwiseBinaryOp@U?$scalar_product_op@NN@internal@Eigen@@$$CBV?$CwiseNullaryOp@U?$scalar_constant_op@N@internal@Eigen@@$$CBV?$Matrix@N$03$00$0A@$03$00@3@@3@$$CBV?$Matrix@N$03$00$0A@$03$00@3@@Eigen@@QEAA@AEBV?$CwiseNullaryOp@U?$scalar_constant_op@N@internal@Eigen@@$$CBV?$Matrix@N$03$00$0A@$03$00@3@@1@AEBV?$Matrix@N$03$00$0A@$03$00@1@AEBU?$scalar_product_op@NN@internal@1@@Z
	??0?$CwiseBinaryOp@U?$scalar_product_op@NN@internal@Eigen@@$$CBV?$Matrix@N$02$00$0A@$02$00@3@$$CBV?$CwiseNullaryOp@U?$scalar_constant_op@N@internal@Eigen@@$$CBV?$Matrix@N$02$00$0A@$02$00@3@@3@@Eigen@@QEAA@AEBV?$Matrix@N$02$00$0A@$02$00@1@AEBV?$CwiseNullaryOp@U?$scalar_constant_op@N@internal@Eigen@@$$CBV?$Matrix@N$02$00$0A@$02$00@3@@1@AEBU?$scalar_product_op@NN@internal@1@@Z
	??0?$CwiseBinaryOp@U?$scalar_product_op@NN@internal@Eigen@@$$CBV?$Transpose@$$CBV?$Block@$$CBV?$Block@$$CBV?$Matrix@N$02$02$0A@$02$02@Eigen@@$02$0?0$00@Eigen@@$00$0?0$0A@@Eigen@@@3@$$CBV?$Block@$$CBV?$Matrix@N$0?0$00$0A@$02$00@Eigen@@$0?0$00$00@3@@Eigen@@QEAA@AEBV?$Transpose@$$CBV?$Block@$$CBV?$Block@$$CBV?$Matrix@N$02$02$0A@$02$02@Eigen@@$02$0?0$00@Eigen@@$00$0?0$0A@@Eigen@@@1@AEBV?$Block@$$CBV?$Matrix@N$0?0$00$0A@$02$00@Eigen@@$0?0$00$00@1@AEBU?$scalar_product_op@NN@internal@1@@Z
	??0?$CwiseBinaryOp@U?$scalar_product_op@NN@internal@Eigen@@$$CBV?$Transpose@$$CBV?$Block@$$CBV?$Matrix@N$02$00$0A@$02$00@Eigen@@$00$00$0A@@Eigen@@@3@$$CBV?$Block@$$CBV?$Transpose@V?$Matrix@N$02$00$0A@$02$00@Eigen@@@Eigen@@$00$00$0A@@3@@Eigen@@QEAA@AEBV?$Transpose@$$CBV?$Block@$$CBV?$Matrix@N$02$00$0A@$02$00@Eigen@@$00$00$0A@@Eigen@@@1@AEBV?$Block@$$CBV?$Transpose@V?$Matrix@N$02$00$0A@$02$00@Eigen@@@Eigen@@$00$00$0A@@1@AEBU?$scalar_product_op@NN@internal@1@@Z
	??0?$CwiseBinaryOp@U?$scalar_product_op@NN@internal@Eigen@@$$CBV?$Transpose@$$CBV?$Block@$$CBV?$Matrix@N$02$03$00$02$03@Eigen@@$00$03$00@Eigen@@@3@$$CBV?$Block@$$CBV?$Matrix@N$03$00$0A@$03$00@Eigen@@$03$00$00@3@@Eigen@@QEAA@AEBV?$Transpose@$$CBV?$Block@$$CBV?$Matrix@N$02$03$00$02$03@Eigen@@$00$03$00@Eigen@@@1@AEBV?$Block@$$CBV?$Matrix@N$03$00$0A@$03$00@Eigen@@$03$00$00@1@AEBU?$scalar_product_op@NN@internal@1@@Z
	??0?$CwiseBinaryOp@U?$scalar_product_op@NN@internal@Eigen@@$$CBV?$Transpose@$$CBV?$Block@$$CBV?$Matrix@N$02$03$0A@$02$03@Eigen@@$00$03$0A@@Eigen@@@3@$$CBV?$Block@$$CBV?$Matrix@N$03$00$0A@$03$00@Eigen@@$03$00$00@3@@Eigen@@QEAA@AEBV?$Transpose@$$CBV?$Block@$$CBV?$Matrix@N$02$03$0A@$02$03@Eigen@@$00$03$0A@@Eigen@@@1@AEBV?$Block@$$CBV?$Matrix@N$03$00$0A@$03$00@Eigen@@$03$00$00@1@AEBU?$scalar_product_op@NN@internal@1@@Z
	??0?$CwiseBinaryOp@U?$scalar_product_op@NN@internal@Eigen@@$$CBV?$Transpose@$$CBV?$Block@$$CBV?$Matrix@N$02$03$0A@$02$03@Eigen@@$00$03$0A@@Eigen@@@3@$$CBV?$Block@$$CBV?$Matrix@N$03$02$0A@$03$02@Eigen@@$03$00$00@3@@Eigen@@QEAA@AEBV?$Transpose@$$CBV?$Block@$$CBV?$Matrix@N$02$03$0A@$02$03@Eigen@@$00$03$0A@@Eigen@@@1@AEBV?$Block@$$CBV?$Matrix@N$03$02$0A@$03$02@Eigen@@$03$00$00@1@AEBU?$scalar_product_op@NN@internal@1@@Z
	??0?$CwiseBinaryOp@U?$scalar_product_op@NN@internal@Eigen@@$$CBV?$Transpose@$$CBV?$Block@$$CBV?$Matrix@N$02$03$0A@$02$03@Eigen@@$00$03$0A@@Eigen@@@3@$$CBV?$Block@$$CBV?$Matrix@N$03$03$0A@$03$03@Eigen@@$03$00$00@3@@Eigen@@QEAA@AEBV?$Transpose@$$CBV?$Block@$$CBV?$Matrix@N$02$03$0A@$02$03@Eigen@@$00$03$0A@@Eigen@@@1@AEBV?$Block@$$CBV?$Matrix@N$03$03$0A@$03$03@Eigen@@$03$00$00@1@AEBU?$scalar_product_op@NN@internal@1@@Z
	??0?$CwiseBinaryOp@U?$scalar_product_op@NN@internal@Eigen@@$$CBV?$Transpose@$$CBV?$Block@$$CBV?$Transpose@$$CBV?$Block@$$CBV?$Matrix@N$02$02$0A@$02$02@Eigen@@$02$0?0$00@Eigen@@@Eigen@@$00$02$00@Eigen@@@3@$$CBV?$Block@$$CBV?$Matrix@N$02$00$0A@$02$00@Eigen@@$02$00$00@3@@Eigen@@QEAA@AEBV?$Transpose@$$CBV?$Block@$$CBV?$Transpose@$$CBV?$Block@$$CBV?$Matrix@N$02$02$0A@$02$02@Eigen@@$02$0?0$00@Eigen@@@Eigen@@$00$02$00@Eigen@@@1@AEBV?$Block@$$CBV?$Matrix@N$02$00$0A@$02$00@Eigen@@$02$00$00@1@AEBU?$scalar_product_op@NN@internal@1@@Z
	??0?$CwiseBinaryOp@U?$scalar_product_op@NN@internal@Eigen@@$$CBV?$Transpose@$$CBV?$Block@$$CBV?$Transpose@$$CBV?$Matrix@N$02$03$0A@$02$03@Eigen@@@Eigen@@$00$02$00@Eigen@@@3@$$CBV?$Block@$$CBV?$Matrix@N$02$00$0A@$02$00@Eigen@@$02$00$00@3@@Eigen@@QEAA@AEBV?$Transpose@$$CBV?$Block@$$CBV?$Transpose@$$CBV?$Matrix@N$02$03$0A@$02$03@Eigen@@@Eigen@@$00$02$00@Eigen@@@1@AEBV?$Block@$$CBV?$Matrix@N$02$00$0A@$02$00@Eigen@@$02$00$00@1@AEBU?$scalar_product_op@NN@internal@1@@Z
	??0?$CwiseBinaryOp@U?$scalar_quotient_op@NN@internal@Eigen@@$$CBV?$Block@$$CBV?$Matrix@N$02$02$0A@$02$02@Eigen@@$02$02$0A@@3@$$CBV?$CwiseNullaryOp@U?$scalar_constant_op@N@internal@Eigen@@$$CBV?$Matrix@N$02$02$0A@$02$02@3@@3@@Eigen@@QEAA@AEBV?$Block@$$CBV?$Matrix@N$02$02$0A@$02$02@Eigen@@$02$02$0A@@1@AEBV?$CwiseNullaryOp@U?$scalar_constant_op@N@internal@Eigen@@$$CBV?$Matrix@N$02$02$0A@$02$02@3@@1@AEBU?$scalar_quotient_op@NN@internal@1@@Z
	??0?$CwiseBinaryOp@U?$scalar_quotient_op@NN@internal@Eigen@@$$CBV?$Block@$$CBV?$Matrix@N$02$03$0A@$02$03@Eigen@@$00$02$0A@@3@$$CBV?$CwiseNullaryOp@U?$scalar_constant_op@N@internal@Eigen@@$$CBV?$Matrix@N$00$02$00$00$02@3@@3@@Eigen@@QEAA@AEBV?$Block@$$CBV?$Matrix@N$02$03$0A@$02$03@Eigen@@$00$02$0A@@1@AEBV?$CwiseNullaryOp@U?$scalar_constant_op@N@internal@Eigen@@$$CBV?$Matrix@N$00$02$00$00$02@3@@1@AEBU?$scalar_quotient_op@NN@internal@1@@Z
	??0?$CwiseBinaryOp@U?$scalar_quotient_op@NN@internal@Eigen@@$$CBV?$Matrix@N$02$00$0A@$02$00@3@$$CBV?$CwiseNullaryOp@U?$scalar_constant_op@N@internal@Eigen@@$$CBV?$Matrix@N$02$00$0A@$02$00@3@@3@@Eigen@@QEAA@AEBV?$Matrix@N$02$00$0A@$02$00@1@AEBV?$CwiseNullaryOp@U?$scalar_constant_op@N@internal@Eigen@@$$CBV?$Matrix@N$02$00$0A@$02$00@3@@1@AEBU?$scalar_quotient_op@NN@internal@1@@Z
	??0?$CwiseBinaryOp@U?$scalar_quotient_op@NN@internal@Eigen@@$$CBV?$Matrix@N$02$02$0A@$02$02@3@$$CBV?$CwiseNullaryOp@U?$scalar_constant_op@N@internal@Eigen@@$$CBV?$Matrix@N$02$02$0A@$02$02@3@@3@@Eigen@@QEAA@AEBV?$Matrix@N$02$02$0A@$02$02@1@AEBV?$CwiseNullaryOp@U?$scalar_constant_op@N@internal@Eigen@@$$CBV?$Matrix@N$02$02$0A@$02$02@3@@1@AEBU?$scalar_quotient_op@NN@internal@1@@Z
	??0?$CwiseBinaryOp@U?$scalar_sum_op@NN@internal@Eigen@@$$CBV?$CwiseBinaryOp@U?$scalar_product_op@NN@internal@Eigen@@$$CBV?$CwiseNullaryOp@U?$scalar_constant_op@N@internal@Eigen@@$$CBV?$Matrix@N$03$00$0A@$03$00@3@@3@$$CBV?$Matrix@N$03$00$0A@$03$00@3@@3@$$CBV43@@Eigen@@QEAA@AEBV?$CwiseBinaryOp@U?$scalar_product_op@NN@internal@Eigen@@$$CBV?$CwiseNullaryOp@U?$scalar_constant_op@N@internal@Eigen@@$$CBV?$Matrix@N$03$00$0A@$03$00@3@@3@$$CBV?$Matrix@N$03$00$0A@$03$00@3@@1@0AEBU?$scalar_sum_op@NN@internal@1@@Z
	??0?$CwiseNullaryOp@U?$scalar_constant_op@N@internal@Eigen@@$$CBV?$Matrix@N$00$02$00$00$02@3@@Eigen@@QEAA@_J0AEBU?$scalar_constant_op@N@internal@1@@Z
	??0?$CwiseNullaryOp@U?$scalar_constant_op@N@internal@Eigen@@$$CBV?$Matrix@N$02$00$0A@$02$00@3@@Eigen@@QEAA@_J0AEBU?$scalar_constant_op@N@internal@1@@Z
	??0?$CwiseNullaryOp@U?$scalar_constant_op@N@internal@Eigen@@$$CBV?$Matrix@N$02$02$0A@$02$02@3@@Eigen@@QEAA@_J0AEBU?$scalar_constant_op@N@internal@1@@Z
	??0?$CwiseNullaryOp@U?$scalar_constant_op@N@internal@Eigen@@$$CBV?$Matrix@N$03$00$0A@$03$00@3@@Eigen@@QEAA@_J0AEBU?$scalar_constant_op@N@internal@1@@Z
	??0?$CwiseNullaryOp@U?$scalar_identity_op@N@internal@Eigen@@V?$Matrix@N$02$02$0A@$02$02@3@@Eigen@@QEAA@_J0AEBU?$scalar_identity_op@N@internal@1@@Z
	??0?$CwiseNullaryOp@U?$scalar_zero_op@N@internal@Eigen@@V?$Matrix@N$02$03$0A@$02$03@3@@Eigen@@QEAA@_J0AEBU?$scalar_zero_op@N@internal@1@@Z
	??0?$CwiseUnaryOp@U?$core_cast_op@MN@internal@Eigen@@$$CBV?$Matrix@M$02$00$0A@$02$00@3@@Eigen@@QEAA@AEBV?$Matrix@M$02$00$0A@$02$00@1@AEBU?$core_cast_op@MN@internal@1@@Z
	??0?$CwiseUnaryOp@U?$core_cast_op@NM@internal@Eigen@@$$CBV?$Matrix@N$02$00$0A@$02$00@3@@Eigen@@QEAA@AEBV?$Matrix@N$02$00$0A@$02$00@1@AEBU?$core_cast_op@NM@internal@1@@Z
	??0?$CwiseUnaryOp@U?$core_cast_op@NM@internal@Eigen@@$$CBV?$Matrix@N$03$00$0A@$03$00@3@@Eigen@@QEAA@AEBV?$Matrix@N$03$00$0A@$03$00@1@AEBU?$core_cast_op@NM@internal@1@@Z
	??0?$CwiseUnaryOp@U?$core_cast_op@NM@internal@Eigen@@$$CBV?$Transpose@V?$Matrix@N$03$02$0A@$03$02@Eigen@@@3@@Eigen@@QEAA@AEBV?$Transpose@V?$Matrix@N$03$02$0A@$03$02@Eigen@@@1@AEBU?$core_cast_op@NM@internal@1@@Z
	??0?$CwiseUnaryOp@U?$scalar_abs_op@N@internal@Eigen@@$$CBV?$Matrix@N$02$02$0A@$02$02@3@@Eigen@@QEAA@AEBV?$Matrix@N$02$02$0A@$02$02@1@AEBU?$scalar_abs_op@N@internal@1@@Z
	??0?$CwiseUnaryOp@U?$scalar_inverse_op@N@internal@Eigen@@$$CBV?$Block@$$CBV?$Matrix@N$02$00$0A@$02$00@Eigen@@$0?0$00$0A@@3@@Eigen@@QEAA@AEBV?$Block@$$CBV?$Matrix@N$02$00$0A@$02$00@Eigen@@$0?0$00$0A@@1@AEBU?$scalar_inverse_op@N@internal@1@@Z
	??0?$CwiseUnaryOp@U?$scalar_opposite_op@N@internal@Eigen@@$$CBV?$Block@V?$Matrix@N$02$02$0A@$02$02@Eigen@@$02$00$00@3@@Eigen@@QEAA@AEBV?$Block@V?$Matrix@N$02$02$0A@$02$02@Eigen@@$02$00$00@1@AEBU?$scalar_opposite_op@N@internal@1@@Z
	??0?$CwiseUnaryOp@U?$squared_norm_functor@N$0A@@internal@Eigen@@$$CBV?$Block@$$CBV?$Matrix@N$02$03$0A@$02$03@Eigen@@$00$02$0A@@3@@Eigen@@QEAA@AEBV?$Block@$$CBV?$Matrix@N$02$03$0A@$02$03@Eigen@@$00$02$0A@@1@AEBU?$squared_norm_functor@N$0A@@internal@1@@Z
	??0?$CwiseUnaryOp@U?$squared_norm_functor@N$0A@@internal@Eigen@@$$CBV?$Block@V?$Matrix@N$02$00$0A@$02$00@Eigen@@$0?0$00$0A@@3@@Eigen@@QEAA@AEBV?$Block@V?$Matrix@N$02$00$0A@$02$00@Eigen@@$0?0$00$0A@@1@AEBU?$squared_norm_functor@N$0A@@internal@1@@Z
	??0?$CwiseUnaryOp@U?$squared_norm_functor@N$0A@@internal@Eigen@@$$CBV?$Block@V?$Matrix@N$03$00$0A@$03$00@Eigen@@$0?0$00$0A@@3@@Eigen@@QEAA@AEBV?$Block@V?$Matrix@N$03$00$0A@$03$00@Eigen@@$0?0$00$0A@@1@AEBU?$squared_norm_functor@N$0A@@internal@1@@Z
	??0?$CwiseUnaryOp@U?$squared_norm_functor@N$0A@@internal@Eigen@@$$CBV?$CwiseBinaryOp@U?$scalar_difference_op@NN@internal@Eigen@@$$CBV?$Matrix@N$03$00$0A@$03$00@3@$$CBV43@@3@@Eigen@@QEAA@AEBV?$CwiseBinaryOp@U?$scalar_difference_op@NN@internal@Eigen@@$$CBV?$Matrix@N$03$00$0A@$03$00@3@$$CBV43@@1@AEBU?$squared_norm_functor@N$0A@@internal@1@@Z
	??0?$CwiseUnaryOp@U?$squared_norm_functor@N$0A@@internal@Eigen@@$$CBV?$Matrix@N$02$00$0A@$02$00@3@@Eigen@@QEAA@AEBV?$Matrix@N$02$00$0A@$02$00@1@AEBU?$squared_norm_functor@N$0A@@internal@1@@Z
	??0?$DenseStorage@N$02$0?0$00$0A@$0A@@Eigen@@QEAA@XZ
	??0?$DenseStorage_impl@N$02$0?0$00$0A@@internal@Eigen@@QEAA@XZ
	??0?$Diagonal@$$CBV?$CwiseUnaryOp@U?$scalar_abs_op@N@internal@Eigen@@$$CBV?$Matrix@N$02$02$0A@$02$02@3@@Eigen@@$0A@@Eigen@@QEAA@AEBV?$CwiseUnaryOp@U?$scalar_abs_op@N@internal@Eigen@@$$CBV?$Matrix@N$02$02$0A@$02$02@3@@1@_J@Z
	??0?$Diagonal@V?$Matrix@N$02$02$0A@$02$02@Eigen@@$0A@@Eigen@@QEAA@AEAV?$Matrix@N$02$02$0A@$02$02@1@_J@Z
	??0?$DiagonalWrapper@$$CBV?$Block@$$CBV?$Matrix@N$02$00$0A@$02$00@Eigen@@$0?0$00$0A@@Eigen@@@Eigen@@QEAA@AEBV?$Block@$$CBV?$Matrix@N$02$00$0A@$02$00@Eigen@@$0?0$00$0A@@1@@Z
	??0?$DiagonalWrapper@$$CBV?$CwiseUnaryOp@U?$scalar_inverse_op@N@internal@Eigen@@$$CBV?$Block@$$CBV?$Matrix@N$02$00$0A@$02$00@Eigen@@$0?0$00$0A@@3@@Eigen@@@Eigen@@QEAA@AEBV?$CwiseUnaryOp@U?$scalar_inverse_op@N@internal@Eigen@@$$CBV?$Block@$$CBV?$Matrix@N$02$00$0A@$02$00@Eigen@@$0?0$00$0A@@3@@1@@Z
	??0?$DiagonalWrapper@$$CBV?$Matrix@N$02$00$0A@$02$00@Eigen@@@Eigen@@QEAA@AEBV?$Matrix@N$02$00$0A@$02$00@1@@Z
	??0?$Image@M@NRRD@@QEAA@HHHPEAM@Z
	??0?$Image@M@NRRD@@QEAA@XZ
	??0?$ImageView@M@NRRD@@QEAA@HHHPEAM@Z
	??0?$ImageView@M@NRRD@@QEAA@XZ
	??0?$JacobiRotation@N@Eigen@@QEAA@AEBN0@Z
	??0?$JacobiRotation@N@Eigen@@QEAA@XZ
	??0?$MapBase@V?$Block@$$CBV?$Block@$$CBV?$Matrix@N$02$02$0A@$02$02@Eigen@@$02$0?0$00@Eigen@@$00$0?0$0A@@Eigen@@$0A@@Eigen@@QEAA@PEBN_J1@Z
	??0?$MapBase@V?$Block@$$CBV?$Matrix@N$02$00$0A@$02$00@Eigen@@$00$00$0A@@Eigen@@$0A@@Eigen@@QEAA@PEBN_J1@Z
	??0?$MapBase@V?$Block@$$CBV?$Matrix@N$02$00$0A@$02$00@Eigen@@$02$00$00@Eigen@@$0A@@Eigen@@QEAA@PEBN_J1@Z
	??0?$MapBase@V?$Block@$$CBV?$Matrix@N$02$00$0A@$02$00@Eigen@@$0?0$00$0A@@Eigen@@$0A@@Eigen@@QEAA@PEBN_J1@Z
	??0?$MapBase@V?$Block@$$CBV?$Matrix@N$02$02$0A@$02$02@Eigen@@$02$02$0A@@Eigen@@$0A@@Eigen@@QEAA@PEBN_J1@Z
	??0?$MapBase@V?$Block@$$CBV?$Matrix@N$02$02$0A@$02$02@Eigen@@$02$0?0$00@Eigen@@$0A@@Eigen@@QEAA@PEBN_J1@Z
	??0?$MapBase@V?$Block@$$CBV?$Matrix@N$02$03$00$02$03@Eigen@@$00$03$00@Eigen@@$0A@@Eigen@@QEAA@PEBN_J1@Z
	??0?$MapBase@V?$Block@$$CBV?$Matrix@N$02$03$0A@$02$03@Eigen@@$00$02$0A@@Eigen@@$0A@@Eigen@@QEAA@PEBN@Z
	??0?$MapBase@V?$Block@$$CBV?$Matrix@N$02$03$0A@$02$03@Eigen@@$00$03$0A@@Eigen@@$0A@@Eigen@@QEAA@PEBN_J1@Z
	??0?$MapBase@V?$Block@$$CBV?$Matrix@N$03$00$0A@$03$00@Eigen@@$03$00$00@Eigen@@$0A@@Eigen@@QEAA@PEBN_J1@Z
	??0?$MapBase@V?$Block@$$CBV?$Matrix@N$03$02$0A@$03$02@Eigen@@$03$00$00@Eigen@@$0A@@Eigen@@QEAA@PEBN_J1@Z
	??0?$MapBase@V?$Block@$$CBV?$Matrix@N$03$03$0A@$03$03@Eigen@@$03$00$00@Eigen@@$0A@@Eigen@@QEAA@PEBN_J1@Z
	??0?$MapBase@V?$Block@$$CBV?$Matrix@N$0?0$00$0A@$02$00@Eigen@@$0?0$00$00@Eigen@@$0A@@Eigen@@QEAA@PEBN_J1@Z
	??0?$MapBase@V?$Block@$$CBV?$Transpose@$$CBV?$Block@$$CBV?$Matrix@N$02$02$0A@$02$02@Eigen@@$02$0?0$00@Eigen@@@Eigen@@$00$02$00@Eigen@@$0A@@Eigen@@QEAA@PEBN_J1@Z
	??0?$MapBase@V?$Block@$$CBV?$Transpose@$$CBV?$Matrix@N$02$03$0A@$02$03@Eigen@@@Eigen@@$00$02$00@Eigen@@$0A@@Eigen@@QEAA@PEBN_J1@Z
	??0?$MapBase@V?$Block@$$CBV?$Transpose@V?$Matrix@N$02$00$0A@$02$00@Eigen@@@Eigen@@$00$00$0A@@Eigen@@$0A@@Eigen@@QEAA@PEBN_J1@Z
	??0?$MapBase@V?$Block@V?$Matrix@N$01$01$0A@$01$01@Eigen@@$00$01$0A@@Eigen@@$00@Eigen@@QEAA@PEAN_J1@Z
	??0?$MapBase@V?$Block@V?$Matrix@N$01$01$0A@$01$01@Eigen@@$00$01$0A@@Eigen@@$0A@@Eigen@@QEAA@PEAN_J1@Z
	??0?$MapBase@V?$Block@V?$Matrix@N$02$00$0A@$02$00@Eigen@@$0?0$00$0A@@Eigen@@$00@Eigen@@QEAA@PEAN_J1@Z
	??0?$MapBase@V?$Block@V?$Matrix@N$02$00$0A@$02$00@Eigen@@$0?0$00$0A@@Eigen@@$0A@@Eigen@@QEAA@PEAN_J1@Z
	??0?$MapBase@V?$Block@V?$Matrix@N$02$02$0A@$02$02@Eigen@@$00$02$0A@@Eigen@@$00@Eigen@@QEAA@PEAN_J1@Z
	??0?$MapBase@V?$Block@V?$Matrix@N$02$02$0A@$02$02@Eigen@@$00$02$0A@@Eigen@@$0A@@Eigen@@QEAA@PEAN_J1@Z
	??0?$MapBase@V?$Block@V?$Matrix@N$02$02$0A@$02$02@Eigen@@$02$00$00@Eigen@@$00@Eigen@@QEAA@PEAN_J1@Z
	??0?$MapBase@V?$Block@V?$Matrix@N$02$02$0A@$02$02@Eigen@@$02$00$00@Eigen@@$0A@@Eigen@@QEAA@PEAN_J1@Z
	??0?$MapBase@V?$Block@V?$Matrix@N$02$03$0A@$02$03@Eigen@@$00$02$0A@@Eigen@@$00@Eigen@@QEAA@PEAN@Z
	??0?$MapBase@V?$Block@V?$Matrix@N$02$03$0A@$02$03@Eigen@@$00$02$0A@@Eigen@@$0A@@Eigen@@QEAA@PEAN@Z
	??0?$MapBase@V?$Block@V?$Matrix@N$03$00$0A@$03$00@Eigen@@$02$00$0A@@Eigen@@$00@Eigen@@QEAA@PEAN@Z
	??0?$MapBase@V?$Block@V?$Matrix@N$03$00$0A@$03$00@Eigen@@$02$00$0A@@Eigen@@$0A@@Eigen@@QEAA@PEAN@Z
	??0?$MapBase@V?$Block@V?$Matrix@N$03$00$0A@$03$00@Eigen@@$0?0$00$0A@@Eigen@@$00@Eigen@@QEAA@PEAN_J1@Z
	??0?$MapBase@V?$Block@V?$Matrix@N$03$00$0A@$03$00@Eigen@@$0?0$00$0A@@Eigen@@$0A@@Eigen@@QEAA@PEAN_J1@Z
	??0?$Matrix@H$03$00$0A@$03$00@Eigen@@QEAA@AEBH000@Z
	??0?$Matrix@N$02$00$0A@$02$00@Eigen@@QEAA@AEBN00@Z
	??0?$Matrix@N$03$00$0A@$03$00@Eigen@@QEAA@AEBN000@Z
	??0?$Matrix@N$0?0$00$0A@$02$00@Eigen@@QEAA@XZ
	??0?$MemoryBlock@D@UtilsCuda@@QEAA@HPEBD@Z
	??0?$MemoryBlock@H@UtilsCuda@@QEAA@HPEBH@Z
	??0?$MemoryBlock@M@UtilsCuda@@QEAA@HPEBM@Z
	??0?$MemoryView@D@UtilsCuda@@QEAA@PEADH@Z
	??0?$MemoryView@H@UtilsCuda@@QEAA@PEAHH@Z
	??0?$MemoryView@M@UtilsCuda@@QEAA@PEAMH@Z
	??0?$NoAlias@V?$Block@V?$Matrix@N$03$00$0A@$03$00@Eigen@@$02$00$0A@@Eigen@@VMatrixBase@2@@Eigen@@QEAA@AEAV?$Block@V?$Matrix@N$03$00$0A@$03$00@Eigen@@$02$00$0A@@1@@Z
	??0?$NoAlias@V?$Matrix@N$0?0$00$0A@$02$00@Eigen@@VMatrixBase@2@@Eigen@@QEAA@AEAV?$Matrix@N$0?0$00$0A@$02$00@1@@Z
	??0?$PlainObjectBase@V?$Matrix@N$0?0$00$0A@$02$00@Eigen@@@Eigen@@IEAA@XZ
	??0?$Product@V?$Block@$$CBV?$Matrix@N$02$02$0A@$02$02@Eigen@@$02$0?0$00@Eigen@@V?$Matrix@N$0?0$00$0A@$02$00@2@$00@Eigen@@QEAA@AEBV?$Block@$$CBV?$Matrix@N$02$02$0A@$02$02@Eigen@@$02$0?0$00@1@AEBV?$Matrix@N$0?0$00$0A@$02$00@1@@Z
	??0?$Product@V?$Block@$$CBV?$Matrix@N$02$02$0A@$02$02@Eigen@@$02$0?0$00@Eigen@@V?$Matrix@N$0?0$00$0A@$02$00@2@$0A@@Eigen@@QEAA@AEBV?$Block@$$CBV?$Matrix@N$02$02$0A@$02$02@Eigen@@$02$0?0$00@1@AEBV?$Matrix@N$0?0$00$0A@$02$00@1@@Z
	??0?$Product@V?$DiagonalWrapper@$$CBV?$CwiseUnaryOp@U?$scalar_inverse_op@N@internal@Eigen@@$$CBV?$Block@$$CBV?$Matrix@N$02$00$0A@$02$00@Eigen@@$0?0$00$0A@@3@@Eigen@@@Eigen@@V?$Matrix@N$0?0$00$0A@$02$00@2@$00@Eigen@@QEAA@AEBV?$DiagonalWrapper@$$CBV?$CwiseUnaryOp@U?$scalar_inverse_op@N@internal@Eigen@@$$CBV?$Block@$$CBV?$Matrix@N$02$00$0A@$02$00@Eigen@@$0?0$00$0A@@3@@Eigen@@@1@AEBV?$Matrix@N$0?0$00$0A@$02$00@1@@Z
	??0?$Product@V?$Matrix@N$02$00$0A@$02$00@Eigen@@V?$Transpose@V?$Matrix@N$02$00$0A@$02$00@Eigen@@@2@$00@Eigen@@QEAA@AEBV?$Matrix@N$02$00$0A@$02$00@1@AEBV?$Transpose@V?$Matrix@N$02$00$0A@$02$00@Eigen@@@1@@Z
	??0?$Product@V?$Matrix@N$02$00$0A@$02$00@Eigen@@V?$Transpose@V?$Matrix@N$02$00$0A@$02$00@Eigen@@@2@$0A@@Eigen@@QEAA@AEBV?$Matrix@N$02$00$0A@$02$00@1@AEBV?$Transpose@V?$Matrix@N$02$00$0A@$02$00@Eigen@@@1@@Z
	??0?$Product@V?$Matrix@N$02$03$00$02$03@Eigen@@V?$Matrix@N$03$00$0A@$03$00@2@$00@Eigen@@QEAA@AEBV?$Matrix@N$02$03$00$02$03@1@AEBV?$Matrix@N$03$00$0A@$03$00@1@@Z
	??0?$Product@V?$Matrix@N$02$03$00$02$03@Eigen@@V?$Matrix@N$03$00$0A@$03$00@2@$0A@@Eigen@@QEAA@AEBV?$Matrix@N$02$03$00$02$03@1@AEBV?$Matrix@N$03$00$0A@$03$00@1@@Z
	??0?$Product@V?$Matrix@N$02$03$0A@$02$03@Eigen@@V?$Matrix@N$03$00$0A@$03$00@2@$00@Eigen@@QEAA@AEBV?$Matrix@N$02$03$0A@$02$03@1@AEBV?$Matrix@N$03$00$0A@$03$00@1@@Z
	??0?$Product@V?$Matrix@N$02$03$0A@$02$03@Eigen@@V?$Matrix@N$03$00$0A@$03$00@2@$0A@@Eigen@@QEAA@AEBV?$Matrix@N$02$03$0A@$02$03@1@AEBV?$Matrix@N$03$00$0A@$03$00@1@@Z
	??0?$Product@V?$Matrix@N$02$03$0A@$02$03@Eigen@@V?$Matrix@N$03$03$0A@$03$03@2@$00@Eigen@@QEAA@AEBV?$Matrix@N$02$03$0A@$02$03@1@AEBV?$Matrix@N$03$03$0A@$03$03@1@@Z
	??0?$Product@V?$Matrix@N$02$03$0A@$02$03@Eigen@@V?$Matrix@N$03$03$0A@$03$03@2@$0A@@Eigen@@QEAA@AEBV?$Matrix@N$02$03$0A@$02$03@1@AEBV?$Matrix@N$03$03$0A@$03$03@1@@Z
	??0?$Product@V?$Product@V?$Matrix@N$02$03$0A@$02$03@Eigen@@V?$Matrix@N$03$03$0A@$03$03@2@$0A@@Eigen@@V?$Matrix@N$03$02$0A@$03$02@2@$00@Eigen@@QEAA@AEBV?$Product@V?$Matrix@N$02$03$0A@$02$03@Eigen@@V?$Matrix@N$03$03$0A@$03$03@2@$0A@@1@AEBV?$Matrix@N$03$02$0A@$03$02@1@@Z
	??0?$Product@V?$Product@V?$Matrix@N$02$03$0A@$02$03@Eigen@@V?$Matrix@N$03$03$0A@$03$03@2@$0A@@Eigen@@V?$Matrix@N$03$02$0A@$03$02@2@$0A@@Eigen@@QEAA@AEBV?$Product@V?$Matrix@N$02$03$0A@$02$03@Eigen@@V?$Matrix@N$03$03$0A@$03$03@2@$0A@@1@AEBV?$Matrix@N$03$02$0A@$03$02@1@@Z
	??0?$Product@V?$Transpose@$$CBV?$Block@$$CBV?$Matrix@N$02$02$0A@$02$02@Eigen@@$02$0?0$00@Eigen@@@Eigen@@V?$Matrix@N$02$00$0A@$02$00@2@$00@Eigen@@QEAA@AEBV?$Transpose@$$CBV?$Block@$$CBV?$Matrix@N$02$02$0A@$02$02@Eigen@@$02$0?0$00@Eigen@@@1@AEBV?$Matrix@N$02$00$0A@$02$00@1@@Z
	??0?$Product@V?$Transpose@$$CBV?$Block@$$CBV?$Matrix@N$02$02$0A@$02$02@Eigen@@$02$0?0$00@Eigen@@@Eigen@@V?$Matrix@N$02$00$0A@$02$00@2@$0A@@Eigen@@QEAA@AEBV?$Transpose@$$CBV?$Block@$$CBV?$Matrix@N$02$02$0A@$02$02@Eigen@@$02$0?0$00@Eigen@@@1@AEBV?$Matrix@N$02$00$0A@$02$00@1@@Z
	??0?$Product@V?$Transpose@$$CBV?$Matrix@N$02$03$0A@$02$03@Eigen@@@Eigen@@V?$CwiseUnaryOp@U?$core_cast_op@MN@internal@Eigen@@$$CBV?$Matrix@M$02$00$0A@$02$00@3@@2@$00@Eigen@@QEAA@AEBV?$Transpose@$$CBV?$Matrix@N$02$03$0A@$02$03@Eigen@@@1@AEBV?$CwiseUnaryOp@U?$core_cast_op@MN@internal@Eigen@@$$CBV?$Matrix@M$02$00$0A@$02$00@3@@1@@Z
	??0?$Product@V?$Transpose@$$CBV?$Matrix@N$02$03$0A@$02$03@Eigen@@@Eigen@@V?$CwiseUnaryOp@U?$core_cast_op@MN@internal@Eigen@@$$CBV?$Matrix@M$02$00$0A@$02$00@3@@2@$0A@@Eigen@@QEAA@AEBV?$Transpose@$$CBV?$Matrix@N$02$03$0A@$02$03@Eigen@@@1@AEBV?$CwiseUnaryOp@U?$core_cast_op@MN@internal@Eigen@@$$CBV?$Matrix@M$02$00$0A@$02$00@3@@1@@Z
	??0?$Product@V?$Transpose@V?$Matrix@N$02$00$0A@$02$00@Eigen@@@Eigen@@V?$Matrix@N$02$00$0A@$02$00@2@$0A@@Eigen@@QEAA@AEBV?$Transpose@V?$Matrix@N$02$00$0A@$02$00@Eigen@@@1@AEBV?$Matrix@N$02$00$0A@$02$00@1@@Z
	??0?$SVDBase@V?$JacobiSVD@V?$Matrix@N$02$02$0A@$02$02@Eigen@@$0A@@Eigen@@@Eigen@@IEAA@XZ
	??0?$Solve@V?$SVDBase@V?$JacobiSVD@V?$Matrix@N$02$02$0A@$02$02@Eigen@@$0A@@Eigen@@@Eigen@@V?$Matrix@N$02$00$0A@$02$00@2@@Eigen@@QEAA@AEBV?$SVDBase@V?$JacobiSVD@V?$Matrix@N$02$02$0A@$02$02@Eigen@@$0A@@Eigen@@@1@AEBV?$Matrix@N$02$00$0A@$02$00@1@@Z
	??0?$SolverBase@V?$SVDBase@V?$JacobiSVD@V?$Matrix@N$02$02$0A@$02$02@Eigen@@$0A@@Eigen@@@Eigen@@@Eigen@@QEAA@XZ
	??0?$Transpose@$$CBV?$Block@$$CBV?$Block@$$CBV?$Matrix@N$02$02$0A@$02$02@Eigen@@$02$0?0$00@Eigen@@$00$0?0$0A@@Eigen@@@Eigen@@QEAA@AEBV?$Block@$$CBV?$Block@$$CBV?$Matrix@N$02$02$0A@$02$02@Eigen@@$02$0?0$00@Eigen@@$00$0?0$0A@@1@@Z
	??0?$Transpose@$$CBV?$Block@$$CBV?$Matrix@N$02$00$0A@$02$00@Eigen@@$00$00$0A@@Eigen@@@Eigen@@QEAA@AEBV?$Block@$$CBV?$Matrix@N$02$00$0A@$02$00@Eigen@@$00$00$0A@@1@@Z
	??0?$Transpose@$$CBV?$Block@$$CBV?$Matrix@N$02$02$0A@$02$02@Eigen@@$02$0?0$00@Eigen@@@Eigen@@QEAA@AEBV?$Block@$$CBV?$Matrix@N$02$02$0A@$02$02@Eigen@@$02$0?0$00@1@@Z
	??0?$Transpose@$$CBV?$Block@$$CBV?$Matrix@N$02$03$00$02$03@Eigen@@$00$03$00@Eigen@@@Eigen@@QEAA@AEBV?$Block@$$CBV?$Matrix@N$02$03$00$02$03@Eigen@@$00$03$00@1@@Z
	??0?$Transpose@$$CBV?$Block@$$CBV?$Matrix@N$02$03$0A@$02$03@Eigen@@$00$03$0A@@Eigen@@@Eigen@@QEAA@AEBV?$Block@$$CBV?$Matrix@N$02$03$0A@$02$03@Eigen@@$00$03$0A@@1@@Z
	??0?$Transpose@$$CBV?$Block@$$CBV?$Transpose@$$CBV?$Block@$$CBV?$Matrix@N$02$02$0A@$02$02@Eigen@@$02$0?0$00@Eigen@@@Eigen@@$00$02$00@Eigen@@@Eigen@@QEAA@AEBV?$Block@$$CBV?$Transpose@$$CBV?$Block@$$CBV?$Matrix@N$02$02$0A@$02$02@Eigen@@$02$0?0$00@Eigen@@@Eigen@@$00$02$00@1@@Z
	??0?$Transpose@$$CBV?$Block@$$CBV?$Transpose@$$CBV?$Matrix@N$02$03$0A@$02$03@Eigen@@@Eigen@@$00$02$00@Eigen@@@Eigen@@QEAA@AEBV?$Block@$$CBV?$Transpose@$$CBV?$Matrix@N$02$03$0A@$02$03@Eigen@@@Eigen@@$00$02$00@1@@Z
	??0?$Transpose@$$CBV?$Matrix@N$02$03$0A@$02$03@Eigen@@@Eigen@@QEAA@AEBV?$Matrix@N$02$03$0A@$02$03@1@@Z
	??0?$Transpose@V?$Matrix@N$02$00$0A@$02$00@Eigen@@@Eigen@@QEAA@AEAV?$Matrix@N$02$00$0A@$02$00@1@@Z
	??0?$Transpose@V?$Matrix@N$03$02$0A@$03$02@Eigen@@@Eigen@@QEAA@AEAV?$Matrix@N$03$02$0A@$03$02@1@@Z
	??0?$VectorBlock@$$CBV?$Matrix@N$02$00$0A@$02$00@Eigen@@$0?0@Eigen@@QEAA@AEBV?$Matrix@N$02$00$0A@$02$00@1@_J1@Z
	??0?$VectorBlock@V?$Matrix@N$02$00$0A@$02$00@Eigen@@$0?0@Eigen@@QEAA@AEAV?$Matrix@N$02$00$0A@$02$00@1@_J1@Z
	??0?$VectorBlock@V?$Matrix@N$03$00$0A@$03$00@Eigen@@$0?0@Eigen@@QEAA@AEAV?$Matrix@N$03$00$0A@$03$00@1@_J1@Z
	??0?$_Alloc_construct_ptr@V?$allocator@U?$_Tree_node@U?$pair@$$CBV?$basic_string@DU?$char_traits@D@std@@V?$allocator@D@2@@std@@V12@@std@@PEAX@std@@@std@@@std@@QEAA@AEAV?$allocator@U?$_Tree_node@U?$pair@$$CBV?$basic_string@DU?$char_traits@D@std@@V?$allocator@D@2@@std@@V12@@std@@PEAX@std@@@1@@Z
	??0?$_String_const_iterator@V?$_String_val@U?$_Simple_types@D@std@@@std@@@std@@QEAA@PEBDPEBU_Container_base0@1@@Z
	??0?$_String_iterator@V?$_String_val@U?$_Simple_types@D@std@@@std@@@std@@QEAA@PEBDPEBU_Container_base0@1@@Z
	??0?$_String_val@U?$_Simple_types@D@std@@@std@@QEAA@XZ
	??0?$_Tree@V?$_Tmap_traits@V?$basic_string@DU?$char_traits@D@std@@V?$allocator@D@2@@std@@V12@U?$less@V?$basic_string@DU?$char_traits@D@std@@V?$allocator@D@2@@std@@@2@V?$allocator@U?$pair@$$CBV?$basic_string@DU?$char_traits@D@std@@V?$allocator@D@2@@std@@V12@@std@@@2@$0A@@std@@@std@@QEAA@AEBU?$less@V?$basic_string@DU?$char_traits@D@std@@V?$allocator@D@2@@std@@@1@@Z
	??0?$_Tree_const_iterator@V?$_Tree_val@U?$_Tree_simple_types@H@std@@@std@@@std@@QEAA@PEAU?$_Tree_node@HPEAX@1@PEBV?$_Tree_val@U?$_Tree_simple_types@H@std@@@1@@Z
	??0?$_Tree_const_iterator@V?$_Tree_val@U?$_Tree_simple_types@U?$pair@$$CBV?$basic_string@DU?$char_traits@D@std@@V?$allocator@D@2@@std@@V12@@std@@@std@@@std@@@std@@QEAA@PEAU?$_Tree_node@U?$pair@$$CBV?$basic_string@DU?$char_traits@D@std@@V?$allocator@D@2@@std@@V12@@std@@PEAX@1@PEBV?$_Tree_val@U?$_Tree_simple_types@U?$pair@$$CBV?$basic_string@DU?$char_traits@D@std@@V?$allocator@D@2@@std@@V12@@std@@@std@@@1@@Z
	??0?$_Tree_head_scoped_ptr@V?$allocator@U?$_Tree_node@U?$pair@$$CBV?$basic_string@DU?$char_traits@D@std@@V?$allocator@D@2@@std@@V12@@std@@PEAX@std@@@std@@V?$_Tree_val@U?$_Tree_simple_types@U?$pair@$$CBV?$basic_string@DU?$char_traits@D@std@@V?$allocator@D@2@@std@@V12@@std@@@std@@@2@@std@@QEAA@AEAV?$allocator@U?$_Tree_node@U?$pair@$$CBV?$basic_string@DU?$char_traits@D@std@@V?$allocator@D@2@@std@@V12@@std@@PEAX@std@@@1@AEAV?$_Tree_val@U?$_Tree_simple_types@U?$pair@$$CBV?$basic_string@DU?$char_traits@D@std@@V?$allocator@D@2@@std@@V12@@std@@@std@@@1@@Z
	??0?$_Tree_iterator@V?$_Tree_val@U?$_Tree_simple_types@U?$pair@$$CBV?$basic_string@DU?$char_traits@D@std@@V?$allocator@D@2@@std@@V12@@std@@@std@@@std@@@std@@QEAA@PEAU?$_Tree_node@U?$pair@$$CBV?$basic_string@DU?$char_traits@D@std@@V?$allocator@D@2@@std@@V12@@std@@PEAX@1@PEBV?$_Tree_val@U?$_Tree_simple_types@U?$pair@$$CBV?$basic_string@DU?$char_traits@D@std@@V?$allocator@D@2@@std@@V12@@std@@@std@@@1@@Z
	??0?$_Tree_temp_node_alloc@V?$allocator@U?$_Tree_node@U?$pair@$$CBV?$basic_string@DU?$char_traits@D@std@@V?$allocator@D@2@@std@@V12@@std@@PEAX@std@@@std@@@std@@QEAA@AEAV?$allocator@U?$_Tree_node@U?$pair@$$CBV?$basic_string@DU?$char_traits@D@std@@V?$allocator@D@2@@std@@V12@@std@@PEAX@std@@@1@@Z
	??0?$_Tree_unchecked_const_iterator@V?$_Tree_val@U?$_Tree_simple_types@H@std@@@std@@U_Iterator_base0@2@@std@@QEAA@PEAU?$_Tree_node@HPEAX@1@PEBV?$_Tree_val@U?$_Tree_simple_types@H@std@@@1@@Z
	??0?$_Tree_unchecked_const_iterator@V?$_Tree_val@U?$_Tree_simple_types@U?$pair@$$CBV?$basic_string@DU?$char_traits@D@std@@V?$allocator@D@2@@std@@V12@@std@@@std@@@std@@U_Iterator_base0@2@@std@@QEAA@PEAU?$_Tree_node@U?$pair@$$CBV?$basic_string@DU?$char_traits@D@std@@V?$allocator@D@2@@std@@V12@@std@@PEAX@1@PEBV?$_Tree_val@U?$_Tree_simple_types@U?$pair@$$CBV?$basic_string@DU?$char_traits@D@std@@V?$allocator@D@2@@std@@V12@@std@@@std@@@1@@Z
	??0?$_Tree_unchecked_iterator@V?$_Tree_val@U?$_Tree_simple_types@U?$pair@$$CBV?$basic_string@DU?$char_traits@D@std@@V?$allocator@D@2@@std@@V12@@std@@@std@@@std@@@std@@QEAA@PEAU?$_Tree_node@U?$pair@$$CBV?$basic_string@DU?$char_traits@D@std@@V?$allocator@D@2@@std@@V12@@std@@PEAX@1@PEBV?$_Tree_val@U?$_Tree_simple_types@U?$pair@$$CBV?$basic_string@DU?$char_traits@D@std@@V?$allocator@D@2@@std@@V12@@std@@@std@@@1@@Z
	??0?$_Tree_val@U?$_Tree_simple_types@U?$pair@$$CBV?$basic_string@DU?$char_traits@D@std@@V?$allocator@D@2@@std@@V12@@std@@@std@@@std@@QEAA@XZ
	??0?$_Uninitialized_backout_al@V?$allocator@H@std@@@std@@QEAA@PEAHAEAV?$allocator@H@1@@Z
	??0?$_Uninitialized_backout_al@V?$allocator@M@std@@@std@@QEAA@PEAMAEAV?$allocator@M@1@@Z
	??0?$_Uninitialized_backout_al@V?$allocator@N@std@@@std@@QEAA@PEANAEAV?$allocator@N@1@@Z
	??0?$_Uninitialized_backout_al@V?$allocator@PEAV?$BindlessTexture2D@M@UtilsCuda@@@std@@@std@@QEAA@PEAPEAV?$BindlessTexture2D@M@UtilsCuda@@AEAV?$allocator@PEAV?$BindlessTexture2D@M@UtilsCuda@@@1@@Z
	??0?$_Uninitialized_backout_al@V?$allocator@PEAVRadonIntermediate@EpipolarConsistency@@@std@@@std@@QEAA@PEAPEAVRadonIntermediate@EpipolarConsistency@@AEAV?$allocator@PEAVRadonIntermediate@EpipolarConsistency@@@1@@Z
	??0?$_Uninitialized_backout_al@V?$allocator@U?$pair@MM@std@@@std@@@std@@QEAA@PEAU?$pair@MM@1@AEAV?$allocator@U?$pair@MM@std@@@1@@Z
	??0?$_Uninitialized_backout_al@V?$allocator@U?$pair@V?$Matrix@M$02$00$0A@$02$00@Eigen@@V12@@std@@@std@@@std@@QEAA@PEAU?$pair@V?$Matrix@M$02$00$0A@$02$00@Eigen@@V12@@1@AEAV?$allocator@U?$pair@V?$Matrix@M$02$00$0A@$02$00@Eigen@@V12@@std@@@1@@Z
	??0?$_Uninitialized_backout_al@V?$allocator@UFBCC_weighting_info@@@std@@@std@@QEAA@PEAUFBCC_weighting_info@@AEAV?$allocator@UFBCC_weighting_info@@@1@@Z
	??0?$_Uninitialized_backout_al@V?$allocator@V?$Matrix@H$03$00$0A@$03$00@Eigen@@@std@@@std@@QEAA@PEAV?$Matrix@H$03$00$0A@$03$00@Eigen@@AEAV?$allocator@V?$Matrix@H$03$00$0A@$03$00@Eigen@@@1@@Z
	??0?$_Uninitialized_backout_al@V?$allocator@V?$Matrix@M$02$03$0A@$02$03@Eigen@@@std@@@std@@QEAA@PEAV?$Matrix@M$02$03$0A@$02$03@Eigen@@AEAV?$allocator@V?$Matrix@M$02$03$0A@$02$03@Eigen@@@1@@Z
	??0?$_Uninitialized_backout_al@V?$allocator@V?$Matrix@M$03$00$0A@$03$00@Eigen@@@std@@@std@@QEAA@PEAV?$Matrix@M$03$00$0A@$03$00@Eigen@@AEAV?$allocator@V?$Matrix@M$03$00$0A@$03$00@Eigen@@@1@@Z
	??0?$_Uninitialized_backout_al@V?$allocator@V?$Matrix@N$02$03$0A@$02$03@Eigen@@@std@@@std@@QEAA@PEAV?$Matrix@N$02$03$0A@$02$03@Eigen@@AEAV?$allocator@V?$Matrix@N$02$03$0A@$02$03@Eigen@@@1@@Z
	??0?$_Uninitialized_backout_al@V?$allocator@_K@std@@@std@@QEAA@PEA_KAEAV?$allocator@_K@1@@Z
	??0?$_Vector_const_iterator@V?$_Vector_val@U?$_Simple_types@N@std@@@std@@@std@@QEAA@PEANPEBU_Container_base0@1@@Z
	??0?$_Vector_val@U?$_Simple_types@H@std@@@std@@QEAA@PEAH00@Z
	??0?$_Vector_val@U?$_Simple_types@H@std@@@std@@QEAA@XZ
	??0?$_Vector_val@U?$_Simple_types@M@std@@@std@@QEAA@XZ
	??0?$_Vector_val@U?$_Simple_types@N@std@@@std@@QEAA@PEAN00@Z
	??0?$_Vector_val@U?$_Simple_types@N@std@@@std@@QEAA@XZ
	??0?$_Vector_val@U?$_Simple_types@PEAV?$BindlessTexture2D@M@UtilsCuda@@@std@@@std@@QEAA@XZ
	??0?$_Vector_val@U?$_Simple_types@PEAVRadonIntermediate@EpipolarConsistency@@@std@@@std@@QEAA@XZ
	??0?$_Vector_val@U?$_Simple_types@U?$pair@V?$Matrix@M$02$00$0A@$02$00@Eigen@@V12@@std@@@std@@@std@@QEAA@PEAU?$pair@V?$Matrix@M$02$00$0A@$02$00@Eigen@@V12@@1@00@Z
	??0?$_Vector_val@U?$_Simple_types@U?$pair@V?$Matrix@M$02$00$0A@$02$00@Eigen@@V12@@std@@@std@@@std@@QEAA@XZ
	??0?$_Vector_val@U?$_Simple_types@UFBCC_weighting_info@@@std@@@std@@QEAA@XZ
	??0?$_Vector_val@U?$_Simple_types@V?$Matrix@H$03$00$0A@$03$00@Eigen@@@std@@@std@@QEAA@XZ
	??0?$_Vector_val@U?$_Simple_types@V?$Matrix@M$02$03$0A@$02$03@Eigen@@@std@@@std@@QEAA@XZ
	??0?$_Vector_val@U?$_Simple_types@V?$Matrix@M$03$00$0A@$03$00@Eigen@@@std@@@std@@QEAA@XZ
	??0?$_Vector_val@U?$_Simple_types@V?$Matrix@N$02$03$0A@$02$03@Eigen@@@std@@@std@@QEAA@XZ
	??0?$_Vector_val@U?$_Simple_types@_K@std@@@std@@QEAA@XZ
	??0?$allocator@D@std@@QEAA@XZ
	??0?$allocator@H@std@@QEAA@XZ
	??0?$allocator@M@std@@QEAA@XZ
	??0?$allocator@N@std@@QEAA@XZ
	??0?$allocator@PEAV?$BindlessTexture2D@M@UtilsCuda@@@std@@QEAA@XZ
	??0?$allocator@PEAVRadonIntermediate@EpipolarConsistency@@@std@@QEAA@XZ
	??0?$allocator@U?$_Tree_node@U?$pair@$$CBV?$basic_string@DU?$char_traits@D@std@@V?$allocator@D@2@@std@@V12@@std@@PEAX@std@@@std@@QEAA@XZ
	??0?$allocator@U?$pair@V?$Matrix@M$02$00$0A@$02$00@Eigen@@V12@@std@@@std@@QEAA@XZ
	??0?$allocator@UFBCC_weighting_info@@@std@@QEAA@XZ
	??0?$allocator@V?$Matrix@H$03$00$0A@$03$00@Eigen@@@std@@QEAA@XZ
	??0?$allocator@V?$Matrix@M$02$03$0A@$02$03@Eigen@@@std@@QEAA@XZ
	??0?$allocator@V?$Matrix@M$03$00$0A@$03$00@Eigen@@@std@@QEAA@XZ
	??0?$allocator@V?$Matrix@N$02$03$0A@$02$03@Eigen@@@std@@QEAA@XZ
	??0?$allocator@_K@std@@QEAA@XZ
	??0?$basic_filebuf@DU?$char_traits@D@std@@@std@@QEAA@XZ
	??0?$basic_ifstream@DU?$char_traits@D@std@@@std@@QEAA@PEBDHH@Z
	??0?$basic_istringstream@DU?$char_traits@D@std@@V?$allocator@D@2@@std@@QEAA@AEBV?$basic_string@DU?$char_traits@D@std@@V?$allocator@D@2@@1@H@Z
	??0?$basic_ostringstream@DU?$char_traits@D@std@@V?$allocator@D@2@@std@@QEAA@XZ
	??0?$basic_string@DU?$char_traits@D@std@@V?$allocator@D@2@@std@@QEAA@$$QEAV01@@Z
	??0?$basic_string@DU?$char_traits@D@std@@V?$allocator@D@2@@std@@QEAA@AEBV01@@Z
	??0?$basic_string@DU?$char_traits@D@std@@V?$allocator@D@2@@std@@QEAA@AEBV?$allocator@D@1@@Z
	??0?$basic_string@DU?$char_traits@D@std@@V?$allocator@D@2@@std@@QEAA@QEBD@Z
	??0?$basic_string@DU?$char_traits@D@std@@V?$allocator@D@2@@std@@QEAA@XZ
	??0?$basic_stringbuf@DU?$char_traits@D@std@@V?$allocator@D@2@@std@@QEAA@AEBV?$basic_string@DU?$char_traits@D@std@@V?$allocator@D@2@@1@H@Z
	??0?$basic_stringbuf@DU?$char_traits@D@std@@V?$allocator@D@2@@std@@QEAA@H@Z
	??0?$binary_evaluator@V?$CwiseBinaryOp@U?$scalar_difference_op@NN@internal@Eigen@@$$CBV?$Matrix@N$02$00$0A@$02$00@3@$$CBV?$CwiseBinaryOp@U?$scalar_product_op@NN@internal@Eigen@@$$CBV?$Matrix@N$02$00$0A@$02$00@3@$$CBV?$CwiseNullaryOp@U?$scalar_constant_op@N@internal@Eigen@@$$CBV?$Matrix@N$02$00$0A@$02$00@3@@3@@3@@Eigen@@UIndexBased@internal@2@U342@NN@internal@Eigen@@QEAA@AEBV?$CwiseBinaryOp@U?$scalar_difference_op@NN@internal@Eigen@@$$CBV?$Matrix@N$02$00$0A@$02$00@3@$$CBV?$CwiseBinaryOp@U?$scalar_product_op@NN@internal@Eigen@@$$CBV?$Matrix@N$02$00$0A@$02$00@3@$$CBV?$CwiseNullaryOp@U?$scalar_constant_op@N@internal@Eigen@@$$CBV?$Matrix@N$02$00$0A@$02$00@3@@3@@3@@2@@Z
	??0?$binary_evaluator@V?$CwiseBinaryOp@U?$scalar_difference_op@NN@internal@Eigen@@$$CBV?$Matrix@N$03$00$0A@$03$00@3@$$CBV43@@Eigen@@UIndexBased@internal@2@U342@NN@internal@Eigen@@QEAA@AEBV?$CwiseBinaryOp@U?$scalar_difference_op@NN@internal@Eigen@@$$CBV?$Matrix@N$03$00$0A@$03$00@3@$$CBV43@@2@@Z
	??0?$binary_evaluator@V?$CwiseBinaryOp@U?$scalar_product_op@NN@internal@Eigen@@$$CBV?$CwiseNullaryOp@U?$scalar_constant_op@N@internal@Eigen@@$$CBV?$Matrix@N$03$00$0A@$03$00@3@@3@$$CBV?$Matrix@N$03$00$0A@$03$00@3@@Eigen@@UIndexBased@internal@2@U342@NN@internal@Eigen@@QEAA@AEBV?$CwiseBinaryOp@U?$scalar_product_op@NN@internal@Eigen@@$$CBV?$CwiseNullaryOp@U?$scalar_constant_op@N@internal@Eigen@@$$CBV?$Matrix@N$03$00$0A@$03$00@3@@3@$$CBV?$Matrix@N$03$00$0A@$03$00@3@@2@@Z
	??0?$binary_evaluator@V?$CwiseBinaryOp@U?$scalar_product_op@NN@internal@Eigen@@$$CBV?$Matrix@N$02$00$0A@$02$00@3@$$CBV?$CwiseNullaryOp@U?$scalar_constant_op@N@internal@Eigen@@$$CBV?$Matrix@N$02$00$0A@$02$00@3@@3@@Eigen@@UIndexBased@internal@2@U342@NN@internal@Eigen@@QEAA@AEBV?$CwiseBinaryOp@U?$scalar_product_op@NN@internal@Eigen@@$$CBV?$Matrix@N$02$00$0A@$02$00@3@$$CBV?$CwiseNullaryOp@U?$scalar_constant_op@N@internal@Eigen@@$$CBV?$Matrix@N$02$00$0A@$02$00@3@@3@@2@@Z
	??0?$binary_evaluator@V?$CwiseBinaryOp@U?$scalar_product_op@NN@internal@Eigen@@$$CBV?$Transpose@$$CBV?$Block@$$CBV?$Block@$$CBV?$Matrix@N$02$02$0A@$02$02@Eigen@@$02$0?0$00@Eigen@@$00$0?0$0A@@Eigen@@@3@$$CBV?$Block@$$CBV?$Matrix@N$0?0$00$0A@$02$00@Eigen@@$0?0$00$00@3@@Eigen@@UIndexBased@internal@2@U342@NN@internal@Eigen@@QEAA@AEBV?$CwiseBinaryOp@U?$scalar_product_op@NN@internal@Eigen@@$$CBV?$Transpose@$$CBV?$Block@$$CBV?$Block@$$CBV?$Matrix@N$02$02$0A@$02$02@Eigen@@$02$0?0$00@Eigen@@$00$0?0$0A@@Eigen@@@3@$$CBV?$Block@$$CBV?$Matrix@N$0?0$00$0A@$02$00@Eigen@@$0?0$00$00@3@@2@@Z
	??0?$binary_evaluator@V?$CwiseBinaryOp@U?$scalar_product_op@NN@internal@Eigen@@$$CBV?$Transpose@$$CBV?$Block@$$CBV?$Matrix@N$02$00$0A@$02$00@Eigen@@$00$00$0A@@Eigen@@@3@$$CBV?$Block@$$CBV?$Transpose@V?$Matrix@N$02$00$0A@$02$00@Eigen@@@Eigen@@$00$00$0A@@3@@Eigen@@UIndexBased@internal@2@U342@NN@internal@Eigen@@QEAA@AEBV?$CwiseBinaryOp@U?$scalar_product_op@NN@internal@Eigen@@$$CBV?$Transpose@$$CBV?$Block@$$CBV?$Matrix@N$02$00$0A@$02$00@Eigen@@$00$00$0A@@Eigen@@@3@$$CBV?$Block@$$CBV?$Transpose@V?$Matrix@N$02$00$0A@$02$00@Eigen@@@Eigen@@$00$00$0A@@3@@2@@Z
	??0?$binary_evaluator@V?$CwiseBinaryOp@U?$scalar_product_op@NN@internal@Eigen@@$$CBV?$Transpose@$$CBV?$Block@$$CBV?$Matrix@N$02$03$00$02$03@Eigen@@$00$03$00@Eigen@@@3@$$CBV?$Block@$$CBV?$Matrix@N$03$00$0A@$03$00@Eigen@@$03$00$00@3@@Eigen@@UIndexBased@internal@2@U342@NN@internal@Eigen@@QEAA@AEBV?$CwiseBinaryOp@U?$scalar_product_op@NN@internal@Eigen@@$$CBV?$Transpose@$$CBV?$Block@$$CBV?$Matrix@N$02$03$00$02$03@Eigen@@$00$03$00@Eigen@@@3@$$CBV?$Block@$$CBV?$Matrix@N$03$00$0A@$03$00@Eigen@@$03$00$00@3@@2@@Z
	??0?$binary_evaluator@V?$CwiseBinaryOp@U?$scalar_product_op@NN@internal@Eigen@@$$CBV?$Transpose@$$CBV?$Block@$$CBV?$Matrix@N$02$03$0A@$02$03@Eigen@@$00$03$0A@@Eigen@@@3@$$CBV?$Block@$$CBV?$Matrix@N$03$00$0A@$03$00@Eigen@@$03$00$00@3@@Eigen@@UIndexBased@internal@2@U342@NN@internal@Eigen@@QEAA@AEBV?$CwiseBinaryOp@U?$scalar_product_op@NN@internal@Eigen@@$$CBV?$Transpose@$$CBV?$Block@$$CBV?$Matrix@N$02$03$0A@$02$03@Eigen@@$00$03$0A@@Eigen@@@3@$$CBV?$Block@$$CBV?$Matrix@N$03$00$0A@$03$00@Eigen@@$03$00$00@3@@2@@Z
	??0?$binary_evaluator@V?$CwiseBinaryOp@U?$scalar_product_op@NN@internal@Eigen@@$$CBV?$Transpose@$$CBV?$Block@$$CBV?$Matrix@N$02$03$0A@$02$03@Eigen@@$00$03$0A@@Eigen@@@3@$$CBV?$Block@$$CBV?$Matrix@N$03$02$0A@$03$02@Eigen@@$03$00$00@3@@Eigen@@UIndexBased@internal@2@U342@NN@internal@Eigen@@QEAA@AEBV?$CwiseBinaryOp@U?$scalar_product_op@NN@internal@Eigen@@$$CBV?$Transpose@$$CBV?$Block@$$CBV?$Matrix@N$02$03$0A@$02$03@Eigen@@$00$03$0A@@Eigen@@@3@$$CBV?$Block@$$CBV?$Matrix@N$03$02$0A@$03$02@Eigen@@$03$00$00@3@@2@@Z
	??0?$binary_evaluator@V?$CwiseBinaryOp@U?$scalar_product_op@NN@internal@Eigen@@$$CBV?$Transpose@$$CBV?$Block@$$CBV?$Matrix@N$02$03$0A@$02$03@Eigen@@$00$03$0A@@Eigen@@@3@$$CBV?$Block@$$CBV?$Matrix@N$03$03$0A@$03$03@Eigen@@$03$00$00@3@@Eigen@@UIndexBased@internal@2@U342@NN@internal@Eigen@@QEAA@AEBV?$CwiseBinaryOp@U?$scalar_product_op@NN@internal@Eigen@@$$CBV?$Transpose@$$CBV?$Block@$$CBV?$Matrix@N$02$03$0A@$02$03@Eigen@@$00$03$0A@@Eigen@@@3@$$CBV?$Block@$$CBV?$Matrix@N$03$03$0A@$03$03@Eigen@@$03$00$00@3@@2@@Z
	??0?$binary_evaluator@V?$CwiseBinaryOp@U?$scalar_product_op@NN@internal@Eigen@@$$CBV?$Transpose@$$CBV?$Block@$$CBV?$Transpose@$$CBV?$Block@$$CBV?$Matrix@N$02$02$0A@$02$02@Eigen@@$02$0?0$00@Eigen@@@Eigen@@$00$02$00@Eigen@@@3@$$CBV?$Block@$$CBV?$Matrix@N$02$00$0A@$02$00@Eigen@@$02$00$00@3@@Eigen@@UIndexBased@internal@2@U342@NN@internal@Eigen@@QEAA@AEBV?$CwiseBinaryOp@U?$scalar_product_op@NN@internal@Eigen@@$$CBV?$Transpose@$$CBV?$Block@$$CBV?$Transpose@$$CBV?$Block@$$CBV?$Matrix@N$02$02$0A@$02$02@Eigen@@$02$0?0$00@Eigen@@@Eigen@@$00$02$00@Eigen@@@3@$$CBV?$Block@$$CBV?$Matrix@N$02$00$0A@$02$00@Eigen@@$02$00$00@3@@2@@Z
	??0?$binary_evaluator@V?$CwiseBinaryOp@U?$scalar_product_op@NN@internal@Eigen@@$$CBV?$Transpose@$$CBV?$Block@$$CBV?$Transpose@$$CBV?$Matrix@N$02$03$0A@$02$03@Eigen@@@Eigen@@$00$02$00@Eigen@@@3@$$CBV?$Block@$$CBV?$Matrix@N$02$00$0A@$02$00@Eigen@@$02$00$00@3@@Eigen@@UIndexBased@internal@2@U342@NN@internal@Eigen@@QEAA@AEBV?$CwiseBinaryOp@U?$scalar_product_op@NN@internal@Eigen@@$$CBV?$Transpose@$$CBV?$Block@$$CBV?$Transpose@$$CBV?$Matrix@N$02$03$0A@$02$03@Eigen@@@Eigen@@$00$02$00@Eigen@@@3@$$CBV?$Block@$$CBV?$Matrix@N$02$00$0A@$02$00@Eigen@@$02$00$00@3@@2@@Z
	??0?$binary_evaluator@V?$CwiseBinaryOp@U?$scalar_quotient_op@NN@internal@Eigen@@$$CBV?$Block@$$CBV?$Matrix@N$02$02$0A@$02$02@Eigen@@$02$02$0A@@3@$$CBV?$CwiseNullaryOp@U?$scalar_constant_op@N@internal@Eigen@@$$CBV?$Matrix@N$02$02$0A@$02$02@3@@3@@Eigen@@UIndexBased@internal@2@U342@NN@internal@Eigen@@QEAA@AEBV?$CwiseBinaryOp@U?$scalar_quotient_op@NN@internal@Eigen@@$$CBV?$Block@$$CBV?$Matrix@N$02$02$0A@$02$02@Eigen@@$02$02$0A@@3@$$CBV?$CwiseNullaryOp@U?$scalar_constant_op@N@internal@Eigen@@$$CBV?$Matrix@N$02$02$0A@$02$02@3@@3@@2@@Z
	??0?$binary_evaluator@V?$CwiseBinaryOp@U?$scalar_quotient_op@NN@internal@Eigen@@$$CBV?$Block@$$CBV?$Matrix@N$02$03$0A@$02$03@Eigen@@$00$02$0A@@3@$$CBV?$CwiseNullaryOp@U?$scalar_constant_op@N@internal@Eigen@@$$CBV?$Matrix@N$00$02$00$00$02@3@@3@@Eigen@@UIndexBased@internal@2@U342@NN@internal@Eigen@@QEAA@AEBV?$CwiseBinaryOp@U?$scalar_quotient_op@NN@internal@Eigen@@$$CBV?$Block@$$CBV?$Matrix@N$02$03$0A@$02$03@Eigen@@$00$02$0A@@3@$$CBV?$CwiseNullaryOp@U?$scalar_constant_op@N@internal@Eigen@@$$CBV?$Matrix@N$00$02$00$00$02@3@@3@@2@@Z
	??0?$binary_evaluator@V?$CwiseBinaryOp@U?$scalar_quotient_op@NN@internal@Eigen@@$$CBV?$Matrix@N$02$00$0A@$02$00@3@$$CBV?$CwiseNullaryOp@U?$scalar_constant_op@N@internal@Eigen@@$$CBV?$Matrix@N$02$00$0A@$02$00@3@@3@@Eigen@@UIndexBased@internal@2@U342@NN@internal@Eigen@@QEAA@AEBV?$CwiseBinaryOp@U?$scalar_quotient_op@NN@internal@Eigen@@$$CBV?$Matrix@N$02$00$0A@$02$00@3@$$CBV?$CwiseNullaryOp@U?$scalar_constant_op@N@internal@Eigen@@$$CBV?$Matrix@N$02$00$0A@$02$00@3@@3@@2@@Z
	??0?$binary_evaluator@V?$CwiseBinaryOp@U?$scalar_sum_op@NN@internal@Eigen@@$$CBV?$CwiseBinaryOp@U?$scalar_product_op@NN@internal@Eigen@@$$CBV?$CwiseNullaryOp@U?$scalar_constant_op@N@internal@Eigen@@$$CBV?$Matrix@N$03$00$0A@$03$00@3@@3@$$CBV?$Matrix@N$03$00$0A@$03$00@3@@3@$$CBV43@@Eigen@@UIndexBased@internal@2@U342@NN@internal@Eigen@@QEAA@AEBV?$CwiseBinaryOp@U?$scalar_sum_op@NN@internal@Eigen@@$$CBV?$CwiseBinaryOp@U?$scalar_product_op@NN@internal@Eigen@@$$CBV?$CwiseNullaryOp@U?$scalar_constant_op@N@internal@Eigen@@$$CBV?$Matrix@N$03$00$0A@$03$00@3@@3@$$CBV?$Matrix@N$03$00$0A@$03$00@3@@3@$$CBV43@@2@@Z
	??0?$block_evaluator@$$CBV?$Block@$$CBV?$Matrix@N$02$02$0A@$02$02@Eigen@@$02$0?0$00@Eigen@@$00$0?0$0A@$00@internal@Eigen@@QEAA@AEBV?$Block@$$CBV?$Block@$$CBV?$Matrix@N$02$02$0A@$02$02@Eigen@@$02$0?0$00@Eigen@@$00$0?0$0A@@2@@Z
	??0?$block_evaluator@$$CBV?$Matrix@N$02$00$0A@$02$00@Eigen@@$00$00$0A@$00@internal@Eigen@@QEAA@AEBV?$Block@$$CBV?$Matrix@N$02$00$0A@$02$00@Eigen@@$00$00$0A@@2@@Z
	??0?$block_evaluator@$$CBV?$Matrix@N$02$00$0A@$02$00@Eigen@@$02$00$00$00@internal@Eigen@@QEAA@AEBV?$Block@$$CBV?$Matrix@N$02$00$0A@$02$00@Eigen@@$02$00$00@2@@Z
	??0?$block_evaluator@$$CBV?$Matrix@N$02$00$0A@$02$00@Eigen@@$0?0$00$0A@$00@internal@Eigen@@QEAA@AEBV?$Block@$$CBV?$Matrix@N$02$00$0A@$02$00@Eigen@@$0?0$00$0A@@2@@Z
	??0?$block_evaluator@$$CBV?$Matrix@N$02$02$0A@$02$02@Eigen@@$02$02$0A@$00@internal@Eigen@@QEAA@AEBV?$Block@$$CBV?$Matrix@N$02$02$0A@$02$02@Eigen@@$02$02$0A@@2@@Z
	??0?$block_evaluator@$$CBV?$Matrix@N$02$02$0A@$02$02@Eigen@@$02$0?0$00$00@internal@Eigen@@QEAA@AEBV?$Block@$$CBV?$Matrix@N$02$02$0A@$02$02@Eigen@@$02$0?0$00@2@@Z
	??0?$block_evaluator@$$CBV?$Matrix@N$02$03$00$02$03@Eigen@@$00$03$00$00@internal@Eigen@@QEAA@AEBV?$Block@$$CBV?$Matrix@N$02$03$00$02$03@Eigen@@$00$03$00@2@@Z
	??0?$block_evaluator@$$CBV?$Matrix@N$02$03$0A@$02$03@Eigen@@$00$02$0A@$00@internal@Eigen@@QEAA@AEBV?$Block@$$CBV?$Matrix@N$02$03$0A@$02$03@Eigen@@$00$02$0A@@2@@Z
	??0?$block_evaluator@$$CBV?$Matrix@N$02$03$0A@$02$03@Eigen@@$00$03$0A@$00@internal@Eigen@@QEAA@AEBV?$Block@$$CBV?$Matrix@N$02$03$0A@$02$03@Eigen@@$00$03$0A@@2@@Z
	??0?$block_evaluator@$$CBV?$Matrix@N$03$00$0A@$03$00@Eigen@@$03$00$00$00@internal@Eigen@@QEAA@AEBV?$Block@$$CBV?$Matrix@N$03$00$0A@$03$00@Eigen@@$03$00$00@2@@Z
	??0?$block_evaluator@$$CBV?$Matrix@N$03$02$0A@$03$02@Eigen@@$03$00$00$00@internal@Eigen@@QEAA@AEBV?$Block@$$CBV?$Matrix@N$03$02$0A@$03$02@Eigen@@$03$00$00@2@@Z
	??0?$block_evaluator@$$CBV?$Matrix@N$03$03$0A@$03$03@Eigen@@$03$00$00$00@internal@Eigen@@QEAA@AEBV?$Block@$$CBV?$Matrix@N$03$03$0A@$03$03@Eigen@@$03$00$00@2@@Z
	??0?$block_evaluator@$$CBV?$Matrix@N$0?0$00$0A@$02$00@Eigen@@$0?0$00$00$00@internal@Eigen@@QEAA@AEBV?$Block@$$CBV?$Matrix@N$0?0$00$0A@$02$00@Eigen@@$0?0$00$00@2@@Z
	??0?$block_evaluator@$$CBV?$Transpose@$$CBV?$Block@$$CBV?$Matrix@N$02$02$0A@$02$02@Eigen@@$02$0?0$00@Eigen@@@Eigen@@$00$02$00$00@internal@Eigen@@QEAA@AEBV?$Block@$$CBV?$Transpose@$$CBV?$Block@$$CBV?$Matrix@N$02$02$0A@$02$02@Eigen@@$02$0?0$00@Eigen@@@Eigen@@$00$02$00@2@@Z
	??0?$block_evaluator@$$CBV?$Transpose@$$CBV?$Matrix@N$02$03$0A@$02$03@Eigen@@@Eigen@@$00$02$00$00@internal@Eigen@@QEAA@AEBV?$Block@$$CBV?$Transpose@$$CBV?$Matrix@N$02$03$0A@$02$03@Eigen@@@Eigen@@$00$02$00@2@@Z
	??0?$block_evaluator@$$CBV?$Transpose@V?$Matrix@N$02$00$0A@$02$00@Eigen@@@Eigen@@$00$00$0A@$00@internal@Eigen@@QEAA@AEBV?$Block@$$CBV?$Transpose@V?$Matrix@N$02$00$0A@$02$00@Eigen@@@Eigen@@$00$00$0A@@2@@Z
	??0?$block_evaluator@V?$Matrix@N$02$00$0A@$02$00@Eigen@@$0?0$00$0A@$00@internal@Eigen@@QEAA@AEBV?$Block@V?$Matrix@N$02$00$0A@$02$00@Eigen@@$0?0$00$0A@@2@@Z
	??0?$block_evaluator@V?$Matrix@N$02$02$0A@$02$02@Eigen@@$02$00$00$00@internal@Eigen@@QEAA@AEBV?$Block@V?$Matrix@N$02$02$0A@$02$02@Eigen@@$02$00$00@2@@Z
	??0?$block_evaluator@V?$Matrix@N$02$03$0A@$02$03@Eigen@@$00$02$0A@$00@internal@Eigen@@QEAA@AEBV?$Block@V?$Matrix@N$02$03$0A@$02$03@Eigen@@$00$02$0A@@2@@Z
	??0?$block_evaluator@V?$Matrix@N$03$00$0A@$03$00@Eigen@@$02$00$0A@$00@internal@Eigen@@QEAA@AEBV?$Block@V?$Matrix@N$03$00$0A@$03$00@Eigen@@$02$00$0A@@2@@Z
	??0?$block_evaluator@V?$Matrix@N$03$00$0A@$03$00@Eigen@@$0?0$00$0A@$00@internal@Eigen@@QEAA@AEBV?$Block@V?$Matrix@N$03$00$0A@$03$00@Eigen@@$0?0$00$0A@@2@@Z
	??0?$diagonal_product_evaluator_base@V?$Matrix@N$0?0$00$0A@$02$00@Eigen@@$$CBV?$CwiseUnaryOp@U?$scalar_inverse_op@N@internal@Eigen@@$$CBV?$Block@$$CBV?$Matrix@N$02$00$0A@$02$00@Eigen@@$0?0$00$0A@@3@@2@V?$Product@V?$DiagonalWrapper@$$CBV?$CwiseUnaryOp@U?$scalar_inverse_op@N@internal@Eigen@@$$CBV?$Block@$$CBV?$Matrix@N$02$00$0A@$02$00@Eigen@@$0?0$00$0A@@3@@Eigen@@@Eigen@@V?$Matrix@N$0?0$00$0A@$02$00@2@$00@2@$00@internal@Eigen@@QEAA@AEBV?$Matrix@N$0?0$00$0A@$02$00@2@AEBV?$CwiseUnaryOp@U?$scalar_inverse_op@N@internal@Eigen@@$$CBV?$Block@$$CBV?$Matrix@N$02$00$0A@$02$00@Eigen@@$0?0$00$0A@@3@@2@@Z
	??0?$evaluator@$$CBV?$Block@$$CBV?$Block@$$CBV?$Matrix@N$02$02$0A@$02$02@Eigen@@$02$0?0$00@Eigen@@$00$0?0$0A@@Eigen@@@internal@Eigen@@QEAA@AEBV?$Block@$$CBV?$Block@$$CBV?$Matrix@N$02$02$0A@$02$02@Eigen@@$02$0?0$00@Eigen@@$00$0?0$0A@@2@@Z
	??0?$evaluator@$$CBV?$Block@$$CBV?$Matrix@N$02$00$0A@$02$00@Eigen@@$00$00$0A@@Eigen@@@internal@Eigen@@QEAA@AEBV?$Block@$$CBV?$Matrix@N$02$00$0A@$02$00@Eigen@@$00$00$0A@@2@@Z
	??0?$evaluator@$$CBV?$Block@$$CBV?$Matrix@N$02$00$0A@$02$00@Eigen@@$02$00$00@Eigen@@@internal@Eigen@@QEAA@AEBV?$Block@$$CBV?$Matrix@N$02$00$0A@$02$00@Eigen@@$02$00$00@2@@Z
	??0?$evaluator@$$CBV?$Block@$$CBV?$Matrix@N$02$00$0A@$02$00@Eigen@@$0?0$00$0A@@Eigen@@@internal@Eigen@@QEAA@AEBV?$Block@$$CBV?$Matrix@N$02$00$0A@$02$00@Eigen@@$0?0$00$0A@@2@@Z
	??0?$evaluator@$$CBV?$Block@$$CBV?$Matrix@N$02$02$0A@$02$02@Eigen@@$02$02$0A@@Eigen@@@internal@Eigen@@QEAA@AEBV?$Block@$$CBV?$Matrix@N$02$02$0A@$02$02@Eigen@@$02$02$0A@@2@@Z
	??0?$evaluator@$$CBV?$Block@$$CBV?$Matrix@N$02$02$0A@$02$02@Eigen@@$02$0?0$00@Eigen@@@internal@Eigen@@QEAA@AEBV?$Block@$$CBV?$Matrix@N$02$02$0A@$02$02@Eigen@@$02$0?0$00@2@@Z
	??0?$evaluator@$$CBV?$Block@$$CBV?$Matrix@N$02$03$00$02$03@Eigen@@$00$03$00@Eigen@@@internal@Eigen@@QEAA@AEBV?$Block@$$CBV?$Matrix@N$02$03$00$02$03@Eigen@@$00$03$00@2@@Z
	??0?$evaluator@$$CBV?$Block@$$CBV?$Matrix@N$02$03$0A@$02$03@Eigen@@$00$02$0A@@Eigen@@@internal@Eigen@@QEAA@AEBV?$Block@$$CBV?$Matrix@N$02$03$0A@$02$03@Eigen@@$00$02$0A@@2@@Z
	??0?$evaluator@$$CBV?$Block@$$CBV?$Matrix@N$02$03$0A@$02$03@Eigen@@$00$03$0A@@Eigen@@@internal@Eigen@@QEAA@AEBV?$Block@$$CBV?$Matrix@N$02$03$0A@$02$03@Eigen@@$00$03$0A@@2@@Z
	??0?$evaluator@$$CBV?$Block@$$CBV?$Matrix@N$03$00$0A@$03$00@Eigen@@$03$00$00@Eigen@@@internal@Eigen@@QEAA@AEBV?$Block@$$CBV?$Matrix@N$03$00$0A@$03$00@Eigen@@$03$00$00@2@@Z
	??0?$evaluator@$$CBV?$Block@$$CBV?$Matrix@N$03$02$0A@$03$02@Eigen@@$03$00$00@Eigen@@@internal@Eigen@@QEAA@AEBV?$Block@$$CBV?$Matrix@N$03$02$0A@$03$02@Eigen@@$03$00$00@2@@Z
	??0?$evaluator@$$CBV?$Block@$$CBV?$Matrix@N$03$03$0A@$03$03@Eigen@@$03$00$00@Eigen@@@internal@Eigen@@QEAA@AEBV?$Block@$$CBV?$Matrix@N$03$03$0A@$03$03@Eigen@@$03$00$00@2@@Z
	??0?$evaluator@$$CBV?$Block@$$CBV?$Matrix@N$0?0$00$0A@$02$00@Eigen@@$0?0$00$00@Eigen@@@internal@Eigen@@QEAA@AEBV?$Block@$$CBV?$Matrix@N$0?0$00$0A@$02$00@Eigen@@$0?0$00$00@2@@Z
	??0?$evaluator@$$CBV?$Block@$$CBV?$Transpose@$$CBV?$Block@$$CBV?$Matrix@N$02$02$0A@$02$02@Eigen@@$02$0?0$00@Eigen@@@Eigen@@$00$02$00@Eigen@@@internal@Eigen@@QEAA@AEBV?$Block@$$CBV?$Transpose@$$CBV?$Block@$$CBV?$Matrix@N$02$02$0A@$02$02@Eigen@@$02$0?0$00@Eigen@@@Eigen@@$00$02$00@2@@Z
	??0?$evaluator@$$CBV?$Block@$$CBV?$Transpose@$$CBV?$Matrix@N$02$03$0A@$02$03@Eigen@@@Eigen@@$00$02$00@Eigen@@@internal@Eigen@@QEAA@AEBV?$Block@$$CBV?$Transpose@$$CBV?$Matrix@N$02$03$0A@$02$03@Eigen@@@Eigen@@$00$02$00@2@@Z
	??0?$evaluator@$$CBV?$Block@$$CBV?$Transpose@V?$Matrix@N$02$00$0A@$02$00@Eigen@@@Eigen@@$00$00$0A@@Eigen@@@internal@Eigen@@QEAA@AEBV?$Block@$$CBV?$Transpose@V?$Matrix@N$02$00$0A@$02$00@Eigen@@@Eigen@@$00$00$0A@@2@@Z
	??0?$evaluator@$$CBV?$Block@V?$Matrix@N$02$00$0A@$02$00@Eigen@@$0?0$00$0A@@Eigen@@@internal@Eigen@@QEAA@AEBV?$Block@V?$Matrix@N$02$00$0A@$02$00@Eigen@@$0?0$00$0A@@2@@Z
	??0?$evaluator@$$CBV?$Block@V?$Matrix@N$02$02$0A@$02$02@Eigen@@$02$00$00@Eigen@@@internal@Eigen@@QEAA@AEBV?$Block@V?$Matrix@N$02$02$0A@$02$02@Eigen@@$02$00$00@2@@Z
	??0?$evaluator@$$CBV?$Block@V?$Matrix@N$03$00$0A@$03$00@Eigen@@$0?0$00$0A@@Eigen@@@internal@Eigen@@QEAA@AEBV?$Block@V?$Matrix@N$03$00$0A@$03$00@Eigen@@$0?0$00$0A@@2@@Z
	??0?$evaluator@$$CBV?$CwiseBinaryOp@U?$scalar_difference_op@NN@internal@Eigen@@$$CBV?$Matrix@N$03$00$0A@$03$00@3@$$CBV43@@Eigen@@@internal@Eigen@@QEAA@AEBV?$CwiseBinaryOp@U?$scalar_difference_op@NN@internal@Eigen@@$$CBV?$Matrix@N$03$00$0A@$03$00@3@$$CBV43@@2@@Z
	??0?$evaluator@$$CBV?$CwiseBinaryOp@U?$scalar_product_op@NN@internal@Eigen@@$$CBV?$CwiseNullaryOp@U?$scalar_constant_op@N@internal@Eigen@@$$CBV?$Matrix@N$03$00$0A@$03$00@3@@3@$$CBV?$Matrix@N$03$00$0A@$03$00@3@@Eigen@@@internal@Eigen@@QEAA@AEBV?$CwiseBinaryOp@U?$scalar_product_op@NN@internal@Eigen@@$$CBV?$CwiseNullaryOp@U?$scalar_constant_op@N@internal@Eigen@@$$CBV?$Matrix@N$03$00$0A@$03$00@3@@3@$$CBV?$Matrix@N$03$00$0A@$03$00@3@@2@@Z
	??0?$evaluator@$$CBV?$CwiseBinaryOp@U?$scalar_product_op@NN@internal@Eigen@@$$CBV?$Matrix@N$02$00$0A@$02$00@3@$$CBV?$CwiseNullaryOp@U?$scalar_constant_op@N@internal@Eigen@@$$CBV?$Matrix@N$02$00$0A@$02$00@3@@3@@Eigen@@@internal@Eigen@@QEAA@AEBV?$CwiseBinaryOp@U?$scalar_product_op@NN@internal@Eigen@@$$CBV?$Matrix@N$02$00$0A@$02$00@3@$$CBV?$CwiseNullaryOp@U?$scalar_constant_op@N@internal@Eigen@@$$CBV?$Matrix@N$02$00$0A@$02$00@3@@3@@2@@Z
	??0?$evaluator@$$CBV?$CwiseNullaryOp@U?$scalar_constant_op@N@internal@Eigen@@$$CBV?$Matrix@N$00$02$00$00$02@3@@Eigen@@@internal@Eigen@@QEAA@AEBV?$CwiseNullaryOp@U?$scalar_constant_op@N@internal@Eigen@@$$CBV?$Matrix@N$00$02$00$00$02@3@@2@@Z
	??0?$evaluator@$$CBV?$CwiseNullaryOp@U?$scalar_constant_op@N@internal@Eigen@@$$CBV?$Matrix@N$02$00$0A@$02$00@3@@Eigen@@@internal@Eigen@@QEAA@AEBV?$CwiseNullaryOp@U?$scalar_constant_op@N@internal@Eigen@@$$CBV?$Matrix@N$02$00$0A@$02$00@3@@2@@Z
	??0?$evaluator@$$CBV?$CwiseNullaryOp@U?$scalar_constant_op@N@internal@Eigen@@$$CBV?$Matrix@N$02$02$0A@$02$02@3@@Eigen@@@internal@Eigen@@QEAA@AEBV?$CwiseNullaryOp@U?$scalar_constant_op@N@internal@Eigen@@$$CBV?$Matrix@N$02$02$0A@$02$02@3@@2@@Z
	??0?$evaluator@$$CBV?$CwiseNullaryOp@U?$scalar_constant_op@N@internal@Eigen@@$$CBV?$Matrix@N$03$00$0A@$03$00@3@@Eigen@@@internal@Eigen@@QEAA@AEBV?$CwiseNullaryOp@U?$scalar_constant_op@N@internal@Eigen@@$$CBV?$Matrix@N$03$00$0A@$03$00@3@@2@@Z
	??0?$evaluator@$$CBV?$CwiseUnaryOp@U?$scalar_abs_op@N@internal@Eigen@@$$CBV?$Matrix@N$02$02$0A@$02$02@3@@Eigen@@@internal@Eigen@@QEAA@AEBV?$CwiseUnaryOp@U?$scalar_abs_op@N@internal@Eigen@@$$CBV?$Matrix@N$02$02$0A@$02$02@3@@2@@Z
	??0?$evaluator@$$CBV?$CwiseUnaryOp@U?$scalar_inverse_op@N@internal@Eigen@@$$CBV?$Block@$$CBV?$Matrix@N$02$00$0A@$02$00@Eigen@@$0?0$00$0A@@3@@Eigen@@@internal@Eigen@@QEAA@AEBV?$CwiseUnaryOp@U?$scalar_inverse_op@N@internal@Eigen@@$$CBV?$Block@$$CBV?$Matrix@N$02$00$0A@$02$00@Eigen@@$0?0$00$0A@@3@@2@@Z
	??0?$evaluator@$$CBV?$Matrix@M$02$00$0A@$02$00@Eigen@@@internal@Eigen@@QEAA@AEBV?$Matrix@M$02$00$0A@$02$00@2@@Z
	??0?$evaluator@$$CBV?$Matrix@N$02$00$0A@$02$00@Eigen@@@internal@Eigen@@QEAA@AEBV?$Matrix@N$02$00$0A@$02$00@2@@Z
	??0?$evaluator@$$CBV?$Matrix@N$02$02$0A@$02$02@Eigen@@@internal@Eigen@@QEAA@AEBV?$Matrix@N$02$02$0A@$02$02@2@@Z
	??0?$evaluator@$$CBV?$Matrix@N$02$03$0A@$02$03@Eigen@@@internal@Eigen@@QEAA@AEBV?$Matrix@N$02$03$0A@$02$03@2@@Z
	??0?$evaluator@$$CBV?$Matrix@N$03$00$0A@$03$00@Eigen@@@internal@Eigen@@QEAA@AEBV?$Matrix@N$03$00$0A@$03$00@2@@Z
	??0?$evaluator@$$CBV?$Transpose@$$CBV?$Block@$$CBV?$Block@$$CBV?$Matrix@N$02$02$0A@$02$02@Eigen@@$02$0?0$00@Eigen@@$00$0?0$0A@@Eigen@@@Eigen@@@internal@Eigen@@QEAA@AEBV?$Transpose@$$CBV?$Block@$$CBV?$Block@$$CBV?$Matrix@N$02$02$0A@$02$02@Eigen@@$02$0?0$00@Eigen@@$00$0?0$0A@@Eigen@@@2@@Z
	??0?$evaluator@$$CBV?$Transpose@$$CBV?$Block@$$CBV?$Matrix@N$02$00$0A@$02$00@Eigen@@$00$00$0A@@Eigen@@@Eigen@@@internal@Eigen@@QEAA@AEBV?$Transpose@$$CBV?$Block@$$CBV?$Matrix@N$02$00$0A@$02$00@Eigen@@$00$00$0A@@Eigen@@@2@@Z
	??0?$evaluator@$$CBV?$Transpose@$$CBV?$Block@$$CBV?$Matrix@N$02$03$00$02$03@Eigen@@$00$03$00@Eigen@@@Eigen@@@internal@Eigen@@QEAA@AEBV?$Transpose@$$CBV?$Block@$$CBV?$Matrix@N$02$03$00$02$03@Eigen@@$00$03$00@Eigen@@@2@@Z
	??0?$evaluator@$$CBV?$Transpose@$$CBV?$Block@$$CBV?$Matrix@N$02$03$0A@$02$03@Eigen@@$00$03$0A@@Eigen@@@Eigen@@@internal@Eigen@@QEAA@AEBV?$Transpose@$$CBV?$Block@$$CBV?$Matrix@N$02$03$0A@$02$03@Eigen@@$00$03$0A@@Eigen@@@2@@Z
	??0?$evaluator@$$CBV?$Transpose@$$CBV?$Block@$$CBV?$Transpose@$$CBV?$Block@$$CBV?$Matrix@N$02$02$0A@$02$02@Eigen@@$02$0?0$00@Eigen@@@Eigen@@$00$02$00@Eigen@@@Eigen@@@internal@Eigen@@QEAA@AEBV?$Transpose@$$CBV?$Block@$$CBV?$Transpose@$$CBV?$Block@$$CBV?$Matrix@N$02$02$0A@$02$02@Eigen@@$02$0?0$00@Eigen@@@Eigen@@$00$02$00@Eigen@@@2@@Z
	??0?$evaluator@$$CBV?$Transpose@$$CBV?$Block@$$CBV?$Transpose@$$CBV?$Matrix@N$02$03$0A@$02$03@Eigen@@@Eigen@@$00$02$00@Eigen@@@Eigen@@@internal@Eigen@@QEAA@AEBV?$Transpose@$$CBV?$Block@$$CBV?$Transpose@$$CBV?$Matrix@N$02$03$0A@$02$03@Eigen@@@Eigen@@$00$02$00@Eigen@@@2@@Z
	??0?$evaluator@$$CBV?$Transpose@V?$Matrix@N$03$02$0A@$03$02@Eigen@@@Eigen@@@internal@Eigen@@QEAA@AEBV?$Transpose@V?$Matrix@N$03$02$0A@$03$02@Eigen@@@2@@Z
	??0?$evaluator@V?$Block@$$CBV?$Block@$$CBV?$Matrix@N$02$02$0A@$02$02@Eigen@@$02$0?0$00@Eigen@@$00$0?0$0A@@Eigen@@@internal@Eigen@@QEAA@AEBV?$Block@$$CBV?$Block@$$CBV?$Matrix@N$02$02$0A@$02$02@Eigen@@$02$0?0$00@Eigen@@$00$0?0$0A@@2@@Z
	??0?$evaluator@V?$Block@$$CBV?$Matrix@N$02$00$0A@$02$00@Eigen@@$00$00$0A@@Eigen@@@internal@Eigen@@QEAA@AEBV?$Block@$$CBV?$Matrix@N$02$00$0A@$02$00@Eigen@@$00$00$0A@@2@@Z
	??0?$evaluator@V?$Block@$$CBV?$Matrix@N$02$00$0A@$02$00@Eigen@@$02$00$00@Eigen@@@internal@Eigen@@QEAA@AEBV?$Block@$$CBV?$Matrix@N$02$00$0A@$02$00@Eigen@@$02$00$00@2@@Z
	??0?$evaluator@V?$Block@$$CBV?$Matrix@N$02$00$0A@$02$00@Eigen@@$0?0$00$0A@@Eigen@@@internal@Eigen@@QEAA@AEBV?$Block@$$CBV?$Matrix@N$02$00$0A@$02$00@Eigen@@$0?0$00$0A@@2@@Z
	??0?$evaluator@V?$Block@$$CBV?$Matrix@N$02$02$0A@$02$02@Eigen@@$02$02$0A@@Eigen@@@internal@Eigen@@QEAA@AEBV?$Block@$$CBV?$Matrix@N$02$02$0A@$02$02@Eigen@@$02$02$0A@@2@@Z
	??0?$evaluator@V?$Block@$$CBV?$Matrix@N$02$02$0A@$02$02@Eigen@@$02$0?0$00@Eigen@@@internal@Eigen@@QEAA@AEBV?$Block@$$CBV?$Matrix@N$02$02$0A@$02$02@Eigen@@$02$0?0$00@2@@Z
	??0?$evaluator@V?$Block@$$CBV?$Matrix@N$02$03$00$02$03@Eigen@@$00$03$00@Eigen@@@internal@Eigen@@QEAA@AEBV?$Block@$$CBV?$Matrix@N$02$03$00$02$03@Eigen@@$00$03$00@2@@Z
	??0?$evaluator@V?$Block@$$CBV?$Matrix@N$02$03$0A@$02$03@Eigen@@$00$02$0A@@Eigen@@@internal@Eigen@@QEAA@AEBV?$Block@$$CBV?$Matrix@N$02$03$0A@$02$03@Eigen@@$00$02$0A@@2@@Z
	??0?$evaluator@V?$Block@$$CBV?$Matrix@N$02$03$0A@$02$03@Eigen@@$00$03$0A@@Eigen@@@internal@Eigen@@QEAA@AEBV?$Block@$$CBV?$Matrix@N$02$03$0A@$02$03@Eigen@@$00$03$0A@@2@@Z
	??0?$evaluator@V?$Block@$$CBV?$Matrix@N$03$00$0A@$03$00@Eigen@@$03$00$00@Eigen@@@internal@Eigen@@QEAA@AEBV?$Block@$$CBV?$Matrix@N$03$00$0A@$03$00@Eigen@@$03$00$00@2@@Z
	??0?$evaluator@V?$Block@$$CBV?$Matrix@N$03$02$0A@$03$02@Eigen@@$03$00$00@Eigen@@@internal@Eigen@@QEAA@AEBV?$Block@$$CBV?$Matrix@N$03$02$0A@$03$02@Eigen@@$03$00$00@2@@Z
	??0?$evaluator@V?$Block@$$CBV?$Matrix@N$03$03$0A@$03$03@Eigen@@$03$00$00@Eigen@@@internal@Eigen@@QEAA@AEBV?$Block@$$CBV?$Matrix@N$03$03$0A@$03$03@Eigen@@$03$00$00@2@@Z
	??0?$evaluator@V?$Block@$$CBV?$Matrix@N$0?0$00$0A@$02$00@Eigen@@$0?0$00$00@Eigen@@@internal@Eigen@@QEAA@AEBV?$Block@$$CBV?$Matrix@N$0?0$00$0A@$02$00@Eigen@@$0?0$00$00@2@@Z
	??0?$evaluator@V?$Block@$$CBV?$Transpose@$$CBV?$Block@$$CBV?$Matrix@N$02$02$0A@$02$02@Eigen@@$02$0?0$00@Eigen@@@Eigen@@$00$02$00@Eigen@@@internal@Eigen@@QEAA@AEBV?$Block@$$CBV?$Transpose@$$CBV?$Block@$$CBV?$Matrix@N$02$02$0A@$02$02@Eigen@@$02$0?0$00@Eigen@@@Eigen@@$00$02$00@2@@Z
	??0?$evaluator@V?$Block@$$CBV?$Transpose@$$CBV?$Matrix@N$02$03$0A@$02$03@Eigen@@@Eigen@@$00$02$00@Eigen@@@internal@Eigen@@QEAA@AEBV?$Block@$$CBV?$Transpose@$$CBV?$Matrix@N$02$03$0A@$02$03@Eigen@@@Eigen@@$00$02$00@2@@Z
	??0?$evaluator@V?$Block@$$CBV?$Transpose@V?$Matrix@N$02$00$0A@$02$00@Eigen@@@Eigen@@$00$00$0A@@Eigen@@@internal@Eigen@@QEAA@AEBV?$Block@$$CBV?$Transpose@V?$Matrix@N$02$00$0A@$02$00@Eigen@@@Eigen@@$00$00$0A@@2@@Z
	??0?$evaluator@V?$Block@V?$Matrix@N$02$00$0A@$02$00@Eigen@@$0?0$00$0A@@Eigen@@@internal@Eigen@@QEAA@AEBV?$Block@V?$Matrix@N$02$00$0A@$02$00@Eigen@@$0?0$00$0A@@2@@Z
	??0?$evaluator@V?$Block@V?$Matrix@N$02$02$0A@$02$02@Eigen@@$02$00$00@Eigen@@@internal@Eigen@@QEAA@AEBV?$Block@V?$Matrix@N$02$02$0A@$02$02@Eigen@@$02$00$00@2@@Z
	??0?$evaluator@V?$Block@V?$Matrix@N$02$03$0A@$02$03@Eigen@@$00$02$0A@@Eigen@@@internal@Eigen@@QEAA@AEBV?$Block@V?$Matrix@N$02$03$0A@$02$03@Eigen@@$00$02$0A@@2@@Z
	??0?$evaluator@V?$Block@V?$Matrix@N$03$00$0A@$03$00@Eigen@@$02$00$0A@@Eigen@@@internal@Eigen@@QEAA@AEBV?$Block@V?$Matrix@N$03$00$0A@$03$00@Eigen@@$02$00$0A@@2@@Z
	??0?$evaluator@V?$Block@V?$Matrix@N$03$00$0A@$03$00@Eigen@@$0?0$00$0A@@Eigen@@@internal@Eigen@@QEAA@AEBV?$Block@V?$Matrix@N$03$00$0A@$03$00@Eigen@@$0?0$00$0A@@2@@Z
	??0?$evaluator@V?$CwiseBinaryOp@U?$scalar_difference_op@NN@internal@Eigen@@$$CBV?$Matrix@N$02$00$0A@$02$00@3@$$CBV?$CwiseBinaryOp@U?$scalar_product_op@NN@internal@Eigen@@$$CBV?$Matrix@N$02$00$0A@$02$00@3@$$CBV?$CwiseNullaryOp@U?$scalar_constant_op@N@internal@Eigen@@$$CBV?$Matrix@N$02$00$0A@$02$00@3@@3@@3@@Eigen@@@internal@Eigen@@QEAA@AEBV?$CwiseBinaryOp@U?$scalar_difference_op@NN@internal@Eigen@@$$CBV?$Matrix@N$02$00$0A@$02$00@3@$$CBV?$CwiseBinaryOp@U?$scalar_product_op@NN@internal@Eigen@@$$CBV?$Matrix@N$02$00$0A@$02$00@3@$$CBV?$CwiseNullaryOp@U?$scalar_constant_op@N@internal@Eigen@@$$CBV?$Matrix@N$02$00$0A@$02$00@3@@3@@3@@2@@Z
	??0?$evaluator@V?$CwiseBinaryOp@U?$scalar_difference_op@NN@internal@Eigen@@$$CBV?$Matrix@N$03$00$0A@$03$00@3@$$CBV43@@Eigen@@@internal@Eigen@@QEAA@AEBV?$CwiseBinaryOp@U?$scalar_difference_op@NN@internal@Eigen@@$$CBV?$Matrix@N$03$00$0A@$03$00@3@$$CBV43@@2@@Z
	??0?$evaluator@V?$CwiseBinaryOp@U?$scalar_product_op@NN@internal@Eigen@@$$CBV?$CwiseNullaryOp@U?$scalar_constant_op@N@internal@Eigen@@$$CBV?$Matrix@N$03$00$0A@$03$00@3@@3@$$CBV?$Matrix@N$03$00$0A@$03$00@3@@Eigen@@@internal@Eigen@@QEAA@AEBV?$CwiseBinaryOp@U?$scalar_product_op@NN@internal@Eigen@@$$CBV?$CwiseNullaryOp@U?$scalar_constant_op@N@internal@Eigen@@$$CBV?$Matrix@N$03$00$0A@$03$00@3@@3@$$CBV?$Matrix@N$03$00$0A@$03$00@3@@2@@Z
	??0?$evaluator@V?$CwiseBinaryOp@U?$scalar_product_op@NN@internal@Eigen@@$$CBV?$Matrix@N$02$00$0A@$02$00@3@$$CBV?$CwiseNullaryOp@U?$scalar_constant_op@N@internal@Eigen@@$$CBV?$Matrix@N$02$00$0A@$02$00@3@@3@@Eigen@@@internal@Eigen@@QEAA@AEBV?$CwiseBinaryOp@U?$scalar_product_op@NN@internal@Eigen@@$$CBV?$Matrix@N$02$00$0A@$02$00@3@$$CBV?$CwiseNullaryOp@U?$scalar_constant_op@N@internal@Eigen@@$$CBV?$Matrix@N$02$00$0A@$02$00@3@@3@@2@@Z
	??0?$evaluator@V?$CwiseBinaryOp@U?$scalar_product_op@NN@internal@Eigen@@$$CBV?$Transpose@$$CBV?$Block@$$CBV?$Block@$$CBV?$Matrix@N$02$02$0A@$02$02@Eigen@@$02$0?0$00@Eigen@@$00$0?0$0A@@Eigen@@@3@$$CBV?$Block@$$CBV?$Matrix@N$0?0$00$0A@$02$00@Eigen@@$0?0$00$00@3@@Eigen@@@internal@Eigen@@QEAA@AEBV?$CwiseBinaryOp@U?$scalar_product_op@NN@internal@Eigen@@$$CBV?$Transpose@$$CBV?$Block@$$CBV?$Block@$$CBV?$Matrix@N$02$02$0A@$02$02@Eigen@@$02$0?0$00@Eigen@@$00$0?0$0A@@Eigen@@@3@$$CBV?$Block@$$CBV?$Matrix@N$0?0$00$0A@$02$00@Eigen@@$0?0$00$00@3@@2@@Z
	??0?$evaluator@V?$CwiseBinaryOp@U?$scalar_product_op@NN@internal@Eigen@@$$CBV?$Transpose@$$CBV?$Block@$$CBV?$Matrix@N$02$00$0A@$02$00@Eigen@@$00$00$0A@@Eigen@@@3@$$CBV?$Block@$$CBV?$Transpose@V?$Matrix@N$02$00$0A@$02$00@Eigen@@@Eigen@@$00$00$0A@@3@@Eigen@@@internal@Eigen@@QEAA@AEBV?$CwiseBinaryOp@U?$scalar_product_op@NN@internal@Eigen@@$$CBV?$Transpose@$$CBV?$Block@$$CBV?$Matrix@N$02$00$0A@$02$00@Eigen@@$00$00$0A@@Eigen@@@3@$$CBV?$Block@$$CBV?$Transpose@V?$Matrix@N$02$00$0A@$02$00@Eigen@@@Eigen@@$00$00$0A@@3@@2@@Z
	??0?$evaluator@V?$CwiseBinaryOp@U?$scalar_product_op@NN@internal@Eigen@@$$CBV?$Transpose@$$CBV?$Block@$$CBV?$Matrix@N$02$03$00$02$03@Eigen@@$00$03$00@Eigen@@@3@$$CBV?$Block@$$CBV?$Matrix@N$03$00$0A@$03$00@Eigen@@$03$00$00@3@@Eigen@@@internal@Eigen@@QEAA@AEBV?$CwiseBinaryOp@U?$scalar_product_op@NN@internal@Eigen@@$$CBV?$Transpose@$$CBV?$Block@$$CBV?$Matrix@N$02$03$00$02$03@Eigen@@$00$03$00@Eigen@@@3@$$CBV?$Block@$$CBV?$Matrix@N$03$00$0A@$03$00@Eigen@@$03$00$00@3@@2@@Z
	??0?$evaluator@V?$CwiseBinaryOp@U?$scalar_product_op@NN@internal@Eigen@@$$CBV?$Transpose@$$CBV?$Block@$$CBV?$Matrix@N$02$03$0A@$02$03@Eigen@@$00$03$0A@@Eigen@@@3@$$CBV?$Block@$$CBV?$Matrix@N$03$00$0A@$03$00@Eigen@@$03$00$00@3@@Eigen@@@internal@Eigen@@QEAA@AEBV?$CwiseBinaryOp@U?$scalar_product_op@NN@internal@Eigen@@$$CBV?$Transpose@$$CBV?$Block@$$CBV?$Matrix@N$02$03$0A@$02$03@Eigen@@$00$03$0A@@Eigen@@@3@$$CBV?$Block@$$CBV?$Matrix@N$03$00$0A@$03$00@Eigen@@$03$00$00@3@@2@@Z
	??0?$evaluator@V?$CwiseBinaryOp@U?$scalar_product_op@NN@internal@Eigen@@$$CBV?$Transpose@$$CBV?$Block@$$CBV?$Matrix@N$02$03$0A@$02$03@Eigen@@$00$03$0A@@Eigen@@@3@$$CBV?$Block@$$CBV?$Matrix@N$03$02$0A@$03$02@Eigen@@$03$00$00@3@@Eigen@@@internal@Eigen@@QEAA@AEBV?$CwiseBinaryOp@U?$scalar_product_op@NN@internal@Eigen@@$$CBV?$Transpose@$$CBV?$Block@$$CBV?$Matrix@N$02$03$0A@$02$03@Eigen@@$00$03$0A@@Eigen@@@3@$$CBV?$Block@$$CBV?$Matrix@N$03$02$0A@$03$02@Eigen@@$03$00$00@3@@2@@Z
	??0?$evaluator@V?$CwiseBinaryOp@U?$scalar_product_op@NN@internal@Eigen@@$$CBV?$Transpose@$$CBV?$Block@$$CBV?$Matrix@N$02$03$0A@$02$03@Eigen@@$00$03$0A@@Eigen@@@3@$$CBV?$Block@$$CBV?$Matrix@N$03$03$0A@$03$03@Eigen@@$03$00$00@3@@Eigen@@@internal@Eigen@@QEAA@AEBV?$CwiseBinaryOp@U?$scalar_product_op@NN@internal@Eigen@@$$CBV?$Transpose@$$CBV?$Block@$$CBV?$Matrix@N$02$03$0A@$02$03@Eigen@@$00$03$0A@@Eigen@@@3@$$CBV?$Block@$$CBV?$Matrix@N$03$03$0A@$03$03@Eigen@@$03$00$00@3@@2@@Z
	??0?$evaluator@V?$CwiseBinaryOp@U?$scalar_product_op@NN@internal@Eigen@@$$CBV?$Transpose@$$CBV?$Block@$$CBV?$Transpose@$$CBV?$Block@$$CBV?$Matrix@N$02$02$0A@$02$02@Eigen@@$02$0?0$00@Eigen@@@Eigen@@$00$02$00@Eigen@@@3@$$CBV?$Block@$$CBV?$Matrix@N$02$00$0A@$02$00@Eigen@@$02$00$00@3@@Eigen@@@internal@Eigen@@QEAA@AEBV?$CwiseBinaryOp@U?$scalar_product_op@NN@internal@Eigen@@$$CBV?$Transpose@$$CBV?$Block@$$CBV?$Transpose@$$CBV?$Block@$$CBV?$Matrix@N$02$02$0A@$02$02@Eigen@@$02$0?0$00@Eigen@@@Eigen@@$00$02$00@Eigen@@@3@$$CBV?$Block@$$CBV?$Matrix@N$02$00$0A@$02$00@Eigen@@$02$00$00@3@@2@@Z
	??0?$evaluator@V?$CwiseBinaryOp@U?$scalar_product_op@NN@internal@Eigen@@$$CBV?$Transpose@$$CBV?$Block@$$CBV?$Transpose@$$CBV?$Matrix@N$02$03$0A@$02$03@Eigen@@@Eigen@@$00$02$00@Eigen@@@3@$$CBV?$Block@$$CBV?$Matrix@N$02$00$0A@$02$00@Eigen@@$02$00$00@3@@Eigen@@@internal@Eigen@@QEAA@AEBV?$CwiseBinaryOp@U?$scalar_product_op@NN@internal@Eigen@@$$CBV?$Transpose@$$CBV?$Block@$$CBV?$Transpose@$$CBV?$Matrix@N$02$03$0A@$02$03@Eigen@@@Eigen@@$00$02$00@Eigen@@@3@$$CBV?$Block@$$CBV?$Matrix@N$02$00$0A@$02$00@Eigen@@$02$00$00@3@@2@@Z
	??0?$evaluator@V?$CwiseBinaryOp@U?$scalar_quotient_op@NN@internal@Eigen@@$$CBV?$Block@$$CBV?$Matrix@N$02$02$0A@$02$02@Eigen@@$02$02$0A@@3@$$CBV?$CwiseNullaryOp@U?$scalar_constant_op@N@internal@Eigen@@$$CBV?$Matrix@N$02$02$0A@$02$02@3@@3@@Eigen@@@internal@Eigen@@QEAA@AEBV?$CwiseBinaryOp@U?$scalar_quotient_op@NN@internal@Eigen@@$$CBV?$Block@$$CBV?$Matrix@N$02$02$0A@$02$02@Eigen@@$02$02$0A@@3@$$CBV?$CwiseNullaryOp@U?$scalar_constant_op@N@internal@Eigen@@$$CBV?$Matrix@N$02$02$0A@$02$02@3@@3@@2@@Z
	??0?$evaluator@V?$CwiseBinaryOp@U?$scalar_quotient_op@NN@internal@Eigen@@$$CBV?$Block@$$CBV?$Matrix@N$02$03$0A@$02$03@Eigen@@$00$02$0A@@3@$$CBV?$CwiseNullaryOp@U?$scalar_constant_op@N@internal@Eigen@@$$CBV?$Matrix@N$00$02$00$00$02@3@@3@@Eigen@@@internal@Eigen@@QEAA@AEBV?$CwiseBinaryOp@U?$scalar_quotient_op@NN@internal@Eigen@@$$CBV?$Block@$$CBV?$Matrix@N$02$03$0A@$02$03@Eigen@@$00$02$0A@@3@$$CBV?$CwiseNullaryOp@U?$scalar_constant_op@N@internal@Eigen@@$$CBV?$Matrix@N$00$02$00$00$02@3@@3@@2@@Z
	??0?$evaluator@V?$CwiseBinaryOp@U?$scalar_quotient_op@NN@internal@Eigen@@$$CBV?$Matrix@N$02$00$0A@$02$00@3@$$CBV?$CwiseNullaryOp@U?$scalar_constant_op@N@internal@Eigen@@$$CBV?$Matrix@N$02$00$0A@$02$00@3@@3@@Eigen@@@internal@Eigen@@QEAA@AEBV?$CwiseBinaryOp@U?$scalar_quotient_op@NN@internal@Eigen@@$$CBV?$Matrix@N$02$00$0A@$02$00@3@$$CBV?$CwiseNullaryOp@U?$scalar_constant_op@N@internal@Eigen@@$$CBV?$Matrix@N$02$00$0A@$02$00@3@@3@@2@@Z
	??0?$evaluator@V?$CwiseBinaryOp@U?$scalar_sum_op@NN@internal@Eigen@@$$CBV?$CwiseBinaryOp@U?$scalar_product_op@NN@internal@Eigen@@$$CBV?$CwiseNullaryOp@U?$scalar_constant_op@N@internal@Eigen@@$$CBV?$Matrix@N$03$00$0A@$03$00@3@@3@$$CBV?$Matrix@N$03$00$0A@$03$00@3@@3@$$CBV43@@Eigen@@@internal@Eigen@@QEAA@AEBV?$CwiseBinaryOp@U?$scalar_sum_op@NN@internal@Eigen@@$$CBV?$CwiseBinaryOp@U?$scalar_product_op@NN@internal@Eigen@@$$CBV?$CwiseNullaryOp@U?$scalar_constant_op@N@internal@Eigen@@$$CBV?$Matrix@N$03$00$0A@$03$00@3@@3@$$CBV?$Matrix@N$03$00$0A@$03$00@3@@3@$$CBV43@@2@@Z
	??0?$evaluator@V?$CwiseNullaryOp@U?$scalar_constant_op@N@internal@Eigen@@$$CBV?$Matrix@N$00$02$00$00$02@3@@Eigen@@@internal@Eigen@@QEAA@AEBV?$CwiseNullaryOp@U?$scalar_constant_op@N@internal@Eigen@@$$CBV?$Matrix@N$00$02$00$00$02@3@@2@@Z
	??0?$evaluator@V?$CwiseNullaryOp@U?$scalar_constant_op@N@internal@Eigen@@$$CBV?$Matrix@N$02$00$0A@$02$00@3@@Eigen@@@internal@Eigen@@QEAA@AEBV?$CwiseNullaryOp@U?$scalar_constant_op@N@internal@Eigen@@$$CBV?$Matrix@N$02$00$0A@$02$00@3@@2@@Z
	??0?$evaluator@V?$CwiseNullaryOp@U?$scalar_constant_op@N@internal@Eigen@@$$CBV?$Matrix@N$02$02$0A@$02$02@3@@Eigen@@@internal@Eigen@@QEAA@AEBV?$CwiseNullaryOp@U?$scalar_constant_op@N@internal@Eigen@@$$CBV?$Matrix@N$02$02$0A@$02$02@3@@2@@Z
	??0?$evaluator@V?$CwiseNullaryOp@U?$scalar_constant_op@N@internal@Eigen@@$$CBV?$Matrix@N$03$00$0A@$03$00@3@@Eigen@@@internal@Eigen@@QEAA@AEBV?$CwiseNullaryOp@U?$scalar_constant_op@N@internal@Eigen@@$$CBV?$Matrix@N$03$00$0A@$03$00@3@@2@@Z
	??0?$evaluator@V?$CwiseNullaryOp@U?$scalar_identity_op@N@internal@Eigen@@V?$Matrix@N$02$02$0A@$02$02@3@@Eigen@@@internal@Eigen@@QEAA@AEBV?$CwiseNullaryOp@U?$scalar_identity_op@N@internal@Eigen@@V?$Matrix@N$02$02$0A@$02$02@3@@2@@Z
	??0?$evaluator@V?$CwiseUnaryOp@U?$core_cast_op@MN@internal@Eigen@@$$CBV?$Matrix@M$02$00$0A@$02$00@3@@Eigen@@@internal@Eigen@@QEAA@AEBV?$CwiseUnaryOp@U?$core_cast_op@MN@internal@Eigen@@$$CBV?$Matrix@M$02$00$0A@$02$00@3@@2@@Z
	??0?$evaluator@V?$CwiseUnaryOp@U?$core_cast_op@NM@internal@Eigen@@$$CBV?$Matrix@N$02$00$0A@$02$00@3@@Eigen@@@internal@Eigen@@QEAA@AEBV?$CwiseUnaryOp@U?$core_cast_op@NM@internal@Eigen@@$$CBV?$Matrix@N$02$00$0A@$02$00@3@@2@@Z
	??0?$evaluator@V?$CwiseUnaryOp@U?$core_cast_op@NM@internal@Eigen@@$$CBV?$Matrix@N$03$00$0A@$03$00@3@@Eigen@@@internal@Eigen@@QEAA@AEBV?$CwiseUnaryOp@U?$core_cast_op@NM@internal@Eigen@@$$CBV?$Matrix@N$03$00$0A@$03$00@3@@2@@Z
	??0?$evaluator@V?$CwiseUnaryOp@U?$core_cast_op@NM@internal@Eigen@@$$CBV?$Transpose@V?$Matrix@N$03$02$0A@$03$02@Eigen@@@3@@Eigen@@@internal@Eigen@@QEAA@AEBV?$CwiseUnaryOp@U?$core_cast_op@NM@internal@Eigen@@$$CBV?$Transpose@V?$Matrix@N$03$02$0A@$03$02@Eigen@@@3@@2@@Z
	??0?$evaluator@V?$CwiseUnaryOp@U?$scalar_abs_op@N@internal@Eigen@@$$CBV?$Matrix@N$02$02$0A@$02$02@3@@Eigen@@@internal@Eigen@@QEAA@AEBV?$CwiseUnaryOp@U?$scalar_abs_op@N@internal@Eigen@@$$CBV?$Matrix@N$02$02$0A@$02$02@3@@2@@Z
	??0?$evaluator@V?$CwiseUnaryOp@U?$scalar_inverse_op@N@internal@Eigen@@$$CBV?$Block@$$CBV?$Matrix@N$02$00$0A@$02$00@Eigen@@$0?0$00$0A@@3@@Eigen@@@internal@Eigen@@QEAA@AEBV?$CwiseUnaryOp@U?$scalar_inverse_op@N@internal@Eigen@@$$CBV?$Block@$$CBV?$Matrix@N$02$00$0A@$02$00@Eigen@@$0?0$00$0A@@3@@2@@Z
	??0?$evaluator@V?$CwiseUnaryOp@U?$scalar_opposite_op@N@internal@Eigen@@$$CBV?$Block@V?$Matrix@N$02$02$0A@$02$02@Eigen@@$02$00$00@3@@Eigen@@@internal@Eigen@@QEAA@AEBV?$CwiseUnaryOp@U?$scalar_opposite_op@N@internal@Eigen@@$$CBV?$Block@V?$Matrix@N$02$02$0A@$02$02@Eigen@@$02$00$00@3@@2@@Z
	??0?$evaluator@V?$CwiseUnaryOp@U?$squared_norm_functor@N$0A@@internal@Eigen@@$$CBV?$Block@$$CBV?$Matrix@N$02$03$0A@$02$03@Eigen@@$00$02$0A@@3@@Eigen@@@internal@Eigen@@QEAA@AEBV?$CwiseUnaryOp@U?$squared_norm_functor@N$0A@@internal@Eigen@@$$CBV?$Block@$$CBV?$Matrix@N$02$03$0A@$02$03@Eigen@@$00$02$0A@@3@@2@@Z
	??0?$evaluator@V?$CwiseUnaryOp@U?$squared_norm_functor@N$0A@@internal@Eigen@@$$CBV?$Block@V?$Matrix@N$02$00$0A@$02$00@Eigen@@$0?0$00$0A@@3@@Eigen@@@internal@Eigen@@QEAA@AEBV?$CwiseUnaryOp@U?$squared_norm_functor@N$0A@@internal@Eigen@@$$CBV?$Block@V?$Matrix@N$02$00$0A@$02$00@Eigen@@$0?0$00$0A@@3@@2@@Z
	??0?$evaluator@V?$CwiseUnaryOp@U?$squared_norm_functor@N$0A@@internal@Eigen@@$$CBV?$Block@V?$Matrix@N$03$00$0A@$03$00@Eigen@@$0?0$00$0A@@3@@Eigen@@@internal@Eigen@@QEAA@AEBV?$CwiseUnaryOp@U?$squared_norm_functor@N$0A@@internal@Eigen@@$$CBV?$Block@V?$Matrix@N$03$00$0A@$03$00@Eigen@@$0?0$00$0A@@3@@2@@Z
	??0?$evaluator@V?$CwiseUnaryOp@U?$squared_norm_functor@N$0A@@internal@Eigen@@$$CBV?$CwiseBinaryOp@U?$scalar_difference_op@NN@internal@Eigen@@$$CBV?$Matrix@N$03$00$0A@$03$00@3@$$CBV43@@3@@Eigen@@@internal@Eigen@@QEAA@AEBV?$CwiseUnaryOp@U?$squared_norm_functor@N$0A@@internal@Eigen@@$$CBV?$CwiseBinaryOp@U?$scalar_difference_op@NN@internal@Eigen@@$$CBV?$Matrix@N$03$00$0A@$03$00@3@$$CBV43@@3@@2@@Z
	??0?$evaluator@V?$CwiseUnaryOp@U?$squared_norm_functor@N$0A@@internal@Eigen@@$$CBV?$Matrix@N$02$00$0A@$02$00@3@@Eigen@@@internal@Eigen@@QEAA@AEBV?$CwiseUnaryOp@U?$squared_norm_functor@N$0A@@internal@Eigen@@$$CBV?$Matrix@N$02$00$0A@$02$00@3@@2@@Z
	??0?$evaluator@V?$Diagonal@$$CBV?$CwiseUnaryOp@U?$scalar_abs_op@N@internal@Eigen@@$$CBV?$Matrix@N$02$02$0A@$02$02@3@@Eigen@@$0A@@Eigen@@@internal@Eigen@@QEAA@AEBV?$Diagonal@$$CBV?$CwiseUnaryOp@U?$scalar_abs_op@N@internal@Eigen@@$$CBV?$Matrix@N$02$02$0A@$02$02@3@@Eigen@@$0A@@2@@Z
	??0?$evaluator@V?$Diagonal@V?$Matrix@N$02$02$0A@$02$02@Eigen@@$0A@@Eigen@@@internal@Eigen@@QEAA@AEBV?$Diagonal@V?$Matrix@N$02$02$0A@$02$02@Eigen@@$0A@@2@@Z
	??0?$evaluator@V?$Matrix@M$02$00$0A@$02$00@Eigen@@@internal@Eigen@@QEAA@AEBV?$Matrix@M$02$00$0A@$02$00@2@@Z
	??0?$evaluator@V?$Matrix@M$02$03$00$02$03@Eigen@@@internal@Eigen@@QEAA@AEBV?$Matrix@M$02$03$00$02$03@2@@Z
	??0?$evaluator@V?$Matrix@M$02$03$0A@$02$03@Eigen@@@internal@Eigen@@QEAA@AEBV?$Matrix@M$02$03$0A@$02$03@2@@Z
	??0?$evaluator@V?$Matrix@M$03$00$0A@$03$00@Eigen@@@internal@Eigen@@QEAA@AEBV?$Matrix@M$03$00$0A@$03$00@2@@Z
	??0?$evaluator@V?$Matrix@N$00$00$0A@$00$00@Eigen@@@internal@Eigen@@QEAA@AEBV?$Matrix@N$00$00$0A@$00$00@2@@Z
	??0?$evaluator@V?$Matrix@N$00$00$0A@$00$00@Eigen@@@internal@Eigen@@QEAA@XZ
	??0?$evaluator@V?$Matrix@N$00$02$00$00$02@Eigen@@@internal@Eigen@@QEAA@AEBV?$Matrix@N$00$02$00$00$02@2@@Z
	??0?$evaluator@V?$Matrix@N$01$01$0A@$01$01@Eigen@@@internal@Eigen@@QEAA@AEBV?$Matrix@N$01$01$0A@$01$01@2@@Z
	??0?$evaluator@V?$Matrix@N$02$00$0A@$02$00@Eigen@@@internal@Eigen@@QEAA@AEBV?$Matrix@N$02$00$0A@$02$00@2@@Z
	??0?$evaluator@V?$Matrix@N$02$02$0A@$02$02@Eigen@@@internal@Eigen@@QEAA@AEBV?$Matrix@N$02$02$0A@$02$02@2@@Z
	??0?$evaluator@V?$Matrix@N$02$03$00$02$03@Eigen@@@internal@Eigen@@QEAA@AEBV?$Matrix@N$02$03$00$02$03@2@@Z
	??0?$evaluator@V?$Matrix@N$02$03$0A@$02$03@Eigen@@@internal@Eigen@@QEAA@AEBV?$Matrix@N$02$03$0A@$02$03@2@@Z
	??0?$evaluator@V?$Matrix@N$03$00$0A@$03$00@Eigen@@@internal@Eigen@@QEAA@AEBV?$Matrix@N$03$00$0A@$03$00@2@@Z
	??0?$evaluator@V?$Matrix@N$03$02$0A@$03$02@Eigen@@@internal@Eigen@@QEAA@AEBV?$Matrix@N$03$02$0A@$03$02@2@@Z
	??0?$evaluator@V?$Matrix@N$03$03$0A@$03$03@Eigen@@@internal@Eigen@@QEAA@AEBV?$Matrix@N$03$03$0A@$03$03@2@@Z
	??0?$evaluator@V?$Matrix@N$05$00$0A@$05$00@Eigen@@@internal@Eigen@@QEAA@AEBV?$Matrix@N$05$00$0A@$05$00@2@@Z
	??0?$evaluator@V?$Matrix@N$0?0$00$0A@$02$00@Eigen@@@internal@Eigen@@QEAA@AEBV?$Matrix@N$0?0$00$0A@$02$00@2@@Z
	??0?$evaluator@V?$PlainObjectBase@V?$Matrix@M$02$00$0A@$02$00@Eigen@@@Eigen@@@internal@Eigen@@QEAA@AEBV?$PlainObjectBase@V?$Matrix@M$02$00$0A@$02$00@Eigen@@@2@@Z
	??0?$evaluator@V?$PlainObjectBase@V?$Matrix@M$02$03$00$02$03@Eigen@@@Eigen@@@internal@Eigen@@QEAA@AEBV?$PlainObjectBase@V?$Matrix@M$02$03$00$02$03@Eigen@@@2@@Z
	??0?$evaluator@V?$PlainObjectBase@V?$Matrix@M$02$03$0A@$02$03@Eigen@@@Eigen@@@internal@Eigen@@QEAA@AEBV?$PlainObjectBase@V?$Matrix@M$02$03$0A@$02$03@Eigen@@@2@@Z
	??0?$evaluator@V?$PlainObjectBase@V?$Matrix@M$03$00$0A@$03$00@Eigen@@@Eigen@@@internal@Eigen@@QEAA@AEBV?$PlainObjectBase@V?$Matrix@M$03$00$0A@$03$00@Eigen@@@2@@Z
	??0?$evaluator@V?$PlainObjectBase@V?$Matrix@N$00$00$0A@$00$00@Eigen@@@Eigen@@@internal@Eigen@@QEAA@AEBV?$PlainObjectBase@V?$Matrix@N$00$00$0A@$00$00@Eigen@@@2@@Z
	??0?$evaluator@V?$PlainObjectBase@V?$Matrix@N$00$00$0A@$00$00@Eigen@@@Eigen@@@internal@Eigen@@QEAA@XZ
	??0?$evaluator@V?$PlainObjectBase@V?$Matrix@N$00$02$00$00$02@Eigen@@@Eigen@@@internal@Eigen@@QEAA@AEBV?$PlainObjectBase@V?$Matrix@N$00$02$00$00$02@Eigen@@@2@@Z
	??0?$evaluator@V?$PlainObjectBase@V?$Matrix@N$01$01$0A@$01$01@Eigen@@@Eigen@@@internal@Eigen@@QEAA@AEBV?$PlainObjectBase@V?$Matrix@N$01$01$0A@$01$01@Eigen@@@2@@Z
	??0?$evaluator@V?$PlainObjectBase@V?$Matrix@N$02$00$0A@$02$00@Eigen@@@Eigen@@@internal@Eigen@@QEAA@AEBV?$PlainObjectBase@V?$Matrix@N$02$00$0A@$02$00@Eigen@@@2@@Z
	??0?$evaluator@V?$PlainObjectBase@V?$Matrix@N$02$02$0A@$02$02@Eigen@@@Eigen@@@internal@Eigen@@QEAA@AEBV?$PlainObjectBase@V?$Matrix@N$02$02$0A@$02$02@Eigen@@@2@@Z
	??0?$evaluator@V?$PlainObjectBase@V?$Matrix@N$02$03$00$02$03@Eigen@@@Eigen@@@internal@Eigen@@QEAA@AEBV?$PlainObjectBase@V?$Matrix@N$02$03$00$02$03@Eigen@@@2@@Z
	??0?$evaluator@V?$PlainObjectBase@V?$Matrix@N$02$03$0A@$02$03@Eigen@@@Eigen@@@internal@Eigen@@QEAA@AEBV?$PlainObjectBase@V?$Matrix@N$02$03$0A@$02$03@Eigen@@@2@@Z
	??0?$evaluator@V?$PlainObjectBase@V?$Matrix@N$03$00$0A@$03$00@Eigen@@@Eigen@@@internal@Eigen@@QEAA@AEBV?$PlainObjectBase@V?$Matrix@N$03$00$0A@$03$00@Eigen@@@2@@Z
	??0?$evaluator@V?$PlainObjectBase@V?$Matrix@N$03$02$0A@$03$02@Eigen@@@Eigen@@@internal@Eigen@@QEAA@AEBV?$PlainObjectBase@V?$Matrix@N$03$02$0A@$03$02@Eigen@@@2@@Z
	??0?$evaluator@V?$PlainObjectBase@V?$Matrix@N$03$03$0A@$03$03@Eigen@@@Eigen@@@internal@Eigen@@QEAA@AEBV?$PlainObjectBase@V?$Matrix@N$03$03$0A@$03$03@Eigen@@@2@@Z
	??0?$evaluator@V?$PlainObjectBase@V?$Matrix@N$05$00$0A@$05$00@Eigen@@@Eigen@@@internal@Eigen@@QEAA@AEBV?$PlainObjectBase@V?$Matrix@N$05$00$0A@$05$00@Eigen@@@2@@Z
	??0?$evaluator@V?$PlainObjectBase@V?$Matrix@N$0?0$00$0A@$02$00@Eigen@@@Eigen@@@internal@Eigen@@QEAA@AEBV?$PlainObjectBase@V?$Matrix@N$0?0$00$0A@$02$00@Eigen@@@2@@Z
	??0?$evaluator@V?$Product@V?$Block@$$CBV?$Matrix@N$02$02$0A@$02$02@Eigen@@$02$0?0$00@Eigen@@V?$Matrix@N$0?0$00$0A@$02$00@2@$00@Eigen@@@internal@Eigen@@QEAA@AEBV?$Product@V?$Block@$$CBV?$Matrix@N$02$02$0A@$02$02@Eigen@@$02$0?0$00@Eigen@@V?$Matrix@N$0?0$00$0A@$02$00@2@$00@2@@Z
	??0?$evaluator@V?$Product@V?$DiagonalWrapper@$$CBV?$CwiseUnaryOp@U?$scalar_inverse_op@N@internal@Eigen@@$$CBV?$Block@$$CBV?$Matrix@N$02$00$0A@$02$00@Eigen@@$0?0$00$0A@@3@@Eigen@@@Eigen@@V?$Matrix@N$0?0$00$0A@$02$00@2@$00@Eigen@@@internal@Eigen@@QEAA@AEBV?$Product@V?$DiagonalWrapper@$$CBV?$CwiseUnaryOp@U?$scalar_inverse_op@N@internal@Eigen@@$$CBV?$Block@$$CBV?$Matrix@N$02$00$0A@$02$00@Eigen@@$0?0$00$0A@@3@@Eigen@@@Eigen@@V?$Matrix@N$0?0$00$0A@$02$00@2@$00@2@@Z
	??0?$evaluator@V?$Product@V?$Matrix@N$02$00$0A@$02$00@Eigen@@V?$Transpose@V?$Matrix@N$02$00$0A@$02$00@Eigen@@@2@$00@Eigen@@@internal@Eigen@@QEAA@AEBV?$Product@V?$Matrix@N$02$00$0A@$02$00@Eigen@@V?$Transpose@V?$Matrix@N$02$00$0A@$02$00@Eigen@@@2@$00@2@@Z
	??0?$evaluator@V?$Product@V?$Matrix@N$02$03$00$02$03@Eigen@@V?$Matrix@N$03$00$0A@$03$00@2@$00@Eigen@@@internal@Eigen@@QEAA@AEBV?$Product@V?$Matrix@N$02$03$00$02$03@Eigen@@V?$Matrix@N$03$00$0A@$03$00@2@$00@2@@Z
	??0?$evaluator@V?$Product@V?$Matrix@N$02$03$0A@$02$03@Eigen@@V?$Matrix@N$03$00$0A@$03$00@2@$00@Eigen@@@internal@Eigen@@QEAA@AEBV?$Product@V?$Matrix@N$02$03$0A@$02$03@Eigen@@V?$Matrix@N$03$00$0A@$03$00@2@$00@2@@Z
	??0?$evaluator@V?$Product@V?$Matrix@N$02$03$0A@$02$03@Eigen@@V?$Matrix@N$03$03$0A@$03$03@2@$00@Eigen@@@internal@Eigen@@QEAA@AEBV?$Product@V?$Matrix@N$02$03$0A@$02$03@Eigen@@V?$Matrix@N$03$03$0A@$03$03@2@$00@2@@Z
	??0?$evaluator@V?$Product@V?$Product@V?$Matrix@N$02$03$0A@$02$03@Eigen@@V?$Matrix@N$03$03$0A@$03$03@2@$0A@@Eigen@@V?$Matrix@N$03$02$0A@$03$02@2@$00@Eigen@@@internal@Eigen@@QEAA@AEBV?$Product@V?$Product@V?$Matrix@N$02$03$0A@$02$03@Eigen@@V?$Matrix@N$03$03$0A@$03$03@2@$0A@@Eigen@@V?$Matrix@N$03$02$0A@$03$02@2@$00@2@@Z
	??0?$evaluator@V?$Product@V?$Transpose@$$CBV?$Block@$$CBV?$Matrix@N$02$02$0A@$02$02@Eigen@@$02$0?0$00@Eigen@@@Eigen@@V?$Matrix@N$02$00$0A@$02$00@2@$00@Eigen@@@internal@Eigen@@QEAA@AEBV?$Product@V?$Transpose@$$CBV?$Block@$$CBV?$Matrix@N$02$02$0A@$02$02@Eigen@@$02$0?0$00@Eigen@@@Eigen@@V?$Matrix@N$02$00$0A@$02$00@2@$00@2@@Z
	??0?$evaluator@V?$Product@V?$Transpose@$$CBV?$Matrix@N$02$03$0A@$02$03@Eigen@@@Eigen@@V?$CwiseUnaryOp@U?$core_cast_op@MN@internal@Eigen@@$$CBV?$Matrix@M$02$00$0A@$02$00@3@@2@$00@Eigen@@@internal@Eigen@@QEAA@AEBV?$Product@V?$Transpose@$$CBV?$Matrix@N$02$03$0A@$02$03@Eigen@@@Eigen@@V?$CwiseUnaryOp@U?$core_cast_op@MN@internal@Eigen@@$$CBV?$Matrix@M$02$00$0A@$02$00@3@@2@$00@2@@Z
	??0?$evaluator@V?$Product@V?$Transpose@V?$Matrix@N$02$00$0A@$02$00@Eigen@@@Eigen@@V?$Matrix@N$02$00$0A@$02$00@2@$0A@@Eigen@@@internal@Eigen@@QEAA@AEBV?$Product@V?$Transpose@V?$Matrix@N$02$00$0A@$02$00@Eigen@@@Eigen@@V?$Matrix@N$02$00$0A@$02$00@2@$0A@@2@@Z
	??0?$evaluator@V?$Transpose@$$CBV?$Block@$$CBV?$Block@$$CBV?$Matrix@N$02$02$0A@$02$02@Eigen@@$02$0?0$00@Eigen@@$00$0?0$0A@@Eigen@@@Eigen@@@internal@Eigen@@QEAA@AEBV?$Transpose@$$CBV?$Block@$$CBV?$Block@$$CBV?$Matrix@N$02$02$0A@$02$02@Eigen@@$02$0?0$00@Eigen@@$00$0?0$0A@@Eigen@@@2@@Z
	??0?$evaluator@V?$Transpose@$$CBV?$Block@$$CBV?$Matrix@N$02$00$0A@$02$00@Eigen@@$00$00$0A@@Eigen@@@Eigen@@@internal@Eigen@@QEAA@AEBV?$Transpose@$$CBV?$Block@$$CBV?$Matrix@N$02$00$0A@$02$00@Eigen@@$00$00$0A@@Eigen@@@2@@Z
	??0?$evaluator@V?$Transpose@$$CBV?$Block@$$CBV?$Matrix@N$02$02$0A@$02$02@Eigen@@$02$0?0$00@Eigen@@@Eigen@@@internal@Eigen@@QEAA@AEBV?$Transpose@$$CBV?$Block@$$CBV?$Matrix@N$02$02$0A@$02$02@Eigen@@$02$0?0$00@Eigen@@@2@@Z
	??0?$evaluator@V?$Transpose@$$CBV?$Block@$$CBV?$Matrix@N$02$03$00$02$03@Eigen@@$00$03$00@Eigen@@@Eigen@@@internal@Eigen@@QEAA@AEBV?$Transpose@$$CBV?$Block@$$CBV?$Matrix@N$02$03$00$02$03@Eigen@@$00$03$00@Eigen@@@2@@Z
	??0?$evaluator@V?$Transpose@$$CBV?$Block@$$CBV?$Matrix@N$02$03$0A@$02$03@Eigen@@$00$03$0A@@Eigen@@@Eigen@@@internal@Eigen@@QEAA@AEBV?$Transpose@$$CBV?$Block@$$CBV?$Matrix@N$02$03$0A@$02$03@Eigen@@$00$03$0A@@Eigen@@@2@@Z
	??0?$evaluator@V?$Transpose@$$CBV?$Block@$$CBV?$Transpose@$$CBV?$Block@$$CBV?$Matrix@N$02$02$0A@$02$02@Eigen@@$02$0?0$00@Eigen@@@Eigen@@$00$02$00@Eigen@@@Eigen@@@internal@Eigen@@QEAA@AEBV?$Transpose@$$CBV?$Block@$$CBV?$Transpose@$$CBV?$Block@$$CBV?$Matrix@N$02$02$0A@$02$02@Eigen@@$02$0?0$00@Eigen@@@Eigen@@$00$02$00@Eigen@@@2@@Z
	??0?$evaluator@V?$Transpose@$$CBV?$Block@$$CBV?$Transpose@$$CBV?$Matrix@N$02$03$0A@$02$03@Eigen@@@Eigen@@$00$02$00@Eigen@@@Eigen@@@internal@Eigen@@QEAA@AEBV?$Transpose@$$CBV?$Block@$$CBV?$Transpose@$$CBV?$Matrix@N$02$03$0A@$02$03@Eigen@@@Eigen@@$00$02$00@Eigen@@@2@@Z
	??0?$evaluator@V?$Transpose@$$CBV?$Matrix@N$02$03$0A@$02$03@Eigen@@@Eigen@@@internal@Eigen@@QEAA@AEBV?$Transpose@$$CBV?$Matrix@N$02$03$0A@$02$03@Eigen@@@2@@Z
	??0?$evaluator@V?$Transpose@V?$Matrix@N$02$00$0A@$02$00@Eigen@@@Eigen@@@internal@Eigen@@QEAA@AEBV?$Transpose@V?$Matrix@N$02$00$0A@$02$00@Eigen@@@2@@Z
	??0?$evaluator@V?$Transpose@V?$Matrix@N$03$02$0A@$03$02@Eigen@@@Eigen@@@internal@Eigen@@QEAA@AEBV?$Transpose@V?$Matrix@N$03$02$0A@$03$02@Eigen@@@2@@Z
	??0?$find_coeff_evaluator@V?$Block@V?$Matrix@N$02$00$0A@$02$00@Eigen@@$0?0$00$0A@@Eigen@@@internal@Eigen@@QEAA@AEBV?$Block@V?$Matrix@N$02$00$0A@$02$00@Eigen@@$0?0$00$0A@@2@@Z
	??0?$fpos@U_Mbstatet@@@std@@QEAA@U_Mbstatet@@_J@Z
	??0?$fpos@U_Mbstatet@@@std@@QEAA@_J@Z
	??0?$generic_dense_assignment_kernel@U?$evaluator@V?$Block@V?$Matrix@N$02$02$0A@$02$02@Eigen@@$02$00$00@Eigen@@@internal@Eigen@@U123@U?$swap_assign_op@N@23@$00@internal@Eigen@@QEAA@AEAU?$evaluator@V?$Block@V?$Matrix@N$02$02$0A@$02$02@Eigen@@$02$00$00@Eigen@@@12@AEBU312@AEBU?$swap_assign_op@N@12@AEAV?$Block@V?$Matrix@N$02$02$0A@$02$02@Eigen@@$02$00$00@2@@Z
	??0?$generic_dense_assignment_kernel@U?$evaluator@V?$Block@V?$Matrix@N$02$02$0A@$02$02@Eigen@@$02$00$00@Eigen@@@internal@Eigen@@U123@U?$swap_assign_op@N@23@$0A@@internal@Eigen@@QEAA@AEAU?$evaluator@V?$Block@V?$Matrix@N$02$02$0A@$02$02@Eigen@@$02$00$00@Eigen@@@12@AEBU312@AEBU?$swap_assign_op@N@12@AEAV?$Block@V?$Matrix@N$02$02$0A@$02$02@Eigen@@$02$00$00@2@@Z
	??0?$generic_dense_assignment_kernel@U?$evaluator@V?$Block@V?$Matrix@N$02$02$0A@$02$02@Eigen@@$02$00$00@Eigen@@@internal@Eigen@@U?$evaluator@V?$CwiseNullaryOp@U?$scalar_constant_op@N@internal@Eigen@@$$CBV?$Matrix@N$02$00$0A@$02$00@3@@Eigen@@@23@U?$mul_assign_op@NN@23@$0A@@internal@Eigen@@QEAA@AEAU?$evaluator@V?$Block@V?$Matrix@N$02$02$0A@$02$02@Eigen@@$02$00$00@Eigen@@@12@AEBU?$evaluator@V?$CwiseNullaryOp@U?$scalar_constant_op@N@internal@Eigen@@$$CBV?$Matrix@N$02$00$0A@$02$00@3@@Eigen@@@12@AEBU?$mul_assign_op@NN@12@AEAV?$Block@V?$Matrix@N$02$02$0A@$02$02@Eigen@@$02$00$00@2@@Z
	??0?$generic_dense_assignment_kernel@U?$evaluator@V?$Block@V?$Matrix@N$02$02$0A@$02$02@Eigen@@$02$00$00@Eigen@@@internal@Eigen@@U?$evaluator@V?$CwiseUnaryOp@U?$scalar_opposite_op@N@internal@Eigen@@$$CBV?$Block@V?$Matrix@N$02$02$0A@$02$02@Eigen@@$02$00$00@3@@Eigen@@@23@U?$assign_op@NN@23@$0A@@internal@Eigen@@QEAA@AEAU?$evaluator@V?$Block@V?$Matrix@N$02$02$0A@$02$02@Eigen@@$02$00$00@Eigen@@@12@AEBU?$evaluator@V?$CwiseUnaryOp@U?$scalar_opposite_op@N@internal@Eigen@@$$CBV?$Block@V?$Matrix@N$02$02$0A@$02$02@Eigen@@$02$00$00@3@@Eigen@@@12@AEBU?$assign_op@NN@12@AEAV?$Block@V?$Matrix@N$02$02$0A@$02$02@Eigen@@$02$00$00@2@@Z
	??0?$generic_dense_assignment_kernel@U?$evaluator@V?$Block@V?$Matrix@N$02$03$0A@$02$03@Eigen@@$00$02$0A@@Eigen@@@internal@Eigen@@U?$evaluator@V?$Transpose@V?$Matrix@N$02$00$0A@$02$00@Eigen@@@Eigen@@@23@U?$assign_op@NN@23@$0A@@internal@Eigen@@QEAA@AEAU?$evaluator@V?$Block@V?$Matrix@N$02$03$0A@$02$03@Eigen@@$00$02$0A@@Eigen@@@12@AEBU?$evaluator@V?$Transpose@V?$Matrix@N$02$00$0A@$02$00@Eigen@@@Eigen@@@12@AEBU?$assign_op@NN@12@AEAV?$Block@V?$Matrix@N$02$03$0A@$02$03@Eigen@@$00$02$0A@@2@@Z
	??0?$generic_dense_assignment_kernel@U?$evaluator@V?$Block@V?$Matrix@N$03$00$0A@$03$00@Eigen@@$02$00$0A@@Eigen@@@internal@Eigen@@U?$evaluator@V?$Product@V?$Block@$$CBV?$Matrix@N$02$02$0A@$02$02@Eigen@@$02$0?0$00@Eigen@@V?$Matrix@N$0?0$00$0A@$02$00@2@$00@Eigen@@@23@U?$assign_op@NN@23@$0A@@internal@Eigen@@QEAA@AEAU?$evaluator@V?$Block@V?$Matrix@N$03$00$0A@$03$00@Eigen@@$02$00$0A@@Eigen@@@12@AEBU?$evaluator@V?$Product@V?$Block@$$CBV?$Matrix@N$02$02$0A@$02$02@Eigen@@$02$0?0$00@Eigen@@V?$Matrix@N$0?0$00$0A@$02$00@2@$00@Eigen@@@12@AEBU?$assign_op@NN@12@AEAV?$Block@V?$Matrix@N$03$00$0A@$03$00@Eigen@@$02$00$0A@@2@@Z
	??0?$generic_dense_assignment_kernel@U?$evaluator@V?$Block@V?$Matrix@N$03$00$0A@$03$00@Eigen@@$0?0$00$0A@@Eigen@@@internal@Eigen@@U?$evaluator@V?$Matrix@N$02$00$0A@$02$00@Eigen@@@23@U?$assign_op@NN@23@$0A@@internal@Eigen@@QEAA@AEAU?$evaluator@V?$Block@V?$Matrix@N$03$00$0A@$03$00@Eigen@@$0?0$00$0A@@Eigen@@@12@AEBU?$evaluator@V?$Matrix@N$02$00$0A@$02$00@Eigen@@@12@AEBU?$assign_op@NN@12@AEAV?$Block@V?$Matrix@N$03$00$0A@$03$00@Eigen@@$0?0$00$0A@@2@@Z
	??0?$generic_dense_assignment_kernel@U?$evaluator@V?$Diagonal@V?$Matrix@N$02$02$0A@$02$02@Eigen@@$0A@@Eigen@@@internal@Eigen@@U?$evaluator@V?$Matrix@N$02$00$0A@$02$00@Eigen@@@23@U?$assign_op@NN@23@$0A@@internal@Eigen@@QEAA@AEAU?$evaluator@V?$Diagonal@V?$Matrix@N$02$02$0A@$02$02@Eigen@@$0A@@Eigen@@@12@AEBU?$evaluator@V?$Matrix@N$02$00$0A@$02$00@Eigen@@@12@AEBU?$assign_op@NN@12@AEAV?$Diagonal@V?$Matrix@N$02$02$0A@$02$02@Eigen@@$0A@@2@@Z
	??0?$generic_dense_assignment_kernel@U?$evaluator@V?$Matrix@M$02$00$0A@$02$00@Eigen@@@internal@Eigen@@U?$evaluator@V?$CwiseUnaryOp@U?$core_cast_op@NM@internal@Eigen@@$$CBV?$Matrix@N$02$00$0A@$02$00@3@@Eigen@@@23@U?$assign_op@MM@23@$0A@@internal@Eigen@@QEAA@AEAU?$evaluator@V?$Matrix@M$02$00$0A@$02$00@Eigen@@@12@AEBU?$evaluator@V?$CwiseUnaryOp@U?$core_cast_op@NM@internal@Eigen@@$$CBV?$Matrix@N$02$00$0A@$02$00@3@@Eigen@@@12@AEBU?$assign_op@MM@12@AEAV?$Matrix@M$02$00$0A@$02$00@2@@Z
	??0?$generic_dense_assignment_kernel@U?$evaluator@V?$Matrix@M$02$03$00$02$03@Eigen@@@internal@Eigen@@U?$evaluator@V?$CwiseUnaryOp@U?$core_cast_op@NM@internal@Eigen@@$$CBV?$Transpose@V?$Matrix@N$03$02$0A@$03$02@Eigen@@@3@@Eigen@@@23@U?$assign_op@MM@23@$0A@@internal@Eigen@@QEAA@AEAU?$evaluator@V?$Matrix@M$02$03$00$02$03@Eigen@@@12@AEBU?$evaluator@V?$CwiseUnaryOp@U?$core_cast_op@NM@internal@Eigen@@$$CBV?$Transpose@V?$Matrix@N$03$02$0A@$03$02@Eigen@@@3@@Eigen@@@12@AEBU?$assign_op@MM@12@AEAV?$Matrix@M$02$03$00$02$03@2@@Z
	??0?$generic_dense_assignment_kernel@U?$evaluator@V?$Matrix@M$02$03$0A@$02$03@Eigen@@@internal@Eigen@@U?$evaluator@V?$Matrix@M$02$03$00$02$03@Eigen@@@23@U?$assign_op@MM@23@$0A@@internal@Eigen@@QEAA@AEAU?$evaluator@V?$Matrix@M$02$03$0A@$02$03@Eigen@@@12@AEBU?$evaluator@V?$Matrix@M$02$03$00$02$03@Eigen@@@12@AEBU?$assign_op@MM@12@AEAV?$Matrix@M$02$03$0A@$02$03@2@@Z
	??0?$generic_dense_assignment_kernel@U?$evaluator@V?$Matrix@M$03$00$0A@$03$00@Eigen@@@internal@Eigen@@U?$evaluator@V?$CwiseUnaryOp@U?$core_cast_op@NM@internal@Eigen@@$$CBV?$Matrix@N$03$00$0A@$03$00@3@@Eigen@@@23@U?$assign_op@MM@23@$0A@@internal@Eigen@@QEAA@AEAU?$evaluator@V?$Matrix@M$03$00$0A@$03$00@Eigen@@@12@AEBU?$evaluator@V?$CwiseUnaryOp@U?$core_cast_op@NM@internal@Eigen@@$$CBV?$Matrix@N$03$00$0A@$03$00@3@@Eigen@@@12@AEBU?$assign_op@MM@12@AEAV?$Matrix@M$03$00$0A@$03$00@2@@Z
	??0?$generic_dense_assignment_kernel@U?$evaluator@V?$Matrix@N$00$02$00$00$02@Eigen@@@internal@Eigen@@U?$evaluator@V?$Block@$$CBV?$Matrix@N$02$03$0A@$02$03@Eigen@@$00$02$0A@@Eigen@@@23@U?$assign_op@NN@23@$0A@@internal@Eigen@@QEAA@AEAU?$evaluator@V?$Matrix@N$00$02$00$00$02@Eigen@@@12@AEBU?$evaluator@V?$Block@$$CBV?$Matrix@N$02$03$0A@$02$03@Eigen@@$00$02$0A@@Eigen@@@12@AEBU?$assign_op@NN@12@AEAV?$Matrix@N$00$02$00$00$02@2@@Z
	??0?$generic_dense_assignment_kernel@U?$evaluator@V?$Matrix@N$00$02$00$00$02@Eigen@@@internal@Eigen@@U?$evaluator@V?$CwiseBinaryOp@U?$scalar_quotient_op@NN@internal@Eigen@@$$CBV?$Block@$$CBV?$Matrix@N$02$03$0A@$02$03@Eigen@@$00$02$0A@@3@$$CBV?$CwiseNullaryOp@U?$scalar_constant_op@N@internal@Eigen@@$$CBV?$Matrix@N$00$02$00$00$02@3@@3@@Eigen@@@23@U?$assign_op@NN@23@$0A@@internal@Eigen@@QEAA@AEAU?$evaluator@V?$Matrix@N$00$02$00$00$02@Eigen@@@12@AEBU?$evaluator@V?$CwiseBinaryOp@U?$scalar_quotient_op@NN@internal@Eigen@@$$CBV?$Block@$$CBV?$Matrix@N$02$03$0A@$02$03@Eigen@@$00$02$0A@@3@$$CBV?$CwiseNullaryOp@U?$scalar_constant_op@N@internal@Eigen@@$$CBV?$Matrix@N$00$02$00$00$02@3@@3@@Eigen@@@12@AEBU?$assign_op@NN@12@AEAV?$Matrix@N$00$02$00$00$02@2@@Z
	??0?$generic_dense_assignment_kernel@U?$evaluator@V?$Matrix@N$02$00$0A@$02$00@Eigen@@@internal@Eigen@@U?$evaluator@V?$Block@V?$Matrix@N$03$00$0A@$03$00@Eigen@@$02$00$0A@@Eigen@@@23@U?$assign_op@NN@23@$0A@@internal@Eigen@@QEAA@AEAU?$evaluator@V?$Matrix@N$02$00$0A@$02$00@Eigen@@@12@AEBU?$evaluator@V?$Block@V?$Matrix@N$03$00$0A@$03$00@Eigen@@$02$00$0A@@Eigen@@@12@AEBU?$assign_op@NN@12@AEAV?$Matrix@N$02$00$0A@$02$00@2@@Z
	??0?$generic_dense_assignment_kernel@U?$evaluator@V?$Matrix@N$02$00$0A@$02$00@Eigen@@@internal@Eigen@@U?$evaluator@V?$CwiseBinaryOp@U?$scalar_difference_op@NN@internal@Eigen@@$$CBV?$Matrix@N$02$00$0A@$02$00@3@$$CBV?$CwiseBinaryOp@U?$scalar_product_op@NN@internal@Eigen@@$$CBV?$Matrix@N$02$00$0A@$02$00@3@$$CBV?$CwiseNullaryOp@U?$scalar_constant_op@N@internal@Eigen@@$$CBV?$Matrix@N$02$00$0A@$02$00@3@@3@@3@@Eigen@@@23@U?$add_assign_op@NN@23@$0A@@internal@Eigen@@QEAA@AEAU?$evaluator@V?$Matrix@N$02$00$0A@$02$00@Eigen@@@12@AEBU?$evaluator@V?$CwiseBinaryOp@U?$scalar_difference_op@NN@internal@Eigen@@$$CBV?$Matrix@N$02$00$0A@$02$00@3@$$CBV?$CwiseBinaryOp@U?$scalar_product_op@NN@internal@Eigen@@$$CBV?$Matrix@N$02$00$0A@$02$00@3@$$CBV?$CwiseNullaryOp@U?$scalar_constant_op@N@internal@Eigen@@$$CBV?$Matrix@N$02$00$0A@$02$00@3@@3@@3@@Eigen@@@12@AEBU?$add_assign_op@NN@12@AEAV?$Matrix@N$02$00$0A@$02$00@2@@Z
	??0?$generic_dense_assignment_kernel@U?$evaluator@V?$Matrix@N$02$00$0A@$02$00@Eigen@@@internal@Eigen@@U?$evaluator@V?$CwiseBinaryOp@U?$scalar_quotient_op@NN@internal@Eigen@@$$CBV?$Matrix@N$02$00$0A@$02$00@3@$$CBV?$CwiseNullaryOp@U?$scalar_constant_op@N@internal@Eigen@@$$CBV?$Matrix@N$02$00$0A@$02$00@3@@3@@Eigen@@@23@U?$assign_op@NN@23@$0A@@internal@Eigen@@QEAA@AEAU?$evaluator@V?$Matrix@N$02$00$0A@$02$00@Eigen@@@12@AEBU?$evaluator@V?$CwiseBinaryOp@U?$scalar_quotient_op@NN@internal@Eigen@@$$CBV?$Matrix@N$02$00$0A@$02$00@3@$$CBV?$CwiseNullaryOp@U?$scalar_constant_op@N@internal@Eigen@@$$CBV?$Matrix@N$02$00$0A@$02$00@3@@3@@Eigen@@@12@AEBU?$assign_op@NN@12@AEAV?$Matrix@N$02$00$0A@$02$00@2@@Z
	??0?$generic_dense_assignment_kernel@U?$evaluator@V?$Matrix@N$02$00$0A@$02$00@Eigen@@@internal@Eigen@@U?$evaluator@V?$CwiseNullaryOp@U?$scalar_constant_op@N@internal@Eigen@@$$CBV?$Matrix@N$02$00$0A@$02$00@3@@Eigen@@@23@U?$div_assign_op@NN@23@$0A@@internal@Eigen@@QEAA@AEAU?$evaluator@V?$Matrix@N$02$00$0A@$02$00@Eigen@@@12@AEBU?$evaluator@V?$CwiseNullaryOp@U?$scalar_constant_op@N@internal@Eigen@@$$CBV?$Matrix@N$02$00$0A@$02$00@3@@Eigen@@@12@AEBU?$div_assign_op@NN@12@AEAV?$Matrix@N$02$00$0A@$02$00@2@@Z
	??0?$generic_dense_assignment_kernel@U?$evaluator@V?$Matrix@N$02$00$0A@$02$00@Eigen@@@internal@Eigen@@U?$evaluator@V?$CwiseNullaryOp@U?$scalar_constant_op@N@internal@Eigen@@$$CBV?$Matrix@N$02$00$0A@$02$00@3@@Eigen@@@23@U?$mul_assign_op@NN@23@$0A@@internal@Eigen@@QEAA@AEAU?$evaluator@V?$Matrix@N$02$00$0A@$02$00@Eigen@@@12@AEBU?$evaluator@V?$CwiseNullaryOp@U?$scalar_constant_op@N@internal@Eigen@@$$CBV?$Matrix@N$02$00$0A@$02$00@3@@Eigen@@@12@AEBU?$mul_assign_op@NN@12@AEAV?$Matrix@N$02$00$0A@$02$00@2@@Z
	??0?$generic_dense_assignment_kernel@U?$evaluator@V?$Matrix@N$02$00$0A@$02$00@Eigen@@@internal@Eigen@@U?$evaluator@V?$CwiseUnaryOp@U?$core_cast_op@MN@internal@Eigen@@$$CBV?$Matrix@M$02$00$0A@$02$00@3@@Eigen@@@23@U?$assign_op@NN@23@$0A@@internal@Eigen@@QEAA@AEAU?$evaluator@V?$Matrix@N$02$00$0A@$02$00@Eigen@@@12@AEBU?$evaluator@V?$CwiseUnaryOp@U?$core_cast_op@MN@internal@Eigen@@$$CBV?$Matrix@M$02$00$0A@$02$00@3@@Eigen@@@12@AEBU?$assign_op@NN@12@AEAV?$Matrix@N$02$00$0A@$02$00@2@@Z
	??0?$generic_dense_assignment_kernel@U?$evaluator@V?$Matrix@N$02$00$0A@$02$00@Eigen@@@internal@Eigen@@U?$evaluator@V?$Product@V?$Matrix@N$02$03$00$02$03@Eigen@@V?$Matrix@N$03$00$0A@$03$00@2@$00@Eigen@@@23@U?$assign_op@NN@23@$0A@@internal@Eigen@@QEAA@AEAU?$evaluator@V?$Matrix@N$02$00$0A@$02$00@Eigen@@@12@AEBU?$evaluator@V?$Product@V?$Matrix@N$02$03$00$02$03@Eigen@@V?$Matrix@N$03$00$0A@$03$00@2@$00@Eigen@@@12@AEBU?$assign_op@NN@12@AEAV?$Matrix@N$02$00$0A@$02$00@2@@Z
	??0?$generic_dense_assignment_kernel@U?$evaluator@V?$Matrix@N$02$00$0A@$02$00@Eigen@@@internal@Eigen@@U?$evaluator@V?$Product@V?$Matrix@N$02$03$0A@$02$03@Eigen@@V?$Matrix@N$03$00$0A@$03$00@2@$00@Eigen@@@23@U?$assign_op@NN@23@$0A@@internal@Eigen@@QEAA@AEAU?$evaluator@V?$Matrix@N$02$00$0A@$02$00@Eigen@@@12@AEBU?$evaluator@V?$Product@V?$Matrix@N$02$03$0A@$02$03@Eigen@@V?$Matrix@N$03$00$0A@$03$00@2@$00@Eigen@@@12@AEBU?$assign_op@NN@12@AEAV?$Matrix@N$02$00$0A@$02$00@2@@Z
	??0?$generic_dense_assignment_kernel@U?$evaluator@V?$Matrix@N$02$02$0A@$02$02@Eigen@@@internal@Eigen@@U123@U?$sub_assign_op@NN@23@$0A@@internal@Eigen@@QEAA@AEAU?$evaluator@V?$Matrix@N$02$02$0A@$02$02@Eigen@@@12@AEBU312@AEBU?$sub_assign_op@NN@12@AEAV?$Matrix@N$02$02$0A@$02$02@2@@Z
	??0?$generic_dense_assignment_kernel@U?$evaluator@V?$Matrix@N$02$02$0A@$02$02@Eigen@@@internal@Eigen@@U?$evaluator@V?$CwiseBinaryOp@U?$scalar_quotient_op@NN@internal@Eigen@@$$CBV?$Block@$$CBV?$Matrix@N$02$02$0A@$02$02@Eigen@@$02$02$0A@@3@$$CBV?$CwiseNullaryOp@U?$scalar_constant_op@N@internal@Eigen@@$$CBV?$Matrix@N$02$02$0A@$02$02@3@@3@@Eigen@@@23@U?$assign_op@NN@23@$0A@@internal@Eigen@@QEAA@AEAU?$evaluator@V?$Matrix@N$02$02$0A@$02$02@Eigen@@@12@AEBU?$evaluator@V?$CwiseBinaryOp@U?$scalar_quotient_op@NN@internal@Eigen@@$$CBV?$Block@$$CBV?$Matrix@N$02$02$0A@$02$02@Eigen@@$02$02$0A@@3@$$CBV?$CwiseNullaryOp@U?$scalar_constant_op@N@internal@Eigen@@$$CBV?$Matrix@N$02$02$0A@$02$02@3@@3@@Eigen@@@12@AEBU?$assign_op@NN@12@AEAV?$Matrix@N$02$02$0A@$02$02@2@@Z
	??0?$generic_dense_assignment_kernel@U?$evaluator@V?$Matrix@N$02$02$0A@$02$02@Eigen@@@internal@Eigen@@U?$evaluator@V?$CwiseNullaryOp@U?$scalar_identity_op@N@internal@Eigen@@V?$Matrix@N$02$02$0A@$02$02@3@@Eigen@@@23@U?$assign_op@NN@23@$0A@@internal@Eigen@@QEAA@AEAU?$evaluator@V?$Matrix@N$02$02$0A@$02$02@Eigen@@@12@AEBU?$evaluator@V?$CwiseNullaryOp@U?$scalar_identity_op@N@internal@Eigen@@V?$Matrix@N$02$02$0A@$02$02@3@@Eigen@@@12@AEBU?$assign_op@NN@12@AEAV?$Matrix@N$02$02$0A@$02$02@2@@Z
	??0?$generic_dense_assignment_kernel@U?$evaluator@V?$Matrix@N$02$02$0A@$02$02@Eigen@@@internal@Eigen@@U?$evaluator@V?$Product@V?$Matrix@N$02$00$0A@$02$00@Eigen@@V?$Transpose@V?$Matrix@N$02$00$0A@$02$00@Eigen@@@2@$00@Eigen@@@23@U?$assign_op@NN@23@$0A@@internal@Eigen@@QEAA@AEAU?$evaluator@V?$Matrix@N$02$02$0A@$02$02@Eigen@@@12@AEBU?$evaluator@V?$Product@V?$Matrix@N$02$00$0A@$02$00@Eigen@@V?$Transpose@V?$Matrix@N$02$00$0A@$02$00@Eigen@@@2@$00@Eigen@@@12@AEBU?$assign_op@NN@12@AEAV?$Matrix@N$02$02$0A@$02$02@2@@Z
	??0?$generic_dense_assignment_kernel@U?$evaluator@V?$Matrix@N$02$02$0A@$02$02@Eigen@@@internal@Eigen@@U?$evaluator@V?$Product@V?$Product@V?$Matrix@N$02$03$0A@$02$03@Eigen@@V?$Matrix@N$03$03$0A@$03$03@2@$0A@@Eigen@@V?$Matrix@N$03$02$0A@$03$02@2@$00@Eigen@@@23@U?$assign_op@NN@23@$0A@@internal@Eigen@@QEAA@AEAU?$evaluator@V?$Matrix@N$02$02$0A@$02$02@Eigen@@@12@AEBU?$evaluator@V?$Product@V?$Product@V?$Matrix@N$02$03$0A@$02$03@Eigen@@V?$Matrix@N$03$03$0A@$03$03@2@$0A@@Eigen@@V?$Matrix@N$03$02$0A@$03$02@2@$00@Eigen@@@12@AEBU?$assign_op@NN@12@AEAV?$Matrix@N$02$02$0A@$02$02@2@@Z
	??0?$generic_dense_assignment_kernel@U?$evaluator@V?$Matrix@N$02$03$00$02$03@Eigen@@@internal@Eigen@@U?$evaluator@V?$Transpose@V?$Matrix@N$03$02$0A@$03$02@Eigen@@@Eigen@@@23@U?$assign_op@NN@23@$0A@@internal@Eigen@@QEAA@AEAU?$evaluator@V?$Matrix@N$02$03$00$02$03@Eigen@@@12@AEBU?$evaluator@V?$Transpose@V?$Matrix@N$03$02$0A@$03$02@Eigen@@@Eigen@@@12@AEBU?$assign_op@NN@12@AEAV?$Matrix@N$02$03$00$02$03@2@@Z
	??0?$generic_dense_assignment_kernel@U?$evaluator@V?$Matrix@N$02$03$0A@$02$03@Eigen@@@internal@Eigen@@U123@U?$assign_op@NN@23@$0A@@internal@Eigen@@QEAA@AEAU?$evaluator@V?$Matrix@N$02$03$0A@$02$03@Eigen@@@12@AEBU312@AEBU?$assign_op@NN@12@AEAV?$Matrix@N$02$03$0A@$02$03@2@@Z
	??0?$generic_dense_assignment_kernel@U?$evaluator@V?$Matrix@N$02$03$0A@$02$03@Eigen@@@internal@Eigen@@U?$evaluator@V?$Product@V?$Matrix@N$02$03$0A@$02$03@Eigen@@V?$Matrix@N$03$03$0A@$03$03@2@$00@Eigen@@@23@U?$assign_op@NN@23@$0A@@internal@Eigen@@QEAA@AEAU?$evaluator@V?$Matrix@N$02$03$0A@$02$03@Eigen@@@12@AEBU?$evaluator@V?$Product@V?$Matrix@N$02$03$0A@$02$03@Eigen@@V?$Matrix@N$03$03$0A@$03$03@2@$00@Eigen@@@12@AEBU?$assign_op@NN@12@AEAV?$Matrix@N$02$03$0A@$02$03@2@@Z
	??0?$generic_dense_assignment_kernel@U?$evaluator@V?$Matrix@N$03$00$0A@$03$00@Eigen@@@internal@Eigen@@U?$evaluator@V?$CwiseBinaryOp@U?$scalar_sum_op@NN@internal@Eigen@@$$CBV?$CwiseBinaryOp@U?$scalar_product_op@NN@internal@Eigen@@$$CBV?$CwiseNullaryOp@U?$scalar_constant_op@N@internal@Eigen@@$$CBV?$Matrix@N$03$00$0A@$03$00@3@@3@$$CBV?$Matrix@N$03$00$0A@$03$00@3@@3@$$CBV43@@Eigen@@@23@U?$assign_op@NN@23@$0A@@internal@Eigen@@QEAA@AEAU?$evaluator@V?$Matrix@N$03$00$0A@$03$00@Eigen@@@12@AEBU?$evaluator@V?$CwiseBinaryOp@U?$scalar_sum_op@NN@internal@Eigen@@$$CBV?$CwiseBinaryOp@U?$scalar_product_op@NN@internal@Eigen@@$$CBV?$CwiseNullaryOp@U?$scalar_constant_op@N@internal@Eigen@@$$CBV?$Matrix@N$03$00$0A@$03$00@3@@3@$$CBV?$Matrix@N$03$00$0A@$03$00@3@@3@$$CBV43@@Eigen@@@12@AEBU?$assign_op@NN@12@AEAV?$Matrix@N$03$00$0A@$03$00@2@@Z
	??0?$generic_dense_assignment_kernel@U?$evaluator@V?$Matrix@N$03$00$0A@$03$00@Eigen@@@internal@Eigen@@U?$evaluator@V?$CwiseNullaryOp@U?$scalar_constant_op@N@internal@Eigen@@$$CBV?$Matrix@N$03$00$0A@$03$00@3@@Eigen@@@23@U?$div_assign_op@NN@23@$0A@@internal@Eigen@@QEAA@AEAU?$evaluator@V?$Matrix@N$03$00$0A@$03$00@Eigen@@@12@AEBU?$evaluator@V?$CwiseNullaryOp@U?$scalar_constant_op@N@internal@Eigen@@$$CBV?$Matrix@N$03$00$0A@$03$00@3@@Eigen@@@12@AEBU?$div_assign_op@NN@12@AEAV?$Matrix@N$03$00$0A@$03$00@2@@Z
	??0?$generic_dense_assignment_kernel@U?$evaluator@V?$Matrix@N$03$00$0A@$03$00@Eigen@@@internal@Eigen@@U?$evaluator@V?$Product@V?$Transpose@$$CBV?$Matrix@N$02$03$0A@$02$03@Eigen@@@Eigen@@V?$CwiseUnaryOp@U?$core_cast_op@MN@internal@Eigen@@$$CBV?$Matrix@M$02$00$0A@$02$00@3@@2@$00@Eigen@@@23@U?$assign_op@NN@23@$0A@@internal@Eigen@@QEAA@AEAU?$evaluator@V?$Matrix@N$03$00$0A@$03$00@Eigen@@@12@AEBU?$evaluator@V?$Product@V?$Transpose@$$CBV?$Matrix@N$02$03$0A@$02$03@Eigen@@@Eigen@@V?$CwiseUnaryOp@U?$core_cast_op@MN@internal@Eigen@@$$CBV?$Matrix@M$02$00$0A@$02$00@3@@2@$00@Eigen@@@12@AEBU?$assign_op@NN@12@AEAV?$Matrix@N$03$00$0A@$03$00@2@@Z
	??0?$generic_dense_assignment_kernel@U?$evaluator@V?$Matrix@N$0?0$00$0A@$02$00@Eigen@@@internal@Eigen@@U?$evaluator@V?$Product@V?$DiagonalWrapper@$$CBV?$CwiseUnaryOp@U?$scalar_inverse_op@N@internal@Eigen@@$$CBV?$Block@$$CBV?$Matrix@N$02$00$0A@$02$00@Eigen@@$0?0$00$0A@@3@@Eigen@@@Eigen@@V?$Matrix@N$0?0$00$0A@$02$00@2@$00@Eigen@@@23@U?$assign_op@NN@23@$0A@@internal@Eigen@@QEAA@AEAU?$evaluator@V?$Matrix@N$0?0$00$0A@$02$00@Eigen@@@12@AEBU?$evaluator@V?$Product@V?$DiagonalWrapper@$$CBV?$CwiseUnaryOp@U?$scalar_inverse_op@N@internal@Eigen@@$$CBV?$Block@$$CBV?$Matrix@N$02$00$0A@$02$00@Eigen@@$0?0$00$0A@@3@@Eigen@@@Eigen@@V?$Matrix@N$0?0$00$0A@$02$00@2@$00@Eigen@@@12@AEBU?$assign_op@NN@12@AEAV?$Matrix@N$0?0$00$0A@$02$00@2@@Z
	??0?$generic_dense_assignment_kernel@U?$evaluator@V?$Matrix@N$0?0$00$0A@$02$00@Eigen@@@internal@Eigen@@U?$evaluator@V?$Product@V?$Transpose@$$CBV?$Block@$$CBV?$Matrix@N$02$02$0A@$02$02@Eigen@@$02$0?0$00@Eigen@@@Eigen@@V?$Matrix@N$02$00$0A@$02$00@2@$00@Eigen@@@23@U?$assign_op@NN@23@$0A@@internal@Eigen@@QEAA@AEAU?$evaluator@V?$Matrix@N$0?0$00$0A@$02$00@Eigen@@@12@AEBU?$evaluator@V?$Product@V?$Transpose@$$CBV?$Block@$$CBV?$Matrix@N$02$02$0A@$02$02@Eigen@@$02$0?0$00@Eigen@@@Eigen@@V?$Matrix@N$02$00$0A@$02$00@2@$00@Eigen@@@12@AEBU?$assign_op@NN@12@AEAV?$Matrix@N$0?0$00$0A@$02$00@2@@Z
	??0?$generic_dense_assignment_kernel@U?$evaluator@V?$Transpose@V?$Matrix@N$02$00$0A@$02$00@Eigen@@@Eigen@@@internal@Eigen@@U?$evaluator@V?$Matrix@N$00$02$00$00$02@Eigen@@@23@U?$assign_op@NN@23@$0A@@internal@Eigen@@QEAA@AEAU?$evaluator@V?$Transpose@V?$Matrix@N$02$00$0A@$02$00@Eigen@@@Eigen@@@12@AEBU?$evaluator@V?$Matrix@N$00$02$00$00$02@Eigen@@@12@AEBU?$assign_op@NN@12@AEAV?$Transpose@V?$Matrix@N$02$00$0A@$02$00@Eigen@@@2@@Z
	??0?$inner_product_evaluator@U?$scalar_inner_product_op@NN$00@internal@Eigen@@V?$Matrix@N$02$00$0A@$02$00@3@V?$Block@V?$Matrix@N$03$00$0A@$03$00@Eigen@@$0?0$00$0A@@3@@internal@Eigen@@QEAA@AEBV?$Matrix@N$02$00$0A@$02$00@2@AEBV?$Block@V?$Matrix@N$03$00$0A@$03$00@Eigen@@$0?0$00$0A@@2@U?$scalar_inner_product_op@NN$00@12@@Z
	??0?$inner_product_evaluator@U?$scalar_inner_product_op@NN$0A@@internal@Eigen@@V?$Transpose@V?$Matrix@N$02$00$0A@$02$00@Eigen@@@3@V?$Matrix@N$02$00$0A@$02$00@3@@internal@Eigen@@QEAA@AEBV?$Transpose@V?$Matrix@N$02$00$0A@$02$00@Eigen@@@2@AEBV?$Matrix@N$02$00$0A@$02$00@2@U?$scalar_inner_product_op@NN$0A@@12@@Z
	??0?$map@V?$basic_string@DU?$char_traits@D@std@@V?$allocator@D@2@@std@@V12@U?$less@V?$basic_string@DU?$char_traits@D@std@@V?$allocator@D@2@@std@@@2@V?$allocator@U?$pair@$$CBV?$basic_string@DU?$char_traits@D@std@@V?$allocator@D@2@@std@@V12@@std@@@2@@std@@QEAA@AEBV01@@Z
	??0?$map@V?$basic_string@DU?$char_traits@D@std@@V?$allocator@D@2@@std@@V12@U?$less@V?$basic_string@DU?$char_traits@D@std@@V?$allocator@D@2@@std@@@2@V?$allocator@U?$pair@$$CBV?$basic_string@DU?$char_traits@D@std@@V?$allocator@D@2@@std@@V12@@std@@@2@@std@@QEAA@XZ
	??0?$mapbase_evaluator@V?$Block@$$CBV?$Block@$$CBV?$Matrix@N$02$02$0A@$02$02@Eigen@@$02$0?0$00@Eigen@@$00$0?0$0A@@Eigen@@V?$Matrix@N$00$0?0$00$00$02@2@@internal@Eigen@@QEAA@AEBV?$Block@$$CBV?$Block@$$CBV?$Matrix@N$02$02$0A@$02$02@Eigen@@$02$0?0$00@Eigen@@$00$0?0$0A@@2@@Z
	??0?$mapbase_evaluator@V?$Block@$$CBV?$Matrix@N$02$00$0A@$02$00@Eigen@@$00$00$0A@@Eigen@@V?$Matrix@N$00$00$0A@$00$00@2@@internal@Eigen@@QEAA@AEBV?$Block@$$CBV?$Matrix@N$02$00$0A@$02$00@Eigen@@$00$00$0A@@2@@Z
	??0?$mapbase_evaluator@V?$Block@$$CBV?$Matrix@N$02$00$0A@$02$00@Eigen@@$02$00$00@Eigen@@V?$Matrix@N$02$00$0A@$02$00@2@@internal@Eigen@@QEAA@AEBV?$Block@$$CBV?$Matrix@N$02$00$0A@$02$00@Eigen@@$02$00$00@2@@Z
	??0?$mapbase_evaluator@V?$Block@$$CBV?$Matrix@N$02$00$0A@$02$00@Eigen@@$0?0$00$0A@@Eigen@@V?$Matrix@N$0?0$00$0A@$02$00@2@@internal@Eigen@@QEAA@AEBV?$Block@$$CBV?$Matrix@N$02$00$0A@$02$00@Eigen@@$0?0$00$0A@@2@@Z
	??0?$mapbase_evaluator@V?$Block@$$CBV?$Matrix@N$02$02$0A@$02$02@Eigen@@$02$02$0A@@Eigen@@V?$Matrix@N$02$02$0A@$02$02@2@@internal@Eigen@@QEAA@AEBV?$Block@$$CBV?$Matrix@N$02$02$0A@$02$02@Eigen@@$02$02$0A@@2@@Z
	??0?$mapbase_evaluator@V?$Block@$$CBV?$Matrix@N$02$02$0A@$02$02@Eigen@@$02$0?0$00@Eigen@@V?$Matrix@N$02$0?0$0A@$02$02@2@@internal@Eigen@@QEAA@AEBV?$Block@$$CBV?$Matrix@N$02$02$0A@$02$02@Eigen@@$02$0?0$00@2@@Z
	??0?$mapbase_evaluator@V?$Block@$$CBV?$Matrix@N$02$03$00$02$03@Eigen@@$00$03$00@Eigen@@V?$Matrix@N$00$03$00$00$03@2@@internal@Eigen@@QEAA@AEBV?$Block@$$CBV?$Matrix@N$02$03$00$02$03@Eigen@@$00$03$00@2@@Z
	??0?$mapbase_evaluator@V?$Block@$$CBV?$Matrix@N$02$03$0A@$02$03@Eigen@@$00$02$0A@@Eigen@@V?$Matrix@N$00$02$00$00$02@2@@internal@Eigen@@QEAA@AEBV?$Block@$$CBV?$Matrix@N$02$03$0A@$02$03@Eigen@@$00$02$0A@@2@@Z
	??0?$mapbase_evaluator@V?$Block@$$CBV?$Matrix@N$02$03$0A@$02$03@Eigen@@$00$03$0A@@Eigen@@V?$Matrix@N$00$03$00$00$03@2@@internal@Eigen@@QEAA@AEBV?$Block@$$CBV?$Matrix@N$02$03$0A@$02$03@Eigen@@$00$03$0A@@2@@Z
	??0?$mapbase_evaluator@V?$Block@$$CBV?$Matrix@N$03$00$0A@$03$00@Eigen@@$03$00$00@Eigen@@V?$Matrix@N$03$00$0A@$03$00@2@@internal@Eigen@@QEAA@AEBV?$Block@$$CBV?$Matrix@N$03$00$0A@$03$00@Eigen@@$03$00$00@2@@Z
	??0?$mapbase_evaluator@V?$Block@$$CBV?$Matrix@N$03$02$0A@$03$02@Eigen@@$03$00$00@Eigen@@V?$Matrix@N$03$00$0A@$03$00@2@@internal@Eigen@@QEAA@AEBV?$Block@$$CBV?$Matrix@N$03$02$0A@$03$02@Eigen@@$03$00$00@2@@Z
	??0?$mapbase_evaluator@V?$Block@$$CBV?$Matrix@N$03$03$0A@$03$03@Eigen@@$03$00$00@Eigen@@V?$Matrix@N$03$00$0A@$03$00@2@@internal@Eigen@@QEAA@AEBV?$Block@$$CBV?$Matrix@N$03$03$0A@$03$03@Eigen@@$03$00$00@2@@Z
	??0?$mapbase_evaluator@V?$Block@$$CBV?$Matrix@N$0?0$00$0A@$02$00@Eigen@@$0?0$00$00@Eigen@@V?$Matrix@N$0?0$00$0A@$02$00@2@@internal@Eigen@@QEAA@AEBV?$Block@$$CBV?$Matrix@N$0?0$00$0A@$02$00@Eigen@@$0?0$00$00@2@@Z
	??0?$mapbase_evaluator@V?$Block@$$CBV?$Transpose@$$CBV?$Block@$$CBV?$Matrix@N$02$02$0A@$02$02@Eigen@@$02$0?0$00@Eigen@@@Eigen@@$00$02$00@Eigen@@V?$Matrix@N$00$02$00$00$02@2@@internal@Eigen@@QEAA@AEBV?$Block@$$CBV?$Transpose@$$CBV?$Block@$$CBV?$Matrix@N$02$02$0A@$02$02@Eigen@@$02$0?0$00@Eigen@@@Eigen@@$00$02$00@2@@Z
	??0?$mapbase_evaluator@V?$Block@$$CBV?$Transpose@$$CBV?$Matrix@N$02$03$0A@$02$03@Eigen@@@Eigen@@$00$02$00@Eigen@@V?$Matrix@N$00$02$00$00$02@2@@internal@Eigen@@QEAA@AEBV?$Block@$$CBV?$Transpose@$$CBV?$Matrix@N$02$03$0A@$02$03@Eigen@@@Eigen@@$00$02$00@2@@Z
	??0?$mapbase_evaluator@V?$Block@$$CBV?$Transpose@V?$Matrix@N$02$00$0A@$02$00@Eigen@@@Eigen@@$00$00$0A@@Eigen@@V?$Matrix@N$00$00$00$00$00@2@@internal@Eigen@@QEAA@AEBV?$Block@$$CBV?$Transpose@V?$Matrix@N$02$00$0A@$02$00@Eigen@@@Eigen@@$00$00$0A@@2@@Z
	??0?$mapbase_evaluator@V?$Block@V?$Matrix@N$02$00$0A@$02$00@Eigen@@$0?0$00$0A@@Eigen@@V?$Matrix@N$0?0$00$0A@$02$00@2@@internal@Eigen@@QEAA@AEBV?$Block@V?$Matrix@N$02$00$0A@$02$00@Eigen@@$0?0$00$0A@@2@@Z
	??0?$mapbase_evaluator@V?$Block@V?$Matrix@N$02$02$0A@$02$02@Eigen@@$02$00$00@Eigen@@V?$Matrix@N$02$00$0A@$02$00@2@@internal@Eigen@@QEAA@AEBV?$Block@V?$Matrix@N$02$02$0A@$02$02@Eigen@@$02$00$00@2@@Z
	??0?$mapbase_evaluator@V?$Block@V?$Matrix@N$02$03$0A@$02$03@Eigen@@$00$02$0A@@Eigen@@V?$Matrix@N$00$02$00$00$02@2@@internal@Eigen@@QEAA@AEBV?$Block@V?$Matrix@N$02$03$0A@$02$03@Eigen@@$00$02$0A@@2@@Z
	??0?$mapbase_evaluator@V?$Block@V?$Matrix@N$03$00$0A@$03$00@Eigen@@$02$00$0A@@Eigen@@V?$Matrix@N$02$00$0A@$02$00@2@@internal@Eigen@@QEAA@AEBV?$Block@V?$Matrix@N$03$00$0A@$03$00@Eigen@@$02$00$0A@@2@@Z
	??0?$mapbase_evaluator@V?$Block@V?$Matrix@N$03$00$0A@$03$00@Eigen@@$0?0$00$0A@@Eigen@@V?$Matrix@N$0?0$00$0A@$03$00@2@@internal@Eigen@@QEAA@AEBV?$Block@V?$Matrix@N$03$00$0A@$03$00@Eigen@@$0?0$00$0A@@2@@Z
	??0?$pair@$$CBV?$basic_string@DU?$char_traits@D@std@@V?$allocator@D@2@@std@@V12@@std@@QEAA@AEBU01@@Z
	??0?$plainobjectbase_evaluator_data@M$02@internal@Eigen@@QEAA@PEBM_J@Z
	??0?$plainobjectbase_evaluator_data@M$03@internal@Eigen@@QEAA@PEBM_J@Z
	??0?$plainobjectbase_evaluator_data@M$0A@@internal@Eigen@@QEAA@PEBM_J@Z
	??0?$plainobjectbase_evaluator_data@N$01@internal@Eigen@@QEAA@PEBN_J@Z
	??0?$plainobjectbase_evaluator_data@N$02@internal@Eigen@@QEAA@PEBN_J@Z
	??0?$plainobjectbase_evaluator_data@N$03@internal@Eigen@@QEAA@PEBN_J@Z
	??0?$plainobjectbase_evaluator_data@N$0A@@internal@Eigen@@QEAA@PEBN_J@Z
	??0?$product_evaluator@V?$Product@V?$Block@$$CBV?$Matrix@N$02$02$0A@$02$02@Eigen@@$02$0?0$00@Eigen@@V?$Matrix@N$0?0$00$0A@$02$00@2@$00@Eigen@@$02UDenseShape@2@U32@NN@internal@Eigen@@QEAA@AEBV?$Product@V?$Block@$$CBV?$Matrix@N$02$02$0A@$02$02@Eigen@@$02$0?0$00@Eigen@@V?$Matrix@N$0?0$00$0A@$02$00@2@$00@2@@Z
	??0?$product_evaluator@V?$Product@V?$DiagonalWrapper@$$CBV?$CwiseUnaryOp@U?$scalar_inverse_op@N@internal@Eigen@@$$CBV?$Block@$$CBV?$Matrix@N$02$00$0A@$02$00@Eigen@@$0?0$00$0A@@3@@Eigen@@@Eigen@@V?$Matrix@N$0?0$00$0A@$02$00@2@$00@Eigen@@$02UDiagonalShape@2@UDenseShape@2@NN@internal@Eigen@@QEAA@AEBV?$Product@V?$DiagonalWrapper@$$CBV?$CwiseUnaryOp@U?$scalar_inverse_op@N@internal@Eigen@@$$CBV?$Block@$$CBV?$Matrix@N$02$00$0A@$02$00@Eigen@@$0?0$00$0A@@3@@Eigen@@@Eigen@@V?$Matrix@N$0?0$00$0A@$02$00@2@$00@2@@Z
	??0?$product_evaluator@V?$Product@V?$Matrix@N$02$00$0A@$02$00@Eigen@@V?$Transpose@V?$Matrix@N$02$00$0A@$02$00@Eigen@@@2@$00@Eigen@@$03UDenseShape@2@U32@NN@internal@Eigen@@QEAA@AEBV?$Product@V?$Matrix@N$02$00$0A@$02$00@Eigen@@V?$Transpose@V?$Matrix@N$02$00$0A@$02$00@Eigen@@@2@$00@2@@Z
	??0?$product_evaluator@V?$Product@V?$Matrix@N$02$03$00$02$03@Eigen@@V?$Matrix@N$03$00$0A@$03$00@2@$00@Eigen@@$02UDenseShape@2@U32@NN@internal@Eigen@@QEAA@AEBV?$Product@V?$Matrix@N$02$03$00$02$03@Eigen@@V?$Matrix@N$03$00$0A@$03$00@2@$00@2@@Z
	??0?$product_evaluator@V?$Product@V?$Matrix@N$02$03$0A@$02$03@Eigen@@V?$Matrix@N$03$00$0A@$03$00@2@$00@Eigen@@$02UDenseShape@2@U32@NN@internal@Eigen@@QEAA@AEBV?$Product@V?$Matrix@N$02$03$0A@$02$03@Eigen@@V?$Matrix@N$03$00$0A@$03$00@2@$00@2@@Z
	??0?$product_evaluator@V?$Product@V?$Matrix@N$02$03$0A@$02$03@Eigen@@V?$Matrix@N$03$03$0A@$03$03@2@$00@Eigen@@$02UDenseShape@2@U32@NN@internal@Eigen@@QEAA@AEBV?$Product@V?$Matrix@N$02$03$0A@$02$03@Eigen@@V?$Matrix@N$03$03$0A@$03$03@2@$00@2@@Z
	??0?$product_evaluator@V?$Product@V?$Product@V?$Matrix@N$02$03$0A@$02$03@Eigen@@V?$Matrix@N$03$03$0A@$03$03@2@$0A@@Eigen@@V?$Matrix@N$03$02$0A@$03$02@2@$00@Eigen@@$02UDenseShape@2@U32@NN@internal@Eigen@@QEAA@AEBV?$Product@V?$Product@V?$Matrix@N$02$03$0A@$02$03@Eigen@@V?$Matrix@N$03$03$0A@$03$03@2@$0A@@Eigen@@V?$Matrix@N$03$02$0A@$03$02@2@$00@2@@Z
	??0?$product_evaluator@V?$Product@V?$Transpose@$$CBV?$Block@$$CBV?$Matrix@N$02$02$0A@$02$02@Eigen@@$02$0?0$00@Eigen@@@Eigen@@V?$Matrix@N$02$00$0A@$02$00@2@$00@Eigen@@$02UDenseShape@2@U32@NN@internal@Eigen@@QEAA@AEBV?$Product@V?$Transpose@$$CBV?$Block@$$CBV?$Matrix@N$02$02$0A@$02$02@Eigen@@$02$0?0$00@Eigen@@@Eigen@@V?$Matrix@N$02$00$0A@$02$00@2@$00@2@@Z
	??0?$product_evaluator@V?$Product@V?$Transpose@$$CBV?$Matrix@N$02$03$0A@$02$03@Eigen@@@Eigen@@V?$CwiseUnaryOp@U?$core_cast_op@MN@internal@Eigen@@$$CBV?$Matrix@M$02$00$0A@$02$00@3@@2@$00@Eigen@@$02UDenseShape@2@U32@NN@internal@Eigen@@QEAA@AEBV?$Product@V?$Transpose@$$CBV?$Matrix@N$02$03$0A@$02$03@Eigen@@@Eigen@@V?$CwiseUnaryOp@U?$core_cast_op@MN@internal@Eigen@@$$CBV?$Matrix@M$02$00$0A@$02$00@3@@2@$00@2@@Z
	??0?$product_evaluator@V?$Product@V?$Transpose@V?$Matrix@N$02$00$0A@$02$00@Eigen@@@Eigen@@V?$Matrix@N$02$00$0A@$02$00@2@$0A@@Eigen@@$05UDenseShape@2@U32@NN@internal@Eigen@@QEAA@AEBV?$Product@V?$Transpose@V?$Matrix@N$02$00$0A@$02$00@Eigen@@@Eigen@@V?$Matrix@N$02$00$0A@$02$00@2@$0A@@2@@Z
	??0?$redux_evaluator@V?$CwiseBinaryOp@U?$scalar_product_op@NN@internal@Eigen@@$$CBV?$Transpose@$$CBV?$Block@$$CBV?$Block@$$CBV?$Matrix@N$02$02$0A@$02$02@Eigen@@$02$0?0$00@Eigen@@$00$0?0$0A@@Eigen@@@3@$$CBV?$Block@$$CBV?$Matrix@N$0?0$00$0A@$02$00@Eigen@@$0?0$00$00@3@@Eigen@@@internal@Eigen@@QEAA@AEBV?$CwiseBinaryOp@U?$scalar_product_op@NN@internal@Eigen@@$$CBV?$Transpose@$$CBV?$Block@$$CBV?$Block@$$CBV?$Matrix@N$02$02$0A@$02$02@Eigen@@$02$0?0$00@Eigen@@$00$0?0$0A@@Eigen@@@3@$$CBV?$Block@$$CBV?$Matrix@N$0?0$00$0A@$02$00@Eigen@@$0?0$00$00@3@@2@@Z
	??0?$redux_evaluator@V?$CwiseBinaryOp@U?$scalar_product_op@NN@internal@Eigen@@$$CBV?$Transpose@$$CBV?$Block@$$CBV?$Matrix@N$02$00$0A@$02$00@Eigen@@$00$00$0A@@Eigen@@@3@$$CBV?$Block@$$CBV?$Transpose@V?$Matrix@N$02$00$0A@$02$00@Eigen@@@Eigen@@$00$00$0A@@3@@Eigen@@@internal@Eigen@@QEAA@AEBV?$CwiseBinaryOp@U?$scalar_product_op@NN@internal@Eigen@@$$CBV?$Transpose@$$CBV?$Block@$$CBV?$Matrix@N$02$00$0A@$02$00@Eigen@@$00$00$0A@@Eigen@@@3@$$CBV?$Block@$$CBV?$Transpose@V?$Matrix@N$02$00$0A@$02$00@Eigen@@@Eigen@@$00$00$0A@@3@@2@@Z
	??0?$redux_evaluator@V?$CwiseBinaryOp@U?$scalar_product_op@NN@internal@Eigen@@$$CBV?$Transpose@$$CBV?$Block@$$CBV?$Matrix@N$02$03$00$02$03@Eigen@@$00$03$00@Eigen@@@3@$$CBV?$Block@$$CBV?$Matrix@N$03$00$0A@$03$00@Eigen@@$03$00$00@3@@Eigen@@@internal@Eigen@@QEAA@AEBV?$CwiseBinaryOp@U?$scalar_product_op@NN@internal@Eigen@@$$CBV?$Transpose@$$CBV?$Block@$$CBV?$Matrix@N$02$03$00$02$03@Eigen@@$00$03$00@Eigen@@@3@$$CBV?$Block@$$CBV?$Matrix@N$03$00$0A@$03$00@Eigen@@$03$00$00@3@@2@@Z
	??0?$redux_evaluator@V?$CwiseBinaryOp@U?$scalar_product_op@NN@internal@Eigen@@$$CBV?$Transpose@$$CBV?$Block@$$CBV?$Matrix@N$02$03$0A@$02$03@Eigen@@$00$03$0A@@Eigen@@@3@$$CBV?$Block@$$CBV?$Matrix@N$03$00$0A@$03$00@Eigen@@$03$00$00@3@@Eigen@@@internal@Eigen@@QEAA@AEBV?$CwiseBinaryOp@U?$scalar_product_op@NN@internal@Eigen@@$$CBV?$Transpose@$$CBV?$Block@$$CBV?$Matrix@N$02$03$0A@$02$03@Eigen@@$00$03$0A@@Eigen@@@3@$$CBV?$Block@$$CBV?$Matrix@N$03$00$0A@$03$00@Eigen@@$03$00$00@3@@2@@Z
	??0?$redux_evaluator@V?$CwiseBinaryOp@U?$scalar_product_op@NN@internal@Eigen@@$$CBV?$Transpose@$$CBV?$Block@$$CBV?$Matrix@N$02$03$0A@$02$03@Eigen@@$00$03$0A@@Eigen@@@3@$$CBV?$Block@$$CBV?$Matrix@N$03$02$0A@$03$02@Eigen@@$03$00$00@3@@Eigen@@@internal@Eigen@@QEAA@AEBV?$CwiseBinaryOp@U?$scalar_product_op@NN@internal@Eigen@@$$CBV?$Transpose@$$CBV?$Block@$$CBV?$Matrix@N$02$03$0A@$02$03@Eigen@@$00$03$0A@@Eigen@@@3@$$CBV?$Block@$$CBV?$Matrix@N$03$02$0A@$03$02@Eigen@@$03$00$00@3@@2@@Z
	??0?$redux_evaluator@V?$CwiseBinaryOp@U?$scalar_product_op@NN@internal@Eigen@@$$CBV?$Transpose@$$CBV?$Block@$$CBV?$Matrix@N$02$03$0A@$02$03@Eigen@@$00$03$0A@@Eigen@@@3@$$CBV?$Block@$$CBV?$Matrix@N$03$03$0A@$03$03@Eigen@@$03$00$00@3@@Eigen@@@internal@Eigen@@QEAA@AEBV?$CwiseBinaryOp@U?$scalar_product_op@NN@internal@Eigen@@$$CBV?$Transpose@$$CBV?$Block@$$CBV?$Matrix@N$02$03$0A@$02$03@Eigen@@$00$03$0A@@Eigen@@@3@$$CBV?$Block@$$CBV?$Matrix@N$03$03$0A@$03$03@Eigen@@$03$00$00@3@@2@@Z
	??0?$redux_evaluator@V?$CwiseBinaryOp@U?$scalar_product_op@NN@internal@Eigen@@$$CBV?$Transpose@$$CBV?$Block@$$CBV?$Transpose@$$CBV?$Block@$$CBV?$Matrix@N$02$02$0A@$02$02@Eigen@@$02$0?0$00@Eigen@@@Eigen@@$00$02$00@Eigen@@@3@$$CBV?$Block@$$CBV?$Matrix@N$02$00$0A@$02$00@Eigen@@$02$00$00@3@@Eigen@@@internal@Eigen@@QEAA@AEBV?$CwiseBinaryOp@U?$scalar_product_op@NN@internal@Eigen@@$$CBV?$Transpose@$$CBV?$Block@$$CBV?$Transpose@$$CBV?$Block@$$CBV?$Matrix@N$02$02$0A@$02$02@Eigen@@$02$0?0$00@Eigen@@@Eigen@@$00$02$00@Eigen@@@3@$$CBV?$Block@$$CBV?$Matrix@N$02$00$0A@$02$00@Eigen@@$02$00$00@3@@2@@Z
	??0?$redux_evaluator@V?$CwiseBinaryOp@U?$scalar_product_op@NN@internal@Eigen@@$$CBV?$Transpose@$$CBV?$Block@$$CBV?$Transpose@$$CBV?$Matrix@N$02$03$0A@$02$03@Eigen@@@Eigen@@$00$02$00@Eigen@@@3@$$CBV?$Block@$$CBV?$Matrix@N$02$00$0A@$02$00@Eigen@@$02$00$00@3@@Eigen@@@internal@Eigen@@QEAA@AEBV?$CwiseBinaryOp@U?$scalar_product_op@NN@internal@Eigen@@$$CBV?$Transpose@$$CBV?$Block@$$CBV?$Transpose@$$CBV?$Matrix@N$02$03$0A@$02$03@Eigen@@@Eigen@@$00$02$00@Eigen@@@3@$$CBV?$Block@$$CBV?$Matrix@N$02$00$0A@$02$00@Eigen@@$02$00$00@3@@2@@Z
	??0?$redux_evaluator@V?$CwiseUnaryOp@U?$scalar_abs_op@N@internal@Eigen@@$$CBV?$Matrix@N$02$02$0A@$02$02@3@@Eigen@@@internal@Eigen@@QEAA@AEBV?$CwiseUnaryOp@U?$scalar_abs_op@N@internal@Eigen@@$$CBV?$Matrix@N$02$02$0A@$02$02@3@@2@@Z
	??0?$redux_evaluator@V?$CwiseUnaryOp@U?$squared_norm_functor@N$0A@@internal@Eigen@@$$CBV?$Block@$$CBV?$Matrix@N$02$03$0A@$02$03@Eigen@@$00$02$0A@@3@@Eigen@@@internal@Eigen@@QEAA@AEBV?$CwiseUnaryOp@U?$squared_norm_functor@N$0A@@internal@Eigen@@$$CBV?$Block@$$CBV?$Matrix@N$02$03$0A@$02$03@Eigen@@$00$02$0A@@3@@2@@Z
	??0?$redux_evaluator@V?$CwiseUnaryOp@U?$squared_norm_functor@N$0A@@internal@Eigen@@$$CBV?$Block@V?$Matrix@N$02$00$0A@$02$00@Eigen@@$0?0$00$0A@@3@@Eigen@@@internal@Eigen@@QEAA@AEBV?$CwiseUnaryOp@U?$squared_norm_functor@N$0A@@internal@Eigen@@$$CBV?$Block@V?$Matrix@N$02$00$0A@$02$00@Eigen@@$0?0$00$0A@@3@@2@@Z
	??0?$redux_evaluator@V?$CwiseUnaryOp@U?$squared_norm_functor@N$0A@@internal@Eigen@@$$CBV?$Block@V?$Matrix@N$03$00$0A@$03$00@Eigen@@$0?0$00$0A@@3@@Eigen@@@internal@Eigen@@QEAA@AEBV?$CwiseUnaryOp@U?$squared_norm_functor@N$0A@@internal@Eigen@@$$CBV?$Block@V?$Matrix@N$03$00$0A@$03$00@Eigen@@$0?0$00$0A@@3@@2@@Z
	??0?$redux_evaluator@V?$CwiseUnaryOp@U?$squared_norm_functor@N$0A@@internal@Eigen@@$$CBV?$CwiseBinaryOp@U?$scalar_difference_op@NN@internal@Eigen@@$$CBV?$Matrix@N$03$00$0A@$03$00@3@$$CBV43@@3@@Eigen@@@internal@Eigen@@QEAA@AEBV?$CwiseUnaryOp@U?$squared_norm_functor@N$0A@@internal@Eigen@@$$CBV?$CwiseBinaryOp@U?$scalar_difference_op@NN@internal@Eigen@@$$CBV?$Matrix@N$03$00$0A@$03$00@3@$$CBV43@@3@@2@@Z
	??0?$redux_evaluator@V?$CwiseUnaryOp@U?$squared_norm_functor@N$0A@@internal@Eigen@@$$CBV?$Matrix@N$02$00$0A@$02$00@3@@Eigen@@@internal@Eigen@@QEAA@AEBV?$CwiseUnaryOp@U?$squared_norm_functor@N$0A@@internal@Eigen@@$$CBV?$Matrix@N$02$00$0A@$02$00@3@@2@@Z
	??0?$redux_evaluator@V?$Diagonal@$$CBV?$CwiseUnaryOp@U?$scalar_abs_op@N@internal@Eigen@@$$CBV?$Matrix@N$02$02$0A@$02$02@3@@Eigen@@$0A@@Eigen@@@internal@Eigen@@QEAA@AEBV?$Diagonal@$$CBV?$CwiseUnaryOp@U?$scalar_abs_op@N@internal@Eigen@@$$CBV?$Matrix@N$02$02$0A@$02$02@3@@Eigen@@$0A@@2@@Z
	??0?$scalar_constant_op@N@internal@Eigen@@QEAA@AEBN@Z
	??0?$tuple@$$QEAV?$basic_string@DU?$char_traits@D@std@@V?$allocator@D@2@@std@@@std@@QEAA@$$QEAV01@@Z
	??0?$tuple@$$V@std@@QEAA@AEBV01@@Z
	??0?$tuple@AEBV?$basic_string@DU?$char_traits@D@std@@V?$allocator@D@2@@std@@@std@@QEAA@$$QEAV01@@Z
	??0?$unary_evaluator@V?$CwiseUnaryOp@U?$core_cast_op@MN@internal@Eigen@@$$CBV?$Matrix@M$02$00$0A@$02$00@3@@Eigen@@UIndexBased@internal@2@N@internal@Eigen@@QEAA@AEBV?$CwiseUnaryOp@U?$core_cast_op@MN@internal@Eigen@@$$CBV?$Matrix@M$02$00$0A@$02$00@3@@2@@Z
	??0?$unary_evaluator@V?$CwiseUnaryOp@U?$core_cast_op@NM@internal@Eigen@@$$CBV?$Matrix@N$02$00$0A@$02$00@3@@Eigen@@UIndexBased@internal@2@M@internal@Eigen@@QEAA@AEBV?$CwiseUnaryOp@U?$core_cast_op@NM@internal@Eigen@@$$CBV?$Matrix@N$02$00$0A@$02$00@3@@2@@Z
	??0?$unary_evaluator@V?$CwiseUnaryOp@U?$core_cast_op@NM@internal@Eigen@@$$CBV?$Matrix@N$03$00$0A@$03$00@3@@Eigen@@UIndexBased@internal@2@M@internal@Eigen@@QEAA@AEBV?$CwiseUnaryOp@U?$core_cast_op@NM@internal@Eigen@@$$CBV?$Matrix@N$03$00$0A@$03$00@3@@2@@Z
	??0?$unary_evaluator@V?$CwiseUnaryOp@U?$core_cast_op@NM@internal@Eigen@@$$CBV?$Transpose@V?$Matrix@N$03$02$0A@$03$02@Eigen@@@3@@Eigen@@UIndexBased@internal@2@M@internal@Eigen@@QEAA@AEBV?$CwiseUnaryOp@U?$core_cast_op@NM@internal@Eigen@@$$CBV?$Transpose@V?$Matrix@N$03$02$0A@$03$02@Eigen@@@3@@2@@Z
	??0?$unary_evaluator@V?$CwiseUnaryOp@U?$scalar_abs_op@N@internal@Eigen@@$$CBV?$Matrix@N$02$02$0A@$02$02@3@@Eigen@@UIndexBased@internal@2@N@internal@Eigen@@QEAA@AEBV?$CwiseUnaryOp@U?$scalar_abs_op@N@internal@Eigen@@$$CBV?$Matrix@N$02$02$0A@$02$02@3@@2@@Z
	??0?$unary_evaluator@V?$CwiseUnaryOp@U?$scalar_inverse_op@N@internal@Eigen@@$$CBV?$Block@$$CBV?$Matrix@N$02$00$0A@$02$00@Eigen@@$0?0$00$0A@@3@@Eigen@@UIndexBased@internal@2@N@internal@Eigen@@QEAA@AEBV?$CwiseUnaryOp@U?$scalar_inverse_op@N@internal@Eigen@@$$CBV?$Block@$$CBV?$Matrix@N$02$00$0A@$02$00@Eigen@@$0?0$00$0A@@3@@2@@Z
	??0?$unary_evaluator@V?$CwiseUnaryOp@U?$scalar_opposite_op@N@internal@Eigen@@$$CBV?$Block@V?$Matrix@N$02$02$0A@$02$02@Eigen@@$02$00$00@3@@Eigen@@UIndexBased@internal@2@N@internal@Eigen@@QEAA@AEBV?$CwiseUnaryOp@U?$scalar_opposite_op@N@internal@Eigen@@$$CBV?$Block@V?$Matrix@N$02$02$0A@$02$02@Eigen@@$02$00$00@3@@2@@Z
	??0?$unary_evaluator@V?$CwiseUnaryOp@U?$squared_norm_functor@N$0A@@internal@Eigen@@$$CBV?$Block@$$CBV?$Matrix@N$02$03$0A@$02$03@Eigen@@$00$02$0A@@3@@Eigen@@UIndexBased@internal@2@N@internal@Eigen@@QEAA@AEBV?$CwiseUnaryOp@U?$squared_norm_functor@N$0A@@internal@Eigen@@$$CBV?$Block@$$CBV?$Matrix@N$02$03$0A@$02$03@Eigen@@$00$02$0A@@3@@2@@Z
	??0?$unary_evaluator@V?$CwiseUnaryOp@U?$squared_norm_functor@N$0A@@internal@Eigen@@$$CBV?$Block@V?$Matrix@N$02$00$0A@$02$00@Eigen@@$0?0$00$0A@@3@@Eigen@@UIndexBased@internal@2@N@internal@Eigen@@QEAA@AEBV?$CwiseUnaryOp@U?$squared_norm_functor@N$0A@@internal@Eigen@@$$CBV?$Block@V?$Matrix@N$02$00$0A@$02$00@Eigen@@$0?0$00$0A@@3@@2@@Z
	??0?$unary_evaluator@V?$CwiseUnaryOp@U?$squared_norm_functor@N$0A@@internal@Eigen@@$$CBV?$Block@V?$Matrix@N$03$00$0A@$03$00@Eigen@@$0?0$00$0A@@3@@Eigen@@UIndexBased@internal@2@N@internal@Eigen@@QEAA@AEBV?$CwiseUnaryOp@U?$squared_norm_functor@N$0A@@internal@Eigen@@$$CBV?$Block@V?$Matrix@N$03$00$0A@$03$00@Eigen@@$0?0$00$0A@@3@@2@@Z
	??0?$unary_evaluator@V?$CwiseUnaryOp@U?$squared_norm_functor@N$0A@@internal@Eigen@@$$CBV?$CwiseBinaryOp@U?$scalar_difference_op@NN@internal@Eigen@@$$CBV?$Matrix@N$03$00$0A@$03$00@3@$$CBV43@@3@@Eigen@@UIndexBased@internal@2@N@internal@Eigen@@QEAA@AEBV?$CwiseUnaryOp@U?$squared_norm_functor@N$0A@@internal@Eigen@@$$CBV?$CwiseBinaryOp@U?$scalar_difference_op@NN@internal@Eigen@@$$CBV?$Matrix@N$03$00$0A@$03$00@3@$$CBV43@@3@@2@@Z
	??0?$unary_evaluator@V?$CwiseUnaryOp@U?$squared_norm_functor@N$0A@@internal@Eigen@@$$CBV?$Matrix@N$02$00$0A@$02$00@3@@Eigen@@UIndexBased@internal@2@N@internal@Eigen@@QEAA@AEBV?$CwiseUnaryOp@U?$squared_norm_functor@N$0A@@internal@Eigen@@$$CBV?$Matrix@N$02$00$0A@$02$00@3@@2@@Z
	??0?$unary_evaluator@V?$Transpose@$$CBV?$Block@$$CBV?$Block@$$CBV?$Matrix@N$02$02$0A@$02$02@Eigen@@$02$0?0$00@Eigen@@$00$0?0$0A@@Eigen@@@Eigen@@UIndexBased@internal@2@N@internal@Eigen@@QEAA@AEBV?$Transpose@$$CBV?$Block@$$CBV?$Block@$$CBV?$Matrix@N$02$02$0A@$02$02@Eigen@@$02$0?0$00@Eigen@@$00$0?0$0A@@Eigen@@@2@@Z
	??0?$unary_evaluator@V?$Transpose@$$CBV?$Block@$$CBV?$Matrix@N$02$00$0A@$02$00@Eigen@@$00$00$0A@@Eigen@@@Eigen@@UIndexBased@internal@2@N@internal@Eigen@@QEAA@AEBV?$Transpose@$$CBV?$Block@$$CBV?$Matrix@N$02$00$0A@$02$00@Eigen@@$00$00$0A@@Eigen@@@2@@Z
	??0?$unary_evaluator@V?$Transpose@$$CBV?$Block@$$CBV?$Matrix@N$02$02$0A@$02$02@Eigen@@$02$0?0$00@Eigen@@@Eigen@@UIndexBased@internal@2@N@internal@Eigen@@QEAA@AEBV?$Transpose@$$CBV?$Block@$$CBV?$Matrix@N$02$02$0A@$02$02@Eigen@@$02$0?0$00@Eigen@@@2@@Z
	??0?$unary_evaluator@V?$Transpose@$$CBV?$Block@$$CBV?$Matrix@N$02$03$00$02$03@Eigen@@$00$03$00@Eigen@@@Eigen@@UIndexBased@internal@2@N@internal@Eigen@@QEAA@AEBV?$Transpose@$$CBV?$Block@$$CBV?$Matrix@N$02$03$00$02$03@Eigen@@$00$03$00@Eigen@@@2@@Z
	??0?$unary_evaluator@V?$Transpose@$$CBV?$Block@$$CBV?$Matrix@N$02$03$0A@$02$03@Eigen@@$00$03$0A@@Eigen@@@Eigen@@UIndexBased@internal@2@N@internal@Eigen@@QEAA@AEBV?$Transpose@$$CBV?$Block@$$CBV?$Matrix@N$02$03$0A@$02$03@Eigen@@$00$03$0A@@Eigen@@@2@@Z
	??0?$unary_evaluator@V?$Transpose@$$CBV?$Block@$$CBV?$Transpose@$$CBV?$Block@$$CBV?$Matrix@N$02$02$0A@$02$02@Eigen@@$02$0?0$00@Eigen@@@Eigen@@$00$02$00@Eigen@@@Eigen@@UIndexBased@internal@2@N@internal@Eigen@@QEAA@AEBV?$Transpose@$$CBV?$Block@$$CBV?$Transpose@$$CBV?$Block@$$CBV?$Matrix@N$02$02$0A@$02$02@Eigen@@$02$0?0$00@Eigen@@@Eigen@@$00$02$00@Eigen@@@2@@Z
	??0?$unary_evaluator@V?$Transpose@$$CBV?$Block@$$CBV?$Transpose@$$CBV?$Matrix@N$02$03$0A@$02$03@Eigen@@@Eigen@@$00$02$00@Eigen@@@Eigen@@UIndexBased@internal@2@N@internal@Eigen@@QEAA@AEBV?$Transpose@$$CBV?$Block@$$CBV?$Transpose@$$CBV?$Matrix@N$02$03$0A@$02$03@Eigen@@@Eigen@@$00$02$00@Eigen@@@2@@Z
	??0?$unary_evaluator@V?$Transpose@$$CBV?$Matrix@N$02$03$0A@$02$03@Eigen@@@Eigen@@UIndexBased@internal@2@N@internal@Eigen@@QEAA@AEBV?$Transpose@$$CBV?$Matrix@N$02$03$0A@$02$03@Eigen@@@2@@Z
	??0?$unary_evaluator@V?$Transpose@V?$Matrix@N$02$00$0A@$02$00@Eigen@@@Eigen@@UIndexBased@internal@2@N@internal@Eigen@@QEAA@AEBV?$Transpose@V?$Matrix@N$02$00$0A@$02$00@Eigen@@@2@@Z
	??0?$unary_evaluator@V?$Transpose@V?$Matrix@N$03$02$0A@$03$02@Eigen@@@Eigen@@UIndexBased@internal@2@N@internal@Eigen@@QEAA@AEBV?$Transpose@V?$Matrix@N$03$02$0A@$03$02@Eigen@@@2@@Z
	??0?$variable_if_dynamic@_J$00@internal@Eigen@@QEAA@_J@Z
	??0?$variable_if_dynamic@_J$01@internal@Eigen@@QEAA@_J@Z
	??0?$variable_if_dynamic@_J$02@internal@Eigen@@QEAA@_J@Z
	??0?$variable_if_dynamic@_J$03@internal@Eigen@@QEAA@_J@Z
	??0?$variable_if_dynamic@_J$0?0@internal@Eigen@@QEAA@_J@Z
	??0?$variable_if_dynamic@_J$0A@@internal@Eigen@@QEAA@_J@Z
	??0?$variable_if_dynamicindex@_J$0A@@internal@Eigen@@QEAA@_J@Z
	??0?$vector@HV?$allocator@H@std@@@std@@QEAA@$$QEAV01@@Z
	??0?$vector@HV?$allocator@H@std@@@std@@QEAA@XZ
	??0?$vector@HV?$allocator@H@std@@@std@@QEAA@_KAEBV?$allocator@H@1@@Z
	??0?$vector@MV?$allocator@M@std@@@std@@QEAA@XZ
	??0?$vector@MV?$allocator@M@std@@@std@@QEAA@_KAEBMAEBV?$allocator@M@1@@Z
	??0?$vector@NV?$allocator@N@std@@@std@@QEAA@$$QEAV01@@Z
	??0?$vector@NV?$allocator@N@std@@@std@@QEAA@XZ
	??0?$vector@PEAV?$BindlessTexture2D@M@UtilsCuda@@V?$allocator@PEAV?$BindlessTexture2D@M@UtilsCuda@@@std@@@std@@QEAA@XZ
	??0?$vector@PEAVRadonIntermediate@EpipolarConsistency@@V?$allocator@PEAVRadonIntermediate@EpipolarConsistency@@@std@@@std@@QEAA@XZ
	??0?$vector@U?$pair@V?$Matrix@M$02$00$0A@$02$00@Eigen@@V12@@std@@V?$allocator@U?$pair@V?$Matrix@M$02$00$0A@$02$00@Eigen@@V12@@std@@@2@@std@@QEAA@$$QEAV01@@Z
	??0?$vector@U?$pair@V?$Matrix@M$02$00$0A@$02$00@Eigen@@V12@@std@@V?$allocator@U?$pair@V?$Matrix@M$02$00$0A@$02$00@Eigen@@V12@@std@@@2@@std@@QEAA@_KAEBV?$allocator@U?$pair@V?$Matrix@M$02$00$0A@$02$00@Eigen@@V12@@std@@@1@@Z
	??0?$vector@UFBCC_weighting_info@@V?$allocator@UFBCC_weighting_info@@@std@@@std@@QEAA@_KAEBV?$allocator@UFBCC_weighting_info@@@1@@Z
	??0?$vector@V?$Matrix@H$03$00$0A@$03$00@Eigen@@V?$allocator@V?$Matrix@H$03$00$0A@$03$00@Eigen@@@std@@@std@@QEAA@XZ
	??0?$vector@V?$Matrix@M$02$03$0A@$02$03@Eigen@@V?$allocator@V?$Matrix@M$02$03$0A@$02$03@Eigen@@@std@@@std@@QEAA@_KAEBV?$allocator@V?$Matrix@M$02$03$0A@$02$03@Eigen@@@1@@Z
	??0?$vector@V?$Matrix@M$03$00$0A@$03$00@Eigen@@V?$allocator@V?$Matrix@M$03$00$0A@$03$00@Eigen@@@std@@@std@@QEAA@_KAEBV?$allocator@V?$Matrix@M$03$00$0A@$03$00@Eigen@@@1@@Z
	??0?$vector@V?$Matrix@N$02$03$0A@$02$03@Eigen@@V?$allocator@V?$Matrix@N$02$03$0A@$02$03@Eigen@@@std@@@std@@QEAA@XZ
	??0?$vector@_KV?$allocator@_K@std@@@std@@QEAA@_KAEBV?$allocator@_K@1@@Z
	??0Data@?$binary_evaluator@V?$CwiseBinaryOp@U?$scalar_difference_op@NN@internal@Eigen@@$$CBV?$Matrix@N$02$00$0A@$02$00@3@$$CBV?$CwiseBinaryOp@U?$scalar_product_op@NN@internal@Eigen@@$$CBV?$Matrix@N$02$00$0A@$02$00@3@$$CBV?$CwiseNullaryOp@U?$scalar_constant_op@N@internal@Eigen@@$$CBV?$Matrix@N$02$00$0A@$02$00@3@@3@@3@@Eigen@@UIndexBased@internal@2@U342@NN@internal@Eigen@@QEAA@AEBV?$CwiseBinaryOp@U?$scalar_difference_op@NN@internal@Eigen@@$$CBV?$Matrix@N$02$00$0A@$02$00@3@$$CBV?$CwiseBinaryOp@U?$scalar_product_op@NN@internal@Eigen@@$$CBV?$Matrix@N$02$00$0A@$02$00@3@$$CBV?$CwiseNullaryOp@U?$scalar_constant_op@N@internal@Eigen@@$$CBV?$Matrix@N$02$00$0A@$02$00@3@@3@@3@@3@@Z
	??0Data@?$binary_evaluator@V?$CwiseBinaryOp@U?$scalar_difference_op@NN@internal@Eigen@@$$CBV?$Matrix@N$03$00$0A@$03$00@3@$$CBV43@@Eigen@@UIndexBased@internal@2@U342@NN@internal@Eigen@@QEAA@AEBV?$CwiseBinaryOp@U?$scalar_difference_op@NN@internal@Eigen@@$$CBV?$Matrix@N$03$00$0A@$03$00@3@$$CBV43@@3@@Z
	??0Data@?$binary_evaluator@V?$CwiseBinaryOp@U?$scalar_product_op@NN@internal@Eigen@@$$CBV?$CwiseNullaryOp@U?$scalar_constant_op@N@internal@Eigen@@$$CBV?$Matrix@N$03$00$0A@$03$00@3@@3@$$CBV?$Matrix@N$03$00$0A@$03$00@3@@Eigen@@UIndexBased@internal@2@U342@NN@internal@Eigen@@QEAA@AEBV?$CwiseBinaryOp@U?$scalar_product_op@NN@internal@Eigen@@$$CBV?$CwiseNullaryOp@U?$scalar_constant_op@N@internal@Eigen@@$$CBV?$Matrix@N$03$00$0A@$03$00@3@@3@$$CBV?$Matrix@N$03$00$0A@$03$00@3@@3@@Z
	??0Data@?$binary_evaluator@V?$CwiseBinaryOp@U?$scalar_product_op@NN@internal@Eigen@@$$CBV?$Matrix@N$02$00$0A@$02$00@3@$$CBV?$CwiseNullaryOp@U?$scalar_constant_op@N@internal@Eigen@@$$CBV?$Matrix@N$02$00$0A@$02$00@3@@3@@Eigen@@UIndexBased@internal@2@U342@NN@internal@Eigen@@QEAA@AEBV?$CwiseBinaryOp@U?$scalar_product_op@NN@internal@Eigen@@$$CBV?$Matrix@N$02$00$0A@$02$00@3@$$CBV?$CwiseNullaryOp@U?$scalar_constant_op@N@internal@Eigen@@$$CBV?$Matrix@N$02$00$0A@$02$00@3@@3@@3@@Z
	??0Data@?$binary_evaluator@V?$CwiseBinaryOp@U?$scalar_product_op@NN@internal@Eigen@@$$CBV?$Transpose@$$CBV?$Block@$$CBV?$Block@$$CBV?$Matrix@N$02$02$0A@$02$02@Eigen@@$02$0?0$00@Eigen@@$00$0?0$0A@@Eigen@@@3@$$CBV?$Block@$$CBV?$Matrix@N$0?0$00$0A@$02$00@Eigen@@$0?0$00$00@3@@Eigen@@UIndexBased@internal@2@U342@NN@internal@Eigen@@QEAA@AEBV?$CwiseBinaryOp@U?$scalar_product_op@NN@internal@Eigen@@$$CBV?$Transpose@$$CBV?$Block@$$CBV?$Block@$$CBV?$Matrix@N$02$02$0A@$02$02@Eigen@@$02$0?0$00@Eigen@@$00$0?0$0A@@Eigen@@@3@$$CBV?$Block@$$CBV?$Matrix@N$0?0$00$0A@$02$00@Eigen@@$0?0$00$00@3@@3@@Z
	??0Data@?$binary_evaluator@V?$CwiseBinaryOp@U?$scalar_product_op@NN@internal@Eigen@@$$CBV?$Transpose@$$CBV?$Block@$$CBV?$Matrix@N$02$00$0A@$02$00@Eigen@@$00$00$0A@@Eigen@@@3@$$CBV?$Block@$$CBV?$Transpose@V?$Matrix@N$02$00$0A@$02$00@Eigen@@@Eigen@@$00$00$0A@@3@@Eigen@@UIndexBased@internal@2@U342@NN@internal@Eigen@@QEAA@AEBV?$CwiseBinaryOp@U?$scalar_product_op@NN@internal@Eigen@@$$CBV?$Transpose@$$CBV?$Block@$$CBV?$Matrix@N$02$00$0A@$02$00@Eigen@@$00$00$0A@@Eigen@@@3@$$CBV?$Block@$$CBV?$Transpose@V?$Matrix@N$02$00$0A@$02$00@Eigen@@@Eigen@@$00$00$0A@@3@@3@@Z
	??0Data@?$binary_evaluator@V?$CwiseBinaryOp@U?$scalar_product_op@NN@internal@Eigen@@$$CBV?$Transpose@$$CBV?$Block@$$CBV?$Matrix@N$02$03$00$02$03@Eigen@@$00$03$00@Eigen@@@3@$$CBV?$Block@$$CBV?$Matrix@N$03$00$0A@$03$00@Eigen@@$03$00$00@3@@Eigen@@UIndexBased@internal@2@U342@NN@internal@Eigen@@QEAA@AEBV?$CwiseBinaryOp@U?$scalar_product_op@NN@internal@Eigen@@$$CBV?$Transpose@$$CBV?$Block@$$CBV?$Matrix@N$02$03$00$02$03@Eigen@@$00$03$00@Eigen@@@3@$$CBV?$Block@$$CBV?$Matrix@N$03$00$0A@$03$00@Eigen@@$03$00$00@3@@3@@Z
	??0Data@?$binary_evaluator@V?$CwiseBinaryOp@U?$scalar_product_op@NN@internal@Eigen@@$$CBV?$Transpose@$$CBV?$Block@$$CBV?$Matrix@N$02$03$0A@$02$03@Eigen@@$00$03$0A@@Eigen@@@3@$$CBV?$Block@$$CBV?$Matrix@N$03$00$0A@$03$00@Eigen@@$03$00$00@3@@Eigen@@UIndexBased@internal@2@U342@NN@internal@Eigen@@QEAA@AEBV?$CwiseBinaryOp@U?$scalar_product_op@NN@internal@Eigen@@$$CBV?$Transpose@$$CBV?$Block@$$CBV?$Matrix@N$02$03$0A@$02$03@Eigen@@$00$03$0A@@Eigen@@@3@$$CBV?$Block@$$CBV?$Matrix@N$03$00$0A@$03$00@Eigen@@$03$00$00@3@@3@@Z
	??0Data@?$binary_evaluator@V?$CwiseBinaryOp@U?$scalar_product_op@NN@internal@Eigen@@$$CBV?$Transpose@$$CBV?$Block@$$CBV?$Matrix@N$02$03$0A@$02$03@Eigen@@$00$03$0A@@Eigen@@@3@$$CBV?$Block@$$CBV?$Matrix@N$03$02$0A@$03$02@Eigen@@$03$00$00@3@@Eigen@@UIndexBased@internal@2@U342@NN@internal@Eigen@@QEAA@AEBV?$CwiseBinaryOp@U?$scalar_product_op@NN@internal@Eigen@@$$CBV?$Transpose@$$CBV?$Block@$$CBV?$Matrix@N$02$03$0A@$02$03@Eigen@@$00$03$0A@@Eigen@@@3@$$CBV?$Block@$$CBV?$Matrix@N$03$02$0A@$03$02@Eigen@@$03$00$00@3@@3@@Z
	??0Data@?$binary_evaluator@V?$CwiseBinaryOp@U?$scalar_product_op@NN@internal@Eigen@@$$CBV?$Transpose@$$CBV?$Block@$$CBV?$Matrix@N$02$03$0A@$02$03@Eigen@@$00$03$0A@@Eigen@@@3@$$CBV?$Block@$$CBV?$Matrix@N$03$03$0A@$03$03@Eigen@@$03$00$00@3@@Eigen@@UIndexBased@internal@2@U342@NN@internal@Eigen@@QEAA@AEBV?$CwiseBinaryOp@U?$scalar_product_op@NN@internal@Eigen@@$$CBV?$Transpose@$$CBV?$Block@$$CBV?$Matrix@N$02$03$0A@$02$03@Eigen@@$00$03$0A@@Eigen@@@3@$$CBV?$Block@$$CBV?$Matrix@N$03$03$0A@$03$03@Eigen@@$03$00$00@3@@3@@Z
	??0Data@?$binary_evaluator@V?$CwiseBinaryOp@U?$scalar_product_op@NN@internal@Eigen@@$$CBV?$Transpose@$$CBV?$Block@$$CBV?$Transpose@$$CBV?$Block@$$CBV?$Matrix@N$02$02$0A@$02$02@Eigen@@$02$0?0$00@Eigen@@@Eigen@@$00$02$00@Eigen@@@3@$$CBV?$Block@$$CBV?$Matrix@N$02$00$0A@$02$00@Eigen@@$02$00$00@3@@Eigen@@UIndexBased@internal@2@U342@NN@internal@Eigen@@QEAA@AEBV?$CwiseBinaryOp@U?$scalar_product_op@NN@internal@Eigen@@$$CBV?$Transpose@$$CBV?$Block@$$CBV?$Transpose@$$CBV?$Block@$$CBV?$Matrix@N$02$02$0A@$02$02@Eigen@@$02$0?0$00@Eigen@@@Eigen@@$00$02$00@Eigen@@@3@$$CBV?$Block@$$CBV?$Matrix@N$02$00$0A@$02$00@Eigen@@$02$00$00@3@@3@@Z
	??0Data@?$binary_evaluator@V?$CwiseBinaryOp@U?$scalar_product_op@NN@internal@Eigen@@$$CBV?$Transpose@$$CBV?$Block@$$CBV?$Transpose@$$CBV?$Matrix@N$02$03$0A@$02$03@Eigen@@@Eigen@@$00$02$00@Eigen@@@3@$$CBV?$Block@$$CBV?$Matrix@N$02$00$0A@$02$00@Eigen@@$02$00$00@3@@Eigen@@UIndexBased@internal@2@U342@NN@internal@Eigen@@QEAA@AEBV?$CwiseBinaryOp@U?$scalar_product_op@NN@internal@Eigen@@$$CBV?$Transpose@$$CBV?$Block@$$CBV?$Transpose@$$CBV?$Matrix@N$02$03$0A@$02$03@Eigen@@@Eigen@@$00$02$00@Eigen@@@3@$$CBV?$Block@$$CBV?$Matrix@N$02$00$0A@$02$00@Eigen@@$02$00$00@3@@3@@Z
	??0Data@?$binary_evaluator@V?$CwiseBinaryOp@U?$scalar_quotient_op@NN@internal@Eigen@@$$CBV?$Block@$$CBV?$Matrix@N$02$02$0A@$02$02@Eigen@@$02$02$0A@@3@$$CBV?$CwiseNullaryOp@U?$scalar_constant_op@N@internal@Eigen@@$$CBV?$Matrix@N$02$02$0A@$02$02@3@@3@@Eigen@@UIndexBased@internal@2@U342@NN@internal@Eigen@@QEAA@AEBV?$CwiseBinaryOp@U?$scalar_quotient_op@NN@internal@Eigen@@$$CBV?$Block@$$CBV?$Matrix@N$02$02$0A@$02$02@Eigen@@$02$02$0A@@3@$$CBV?$CwiseNullaryOp@U?$scalar_constant_op@N@internal@Eigen@@$$CBV?$Matrix@N$02$02$0A@$02$02@3@@3@@3@@Z
	??0Data@?$binary_evaluator@V?$CwiseBinaryOp@U?$scalar_quotient_op@NN@internal@Eigen@@$$CBV?$Block@$$CBV?$Matrix@N$02$03$0A@$02$03@Eigen@@$00$02$0A@@3@$$CBV?$CwiseNullaryOp@U?$scalar_constant_op@N@internal@Eigen@@$$CBV?$Matrix@N$00$02$00$00$02@3@@3@@Eigen@@UIndexBased@internal@2@U342@NN@internal@Eigen@@QEAA@AEBV?$CwiseBinaryOp@U?$scalar_quotient_op@NN@internal@Eigen@@$$CBV?$Block@$$CBV?$Matrix@N$02$03$0A@$02$03@Eigen@@$00$02$0A@@3@$$CBV?$CwiseNullaryOp@U?$scalar_constant_op@N@internal@Eigen@@$$CBV?$Matrix@N$00$02$00$00$02@3@@3@@3@@Z
	??0Data@?$binary_evaluator@V?$CwiseBinaryOp@U?$scalar_quotient_op@NN@internal@Eigen@@$$CBV?$Matrix@N$02$00$0A@$02$00@3@$$CBV?$CwiseNullaryOp@U?$scalar_constant_op@N@internal@Eigen@@$$CBV?$Matrix@N$02$00$0A@$02$00@3@@3@@Eigen@@UIndexBased@internal@2@U342@NN@internal@Eigen@@QEAA@AEBV?$CwiseBinaryOp@U?$scalar_quotient_op@NN@internal@Eigen@@$$CBV?$Matrix@N$02$00$0A@$02$00@3@$$CBV?$CwiseNullaryOp@U?$scalar_constant_op@N@internal@Eigen@@$$CBV?$Matrix@N$02$00$0A@$02$00@3@@3@@3@@Z
	??0Data@?$binary_evaluator@V?$CwiseBinaryOp@U?$scalar_sum_op@NN@internal@Eigen@@$$CBV?$CwiseBinaryOp@U?$scalar_product_op@NN@internal@Eigen@@$$CBV?$CwiseNullaryOp@U?$scalar_constant_op@N@internal@Eigen@@$$CBV?$Matrix@N$03$00$0A@$03$00@3@@3@$$CBV?$Matrix@N$03$00$0A@$03$00@3@@3@$$CBV43@@Eigen@@UIndexBased@internal@2@U342@NN@internal@Eigen@@QEAA@AEBV?$CwiseBinaryOp@U?$scalar_sum_op@NN@internal@Eigen@@$$CBV?$CwiseBinaryOp@U?$scalar_product_op@NN@internal@Eigen@@$$CBV?$CwiseNullaryOp@U?$scalar_constant_op@N@internal@Eigen@@$$CBV?$Matrix@N$03$00$0A@$03$00@3@@3@$$CBV?$Matrix@N$03$00$0A@$03$00@3@@3@$$CBV43@@3@@Z
	??0Data@?$unary_evaluator@V?$CwiseUnaryOp@U?$scalar_abs_op@N@internal@Eigen@@$$CBV?$Matrix@N$02$02$0A@$02$02@3@@Eigen@@UIndexBased@internal@2@N@internal@Eigen@@QEAA@AEBV?$CwiseUnaryOp@U?$scalar_abs_op@N@internal@Eigen@@$$CBV?$Matrix@N$02$02$0A@$02$02@3@@3@@Z
	??0Data@?$unary_evaluator@V?$CwiseUnaryOp@U?$scalar_inverse_op@N@internal@Eigen@@$$CBV?$Block@$$CBV?$Matrix@N$02$00$0A@$02$00@Eigen@@$0?0$00$0A@@3@@Eigen@@UIndexBased@internal@2@N@internal@Eigen@@QEAA@AEBV?$CwiseUnaryOp@U?$scalar_inverse_op@N@internal@Eigen@@$$CBV?$Block@$$CBV?$Matrix@N$02$00$0A@$02$00@Eigen@@$0?0$00$0A@@3@@3@@Z
	??0Data@?$unary_evaluator@V?$CwiseUnaryOp@U?$scalar_opposite_op@N@internal@Eigen@@$$CBV?$Block@V?$Matrix@N$02$02$0A@$02$02@Eigen@@$02$00$00@3@@Eigen@@UIndexBased@internal@2@N@internal@Eigen@@QEAA@AEBV?$CwiseUnaryOp@U?$scalar_opposite_op@N@internal@Eigen@@$$CBV?$Block@V?$Matrix@N$02$02$0A@$02$02@Eigen@@$02$00$00@3@@3@@Z
	??0Data@?$unary_evaluator@V?$CwiseUnaryOp@U?$squared_norm_functor@N$0A@@internal@Eigen@@$$CBV?$Block@$$CBV?$Matrix@N$02$03$0A@$02$03@Eigen@@$00$02$0A@@3@@Eigen@@UIndexBased@internal@2@N@internal@Eigen@@QEAA@AEBV?$CwiseUnaryOp@U?$squared_norm_functor@N$0A@@internal@Eigen@@$$CBV?$Block@$$CBV?$Matrix@N$02$03$0A@$02$03@Eigen@@$00$02$0A@@3@@3@@Z
	??0Data@?$unary_evaluator@V?$CwiseUnaryOp@U?$squared_norm_functor@N$0A@@internal@Eigen@@$$CBV?$Block@V?$Matrix@N$02$00$0A@$02$00@Eigen@@$0?0$00$0A@@3@@Eigen@@UIndexBased@internal@2@N@internal@Eigen@@QEAA@AEBV?$CwiseUnaryOp@U?$squared_norm_functor@N$0A@@internal@Eigen@@$$CBV?$Block@V?$Matrix@N$02$00$0A@$02$00@Eigen@@$0?0$00$0A@@3@@3@@Z
	??0Data@?$unary_evaluator@V?$CwiseUnaryOp@U?$squared_norm_functor@N$0A@@internal@Eigen@@$$CBV?$Block@V?$Matrix@N$03$00$0A@$03$00@Eigen@@$0?0$00$0A@@3@@Eigen@@UIndexBased@internal@2@N@internal@Eigen@@QEAA@AEBV?$CwiseUnaryOp@U?$squared_norm_functor@N$0A@@internal@Eigen@@$$CBV?$Block@V?$Matrix@N$03$00$0A@$03$00@Eigen@@$0?0$00$0A@@3@@3@@Z
	??0Data@?$unary_evaluator@V?$CwiseUnaryOp@U?$squared_norm_functor@N$0A@@internal@Eigen@@$$CBV?$CwiseBinaryOp@U?$scalar_difference_op@NN@internal@Eigen@@$$CBV?$Matrix@N$03$00$0A@$03$00@3@$$CBV43@@3@@Eigen@@UIndexBased@internal@2@N@internal@Eigen@@QEAA@AEBV?$CwiseUnaryOp@U?$squared_norm_functor@N$0A@@internal@Eigen@@$$CBV?$CwiseBinaryOp@U?$scalar_difference_op@NN@internal@Eigen@@$$CBV?$Matrix@N$03$00$0A@$03$00@3@$$CBV43@@3@@3@@Z
	??0Data@?$unary_evaluator@V?$CwiseUnaryOp@U?$squared_norm_functor@N$0A@@internal@Eigen@@$$CBV?$Matrix@N$02$00$0A@$02$00@3@@Eigen@@UIndexBased@internal@2@N@internal@Eigen@@QEAA@AEBV?$CwiseUnaryOp@U?$squared_norm_functor@N$0A@@internal@Eigen@@$$CBV?$Matrix@N$02$00$0A@$02$00@3@@3@@Z
	??0FBCC_weighting_info@@QEAA@XZ
	??0LinePerspectivity@@QEAA@AEBV?$Matrix@N$02$02$0A@$02$02@Eigen@@AEBV?$Matrix@N$02$00$0A@$02$00@2@@Z
	??0LinePerspectivity@@QEAA@PEAM@Z
	??0Metric@EpipolarConsistency@@QEAA@XZ
	??0MetricDirect@EpipolarConsistency@@QEAA@AEBV?$vector@V?$Matrix@N$02$03$0A@$02$03@Eigen@@V?$allocator@V?$Matrix@N$02$03$0A@$02$03@Eigen@@@std@@@std@@AEBV?$vector@PEAV?$BindlessTexture2D@M@UtilsCuda@@V?$allocator@PEAV?$BindlessTexture2D@M@UtilsCuda@@@std@@@3@@Z
	??0MetricRadonIntermediate@EpipolarConsistency@@QEAA@AEBV?$vector@V?$Matrix@N$02$03$0A@$02$03@Eigen@@V?$allocator@V?$Matrix@N$02$03$0A@$02$03@Eigen@@@std@@@std@@AEBV?$vector@PEAVRadonIntermediate@EpipolarConsistency@@V?$allocator@PEAVRadonIntermediate@EpipolarConsistency@@@std@@@3@@Z
	??0MetricRadonIntermediate@EpipolarConsistency@@QEAA@XZ
	??0RadonIntermediate@EpipolarConsistency@@QEAA@AEBV?$BindlessTexture2D@M@UtilsCuda@@HHW4Filter@01@W4PostProcess@01@@Z
	??0RadonIntermediate@EpipolarConsistency@@QEAA@AEBV?$ImageView@M@NRRD@@@Z
	??0RadonIntermediate@EpipolarConsistency@@QEAA@AEBV?$ImageView@M@NRRD@@HHW4Filter@01@W4PostProcess@01@@Z
	??0RadonIntermediate@EpipolarConsistency@@QEAA@V?$basic_string@DU?$char_traits@D@std@@V?$allocator@D@2@@std@@@Z
	??0_Bxty@?$_String_val@U?$_Simple_types@D@std@@@std@@QEAA@XZ
	??0_Fake_proxy_ptr_impl@std@@QEAA@AEBU_Fake_allocator@1@AEBU_Container_base0@1@@Z
	??0_Sentry_base@?$basic_istream@DU?$char_traits@D@std@@@std@@QEAA@AEAV12@@Z
	??0_Sentry_base@?$basic_ostream@DU?$char_traits@D@std@@@std@@QEAA@AEAV12@@Z
	??0bad_alloc@std@@AEAA@QEBD@Z
	??0bad_alloc@std@@QEAA@AEBV01@@Z
	??0bad_array_new_length@std@@QEAA@AEBV01@@Z
	??0bad_array_new_length@std@@QEAA@XZ
	??0bad_cast@std@@QEAA@AEBV01@@Z
	??0bad_cast@std@@QEAA@XZ
	??0dim3@@QEAA@III@Z
	??0exception@std@@QEAA@AEBV01@@Z
	??0exception@std@@QEAA@QEBDH@Z
	??0sentry@?$basic_istream@DU?$char_traits@D@std@@@std@@QEAA@AEAV12@_N@Z
	??0sentry@?$basic_ostream@DU?$char_traits@D@std@@@std@@QEAA@AEAV12@@Z
	??1?$CommaInitializer@V?$Matrix@N$01$01$0A@$01$01@Eigen@@@Eigen@@QEAA@XZ
	??1?$CommaInitializer@V?$Matrix@N$03$03$0A@$03$03@Eigen@@@Eigen@@QEAA@XZ
	??1?$CommaInitializer@V?$Matrix@N$05$00$0A@$05$00@Eigen@@@Eigen@@QEAA@XZ
	??1?$Image@M@NRRD@@QEAA@XZ
	??1?$ImageView@M@NRRD@@QEAA@XZ
	??1?$JacobiSVD@V?$Matrix@N$02$02$0A@$02$02@Eigen@@$0A@@Eigen@@QEAA@XZ
	??1?$MemoryBlock@D@UtilsCuda@@QEAA@XZ
	??1?$MemoryBlock@H@UtilsCuda@@QEAA@XZ
	??1?$MemoryBlock@M@UtilsCuda@@QEAA@XZ
	??1?$SVDBase@V?$JacobiSVD@V?$Matrix@N$02$02$0A@$02$02@Eigen@@$0A@@Eigen@@@Eigen@@QEAA@XZ
	??1?$SolverBase@V?$SVDBase@V?$JacobiSVD@V?$Matrix@N$02$02$0A@$02$02@Eigen@@$0A@@Eigen@@@Eigen@@@Eigen@@QEAA@XZ
	??1?$_Alloc_construct_ptr@V?$allocator@U?$_Tree_node@U?$pair@$$CBV?$basic_string@DU?$char_traits@D@std@@V?$allocator@D@2@@std@@V12@@std@@PEAX@std@@@std@@@std@@QEAA@XZ
	??1?$_Allocation_guard@V?$allocator@M@std@@@std@@QEAA@XZ
	??1?$_Allocation_guard@V?$allocator@U?$pair@MM@std@@@std@@@std@@QEAA@XZ
	??1?$_Compressed_pair@V?$allocator@D@std@@V?$_String_val@U?$_Simple_types@D@std@@@2@$00@std@@QEAA@XZ
	??1?$_Erase_tree_and_orphan_guard@V?$allocator@U?$_Tree_node@U?$pair@$$CBV?$basic_string@DU?$char_traits@D@std@@V?$allocator@D@2@@std@@V12@@std@@PEAX@std@@@std@@@?$_Tree_val@U?$_Tree_simple_types@U?$pair@$$CBV?$basic_string@DU?$char_traits@D@std@@V?$allocator@D@2@@std@@V12@@std@@@std@@@std@@QEAA@XZ
	??1?$_String_val@U?$_Simple_types@D@std@@@std@@QEAA@XZ
	??1?$_Tidy_guard@V?$vector@HV?$allocator@H@std@@@std@@@std@@QEAA@XZ
	??1?$_Tidy_guard@V?$vector@MV?$allocator@M@std@@@std@@@std@@QEAA@XZ
	??1?$_Tidy_guard@V?$vector@U?$pair@V?$Matrix@M$02$00$0A@$02$00@Eigen@@V12@@std@@V?$allocator@U?$pair@V?$Matrix@M$02$00$0A@$02$00@Eigen@@V12@@std@@@2@@std@@@std@@QEAA@XZ
	??1?$_Tidy_guard@V?$vector@UFBCC_weighting_info@@V?$allocator@UFBCC_weighting_info@@@std@@@std@@@std@@QEAA@XZ
	??1?$_Tidy_guard@V?$vector@V?$Matrix@M$02$03$0A@$02$03@Eigen@@V?$allocator@V?$Matrix@M$02$03$0A@$02$03@Eigen@@@std@@@std@@@std@@QEAA@XZ
	??1?$_Tidy_guard@V?$vector@V?$Matrix@M$03$00$0A@$03$00@Eigen@@V?$allocator@V?$Matrix@M$03$00$0A@$03$00@Eigen@@@std@@@std@@@std@@QEAA@XZ
	??1?$_Tidy_guard@V?$vector@_KV?$allocator@_K@std@@@std@@@std@@QEAA@XZ
	??1?$_Tree@V?$_Tmap_traits@V?$basic_string@DU?$char_traits@D@std@@V?$allocator@D@2@@std@@V12@U?$less@V?$basic_string@DU?$char_traits@D@std@@V?$allocator@D@2@@std@@@2@V?$allocator@U?$pair@$$CBV?$basic_string@DU?$char_traits@D@std@@V?$allocator@D@2@@std@@V12@@std@@@2@$0A@@std@@@std@@QEAA@XZ
	??1?$_Tree_head_scoped_ptr@V?$allocator@U?$_Tree_node@U?$pair@$$CBV?$basic_string@DU?$char_traits@D@std@@V?$allocator@D@2@@std@@V12@@std@@PEAX@std@@@std@@V?$_Tree_val@U?$_Tree_simple_types@U?$pair@$$CBV?$basic_string@DU?$char_traits@D@std@@V?$allocator@D@2@@std@@V12@@std@@@std@@@2@@std@@QEAA@XZ
	??1?$_Tree_temp_node@V?$allocator@U?$_Tree_node@U?$pair@$$CBV?$basic_string@DU?$char_traits@D@std@@V?$allocator@D@2@@std@@V12@@std@@PEAX@std@@@std@@@std@@QEAA@XZ
	??1?$_Tree_temp_node_alloc@V?$allocator@U?$_Tree_node@U?$pair@$$CBV?$basic_string@DU?$char_traits@D@std@@V?$allocator@D@2@@std@@V12@@std@@PEAX@std@@@std@@@std@@QEAA@XZ
	??1?$_Uninitialized_backout_al@V?$allocator@H@std@@@std@@QEAA@XZ
	??1?$_Uninitialized_backout_al@V?$allocator@M@std@@@std@@QEAA@XZ
	??1?$_Uninitialized_backout_al@V?$allocator@N@std@@@std@@QEAA@XZ
	??1?$_Uninitialized_backout_al@V?$allocator@PEAV?$BindlessTexture2D@M@UtilsCuda@@@std@@@std@@QEAA@XZ
	??1?$_Uninitialized_backout_al@V?$allocator@PEAVRadonIntermediate@EpipolarConsistency@@@std@@@std@@QEAA@XZ
	??1?$_Uninitialized_backout_al@V?$allocator@U?$pair@MM@std@@@std@@@std@@QEAA@XZ
	??1?$_Uninitialized_backout_al@V?$allocator@U?$pair@V?$Matrix@M$02$00$0A@$02$00@Eigen@@V12@@std@@@std@@@std@@QEAA@XZ
	??1?$_Uninitialized_backout_al@V?$allocator@UFBCC_weighting_info@@@std@@@std@@QEAA@XZ
	??1?$_Uninitialized_backout_al@V?$allocator@V?$Matrix@H$03$00$0A@$03$00@Eigen@@@std@@@std@@QEAA@XZ
	??1?$_Uninitialized_backout_al@V?$allocator@V?$Matrix@M$02$03$0A@$02$03@Eigen@@@std@@@std@@QEAA@XZ
	??1?$_Uninitialized_backout_al@V?$allocator@V?$Matrix@M$03$00$0A@$03$00@Eigen@@@std@@@std@@QEAA@XZ
	??1?$_Uninitialized_backout_al@V?$allocator@V?$Matrix@N$02$03$0A@$02$03@Eigen@@@std@@@std@@QEAA@XZ
	??1?$_Uninitialized_backout_al@V?$allocator@_K@std@@@std@@QEAA@XZ
	??1?$basic_filebuf@DU?$char_traits@D@std@@@std@@UEAA@XZ
	??1?$basic_ifstream@DU?$char_traits@D@std@@@std@@UEAA@XZ
	??1?$basic_istringstream@DU?$char_traits@D@std@@V?$allocator@D@2@@std@@UEAA@XZ
	??1?$basic_ostringstream@DU?$char_traits@D@std@@V?$allocator@D@2@@std@@UEAA@XZ
	??1?$basic_string@DU?$char_traits@D@std@@V?$allocator@D@2@@std@@QEAA@XZ
	??1?$basic_stringbuf@DU?$char_traits@D@std@@V?$allocator@D@2@@std@@UEAA@XZ
	??1?$map@V?$basic_string@DU?$char_traits@D@std@@V?$allocator@D@2@@std@@V12@U?$less@V?$basic_string@DU?$char_traits@D@std@@V?$allocator@D@2@@std@@@2@V?$allocator@U?$pair@$$CBV?$basic_string@DU?$char_traits@D@std@@V?$allocator@D@2@@std@@V12@@std@@@2@@std@@QEAA@XZ
	??1?$pair@$$CBV?$basic_string@DU?$char_traits@D@std@@V?$allocator@D@2@@std@@V12@@std@@QEAA@XZ
	??1?$unique_ptr@V_Facet_base@std@@U?$default_delete@V_Facet_base@std@@@2@@std@@QEAA@XZ
	??1?$vector@HV?$allocator@H@std@@@std@@QEAA@XZ
	??1?$vector@MV?$allocator@M@std@@@std@@QEAA@XZ
	??1?$vector@NV?$allocator@N@std@@@std@@QEAA@XZ
	??1?$vector@PEAV?$BindlessTexture2D@M@UtilsCuda@@V?$allocator@PEAV?$BindlessTexture2D@M@UtilsCuda@@@std@@@std@@QEAA@XZ
	??1?$vector@PEAVRadonIntermediate@EpipolarConsistency@@V?$allocator@PEAVRadonIntermediate@EpipolarConsistency@@@std@@@std@@QEAA@XZ
	??1?$vector@U?$pair@V?$Matrix@M$02$00$0A@$02$00@Eigen@@V12@@std@@V?$allocator@U?$pair@V?$Matrix@M$02$00$0A@$02$00@Eigen@@V12@@std@@@2@@std@@QEAA@XZ
	??1?$vector@UFBCC_weighting_info@@V?$allocator@UFBCC_weighting_info@@@std@@@std@@QEAA@XZ
	??1?$vector@V?$Matrix@H$03$00$0A@$03$00@Eigen@@V?$allocator@V?$Matrix@H$03$00$0A@$03$00@Eigen@@@std@@@std@@QEAA@XZ
	??1?$vector@V?$Matrix@M$02$03$0A@$02$03@Eigen@@V?$allocator@V?$Matrix@M$02$03$0A@$02$03@Eigen@@@std@@@std@@QEAA@XZ
	??1?$vector@V?$Matrix@M$03$00$0A@$03$00@Eigen@@V?$allocator@V?$Matrix@M$03$00$0A@$03$00@Eigen@@@std@@@std@@QEAA@XZ
	??1?$vector@V?$Matrix@N$02$03$0A@$02$03@Eigen@@V?$allocator@V?$Matrix@N$02$03$0A@$02$03@Eigen@@@std@@@std@@QEAA@XZ
	??1?$vector@_KV?$allocator@_K@std@@@std@@QEAA@XZ
	??1Metric@EpipolarConsistency@@UEAA@XZ
	??1MetricDirect@EpipolarConsistency@@UEAA@XZ
	??1MetricRadonIntermediate@EpipolarConsistency@@UEAA@XZ
	??1RadonIntermediate@EpipolarConsistency@@QEAA@XZ
	??1_Bxty@?$_String_val@U?$_Simple_types@D@std@@@std@@QEAA@XZ
	??1_Reallocation_guard2@?$vector@HV?$allocator@H@std@@@std@@QEAA@XZ
	??1_Reallocation_guard2@?$vector@MV?$allocator@M@std@@@std@@QEAA@XZ
	??1_Reallocation_guard2@?$vector@NV?$allocator@N@std@@@std@@QEAA@XZ
	??1_Reallocation_guard2@?$vector@U?$pair@MM@std@@V?$allocator@U?$pair@MM@std@@@2@@std@@QEAA@XZ
	??1_Reallocation_guard2@?$vector@V?$Matrix@H$03$00$0A@$03$00@Eigen@@V?$allocator@V?$Matrix@H$03$00$0A@$03$00@Eigen@@@std@@@std@@QEAA@XZ
	??1_Sentry_base@?$basic_istream@DU?$char_traits@D@std@@@std@@QEAA@XZ
	??1_Sentry_base@?$basic_ostream@DU?$char_traits@D@std@@@std@@QEAA@XZ
	??1bad_alloc@std@@UEAA@XZ
	??1bad_array_new_length@std@@UEAA@XZ
	??1bad_cast@std@@UEAA@XZ
	??1exception@std@@UEAA@XZ
	??1locale@std@@QEAA@XZ
	??1sentry@?$basic_istream@DU?$char_traits@D@std@@@std@@QEAA@XZ
	??1sentry@?$basic_ostream@DU?$char_traits@D@std@@@std@@QEAA@XZ
	??2@YAPEAX_KPEAX@Z
	??4?$Matrix@N$02$03$0A@$02$03@Eigen@@QEAAAEAV01@AEBV01@@Z
	??4?$_Tree@V?$_Tmap_traits@V?$basic_string@DU?$char_traits@D@std@@V?$allocator@D@2@@std@@V12@U?$less@V?$basic_string@DU?$char_traits@D@std@@V?$allocator@D@2@@std@@@2@V?$allocator@U?$pair@$$CBV?$basic_string@DU?$char_traits@D@std@@V?$allocator@D@2@@std@@V12@@std@@@2@$0A@@std@@@std@@QEAAAEAV01@AEBV01@@Z
	??4?$basic_string@DU?$char_traits@D@std@@V?$allocator@D@2@@std@@QEAAAEAV01@$$QEAV01@@Z
	??4?$basic_string@DU?$char_traits@D@std@@V?$allocator@D@2@@std@@QEAAAEAV01@AEBV01@@Z
	??4?$basic_string@DU?$char_traits@D@std@@V?$allocator@D@2@@std@@QEAAAEAV01@QEBD@Z
	??4?$map@V?$basic_string@DU?$char_traits@D@std@@V?$allocator@D@2@@std@@V12@U?$less@V?$basic_string@DU?$char_traits@D@std@@V?$allocator@D@2@@std@@@2@V?$allocator@U?$pair@$$CBV?$basic_string@DU?$char_traits@D@std@@V?$allocator@D@2@@std@@V12@@std@@@2@@std@@QEAAAEAV01@AEBV01@@Z
	??4?$vector@HV?$allocator@H@std@@@std@@QEAAAEAV01@$$QEAV01@@Z
	??4?$vector@MV?$allocator@M@std@@@std@@QEAAAEAV01@$$QEAV01@@Z
	??4?$vector@NV?$allocator@N@std@@@std@@QEAAAEAV01@$$QEAV01@@Z
	??4?$vector@PEAV?$BindlessTexture2D@M@UtilsCuda@@V?$allocator@PEAV?$BindlessTexture2D@M@UtilsCuda@@@std@@@std@@QEAAAEAV01@AEBV01@@Z
	??4?$vector@PEAVRadonIntermediate@EpipolarConsistency@@V?$allocator@PEAVRadonIntermediate@EpipolarConsistency@@@std@@@std@@QEAAAEAV01@AEBV01@@Z
	??4?$vector@V?$Matrix@N$02$03$0A@$02$03@Eigen@@V?$allocator@V?$Matrix@N$02$03$0A@$02$03@Eigen@@@std@@@std@@QEAAAEAV01@AEBV01@@Z
	??6?$DenseBase@V?$Matrix@N$01$01$0A@$01$01@Eigen@@@Eigen@@QEAA?AU?$CommaInitializer@V?$Matrix@N$01$01$0A@$01$01@Eigen@@@1@AEBN@Z
	??6?$DenseBase@V?$Matrix@N$03$03$0A@$03$03@Eigen@@@Eigen@@QEAA?AU?$CommaInitializer@V?$Matrix@N$03$03$0A@$03$03@Eigen@@@1@AEBN@Z
	??6?$DenseBase@V?$Matrix@N$05$00$0A@$05$00@Eigen@@@Eigen@@QEAA?AU?$CommaInitializer@V?$Matrix@N$05$00$0A@$05$00@Eigen@@@1@AEBN@Z
	??7?$ImageView@M@NRRD@@QEBA_NXZ
	??7?$MemoryView@M@UtilsCuda@@QEBA_NXZ
	??8?$_Tree_const_iterator@V?$_Tree_val@U?$_Tree_simple_types@H@std@@@std@@@std@@QEBA_NAEBV01@@Z
	??8?$_Tree_const_iterator@V?$_Tree_val@U?$_Tree_simple_types@U?$pair@$$CBV?$basic_string@DU?$char_traits@D@std@@V?$allocator@D@2@@std@@V12@@std@@@std@@@std@@@std@@QEBA_NAEBV01@@Z
	??8?$_Vector_const_iterator@V?$_Vector_val@U?$_Simple_types@N@std@@@std@@@std@@QEBA_NAEBV01@@Z
	??9?$_Tree_const_iterator@V?$_Tree_val@U?$_Tree_simple_types@H@std@@@std@@@std@@QEBA_NAEBV01@@Z
	??9?$_Tree_const_iterator@V?$_Tree_val@U?$_Tree_simple_types@U?$pair@$$CBV?$basic_string@DU?$char_traits@D@std@@V?$allocator@D@2@@std@@V12@@std@@@std@@@std@@@std@@QEBA_NAEBV01@@Z
	??9?$_Vector_const_iterator@V?$_Vector_val@U?$_Simple_types@N@std@@@std@@@std@@QEBA_NAEBV01@@Z
	??A?$DenseCoeffsBase@V?$Matrix@N$02$00$0A@$02$00@Eigen@@$0A@@Eigen@@QEBAAEBN_J@Z
	??A?$DenseCoeffsBase@V?$Matrix@N$03$00$0A@$03$00@Eigen@@$0A@@Eigen@@QEBAAEBN_J@Z
	??A?$DenseCoeffsBase@V?$Matrix@N$05$00$0A@$05$00@Eigen@@$0A@@Eigen@@QEBAAEBN_J@Z
	??A?$ImageView@M@NRRD@@QEAAAEAMH@Z
	??A?$basic_string@DU?$char_traits@D@std@@V?$allocator@D@2@@std@@QEAAAEAD_K@Z
	??A?$map@V?$basic_string@DU?$char_traits@D@std@@V?$allocator@D@2@@std@@V12@U?$less@V?$basic_string@DU?$char_traits@D@std@@V?$allocator@D@2@@std@@@2@V?$allocator@U?$pair@$$CBV?$basic_string@DU?$char_traits@D@std@@V?$allocator@D@2@@std@@V12@@std@@@2@@std@@QEAAAEAV?$basic_string@DU?$char_traits@D@std@@V?$allocator@D@2@@1@$$QEAV21@@Z
	??A?$map@V?$basic_string@DU?$char_traits@D@std@@V?$allocator@D@2@@std@@V12@U?$less@V?$basic_string@DU?$char_traits@D@std@@V?$allocator@D@2@@std@@@2@V?$allocator@U?$pair@$$CBV?$basic_string@DU?$char_traits@D@std@@V?$allocator@D@2@@std@@V12@@std@@@2@@std@@QEAAAEAV?$basic_string@DU?$char_traits@D@std@@V?$allocator@D@2@@1@AEBV21@@Z
	??A?$vector@HV?$allocator@H@std@@@std@@QEAAAEAH_K@Z
	??A?$vector@HV?$allocator@H@std@@@std@@QEBAAEBH_K@Z
	??A?$vector@MV?$allocator@M@std@@@std@@QEAAAEAM_K@Z
	??A?$vector@MV?$allocator@M@std@@@std@@QEBAAEBM_K@Z
	??A?$vector@NV?$allocator@N@std@@@std@@QEAAAEAN_K@Z
	??A?$vector@PEAV?$BindlessTexture2D@M@UtilsCuda@@V?$allocator@PEAV?$BindlessTexture2D@M@UtilsCuda@@@std@@@std@@QEAAAEAPEAV?$BindlessTexture2D@M@UtilsCuda@@_K@Z
	??A?$vector@PEAVRadonIntermediate@EpipolarConsistency@@V?$allocator@PEAVRadonIntermediate@EpipolarConsistency@@@std@@@std@@QEAAAEAPEAVRadonIntermediate@EpipolarConsistency@@_K@Z
	??A?$vector@PEAVRadonIntermediate@EpipolarConsistency@@V?$allocator@PEAVRadonIntermediate@EpipolarConsistency@@@std@@@std@@QEBAAEBQEAVRadonIntermediate@EpipolarConsistency@@_K@Z
	??A?$vector@U?$pair@V?$Matrix@M$02$00$0A@$02$00@Eigen@@V12@@std@@V?$allocator@U?$pair@V?$Matrix@M$02$00$0A@$02$00@Eigen@@V12@@std@@@2@@std@@QEAAAEAU?$pair@V?$Matrix@M$02$00$0A@$02$00@Eigen@@V12@@1@_K@Z
	??A?$vector@UFBCC_weighting_info@@V?$allocator@UFBCC_weighting_info@@@std@@@std@@QEAAAEAUFBCC_weighting_info@@_K@Z
	??A?$vector@V?$Matrix@H$03$00$0A@$03$00@Eigen@@V?$allocator@V?$Matrix@H$03$00$0A@$03$00@Eigen@@@std@@@std@@QEBAAEBV?$Matrix@H$03$00$0A@$03$00@Eigen@@_K@Z
	??A?$vector@V?$Matrix@M$02$03$0A@$02$03@Eigen@@V?$allocator@V?$Matrix@M$02$03$0A@$02$03@Eigen@@@std@@@std@@QEAAAEAV?$Matrix@M$02$03$0A@$02$03@Eigen@@_K@Z
	??A?$vector@V?$Matrix@M$03$00$0A@$03$00@Eigen@@V?$allocator@V?$Matrix@M$03$00$0A@$03$00@Eigen@@@std@@@std@@QEAAAEAV?$Matrix@M$03$00$0A@$03$00@Eigen@@_K@Z
	??A?$vector@V?$Matrix@N$02$03$0A@$02$03@Eigen@@V?$allocator@V?$Matrix@N$02$03$0A@$02$03@Eigen@@@std@@@std@@QEAAAEAV?$Matrix@N$02$03$0A@$02$03@Eigen@@_K@Z
	??A?$vector@V?$Matrix@N$02$03$0A@$02$03@Eigen@@V?$allocator@V?$Matrix@N$02$03$0A@$02$03@Eigen@@@std@@@std@@QEBAAEBV?$Matrix@N$02$03$0A@$02$03@Eigen@@_K@Z
	??A?$vector@_KV?$allocator@_K@std@@@std@@QEAAAEA_K_K@Z
	??B?$BindlessTexture2D@M@UtilsCuda@@QEBA_KXZ
	??B?$ImageView@M@NRRD@@QEBAPEAMXZ
	??B?$MemoryView@D@UtilsCuda@@QEBAPEADXZ
	??B?$MemoryView@H@UtilsCuda@@QEBAPEAHXZ
	??B?$MemoryView@M@UtilsCuda@@QEBAPEAMXZ
	??B?$dense_product_base@V?$Transpose@V?$Matrix@N$02$00$0A@$02$00@Eigen@@@Eigen@@V?$Matrix@N$02$00$0A@$02$00@2@$0A@$05@internal@Eigen@@QEBA?BNXZ
	??B?$fpos@U_Mbstatet@@@std@@QEBA_JXZ
	??B?$variable_if_dynamic@_J$02@internal@Eigen@@QEBA_JXZ
	??Bsentry@?$basic_istream@DU?$char_traits@D@std@@@std@@QEBA_NXZ
	??Bsentry@?$basic_ostream@DU?$char_traits@D@std@@@std@@QEBA_NXZ
	??C?$_Tree_const_iterator@V?$_Tree_val@U?$_Tree_simple_types@U?$pair@$$CBV?$basic_string@DU?$char_traits@D@std@@V?$allocator@D@2@@std@@V12@@std@@@std@@@std@@@std@@QEBAPEBU?$pair@$$CBV?$basic_string@DU?$char_traits@D@std@@V?$allocator@D@2@@std@@V12@@1@XZ
	??C?$_Tree_iterator@V?$_Tree_val@U?$_Tree_simple_types@U?$pair@$$CBV?$basic_string@DU?$char_traits@D@std@@V?$allocator@D@2@@std@@V12@@std@@@std@@@std@@@std@@QEBAPEAU?$pair@$$CBV?$basic_string@DU?$char_traits@D@std@@V?$allocator@D@2@@std@@V12@@1@XZ
	??D?$JacobiRotation@N@Eigen@@QEAA?AV01@AEBV01@@Z
	??D?$_Tree_const_iterator@V?$_Tree_val@U?$_Tree_simple_types@H@std@@@std@@@std@@QEBAAEBHXZ
	??D?$_Tree_const_iterator@V?$_Tree_val@U?$_Tree_simple_types@U?$pair@$$CBV?$basic_string@DU?$char_traits@D@std@@V?$allocator@D@2@@std@@V12@@std@@@std@@@std@@@std@@QEBAAEBU?$pair@$$CBV?$basic_string@DU?$char_traits@D@std@@V?$allocator@D@2@@std@@V12@@1@XZ
	??D?$_Tree_iterator@V?$_Tree_val@U?$_Tree_simple_types@U?$pair@$$CBV?$basic_string@DU?$char_traits@D@std@@V?$allocator@D@2@@std@@V12@@std@@@std@@@std@@@std@@QEBAAEAU?$pair@$$CBV?$basic_string@DU?$char_traits@D@std@@V?$allocator@D@2@@std@@V12@@1@XZ
	??D?$_Vector_const_iterator@V?$_Vector_val@U?$_Simple_types@N@std@@@std@@@std@@QEBAAEBNXZ
	??E?$_Tree_const_iterator@V?$_Tree_val@U?$_Tree_simple_types@H@std@@@std@@@std@@QEAAAEAV01@XZ
	??E?$_Tree_unchecked_const_iterator@V?$_Tree_val@U?$_Tree_simple_types@H@std@@@std@@U_Iterator_base0@2@@std@@QEAAAEAV01@XZ
	??E?$_Tree_unchecked_const_iterator@V?$_Tree_val@U?$_Tree_simple_types@U?$pair@$$CBV?$basic_string@DU?$char_traits@D@std@@V?$allocator@D@2@@std@@V12@@std@@@std@@@std@@U_Iterator_base0@2@@std@@QEAAAEAV01@XZ
	??E?$_Vector_const_iterator@V?$_Vector_val@U?$_Simple_types@N@std@@@std@@@std@@QEAAAEAV01@XZ
	??G?$DenseBase@V?$Block@V?$Matrix@N$02$02$0A@$02$02@Eigen@@$02$00$00@Eigen@@@Eigen@@QEBA?BV?$CwiseUnaryOp@U?$scalar_opposite_op@N@internal@Eigen@@$$CBV?$Block@V?$Matrix@N$02$02$0A@$02$02@Eigen@@$02$00$00@3@@1@XZ
	??Q?$CommaInitializer@V?$Matrix@N$01$01$0A@$01$01@Eigen@@@Eigen@@QEAAAEAU01@AEBN@Z
	??Q?$CommaInitializer@V?$Matrix@N$03$03$0A@$03$03@Eigen@@@Eigen@@QEAAAEAU01@AEBN@Z
	??Q?$CommaInitializer@V?$Matrix@N$05$00$0A@$05$00@Eigen@@@Eigen@@QEAAAEAU01@AEBN@Z
	??R<lambda_16a3add8baeafd6065b2b3e9f729e474>@@SA@QEADQEBD_K12@Z
	??R<lambda_1c580a7c628fe19a8fd42d317af12316>@@QEBA@AEBN0@Z
	??R<lambda_1fd67b7cbb8957a22ddc452f87c0fbb0>@@SA@QEADQEBD_K212@Z
	??R<lambda_4953394ebb2f7dc62d6889dc6b041cb6>@@SA@QEAD_KQEBD@Z
	??R<lambda_e696ef4bfc89975bc2035a0ba1f0e499>@@SA@QEADQEBD_KD@Z
	??R<lambda_f4ee5926c7c98cf496dd3d8788c61ee4>@@QEBA@AEBN0@Z
	??R?$DenseCoeffsBase@V?$Matrix@N$02$00$0A@$02$00@Eigen@@$00@Eigen@@QEAAAEAN_J@Z
	??R?$DenseCoeffsBase@V?$Matrix@N$02$00$0A@$02$00@Eigen@@$0A@@Eigen@@QEBAAEBN_J@Z
	??R?$DenseCoeffsBase@V?$Matrix@N$02$02$0A@$02$02@Eigen@@$0A@@Eigen@@QEBAAEBN_J0@Z
	??R?$DenseCoeffsBase@V?$Matrix@N$02$03$0A@$02$03@Eigen@@$00@Eigen@@QEAAAEAN_J0@Z
	??R?$DenseCoeffsBase@V?$Matrix@N$03$00$0A@$03$00@Eigen@@$00@Eigen@@QEAAAEAN_J@Z
	??R?$DenseCoeffsBase@V?$Matrix@N$03$00$0A@$03$00@Eigen@@$0A@@Eigen@@QEBAAEBN_J@Z
	??R?$DenseCoeffsBase@V?$Matrix@N$05$00$0A@$05$00@Eigen@@$0A@@Eigen@@QEBAAEBN_J@Z
	??R?$ImageView@M@NRRD@@QEBAAEBMHHH@Z
	??R?$ImageView@M@NRRD@@QEBANNNN@Z
	??R?$default_delete@V_Facet_base@std@@@std@@QEBAXPEAV_Facet_base@1@@Z
	??R?$equal_to@N@std@@QEBA_NAEBN0@Z
	??R?$less@V?$basic_string@DU?$char_traits@D@std@@V?$allocator@D@2@@std@@@std@@QEBA_NAEBV?$basic_string@DU?$char_traits@D@std@@V?$allocator@D@2@@1@0@Z
	??R?$scalar_abs2_op@N@internal@Eigen@@QEBA?BNAEBN@Z
	??R?$scalar_abs_op@N@internal@Eigen@@QEBA?BNAEBN@Z
	??R?$scalar_constant_op@N@internal@Eigen@@QEBA?BNXZ
	??R?$scalar_difference_op@NN@internal@Eigen@@QEBA?BNAEBN0@Z
	??R?$scalar_inverse_op@N@internal@Eigen@@QEBANAEBN@Z
	??R?$scalar_max_op@NN$00@internal@Eigen@@QEBANAEBN0@Z
	??R?$scalar_max_op@NN$0A@@internal@Eigen@@QEBANAEBN0@Z
	??R?$scalar_opposite_op@N@internal@Eigen@@QEBA?BNAEBN@Z
	??R?$scalar_product_op@NN@internal@Eigen@@QEBANAEBN0@Z
	??R?$scalar_quotient_op@NN@internal@Eigen@@QEBA?BNAEBN0@Z
	??R?$scalar_sum_op@NN@internal@Eigen@@QEBANAEBN0@Z
	??X?$DenseBase@V?$Block@V?$Matrix@N$02$02$0A@$02$02@Eigen@@$02$00$00@Eigen@@@Eigen@@QEAAAEAV?$Block@V?$Matrix@N$02$02$0A@$02$02@Eigen@@$02$00$00@1@AEBN@Z
	??X?$DenseBase@V?$Matrix@N$02$00$0A@$02$00@Eigen@@@Eigen@@QEAAAEAV?$Matrix@N$02$00$0A@$02$00@1@AEBN@Z
	??Y?$basic_string@DU?$char_traits@D@std@@V?$allocator@D@2@@std@@QEAAAEAV01@AEBV01@@Z
	??Y?$basic_string@DU?$char_traits@D@std@@V?$allocator@D@2@@std@@QEAAAEAV01@D@Z
	??_0?$DenseBase@V?$Matrix@N$02$00$0A@$02$00@Eigen@@@Eigen@@QEAAAEAV?$Matrix@N$02$00$0A@$02$00@1@AEBN@Z
	??_0?$DenseBase@V?$Matrix@N$03$00$0A@$03$00@Eigen@@@Eigen@@QEAAAEAV?$Matrix@N$03$00$0A@$03$00@1@AEBN@Z
	??_7?$Image@M@NRRD@@6B@
	??_7?$ImageView@M@NRRD@@6B@
	??_7?$basic_filebuf@DU?$char_traits@D@std@@@std@@6B@
	??_7?$basic_ifstream@DU?$char_traits@D@std@@@std@@6B@
	??_7?$basic_istringstream@DU?$char_traits@D@std@@V?$allocator@D@2@@std@@6B@
	??_7?$basic_ostringstream@DU?$char_traits@D@std@@V?$allocator@D@2@@std@@6B@
	??_7?$basic_stringbuf@DU?$char_traits@D@std@@V?$allocator@D@2@@std@@6B@
	??_7Metric@EpipolarConsistency@@6B@
	??_7MetricDirect@EpipolarConsistency@@6B@
	??_7MetricRadonIntermediate@EpipolarConsistency@@6B@
	??_7bad_alloc@std@@6B@
	??_7bad_array_new_length@std@@6B@
	??_7bad_cast@std@@6B@
	??_7exception@std@@6B@
	??_D?$basic_ifstream@DU?$char_traits@D@std@@@std@@QEAAXXZ
	??_D?$basic_istringstream@DU?$char_traits@D@std@@V?$allocator@D@2@@std@@QEAAXXZ
	??_D?$basic_ostringstream@DU?$char_traits@D@std@@V?$allocator@D@2@@std@@QEAAXXZ
	??__Ftypes@?1??known_types@NRRD@@YAAEBV?$map@V?$basic_string@DU?$char_traits@D@std@@V?$allocator@D@2@@std@@V12@U?$less@V?$basic_string@DU?$char_traits@D@std@@V?$allocator@D@2@@std@@@2@V?$allocator@U?$pair@$$CBV?$basic_string@DU?$char_traits@D@std@@V?$allocator@D@2@@std@@V12@@std@@@2@@std@@XZ@YAXXZ
	?Identity@?$MatrixBase@V?$Matrix@N$02$02$0A@$02$02@Eigen@@@Eigen@@SA?BV?$CwiseNullaryOp@U?$scalar_identity_op@N@internal@Eigen@@V?$Matrix@N$02$02$0A@$02$02@3@@2@_J0@Z
	?Zero@?$DenseBase@V?$Matrix@N$02$03$0A@$02$03@Eigen@@@Eigen@@SA?BV?$CwiseNullaryOp@U?$scalar_zero_op@N@internal@Eigen@@V?$Matrix@N$02$03$0A@$02$03@3@@2@XZ
	?_Activate_SSO_buffer@?$_String_val@U?$_Simple_types@D@std@@@std@@QEAAXXZ
	?_Adjust_manually_vector_aligned@std@@YAXAEAPEAXAEA_K@Z
	?_Adopt@_Iterator_base0@std@@QEAAXPEBX@Z
	?_Alloc_proxy@_Container_base0@std@@QEAAXAEBU_Fake_allocator@2@@Z
	?_Alloc_sentinel_and_proxy@?$_Tree@V?$_Tmap_traits@V?$basic_string@DU?$char_traits@D@std@@V?$allocator@D@2@@std@@V12@U?$less@V?$basic_string@DU?$char_traits@D@std@@V?$allocator@D@2@@std@@@2@V?$allocator@U?$pair@$$CBV?$basic_string@DU?$char_traits@D@std@@V?$allocator@D@2@@std@@V12@@std@@@2@$0A@@std@@@std@@IEAAXXZ
	?_Allocate@?$_Alloc_construct_ptr@V?$allocator@U?$_Tree_node@U?$pair@$$CBV?$basic_string@DU?$char_traits@D@std@@V?$allocator@D@2@@std@@V12@@std@@PEAX@std@@@std@@@std@@QEAAXXZ
	?_Allocate@_Default_allocate_traits@std@@SAPEAX_K@Z
	?_Buy_nonzero@?$vector@HV?$allocator@H@std@@@std@@AEAAX_K@Z
	?_Buy_nonzero@?$vector@MV?$allocator@M@std@@@std@@AEAAX_K@Z
	?_Buy_nonzero@?$vector@U?$pair@V?$Matrix@M$02$00$0A@$02$00@Eigen@@V12@@std@@V?$allocator@U?$pair@V?$Matrix@M$02$00$0A@$02$00@Eigen@@V12@@std@@@2@@std@@AEAAX_K@Z
	?_Buy_nonzero@?$vector@UFBCC_weighting_info@@V?$allocator@UFBCC_weighting_info@@@std@@@std@@AEAAX_K@Z
	?_Buy_nonzero@?$vector@V?$Matrix@M$02$03$0A@$02$03@Eigen@@V?$allocator@V?$Matrix@M$02$03$0A@$02$03@Eigen@@@std@@@std@@AEAAX_K@Z
	?_Buy_nonzero@?$vector@V?$Matrix@M$03$00$0A@$03$00@Eigen@@V?$allocator@V?$Matrix@M$03$00$0A@$03$00@Eigen@@@std@@@std@@AEAAX_K@Z
	?_Buy_nonzero@?$vector@_KV?$allocator@_K@std@@@std@@AEAAX_K@Z
	?_Buy_raw@?$vector@HV?$allocator@H@std@@@std@@AEAAX_K@Z
	?_Buy_raw@?$vector@MV?$allocator@M@std@@@std@@AEAAX_K@Z
	?_Buy_raw@?$vector@PEAV?$BindlessTexture2D@M@UtilsCuda@@V?$allocator@PEAV?$BindlessTexture2D@M@UtilsCuda@@@std@@@std@@AEAAX_K@Z
	?_Buy_raw@?$vector@PEAVRadonIntermediate@EpipolarConsistency@@V?$allocator@PEAVRadonIntermediate@EpipolarConsistency@@@std@@@std@@AEAAX_K@Z
	?_Buy_raw@?$vector@U?$pair@V?$Matrix@M$02$00$0A@$02$00@Eigen@@V12@@std@@V?$allocator@U?$pair@V?$Matrix@M$02$00$0A@$02$00@Eigen@@V12@@std@@@2@@std@@AEAAX_K@Z
	?_Buy_raw@?$vector@UFBCC_weighting_info@@V?$allocator@UFBCC_weighting_info@@@std@@@std@@AEAAX_K@Z
	?_Buy_raw@?$vector@V?$Matrix@M$02$03$0A@$02$03@Eigen@@V?$allocator@V?$Matrix@M$02$03$0A@$02$03@Eigen@@@std@@@std@@AEAAX_K@Z
	?_Buy_raw@?$vector@V?$Matrix@M$03$00$0A@$03$00@Eigen@@V?$allocator@V?$Matrix@M$03$00$0A@$03$00@Eigen@@@std@@@std@@AEAAX_K@Z
	?_Buy_raw@?$vector@V?$Matrix@N$02$03$0A@$02$03@Eigen@@V?$allocator@V?$Matrix@N$02$03$0A@$02$03@Eigen@@@std@@@std@@AEAAX_K@Z
	?_Buy_raw@?$vector@_KV?$allocator@_K@std@@@std@@AEAAX_K@Z
	?_Calculate_growth@?$basic_string@DU?$char_traits@D@std@@V?$allocator@D@2@@std@@AEBA_K_K@Z
	?_Calculate_growth@?$basic_string@DU?$char_traits@D@std@@V?$allocator@D@2@@std@@CA_K_K00@Z
	?_Calculate_growth@?$vector@HV?$allocator@H@std@@@std@@AEBA_K_K@Z
	?_Calculate_growth@?$vector@MV?$allocator@M@std@@@std@@AEBA_K_K@Z
	?_Calculate_growth@?$vector@NV?$allocator@N@std@@@std@@AEBA_K_K@Z
	?_Calculate_growth@?$vector@PEAV?$BindlessTexture2D@M@UtilsCuda@@V?$allocator@PEAV?$BindlessTexture2D@M@UtilsCuda@@@std@@@std@@AEBA_K_K@Z
	?_Calculate_growth@?$vector@PEAVRadonIntermediate@EpipolarConsistency@@V?$allocator@PEAVRadonIntermediate@EpipolarConsistency@@@std@@@std@@AEBA_K_K@Z
	?_Calculate_growth@?$vector@U?$pair@MM@std@@V?$allocator@U?$pair@MM@std@@@2@@std@@AEBA_K_K@Z
	?_Calculate_growth@?$vector@V?$Matrix@H$03$00$0A@$03$00@Eigen@@V?$allocator@V?$Matrix@H$03$00$0A@$03$00@Eigen@@@std@@@std@@AEBA_K_K@Z
	?_Calculate_growth@?$vector@V?$Matrix@N$02$03$0A@$02$03@Eigen@@V?$allocator@V?$Matrix@N$02$03$0A@$02$03@Eigen@@@std@@@std@@AEBA_K_K@Z
	?_Change_array@?$vector@HV?$allocator@H@std@@@std@@AEAAXQEAH_K1@Z
	?_Change_array@?$vector@MV?$allocator@M@std@@@std@@AEAAXQEAM_K1@Z
	?_Change_array@?$vector@NV?$allocator@N@std@@@std@@AEAAXQEAN_K1@Z
	?_Change_array@?$vector@U?$pair@MM@std@@V?$allocator@U?$pair@MM@std@@@2@@std@@AEAAXQEAU?$pair@MM@2@_K1@Z
	?_Change_array@?$vector@V?$Matrix@H$03$00$0A@$03$00@Eigen@@V?$allocator@V?$Matrix@H$03$00$0A@$03$00@Eigen@@@std@@@std@@AEAAXQEAV?$Matrix@H$03$00$0A@$03$00@Eigen@@_K1@Z
	?_Check_grow_by_1@?$_Tree@V?$_Tmap_traits@V?$basic_string@DU?$char_traits@D@std@@V?$allocator@D@2@@std@@V12@U?$less@V?$basic_string@DU?$char_traits@D@std@@V?$allocator@D@2@@std@@@2@V?$allocator@U?$pair@$$CBV?$basic_string@DU?$char_traits@D@std@@V?$allocator@D@2@@std@@V12@@std@@@2@$0A@@std@@@std@@IEAAXXZ
	?_Check_offset@?$_String_val@U?$_Simple_types@D@std@@@std@@QEBAX_K@Z
	?_Clamp_suffix_size@?$_String_val@U?$_Simple_types@D@std@@@std@@QEBA_K_K0@Z
	?_Clear_and_reserve_geometric@?$vector@PEAV?$BindlessTexture2D@M@UtilsCuda@@V?$allocator@PEAV?$BindlessTexture2D@M@UtilsCuda@@@std@@@std@@AEAAX_K@Z
	?_Clear_and_reserve_geometric@?$vector@PEAVRadonIntermediate@EpipolarConsistency@@V?$allocator@PEAVRadonIntermediate@EpipolarConsistency@@@std@@@std@@AEAAX_K@Z
	?_Clear_and_reserve_geometric@?$vector@V?$Matrix@N$02$03$0A@$02$03@Eigen@@V?$allocator@V?$Matrix@N$02$03$0A@$02$03@Eigen@@@std@@@std@@AEAAX_K@Z
	?_Compat@?$_Vector_const_iterator@V?$_Vector_val@U?$_Simple_types@N@std@@@std@@@std@@QEBAXAEBV12@@Z
	?_Construct_empty@?$basic_string@DU?$char_traits@D@std@@V?$allocator@D@2@@std@@AEAAXXZ
	?_Deallocate_for_capacity@?$basic_string@DU?$char_traits@D@std@@V?$allocator@D@2@@std@@CAXAEAV?$allocator@D@2@QEAD_K@Z
	?_Endwrite@?$basic_filebuf@DU?$char_traits@D@std@@@std@@IEAA_NXZ
	?_Eos@?$basic_string@DU?$char_traits@D@std@@V?$allocator@D@2@@std@@AEAAX_K@Z
	?_Equal@?$basic_string@DU?$char_traits@D@std@@V?$allocator@D@2@@std@@QEBA_NAEBV12@@Z
	?_Equal@?$basic_string@DU?$char_traits@D@std@@V?$allocator@D@2@@std@@QEBA_NQEBD@Z
	?_Erase_noexcept@?$basic_string@DU?$char_traits@D@std@@V?$allocator@D@2@@std@@AEAAAEAV12@_K_K@Z
	?_Erase_unchecked@?$_Tree@V?$_Tmap_traits@V?$basic_string@DU?$char_traits@D@std@@V?$allocator@D@2@@std@@V12@U?$less@V?$basic_string@DU?$char_traits@D@std@@V?$allocator@D@2@@std@@@2@V?$allocator@U?$pair@$$CBV?$basic_string@DU?$char_traits@D@std@@V?$allocator@D@2@@std@@V12@@std@@@2@$0A@@std@@@std@@AEAAPEAU?$_Tree_node@U?$pair@$$CBV?$basic_string@DU?$char_traits@D@std@@V?$allocator@D@2@@std@@V12@@std@@PEAX@2@V?$_Tree_unchecked_const_iterator@V?$_Tree_val@U?$_Tree_simple_types@U?$pair@$$CBV?$basic_string@DU?$char_traits@D@std@@V?$allocator@D@2@@std@@V12@@std@@@std@@@std@@U_Iterator_base0@2@@2@@Z
	?_Extract@?$_Tree_val@U?$_Tree_simple_types@U?$pair@$$CBV?$basic_string@DU?$char_traits@D@std@@V?$allocator@D@2@@std@@V12@@std@@@std@@@std@@QEAAPEAU?$_Tree_node@U?$pair@$$CBV?$basic_string@DU?$char_traits@D@std@@V?$allocator@D@2@@std@@V12@@std@@PEAX@2@V?$_Tree_unchecked_const_iterator@V?$_Tree_val@U?$_Tree_simple_types@U?$pair@$$CBV?$basic_string@DU?$char_traits@D@std@@V?$allocator@D@2@@std@@V12@@std@@@std@@@std@@U_Iterator_base0@2@@2@@Z
	?_Get_buffer_view@?$basic_stringbuf@DU?$char_traits@D@std@@V?$allocator@D@2@@std@@QEBA?AU_Buffer_view@12@XZ
	?_Get_first@?$_Compressed_pair@U?$default_delete@V_Facet_base@std@@@std@@PEAV_Facet_base@2@$00@std@@QEAAAEAU?$default_delete@V_Facet_base@std@@@2@XZ
	?_Get_first@?$_Compressed_pair@U?$less@V?$basic_string@DU?$char_traits@D@std@@V?$allocator@D@2@@std@@@std@@V?$_Compressed_pair@V?$allocator@U?$_Tree_node@U?$pair@$$CBV?$basic_string@DU?$char_traits@D@std@@V?$allocator@D@2@@std@@V12@@std@@PEAX@std@@@std@@V?$_Tree_val@U?$_Tree_simple_types@U?$pair@$$CBV?$basic_string@DU?$char_traits@D@std@@V?$allocator@D@2@@std@@V12@@std@@@std@@@2@$00@2@$00@std@@QEAAAEAU?$less@V?$basic_string@DU?$char_traits@D@std@@V?$allocator@D@2@@std@@@2@XZ
	?_Get_first@?$_Compressed_pair@U?$less@V?$basic_string@DU?$char_traits@D@std@@V?$allocator@D@2@@std@@@std@@V?$_Compressed_pair@V?$allocator@U?$_Tree_node@U?$pair@$$CBV?$basic_string@DU?$char_traits@D@std@@V?$allocator@D@2@@std@@V12@@std@@PEAX@std@@@std@@V?$_Tree_val@U?$_Tree_simple_types@U?$pair@$$CBV?$basic_string@DU?$char_traits@D@std@@V?$allocator@D@2@@std@@V12@@std@@@std@@@2@$00@2@$00@std@@QEBAAEBU?$less@V?$basic_string@DU?$char_traits@D@std@@V?$allocator@D@2@@std@@@2@XZ
	?_Get_first@?$_Compressed_pair@V?$allocator@D@std@@V?$_String_val@U?$_Simple_types@D@std@@@2@$00@std@@QEAAAEAV?$allocator@D@2@XZ
	?_Get_first@?$_Compressed_pair@V?$allocator@D@std@@V?$_String_val@U?$_Simple_types@D@std@@@2@$00@std@@QEBAAEBV?$allocator@D@2@XZ
	?_Get_first@?$_Compressed_pair@V?$allocator@H@std@@V?$_Vector_val@U?$_Simple_types@H@std@@@2@$00@std@@QEAAAEAV?$allocator@H@2@XZ
	?_Get_first@?$_Compressed_pair@V?$allocator@H@std@@V?$_Vector_val@U?$_Simple_types@H@std@@@2@$00@std@@QEBAAEBV?$allocator@H@2@XZ
	?_Get_first@?$_Compressed_pair@V?$allocator@M@std@@V?$_Vector_val@U?$_Simple_types@M@std@@@2@$00@std@@QEAAAEAV?$allocator@M@2@XZ
	?_Get_first@?$_Compressed_pair@V?$allocator@M@std@@V?$_Vector_val@U?$_Simple_types@M@std@@@2@$00@std@@QEBAAEBV?$allocator@M@2@XZ
	?_Get_first@?$_Compressed_pair@V?$allocator@N@std@@V?$_Vector_val@U?$_Simple_types@N@std@@@2@$00@std@@QEAAAEAV?$allocator@N@2@XZ
	?_Get_first@?$_Compressed_pair@V?$allocator@N@std@@V?$_Vector_val@U?$_Simple_types@N@std@@@2@$00@std@@QEBAAEBV?$allocator@N@2@XZ
	?_Get_first@?$_Compressed_pair@V?$allocator@PEAV?$BindlessTexture2D@M@UtilsCuda@@@std@@V?$_Vector_val@U?$_Simple_types@PEAV?$BindlessTexture2D@M@UtilsCuda@@@std@@@2@$00@std@@QEAAAEAV?$allocator@PEAV?$BindlessTexture2D@M@UtilsCuda@@@2@XZ
	?_Get_first@?$_Compressed_pair@V?$allocator@PEAV?$BindlessTexture2D@M@UtilsCuda@@@std@@V?$_Vector_val@U?$_Simple_types@PEAV?$BindlessTexture2D@M@UtilsCuda@@@std@@@2@$00@std@@QEBAAEBV?$allocator@PEAV?$BindlessTexture2D@M@UtilsCuda@@@2@XZ
	?_Get_first@?$_Compressed_pair@V?$allocator@PEAVRadonIntermediate@EpipolarConsistency@@@std@@V?$_Vector_val@U?$_Simple_types@PEAVRadonIntermediate@EpipolarConsistency@@@std@@@2@$00@std@@QEAAAEAV?$allocator@PEAVRadonIntermediate@EpipolarConsistency@@@2@XZ
	?_Get_first@?$_Compressed_pair@V?$allocator@PEAVRadonIntermediate@EpipolarConsistency@@@std@@V?$_Vector_val@U?$_Simple_types@PEAVRadonIntermediate@EpipolarConsistency@@@std@@@2@$00@std@@QEBAAEBV?$allocator@PEAVRadonIntermediate@EpipolarConsistency@@@2@XZ
	?_Get_first@?$_Compressed_pair@V?$allocator@U?$_Tree_node@U?$pair@$$CBV?$basic_string@DU?$char_traits@D@std@@V?$allocator@D@2@@std@@V12@@std@@PEAX@std@@@std@@V?$_Tree_val@U?$_Tree_simple_types@U?$pair@$$CBV?$basic_string@DU?$char_traits@D@std@@V?$allocator@D@2@@std@@V12@@std@@@std@@@2@$00@std@@QEAAAEAV?$allocator@U?$_Tree_node@U?$pair@$$CBV?$basic_string@DU?$char_traits@D@std@@V?$allocator@D@2@@std@@V12@@std@@PEAX@std@@@2@XZ
	?_Get_first@?$_Compressed_pair@V?$allocator@U?$_Tree_node@U?$pair@$$CBV?$basic_string@DU?$char_traits@D@std@@V?$allocator@D@2@@std@@V12@@std@@PEAX@std@@@std@@V?$_Tree_val@U?$_Tree_simple_types@U?$pair@$$CBV?$basic_string@DU?$char_traits@D@std@@V?$allocator@D@2@@std@@V12@@std@@@std@@@2@$00@std@@QEBAAEBV?$allocator@U?$_Tree_node@U?$pair@$$CBV?$basic_string@DU?$char_traits@D@std@@V?$allocator@D@2@@std@@V12@@std@@PEAX@std@@@2@XZ
	?_Get_first@?$_Compressed_pair@V?$allocator@U?$pair@MM@std@@@std@@V?$_Vector_val@U?$_Simple_types@U?$pair@MM@std@@@std@@@2@$00@std@@QEAAAEAV?$allocator@U?$pair@MM@std@@@2@XZ
	?_Get_first@?$_Compressed_pair@V?$allocator@U?$pair@MM@std@@@std@@V?$_Vector_val@U?$_Simple_types@U?$pair@MM@std@@@std@@@2@$00@std@@QEBAAEBV?$allocator@U?$pair@MM@std@@@2@XZ
	?_Get_first@?$_Compressed_pair@V?$allocator@U?$pair@V?$Matrix@M$02$00$0A@$02$00@Eigen@@V12@@std@@@std@@V?$_Vector_val@U?$_Simple_types@U?$pair@V?$Matrix@M$02$00$0A@$02$00@Eigen@@V12@@std@@@std@@@2@$00@std@@QEAAAEAV?$allocator@U?$pair@V?$Matrix@M$02$00$0A@$02$00@Eigen@@V12@@std@@@2@XZ
	?_Get_first@?$_Compressed_pair@V?$allocator@U?$pair@V?$Matrix@M$02$00$0A@$02$00@Eigen@@V12@@std@@@std@@V?$_Vector_val@U?$_Simple_types@U?$pair@V?$Matrix@M$02$00$0A@$02$00@Eigen@@V12@@std@@@std@@@2@$00@std@@QEBAAEBV?$allocator@U?$pair@V?$Matrix@M$02$00$0A@$02$00@Eigen@@V12@@std@@@2@XZ
	?_Get_first@?$_Compressed_pair@V?$allocator@UFBCC_weighting_info@@@std@@V?$_Vector_val@U?$_Simple_types@UFBCC_weighting_info@@@std@@@2@$00@std@@QEAAAEAV?$allocator@UFBCC_weighting_info@@@2@XZ
	?_Get_first@?$_Compressed_pair@V?$allocator@UFBCC_weighting_info@@@std@@V?$_Vector_val@U?$_Simple_types@UFBCC_weighting_info@@@std@@@2@$00@std@@QEBAAEBV?$allocator@UFBCC_weighting_info@@@2@XZ
	?_Get_first@?$_Compressed_pair@V?$allocator@V?$Matrix@H$03$00$0A@$03$00@Eigen@@@std@@V?$_Vector_val@U?$_Simple_types@V?$Matrix@H$03$00$0A@$03$00@Eigen@@@std@@@2@$00@std@@QEAAAEAV?$allocator@V?$Matrix@H$03$00$0A@$03$00@Eigen@@@2@XZ
	?_Get_first@?$_Compressed_pair@V?$allocator@V?$Matrix@H$03$00$0A@$03$00@Eigen@@@std@@V?$_Vector_val@U?$_Simple_types@V?$Matrix@H$03$00$0A@$03$00@Eigen@@@std@@@2@$00@std@@QEBAAEBV?$allocator@V?$Matrix@H$03$00$0A@$03$00@Eigen@@@2@XZ
	?_Get_first@?$_Compressed_pair@V?$allocator@V?$Matrix@M$02$03$0A@$02$03@Eigen@@@std@@V?$_Vector_val@U?$_Simple_types@V?$Matrix@M$02$03$0A@$02$03@Eigen@@@std@@@2@$00@std@@QEAAAEAV?$allocator@V?$Matrix@M$02$03$0A@$02$03@Eigen@@@2@XZ
	?_Get_first@?$_Compressed_pair@V?$allocator@V?$Matrix@M$02$03$0A@$02$03@Eigen@@@std@@V?$_Vector_val@U?$_Simple_types@V?$Matrix@M$02$03$0A@$02$03@Eigen@@@std@@@2@$00@std@@QEBAAEBV?$allocator@V?$Matrix@M$02$03$0A@$02$03@Eigen@@@2@XZ
	?_Get_first@?$_Compressed_pair@V?$allocator@V?$Matrix@M$03$00$0A@$03$00@Eigen@@@std@@V?$_Vector_val@U?$_Simple_types@V?$Matrix@M$03$00$0A@$03$00@Eigen@@@std@@@2@$00@std@@QEAAAEAV?$allocator@V?$Matrix@M$03$00$0A@$03$00@Eigen@@@2@XZ
	?_Get_first@?$_Compressed_pair@V?$allocator@V?$Matrix@M$03$00$0A@$03$00@Eigen@@@std@@V?$_Vector_val@U?$_Simple_types@V?$Matrix@M$03$00$0A@$03$00@Eigen@@@std@@@2@$00@std@@QEBAAEBV?$allocator@V?$Matrix@M$03$00$0A@$03$00@Eigen@@@2@XZ
	?_Get_first@?$_Compressed_pair@V?$allocator@V?$Matrix@N$02$03$0A@$02$03@Eigen@@@std@@V?$_Vector_val@U?$_Simple_types@V?$Matrix@N$02$03$0A@$02$03@Eigen@@@std@@@2@$00@std@@QEAAAEAV?$allocator@V?$Matrix@N$02$03$0A@$02$03@Eigen@@@2@XZ
	?_Get_first@?$_Compressed_pair@V?$allocator@V?$Matrix@N$02$03$0A@$02$03@Eigen@@@std@@V?$_Vector_val@U?$_Simple_types@V?$Matrix@N$02$03$0A@$02$03@Eigen@@@std@@@2@$00@std@@QEBAAEBV?$allocator@V?$Matrix@N$02$03$0A@$02$03@Eigen@@@2@XZ
	?_Get_first@?$_Compressed_pair@V?$allocator@_K@std@@V?$_Vector_val@U?$_Simple_types@_K@std@@@2@$00@std@@QEAAAEAV?$allocator@_K@2@XZ
	?_Get_first@?$_Compressed_pair@V?$allocator@_K@std@@V?$_Vector_val@U?$_Simple_types@_K@std@@@2@$00@std@@QEBAAEBV?$allocator@_K@2@XZ
	?_Get_scary@?$_Tree@V?$_Tmap_traits@V?$basic_string@DU?$char_traits@D@std@@V?$allocator@D@2@@std@@V12@U?$less@V?$basic_string@DU?$char_traits@D@std@@V?$allocator@D@2@@std@@@2@V?$allocator@U?$pair@$$CBV?$basic_string@DU?$char_traits@D@std@@V?$allocator@D@2@@std@@V12@@std@@@2@$0A@@std@@@std@@IEAAPEAV?$_Tree_val@U?$_Tree_simple_types@U?$pair@$$CBV?$basic_string@DU?$char_traits@D@std@@V?$allocator@D@2@@std@@V12@@std@@@std@@@2@XZ
	?_Get_scary@?$_Tree@V?$_Tmap_traits@V?$basic_string@DU?$char_traits@D@std@@V?$allocator@D@2@@std@@V12@U?$less@V?$basic_string@DU?$char_traits@D@std@@V?$allocator@D@2@@std@@@2@V?$allocator@U?$pair@$$CBV?$basic_string@DU?$char_traits@D@std@@V?$allocator@D@2@@std@@V12@@std@@@2@$0A@@std@@@std@@IEBAPEBV?$_Tree_val@U?$_Tree_simple_types@U?$pair@$$CBV?$basic_string@DU?$char_traits@D@std@@V?$allocator@D@2@@std@@V12@@std@@@std@@@2@XZ
	?_Get_scary@?$_Tree@V?$_Tset_traits@HU?$less@H@std@@V?$allocator@H@2@$0A@@std@@@std@@IEBAPEBV?$_Tree_val@U?$_Tree_simple_types@H@std@@@2@XZ
	?_Getal@?$_Tree@V?$_Tmap_traits@V?$basic_string@DU?$char_traits@D@std@@V?$allocator@D@2@@std@@V12@U?$less@V?$basic_string@DU?$char_traits@D@std@@V?$allocator@D@2@@std@@@2@V?$allocator@U?$pair@$$CBV?$basic_string@DU?$char_traits@D@std@@V?$allocator@D@2@@std@@V12@@std@@@2@$0A@@std@@@std@@IEAAAEAV?$allocator@U?$_Tree_node@U?$pair@$$CBV?$basic_string@DU?$char_traits@D@std@@V?$allocator@D@2@@std@@V12@@std@@PEAX@std@@@2@XZ
	?_Getal@?$_Tree@V?$_Tmap_traits@V?$basic_string@DU?$char_traits@D@std@@V?$allocator@D@2@@std@@V12@U?$less@V?$basic_string@DU?$char_traits@D@std@@V?$allocator@D@2@@std@@@2@V?$allocator@U?$pair@$$CBV?$basic_string@DU?$char_traits@D@std@@V?$allocator@D@2@@std@@V12@@std@@@2@$0A@@std@@@std@@IEBAAEBV?$allocator@U?$_Tree_node@U?$pair@$$CBV?$basic_string@DU?$char_traits@D@std@@V?$allocator@D@2@@std@@V12@@std@@PEAX@std@@@2@XZ
	?_Getal@?$basic_string@DU?$char_traits@D@std@@V?$allocator@D@2@@std@@AEAAAEAV?$allocator@D@2@XZ
	?_Getal@?$basic_string@DU?$char_traits@D@std@@V?$allocator@D@2@@std@@AEBAAEBV?$allocator@D@2@XZ
	?_Getal@?$vector@HV?$allocator@H@std@@@std@@AEAAAEAV?$allocator@H@2@XZ
	?_Getal@?$vector@HV?$allocator@H@std@@@std@@AEBAAEBV?$allocator@H@2@XZ
	?_Getal@?$vector@MV?$allocator@M@std@@@std@@AEAAAEAV?$allocator@M@2@XZ
	?_Getal@?$vector@MV?$allocator@M@std@@@std@@AEBAAEBV?$allocator@M@2@XZ
	?_Getal@?$vector@NV?$allocator@N@std@@@std@@AEAAAEAV?$allocator@N@2@XZ
	?_Getal@?$vector@NV?$allocator@N@std@@@std@@AEBAAEBV?$allocator@N@2@XZ
	?_Getal@?$vector@PEAV?$BindlessTexture2D@M@UtilsCuda@@V?$allocator@PEAV?$BindlessTexture2D@M@UtilsCuda@@@std@@@std@@AEAAAEAV?$allocator@PEAV?$BindlessTexture2D@M@UtilsCuda@@@2@XZ
	?_Getal@?$vector@PEAV?$BindlessTexture2D@M@UtilsCuda@@V?$allocator@PEAV?$BindlessTexture2D@M@UtilsCuda@@@std@@@std@@AEBAAEBV?$allocator@PEAV?$BindlessTexture2D@M@UtilsCuda@@@2@XZ
	?_Getal@?$vector@PEAVRadonIntermediate@EpipolarConsistency@@V?$allocator@PEAVRadonIntermediate@EpipolarConsistency@@@std@@@std@@AEAAAEAV?$allocator@PEAVRadonIntermediate@EpipolarConsistency@@@2@XZ
	?_Getal@?$vector@PEAVRadonIntermediate@EpipolarConsistency@@V?$allocator@PEAVRadonIntermediate@EpipolarConsistency@@@std@@@std@@AEBAAEBV?$allocator@PEAVRadonIntermediate@EpipolarConsistency@@@2@XZ
	?_Getal@?$vector@U?$pair@MM@std@@V?$allocator@U?$pair@MM@std@@@2@@std@@AEAAAEAV?$allocator@U?$pair@MM@std@@@2@XZ
	?_Getal@?$vector@U?$pair@MM@std@@V?$allocator@U?$pair@MM@std@@@2@@std@@AEBAAEBV?$allocator@U?$pair@MM@std@@@2@XZ
	?_Getal@?$vector@U?$pair@V?$Matrix@M$02$00$0A@$02$00@Eigen@@V12@@std@@V?$allocator@U?$pair@V?$Matrix@M$02$00$0A@$02$00@Eigen@@V12@@std@@@2@@std@@AEAAAEAV?$allocator@U?$pair@V?$Matrix@M$02$00$0A@$02$00@Eigen@@V12@@std@@@2@XZ
	?_Getal@?$vector@U?$pair@V?$Matrix@M$02$00$0A@$02$00@Eigen@@V12@@std@@V?$allocator@U?$pair@V?$Matrix@M$02$00$0A@$02$00@Eigen@@V12@@std@@@2@@std@@AEBAAEBV?$allocator@U?$pair@V?$Matrix@M$02$00$0A@$02$00@Eigen@@V12@@std@@@2@XZ
	?_Getal@?$vector@UFBCC_weighting_info@@V?$allocator@UFBCC_weighting_info@@@std@@@std@@AEAAAEAV?$allocator@UFBCC_weighting_info@@@2@XZ
	?_Getal@?$vector@UFBCC_weighting_info@@V?$allocator@UFBCC_weighting_info@@@std@@@std@@AEBAAEBV?$allocator@UFBCC_weighting_info@@@2@XZ
	?_Getal@?$vector@V?$Matrix@H$03$00$0A@$03$00@Eigen@@V?$allocator@V?$Matrix@H$03$00$0A@$03$00@Eigen@@@std@@@std@@AEAAAEAV?$allocator@V?$Matrix@H$03$00$0A@$03$00@Eigen@@@2@XZ
	?_Getal@?$vector@V?$Matrix@H$03$00$0A@$03$00@Eigen@@V?$allocator@V?$Matrix@H$03$00$0A@$03$00@Eigen@@@std@@@std@@AEBAAEBV?$allocator@V?$Matrix@H$03$00$0A@$03$00@Eigen@@@2@XZ
	?_Getal@?$vector@V?$Matrix@M$02$03$0A@$02$03@Eigen@@V?$allocator@V?$Matrix@M$02$03$0A@$02$03@Eigen@@@std@@@std@@AEAAAEAV?$allocator@V?$Matrix@M$02$03$0A@$02$03@Eigen@@@2@XZ
	?_Getal@?$vector@V?$Matrix@M$02$03$0A@$02$03@Eigen@@V?$allocator@V?$Matrix@M$02$03$0A@$02$03@Eigen@@@std@@@std@@AEBAAEBV?$allocator@V?$Matrix@M$02$03$0A@$02$03@Eigen@@@2@XZ
	?_Getal@?$vector@V?$Matrix@M$03$00$0A@$03$00@Eigen@@V?$allocator@V?$Matrix@M$03$00$0A@$03$00@Eigen@@@std@@@std@@AEAAAEAV?$allocator@V?$Matrix@M$03$00$0A@$03$00@Eigen@@@2@XZ
	?_Getal@?$vector@V?$Matrix@M$03$00$0A@$03$00@Eigen@@V?$allocator@V?$Matrix@M$03$00$0A@$03$00@Eigen@@@std@@@std@@AEBAAEBV?$allocator@V?$Matrix@M$03$00$0A@$03$00@Eigen@@@2@XZ
	?_Getal@?$vector@V?$Matrix@N$02$03$0A@$02$03@Eigen@@V?$allocator@V?$Matrix@N$02$03$0A@$02$03@Eigen@@@std@@@std@@AEAAAEAV?$allocator@V?$Matrix@N$02$03$0A@$02$03@Eigen@@@2@XZ
	?_Getal@?$vector@V?$Matrix@N$02$03$0A@$02$03@Eigen@@V?$allocator@V?$Matrix@N$02$03$0A@$02$03@Eigen@@@std@@@std@@AEBAAEBV?$allocator@V?$Matrix@N$02$03$0A@$02$03@Eigen@@@2@XZ
	?_Getal@?$vector@_KV?$allocator@_K@std@@@std@@AEAAAEAV?$allocator@_K@2@XZ
	?_Getal@?$vector@_KV?$allocator@_K@std@@@std@@AEBAAEBV?$allocator@_K@2@XZ
	?_Getcomp@?$_Tree@V?$_Tmap_traits@V?$basic_string@DU?$char_traits@D@std@@V?$allocator@D@2@@std@@V12@U?$less@V?$basic_string@DU?$char_traits@D@std@@V?$allocator@D@2@@std@@@2@V?$allocator@U?$pair@$$CBV?$basic_string@DU?$char_traits@D@std@@V?$allocator@D@2@@std@@V12@@std@@@2@$0A@@std@@@std@@IEAAAEAU?$less@V?$basic_string@DU?$char_traits@D@std@@V?$allocator@D@2@@std@@@2@XZ
	?_Getcomp@?$_Tree@V?$_Tmap_traits@V?$basic_string@DU?$char_traits@D@std@@V?$allocator@D@2@@std@@V12@U?$less@V?$basic_string@DU?$char_traits@D@std@@V?$allocator@D@2@@std@@@2@V?$allocator@U?$pair@$$CBV?$basic_string@DU?$char_traits@D@std@@V?$allocator@D@2@@std@@V12@@std@@@2@$0A@@std@@@std@@IEBAAEBU?$less@V?$basic_string@DU?$char_traits@D@std@@V?$allocator@D@2@@std@@@2@XZ
	?_Getcont@_Iterator_base0@std@@QEBAPEBU_Container_base0@2@XZ
	?_Getfacet@locale@std@@QEBAPEBVfacet@12@_K@Z
	?_Getstate@?$basic_stringbuf@DU?$char_traits@D@std@@V?$allocator@D@2@@std@@CAHH@Z
	?_Init@?$basic_filebuf@DU?$char_traits@D@std@@@std@@IEAAXPEAU_iobuf@@W4_Initfl@12@@Z
	?_Init@?$basic_stringbuf@DU?$char_traits@D@std@@V?$allocator@D@2@@std@@IEAAXPEBD_KH@Z
	?_Initcvt@?$basic_filebuf@DU?$char_traits@D@std@@@std@@IEAAXAEBV?$codecvt@DDU_Mbstatet@@@2@@Z
	?_Insert_node@?$_Tree_val@U?$_Tree_simple_types@U?$pair@$$CBV?$basic_string@DU?$char_traits@D@std@@V?$allocator@D@2@@std@@V12@@std@@@std@@@std@@QEAAPEAU?$_Tree_node@U?$pair@$$CBV?$basic_string@DU?$char_traits@D@std@@V?$allocator@D@2@@std@@V12@@std@@PEAX@2@U?$_Tree_id@PEAU?$_Tree_node@U?$pair@$$CBV?$basic_string@DU?$char_traits@D@std@@V?$allocator@D@2@@std@@V12@@std@@PEAX@std@@@2@QEAU32@@Z
	?_Is_constant_evaluated@std@@YA_NXZ
	?_Large_mode_engaged@?$_String_val@U?$_Simple_types@D@std@@@std@@QEBA_NXZ
	?_Lock@?$basic_filebuf@DU?$char_traits@D@std@@@std@@UEAAXXZ
	?_Lrotate@?$_Tree_val@U?$_Tree_simple_types@U?$pair@$$CBV?$basic_string@DU?$char_traits@D@std@@V?$allocator@D@2@@std@@V12@@std@@@std@@@std@@QEAAXPEAU?$_Tree_node@U?$pair@$$CBV?$basic_string@DU?$char_traits@D@std@@V?$allocator@D@2@@std@@V12@@std@@PEAX@2@@Z
	?_Maklocwcs@std@@YAPEA_WPEB_W@Z
	?_Max@?$_Tree_val@U?$_Tree_simple_types@U?$pair@$$CBV?$basic_string@DU?$char_traits@D@std@@V?$allocator@D@2@@std@@V12@@std@@@std@@@std@@SAPEAU?$_Tree_node@U?$pair@$$CBV?$basic_string@DU?$char_traits@D@std@@V?$allocator@D@2@@std@@V12@@std@@PEAX@2@PEAU32@@Z
	?_Min@?$_Tree_val@U?$_Tree_simple_types@H@std@@@std@@SAPEAU?$_Tree_node@HPEAX@2@PEAU32@@Z
	?_Min@?$_Tree_val@U?$_Tree_simple_types@U?$pair@$$CBV?$basic_string@DU?$char_traits@D@std@@V?$allocator@D@2@@std@@V12@@std@@@std@@@std@@SAPEAU?$_Tree_node@U?$pair@$$CBV?$basic_string@DU?$char_traits@D@std@@V?$allocator@D@2@@std@@V12@@std@@PEAX@2@PEAU32@@Z
	?_Myptr@?$_String_val@U?$_Simple_types@D@std@@@std@@QEAAPEADXZ
	?_Myptr@?$_String_val@U?$_Simple_types@D@std@@@std@@QEBAPEBDXZ
	?_Orphan_all@_Container_base0@std@@QEAAXXZ
	?_Orphan_ptr@?$_Tree_val@U?$_Tree_simple_types@U?$pair@$$CBV?$basic_string@DU?$char_traits@D@std@@V?$allocator@D@2@@std@@V12@@std@@@std@@@std@@QEAAXQEAU?$_Tree_node@U?$pair@$$CBV?$basic_string@DU?$char_traits@D@std@@V?$allocator@D@2@@std@@V12@@std@@PEAX@2@@Z
	?_Orphan_range@?$vector@HV?$allocator@H@std@@@std@@AEBAXPEAH0@Z
	?_Orphan_range@?$vector@MV?$allocator@M@std@@@std@@AEBAXPEAM0@Z
	?_Orphan_range@?$vector@NV?$allocator@N@std@@@std@@AEBAXPEAN0@Z
	?_Orphan_range@?$vector@U?$pair@MM@std@@V?$allocator@U?$pair@MM@std@@@2@@std@@AEBAXPEAU?$pair@MM@2@0@Z
	?_Orphan_range@?$vector@V?$Matrix@H$03$00$0A@$03$00@Eigen@@V?$allocator@V?$Matrix@H$03$00$0A@$03$00@Eigen@@@std@@@std@@AEBAXPEAV?$Matrix@H$03$00$0A@$03$00@Eigen@@0@Z
	?_Release@?$_Alloc_construct_ptr@V?$allocator@U?$_Tree_node@U?$pair@$$CBV?$basic_string@DU?$char_traits@D@std@@V?$allocator@D@2@@std@@V12@@std@@PEAX@std@@@std@@@std@@QEAAPEAU?$_Tree_node@U?$pair@$$CBV?$basic_string@DU?$char_traits@D@std@@V?$allocator@D@2@@std@@V12@@std@@PEAX@2@XZ
	?_Release@?$_Tree_head_scoped_ptr@V?$allocator@U?$_Tree_node@U?$pair@$$CBV?$basic_string@DU?$char_traits@D@std@@V?$allocator@D@2@@std@@V12@@std@@PEAX@std@@@std@@V?$_Tree_val@U?$_Tree_simple_types@U?$pair@$$CBV?$basic_string@DU?$char_traits@D@std@@V?$allocator@D@2@@std@@V12@@std@@@std@@@2@@std@@QEAAXXZ
	?_Release@?$_Uninitialized_backout_al@V?$allocator@H@std@@@std@@QEAAPEAHXZ
	?_Release@?$_Uninitialized_backout_al@V?$allocator@M@std@@@std@@QEAAPEAMXZ
	?_Release@?$_Uninitialized_backout_al@V?$allocator@N@std@@@std@@QEAAPEANXZ
	?_Release@?$_Uninitialized_backout_al@V?$allocator@PEAV?$BindlessTexture2D@M@UtilsCuda@@@std@@@std@@QEAAPEAPEAV?$BindlessTexture2D@M@UtilsCuda@@XZ
	?_Release@?$_Uninitialized_backout_al@V?$allocator@PEAVRadonIntermediate@EpipolarConsistency@@@std@@@std@@QEAAPEAPEAVRadonIntermediate@EpipolarConsistency@@XZ
	?_Release@?$_Uninitialized_backout_al@V?$allocator@U?$pair@MM@std@@@std@@@std@@QEAAPEAU?$pair@MM@2@XZ
	?_Release@?$_Uninitialized_backout_al@V?$allocator@U?$pair@V?$Matrix@M$02$00$0A@$02$00@Eigen@@V12@@std@@@std@@@std@@QEAAPEAU?$pair@V?$Matrix@M$02$00$0A@$02$00@Eigen@@V12@@2@XZ
	?_Release@?$_Uninitialized_backout_al@V?$allocator@UFBCC_weighting_info@@@std@@@std@@QEAAPEAUFBCC_weighting_info@@XZ
	?_Release@?$_Uninitialized_backout_al@V?$allocator@V?$Matrix@H$03$00$0A@$03$00@Eigen@@@std@@@std@@QEAAPEAV?$Matrix@H$03$00$0A@$03$00@Eigen@@XZ
	?_Release@?$_Uninitialized_backout_al@V?$allocator@V?$Matrix@M$02$03$0A@$02$03@Eigen@@@std@@@std@@QEAAPEAV?$Matrix@M$02$03$0A@$02$03@Eigen@@XZ
	?_Release@?$_Uninitialized_backout_al@V?$allocator@V?$Matrix@M$03$00$0A@$03$00@Eigen@@@std@@@std@@QEAAPEAV?$Matrix@M$03$00$0A@$03$00@Eigen@@XZ
	?_Release@?$_Uninitialized_backout_al@V?$allocator@V?$Matrix@N$02$03$0A@$02$03@Eigen@@@std@@@std@@QEAAPEAV?$Matrix@N$02$03$0A@$02$03@Eigen@@XZ
	?_Release@?$_Uninitialized_backout_al@V?$allocator@_K@std@@@std@@QEAAPEA_KXZ
	?_Release@_Fake_proxy_ptr_impl@std@@QEAAXXZ
	?_Reset_back@?$basic_filebuf@DU?$char_traits@D@std@@@std@@AEAAXXZ
	?_Rrotate@?$_Tree_val@U?$_Tree_simple_types@U?$pair@$$CBV?$basic_string@DU?$char_traits@D@std@@V?$allocator@D@2@@std@@V12@@std@@@std@@@std@@QEAAXPEAU?$_Tree_node@U?$pair@$$CBV?$basic_string@DU?$char_traits@D@std@@V?$allocator@D@2@@std@@V12@@std@@PEAX@2@@Z
	?_Set_back@?$basic_filebuf@DU?$char_traits@D@std@@@std@@AEAAXXZ
	?_Swap_proxy_and_iterators@?$basic_string@DU?$char_traits@D@std@@V?$allocator@D@2@@std@@AEAAXAEAV12@@Z
	?_Swap_proxy_and_iterators@_Container_base0@std@@QEAAXAEAU12@@Z
	?_Switch_to_buf@_Bxty@?$_String_val@U?$_Simple_types@D@std@@@std@@QEAAXXZ
	?_Take_contents@?$_Vector_val@U?$_Simple_types@H@std@@@std@@QEAAXAEAV12@@Z
	?_Take_contents@?$_Vector_val@U?$_Simple_types@M@std@@@std@@QEAAXAEAV12@@Z
	?_Take_contents@?$_Vector_val@U?$_Simple_types@N@std@@@std@@QEAAXAEAV12@@Z
	?_Take_contents@?$basic_string@DU?$char_traits@D@std@@V?$allocator@D@2@@std@@AEAAXAEAV12@@Z
	?_Throw_bad_array_new_length@std@@YAXXZ
	?_Throw_bad_cast@std@@YAXXZ
	?_Throw_tree_length_error@std@@YAXXZ
	?_Tidy@?$basic_stringbuf@DU?$char_traits@D@std@@V?$allocator@D@2@@std@@IEAAXXZ
	?_Tidy@?$vector@HV?$allocator@H@std@@@std@@AEAAXXZ
	?_Tidy@?$vector@MV?$allocator@M@std@@@std@@AEAAXXZ
	?_Tidy@?$vector@NV?$allocator@N@std@@@std@@AEAAXXZ
	?_Tidy@?$vector@PEAV?$BindlessTexture2D@M@UtilsCuda@@V?$allocator@PEAV?$BindlessTexture2D@M@UtilsCuda@@@std@@@std@@AEAAXXZ
	?_Tidy@?$vector@PEAVRadonIntermediate@EpipolarConsistency@@V?$allocator@PEAVRadonIntermediate@EpipolarConsistency@@@std@@@std@@AEAAXXZ
	?_Tidy@?$vector@U?$pair@V?$Matrix@M$02$00$0A@$02$00@Eigen@@V12@@std@@V?$allocator@U?$pair@V?$Matrix@M$02$00$0A@$02$00@Eigen@@V12@@std@@@2@@std@@AEAAXXZ
	?_Tidy@?$vector@UFBCC_weighting_info@@V?$allocator@UFBCC_weighting_info@@@std@@@std@@AEAAXXZ
	?_Tidy@?$vector@V?$Matrix@H$03$00$0A@$03$00@Eigen@@V?$allocator@V?$Matrix@H$03$00$0A@$03$00@Eigen@@@std@@@std@@AEAAXXZ
	?_Tidy@?$vector@V?$Matrix@M$02$03$0A@$02$03@Eigen@@V?$allocator@V?$Matrix@M$02$03$0A@$02$03@Eigen@@@std@@@std@@AEAAXXZ
	?_Tidy@?$vector@V?$Matrix@M$03$00$0A@$03$00@Eigen@@V?$allocator@V?$Matrix@M$03$00$0A@$03$00@Eigen@@@std@@@std@@AEAAXXZ
	?_Tidy@?$vector@V?$Matrix@N$02$03$0A@$02$03@Eigen@@V?$allocator@V?$Matrix@N$02$03$0A@$02$03@Eigen@@@std@@@std@@AEAAXXZ
	?_Tidy@?$vector@_KV?$allocator@_K@std@@@std@@AEAAXXZ
	?_Tidy_deallocate@?$basic_string@DU?$char_traits@D@std@@V?$allocator@D@2@@std@@AEAAXXZ
	?_Unlock@?$basic_filebuf@DU?$char_traits@D@std@@@std@@UEAAXXZ
	?_Unwrapped@?$_String_iterator@V?$_String_val@U?$_Simple_types@D@std@@@std@@@std@@QEBAPEADXZ
	?_Unwrapped@?$_Tree_iterator@V?$_Tree_val@U?$_Tree_simple_types@U?$pair@$$CBV?$basic_string@DU?$char_traits@D@std@@V?$allocator@D@2@@std@@V12@@std@@@std@@@std@@@std@@QEBA?AV?$_Tree_unchecked_iterator@V?$_Tree_val@U?$_Tree_simple_types@U?$pair@$$CBV?$basic_string@DU?$char_traits@D@std@@V?$allocator@D@2@@std@@V12@@std@@@std@@@std@@@2@XZ
	?_Xlen_string@std@@YAXXZ
	?_Xlength@?$vector@HV?$allocator@H@std@@@std@@CAXXZ
	?_Xlength@?$vector@MV?$allocator@M@std@@@std@@CAXXZ
	?_Xlength@?$vector@NV?$allocator@N@std@@@std@@CAXXZ
	?_Xlength@?$vector@PEAV?$BindlessTexture2D@M@UtilsCuda@@V?$allocator@PEAV?$BindlessTexture2D@M@UtilsCuda@@@std@@@std@@CAXXZ
	?_Xlength@?$vector@PEAVRadonIntermediate@EpipolarConsistency@@V?$allocator@PEAVRadonIntermediate@EpipolarConsistency@@@std@@@std@@CAXXZ
	?_Xlength@?$vector@U?$pair@MM@std@@V?$allocator@U?$pair@MM@std@@@2@@std@@CAXXZ
	?_Xlength@?$vector@U?$pair@V?$Matrix@M$02$00$0A@$02$00@Eigen@@V12@@std@@V?$allocator@U?$pair@V?$Matrix@M$02$00$0A@$02$00@Eigen@@V12@@std@@@2@@std@@CAXXZ
	?_Xlength@?$vector@UFBCC_weighting_info@@V?$allocator@UFBCC_weighting_info@@@std@@@std@@CAXXZ
	?_Xlength@?$vector@V?$Matrix@H$03$00$0A@$03$00@Eigen@@V?$allocator@V?$Matrix@H$03$00$0A@$03$00@Eigen@@@std@@@std@@CAXXZ
	?_Xlength@?$vector@V?$Matrix@M$02$03$0A@$02$03@Eigen@@V?$allocator@V?$Matrix@M$02$03$0A@$02$03@Eigen@@@std@@@std@@CAXXZ
	?_Xlength@?$vector@V?$Matrix@M$03$00$0A@$03$00@Eigen@@V?$allocator@V?$Matrix@M$03$00$0A@$03$00@Eigen@@@std@@@std@@CAXXZ
	?_Xlength@?$vector@V?$Matrix@N$02$03$0A@$02$03@Eigen@@V?$allocator@V?$Matrix@N$02$03$0A@$02$03@Eigen@@@std@@@std@@CAXXZ
	?_Xlength@?$vector@_KV?$allocator@_K@std@@@std@@CAXXZ
	?_Xran@?$_String_val@U?$_Simple_types@D@std@@@std@@SAXXZ
	?__device_stub__Z13ramp_filter1DP6float2iif@@YAXPEAUfloat2@@HHM@Z
	?__device_stub__Z14kernel_warp_1cN6culaut5ArrayIfLi9EEEiiyiiPf@@YAXAEAU?$Array@M$08@culaut@@HH_KHHPEAM@Z
	?__device_stub__Z21kernel_horiz_integralN6culaut5ArrayIfLi9EEEiiyffPf@@YAXAEAU?$Array@M$08@culaut@@HH_KMMPEAM@Z
	?__device_stub__Z27kernel_computeLineIntegralsPfS_iyffS_fb@@YAXPEAM0H_KMM0M_N@Z
	?__device_stub__Z27kernel_computeLineIntegralssPfsS_syssS_@@YAXFPEAMF0F_KFF0@Z
	?__device_stub__Z35kernelEpipolarConsistencyComputeK01ffiiPfS_iPiS_fffff@@YAXMMHHPEAM0HPEAH0MMMMM@Z
	?_check_compute_assertions@?$SVDBase@V?$JacobiSVD@V?$Matrix@N$02$02$0A@$02$02@Eigen@@$0A@@Eigen@@@Eigen@@IEBAXXZ
	?abs@@YAJJ@Z
	?abs@@YAMM@Z
	?abs@@YANN@Z
	?abs@@YA_J_J@Z
	?acos@@YAMM@Z
	?acosh@@YAMM@Z
	?adjoint@?$MatrixBase@V?$Block@$$CBV?$Matrix@N$02$02$0A@$02$02@Eigen@@$02$0?0$00@Eigen@@@Eigen@@QEBA?BV?$Transpose@$$CBV?$Block@$$CBV?$Matrix@N$02$02$0A@$02$02@Eigen@@$02$0?0$00@Eigen@@@2@XZ
	?allocate@?$JacobiSVD@V?$Matrix@N$02$02$0A@$02$02@Eigen@@$0A@@Eigen@@QEAAX_J0I@Z
	?allocate@?$MemoryBlock@D@UtilsCuda@@QEAA_NH@Z
	?allocate@?$MemoryBlock@H@UtilsCuda@@QEAA_NH@Z
	?allocate@?$MemoryBlock@M@UtilsCuda@@QEAA_NH@Z
	?allocate@?$SVDBase@V?$JacobiSVD@V?$Matrix@N$02$02$0A@$02$02@Eigen@@$0A@@Eigen@@@Eigen@@IEAA_N_J0I@Z
	?allocate@?$allocator@D@std@@QEAAPEAD_K@Z
	?allocate@?$allocator@H@std@@QEAAPEAH_K@Z
	?allocate@?$allocator@M@std@@QEAAPEAM_K@Z
	?allocate@?$allocator@N@std@@QEAAPEAN_K@Z
	?allocate@?$allocator@PEAV?$BindlessTexture2D@M@UtilsCuda@@@std@@QEAAPEAPEAV?$BindlessTexture2D@M@UtilsCuda@@_K@Z
	?allocate@?$allocator@PEAVRadonIntermediate@EpipolarConsistency@@@std@@QEAAPEAPEAVRadonIntermediate@EpipolarConsistency@@_K@Z
	?allocate@?$allocator@U?$_Tree_node@U?$pair@$$CBV?$basic_string@DU?$char_traits@D@std@@V?$allocator@D@2@@std@@V12@@std@@PEAX@std@@@std@@QEAAPEAU?$_Tree_node@U?$pair@$$CBV?$basic_string@DU?$char_traits@D@std@@V?$allocator@D@2@@std@@V12@@std@@PEAX@2@_K@Z
	?allocate@?$allocator@U?$pair@MM@std@@@std@@QEAAPEAU?$pair@MM@2@_K@Z
	?allocate@?$allocator@U?$pair@V?$Matrix@M$02$00$0A@$02$00@Eigen@@V12@@std@@@std@@QEAAPEAU?$pair@V?$Matrix@M$02$00$0A@$02$00@Eigen@@V12@@2@_K@Z
	?allocate@?$allocator@UFBCC_weighting_info@@@std@@QEAAPEAUFBCC_weighting_info@@_K@Z
	?allocate@?$allocator@V?$Matrix@H$03$00$0A@$03$00@Eigen@@@std@@QEAAPEAV?$Matrix@H$03$00$0A@$03$00@Eigen@@_K@Z
	?allocate@?$allocator@V?$Matrix@M$02$03$0A@$02$03@Eigen@@@std@@QEAAPEAV?$Matrix@M$02$03$0A@$02$03@Eigen@@_K@Z
	?allocate@?$allocator@V?$Matrix@M$03$00$0A@$03$00@Eigen@@@std@@QEAAPEAV?$Matrix@M$03$00$0A@$03$00@Eigen@@_K@Z
	?allocate@?$allocator@V?$Matrix@N$02$03$0A@$02$03@Eigen@@@std@@QEAAPEAV?$Matrix@N$02$03$0A@$02$03@Eigen@@_K@Z
	?allocate@?$allocator@_K@std@@QEAAPEA_K_K@Z
	?allocate@?$qr_preconditioner_impl@V?$Matrix@N$02$02$0A@$02$02@Eigen@@$0A@$0A@$00$0A@@internal@Eigen@@QEAAXAEBV?$JacobiSVD@V?$Matrix@N$02$02$0A@$02$02@Eigen@@$0A@@3@@Z
	?allocate@?$qr_preconditioner_impl@V?$Matrix@N$02$02$0A@$02$02@Eigen@@$0A@$0A@$0A@$0A@@internal@Eigen@@QEAAXAEBV?$JacobiSVD@V?$Matrix@N$02$02$0A@$02$02@Eigen@@$0A@@3@@Z
	?append@?$basic_string@DU?$char_traits@D@std@@V?$allocator@D@2@@std@@QEAAAEAV12@AEBV12@@Z
	?apply1DRampFilter@@YAXPEAMHH@Z
	?asDiagonal@?$MatrixBase@V?$Block@$$CBV?$Matrix@N$02$00$0A@$02$00@Eigen@@$0?0$00$0A@@Eigen@@@Eigen@@QEBA?BV?$DiagonalWrapper@$$CBV?$Block@$$CBV?$Matrix@N$02$00$0A@$02$00@Eigen@@$0?0$00$0A@@Eigen@@@2@XZ
	?asDiagonal@?$MatrixBase@V?$CwiseUnaryOp@U?$scalar_inverse_op@N@internal@Eigen@@$$CBV?$Block@$$CBV?$Matrix@N$02$00$0A@$02$00@Eigen@@$0?0$00$0A@@3@@Eigen@@@Eigen@@QEBA?BV?$DiagonalWrapper@$$CBV?$CwiseUnaryOp@U?$scalar_inverse_op@N@internal@Eigen@@$$CBV?$Block@$$CBV?$Matrix@N$02$00$0A@$02$00@Eigen@@$0?0$00$0A@@3@@Eigen@@@2@XZ
	?asDiagonal@?$MatrixBase@V?$Matrix@N$02$00$0A@$02$00@Eigen@@@Eigen@@QEBA?BV?$DiagonalWrapper@$$CBV?$Matrix@N$02$00$0A@$02$00@Eigen@@@2@XZ
	?asin@@YAMM@Z
	?asinh@@YAMM@Z
	?assign@?$_Narrow_char_traits@DH@std@@SAXAEADAEBD@Z
	?assign@?$basic_string@DU?$char_traits@D@std@@V?$allocator@D@2@@std@@QEAAAEAV12@QEBD@Z
	?assign@?$basic_string@DU?$char_traits@D@std@@V?$allocator@D@2@@std@@QEAAAEAV12@QEBD_K@Z
	?assignCoeff@?$assign_op@MM@internal@Eigen@@QEBAXAEAMAEBM@Z
	?assignCoeff@?$assign_op@NN@internal@Eigen@@QEBAXAEANAEBN@Z
	?assignCoeff@?$compound_assign_op@NNU?$scalar_difference_op@NN@internal@Eigen@@@internal@Eigen@@QEBAXAEANAEBN@Z
	?assignCoeff@?$compound_assign_op@NNU?$scalar_product_op@NN@internal@Eigen@@@internal@Eigen@@QEBAXAEANAEBN@Z
	?assignCoeff@?$compound_assign_op@NNU?$scalar_quotient_op@NN@internal@Eigen@@@internal@Eigen@@QEBAXAEANAEBN@Z
	?assignCoeff@?$compound_assign_op@NNU?$scalar_sum_op@NN@internal@Eigen@@@internal@Eigen@@QEBAXAEANAEBN@Z
	?assignCoeff@?$generic_dense_assignment_kernel@U?$evaluator@V?$Block@V?$Matrix@N$02$02$0A@$02$02@Eigen@@$02$00$00@Eigen@@@internal@Eigen@@U123@U?$swap_assign_op@N@23@$00@internal@Eigen@@QEAAX_J@Z
	?assignCoeff@?$generic_dense_assignment_kernel@U?$evaluator@V?$Block@V?$Matrix@N$02$02$0A@$02$02@Eigen@@$02$00$00@Eigen@@@internal@Eigen@@U?$evaluator@V?$CwiseNullaryOp@U?$scalar_constant_op@N@internal@Eigen@@$$CBV?$Matrix@N$02$00$0A@$02$00@3@@Eigen@@@23@U?$mul_assign_op@NN@23@$0A@@internal@Eigen@@QEAAX_J@Z
	?assignCoeff@?$generic_dense_assignment_kernel@U?$evaluator@V?$Block@V?$Matrix@N$02$02$0A@$02$02@Eigen@@$02$00$00@Eigen@@@internal@Eigen@@U?$evaluator@V?$CwiseUnaryOp@U?$scalar_opposite_op@N@internal@Eigen@@$$CBV?$Block@V?$Matrix@N$02$02$0A@$02$02@Eigen@@$02$00$00@3@@Eigen@@@23@U?$assign_op@NN@23@$0A@@internal@Eigen@@QEAAX_J@Z
	?assignCoeff@?$generic_dense_assignment_kernel@U?$evaluator@V?$Block@V?$Matrix@N$02$03$0A@$02$03@Eigen@@$00$02$0A@@Eigen@@@internal@Eigen@@U?$evaluator@V?$Transpose@V?$Matrix@N$02$00$0A@$02$00@Eigen@@@Eigen@@@23@U?$assign_op@NN@23@$0A@@internal@Eigen@@QEAAX_J@Z
	?assignCoeff@?$generic_dense_assignment_kernel@U?$evaluator@V?$Block@V?$Matrix@N$03$00$0A@$03$00@Eigen@@$02$00$0A@@Eigen@@@internal@Eigen@@U?$evaluator@V?$Product@V?$Block@$$CBV?$Matrix@N$02$02$0A@$02$02@Eigen@@$02$0?0$00@Eigen@@V?$Matrix@N$0?0$00$0A@$02$00@2@$00@Eigen@@@23@U?$assign_op@NN@23@$0A@@internal@Eigen@@QEAAX_J@Z
	?assignCoeff@?$generic_dense_assignment_kernel@U?$evaluator@V?$Block@V?$Matrix@N$03$00$0A@$03$00@Eigen@@$0?0$00$0A@@Eigen@@@internal@Eigen@@U?$evaluator@V?$Matrix@N$02$00$0A@$02$00@Eigen@@@23@U?$assign_op@NN@23@$0A@@internal@Eigen@@QEAAX_J@Z
	?assignCoeff@?$generic_dense_assignment_kernel@U?$evaluator@V?$Diagonal@V?$Matrix@N$02$02$0A@$02$02@Eigen@@$0A@@Eigen@@@internal@Eigen@@U?$evaluator@V?$Matrix@N$02$00$0A@$02$00@Eigen@@@23@U?$assign_op@NN@23@$0A@@internal@Eigen@@QEAAX_J@Z
	?assignCoeff@?$generic_dense_assignment_kernel@U?$evaluator@V?$Matrix@M$02$00$0A@$02$00@Eigen@@@internal@Eigen@@U?$evaluator@V?$CwiseUnaryOp@U?$core_cast_op@NM@internal@Eigen@@$$CBV?$Matrix@N$02$00$0A@$02$00@3@@Eigen@@@23@U?$assign_op@MM@23@$0A@@internal@Eigen@@QEAAX_J@Z
	?assignCoeff@?$generic_dense_assignment_kernel@U?$evaluator@V?$Matrix@M$02$03$0A@$02$03@Eigen@@@internal@Eigen@@U?$evaluator@V?$Matrix@M$02$03$00$02$03@Eigen@@@23@U?$assign_op@MM@23@$0A@@internal@Eigen@@QEAAX_J0@Z
	?assignCoeff@?$generic_dense_assignment_kernel@U?$evaluator@V?$Matrix@N$00$02$00$00$02@Eigen@@@internal@Eigen@@U?$evaluator@V?$Block@$$CBV?$Matrix@N$02$03$0A@$02$03@Eigen@@$00$02$0A@@Eigen@@@23@U?$assign_op@NN@23@$0A@@internal@Eigen@@QEAAX_J@Z
	?assignCoeff@?$generic_dense_assignment_kernel@U?$evaluator@V?$Matrix@N$00$02$00$00$02@Eigen@@@internal@Eigen@@U?$evaluator@V?$CwiseBinaryOp@U?$scalar_quotient_op@NN@internal@Eigen@@$$CBV?$Block@$$CBV?$Matrix@N$02$03$0A@$02$03@Eigen@@$00$02$0A@@3@$$CBV?$CwiseNullaryOp@U?$scalar_constant_op@N@internal@Eigen@@$$CBV?$Matrix@N$00$02$00$00$02@3@@3@@Eigen@@@23@U?$assign_op@NN@23@$0A@@internal@Eigen@@QEAAX_J@Z
	?assignCoeff@?$generic_dense_assignment_kernel@U?$evaluator@V?$Matrix@N$02$00$0A@$02$00@Eigen@@@internal@Eigen@@U?$evaluator@V?$Block@V?$Matrix@N$03$00$0A@$03$00@Eigen@@$02$00$0A@@Eigen@@@23@U?$assign_op@NN@23@$0A@@internal@Eigen@@QEAAX_J@Z
	?assignCoeff@?$generic_dense_assignment_kernel@U?$evaluator@V?$Matrix@N$02$00$0A@$02$00@Eigen@@@internal@Eigen@@U?$evaluator@V?$CwiseBinaryOp@U?$scalar_difference_op@NN@internal@Eigen@@$$CBV?$Matrix@N$02$00$0A@$02$00@3@$$CBV?$CwiseBinaryOp@U?$scalar_product_op@NN@internal@Eigen@@$$CBV?$Matrix@N$02$00$0A@$02$00@3@$$CBV?$CwiseNullaryOp@U?$scalar_constant_op@N@internal@Eigen@@$$CBV?$Matrix@N$02$00$0A@$02$00@3@@3@@3@@Eigen@@@23@U?$add_assign_op@NN@23@$0A@@internal@Eigen@@QEAAX_J@Z
	?assignCoeff@?$generic_dense_assignment_kernel@U?$evaluator@V?$Matrix@N$02$00$0A@$02$00@Eigen@@@internal@Eigen@@U?$evaluator@V?$CwiseBinaryOp@U?$scalar_quotient_op@NN@internal@Eigen@@$$CBV?$Matrix@N$02$00$0A@$02$00@3@$$CBV?$CwiseNullaryOp@U?$scalar_constant_op@N@internal@Eigen@@$$CBV?$Matrix@N$02$00$0A@$02$00@3@@3@@Eigen@@@23@U?$assign_op@NN@23@$0A@@internal@Eigen@@QEAAX_J@Z
	?assignCoeff@?$generic_dense_assignment_kernel@U?$evaluator@V?$Matrix@N$02$00$0A@$02$00@Eigen@@@internal@Eigen@@U?$evaluator@V?$CwiseNullaryOp@U?$scalar_constant_op@N@internal@Eigen@@$$CBV?$Matrix@N$02$00$0A@$02$00@3@@Eigen@@@23@U?$div_assign_op@NN@23@$0A@@internal@Eigen@@QEAAX_J@Z
	?assignCoeff@?$generic_dense_assignment_kernel@U?$evaluator@V?$Matrix@N$02$00$0A@$02$00@Eigen@@@internal@Eigen@@U?$evaluator@V?$CwiseNullaryOp@U?$scalar_constant_op@N@internal@Eigen@@$$CBV?$Matrix@N$02$00$0A@$02$00@3@@Eigen@@@23@U?$mul_assign_op@NN@23@$0A@@internal@Eigen@@QEAAX_J@Z
	?assignCoeff@?$generic_dense_assignment_kernel@U?$evaluator@V?$Matrix@N$02$00$0A@$02$00@Eigen@@@internal@Eigen@@U?$evaluator@V?$CwiseUnaryOp@U?$core_cast_op@MN@internal@Eigen@@$$CBV?$Matrix@M$02$00$0A@$02$00@3@@Eigen@@@23@U?$assign_op@NN@23@$0A@@internal@Eigen@@QEAAX_J@Z
	?assignCoeff@?$generic_dense_assignment_kernel@U?$evaluator@V?$Matrix@N$02$00$0A@$02$00@Eigen@@@internal@Eigen@@U?$evaluator@V?$Product@V?$Matrix@N$02$03$00$02$03@Eigen@@V?$Matrix@N$03$00$0A@$03$00@2@$00@Eigen@@@23@U?$assign_op@NN@23@$0A@@internal@Eigen@@QEAAX_J@Z
	?assignCoeff@?$generic_dense_assignment_kernel@U?$evaluator@V?$Matrix@N$02$00$0A@$02$00@Eigen@@@internal@Eigen@@U?$evaluator@V?$Product@V?$Matrix@N$02$03$0A@$02$03@Eigen@@V?$Matrix@N$03$00$0A@$03$00@2@$00@Eigen@@@23@U?$assign_op@NN@23@$0A@@internal@Eigen@@QEAAX_J@Z
	?assignCoeff@?$generic_dense_assignment_kernel@U?$evaluator@V?$Matrix@N$02$02$0A@$02$02@Eigen@@@internal@Eigen@@U123@U?$sub_assign_op@NN@23@$0A@@internal@Eigen@@QEAAX_J@Z
	?assignCoeff@?$generic_dense_assignment_kernel@U?$evaluator@V?$Matrix@N$02$02$0A@$02$02@Eigen@@@internal@Eigen@@U?$evaluator@V?$CwiseBinaryOp@U?$scalar_quotient_op@NN@internal@Eigen@@$$CBV?$Block@$$CBV?$Matrix@N$02$02$0A@$02$02@Eigen@@$02$02$0A@@3@$$CBV?$CwiseNullaryOp@U?$scalar_constant_op@N@internal@Eigen@@$$CBV?$Matrix@N$02$02$0A@$02$02@3@@3@@Eigen@@@23@U?$assign_op@NN@23@$0A@@internal@Eigen@@QEAAX_J0@Z
	?assignCoeff@?$generic_dense_assignment_kernel@U?$evaluator@V?$Matrix@N$02$02$0A@$02$02@Eigen@@@internal@Eigen@@U?$evaluator@V?$CwiseNullaryOp@U?$scalar_identity_op@N@internal@Eigen@@V?$Matrix@N$02$02$0A@$02$02@3@@Eigen@@@23@U?$assign_op@NN@23@$0A@@internal@Eigen@@QEAAX_J0@Z
	?assignCoeff@?$generic_dense_assignment_kernel@U?$evaluator@V?$Matrix@N$02$02$0A@$02$02@Eigen@@@internal@Eigen@@U?$evaluator@V?$Product@V?$Matrix@N$02$00$0A@$02$00@Eigen@@V?$Transpose@V?$Matrix@N$02$00$0A@$02$00@Eigen@@@2@$00@Eigen@@@23@U?$assign_op@NN@23@$0A@@internal@Eigen@@QEAAX_J0@Z
	?assignCoeff@?$generic_dense_assignment_kernel@U?$evaluator@V?$Matrix@N$02$02$0A@$02$02@Eigen@@@internal@Eigen@@U?$evaluator@V?$Product@V?$Product@V?$Matrix@N$02$03$0A@$02$03@Eigen@@V?$Matrix@N$03$03$0A@$03$03@2@$0A@@Eigen@@V?$Matrix@N$03$02$0A@$03$02@2@$00@Eigen@@@23@U?$assign_op@NN@23@$0A@@internal@Eigen@@QEAAX_J0@Z
	?assignCoeff@?$generic_dense_assignment_kernel@U?$evaluator@V?$Matrix@N$02$03$0A@$02$03@Eigen@@@internal@Eigen@@U?$evaluator@V?$Product@V?$Matrix@N$02$03$0A@$02$03@Eigen@@V?$Matrix@N$03$03$0A@$03$03@2@$00@Eigen@@@23@U?$assign_op@NN@23@$0A@@internal@Eigen@@QEAAX_J0@Z
	?assignCoeff@?$generic_dense_assignment_kernel@U?$evaluator@V?$Matrix@N$03$00$0A@$03$00@Eigen@@@internal@Eigen@@U?$evaluator@V?$Product@V?$Transpose@$$CBV?$Matrix@N$02$03$0A@$02$03@Eigen@@@Eigen@@V?$CwiseUnaryOp@U?$core_cast_op@MN@internal@Eigen@@$$CBV?$Matrix@M$02$00$0A@$02$00@3@@2@$00@Eigen@@@23@U?$assign_op@NN@23@$0A@@internal@Eigen@@QEAAX_J@Z
	?assignCoeff@?$generic_dense_assignment_kernel@U?$evaluator@V?$Matrix@N$0?0$00$0A@$02$00@Eigen@@@internal@Eigen@@U?$evaluator@V?$Product@V?$DiagonalWrapper@$$CBV?$CwiseUnaryOp@U?$scalar_inverse_op@N@internal@Eigen@@$$CBV?$Block@$$CBV?$Matrix@N$02$00$0A@$02$00@Eigen@@$0?0$00$0A@@3@@Eigen@@@Eigen@@V?$Matrix@N$0?0$00$0A@$02$00@2@$00@Eigen@@@23@U?$assign_op@NN@23@$0A@@internal@Eigen@@QEAAX_J@Z
	?assignCoeff@?$generic_dense_assignment_kernel@U?$evaluator@V?$Matrix@N$0?0$00$0A@$02$00@Eigen@@@internal@Eigen@@U?$evaluator@V?$Product@V?$Transpose@$$CBV?$Block@$$CBV?$Matrix@N$02$02$0A@$02$02@Eigen@@$02$0?0$00@Eigen@@@Eigen@@V?$Matrix@N$02$00$0A@$02$00@2@$00@Eigen@@@23@U?$assign_op@NN@23@$0A@@internal@Eigen@@QEAAX_J@Z
	?assignCoeff@?$generic_dense_assignment_kernel@U?$evaluator@V?$Transpose@V?$Matrix@N$02$00$0A@$02$00@Eigen@@@Eigen@@@internal@Eigen@@U?$evaluator@V?$Matrix@N$00$02$00$00$02@Eigen@@@23@U?$assign_op@NN@23@$0A@@internal@Eigen@@QEAAX_J@Z
	?assignCoeff@?$swap_assign_op@N@internal@Eigen@@QEBAXAEANAEBN@Z
	?assignCoeffByOuterInner@?$generic_dense_assignment_kernel@U?$evaluator@V?$Matrix@M$02$03$0A@$02$03@Eigen@@@internal@Eigen@@U?$evaluator@V?$Matrix@M$02$03$00$02$03@Eigen@@@23@U?$assign_op@MM@23@$0A@@internal@Eigen@@QEAAX_J0@Z
	?assignCoeffByOuterInner@?$generic_dense_assignment_kernel@U?$evaluator@V?$Matrix@N$02$02$0A@$02$02@Eigen@@@internal@Eigen@@U?$evaluator@V?$CwiseBinaryOp@U?$scalar_quotient_op@NN@internal@Eigen@@$$CBV?$Block@$$CBV?$Matrix@N$02$02$0A@$02$02@Eigen@@$02$02$0A@@3@$$CBV?$CwiseNullaryOp@U?$scalar_constant_op@N@internal@Eigen@@$$CBV?$Matrix@N$02$02$0A@$02$02@3@@3@@Eigen@@@23@U?$assign_op@NN@23@$0A@@internal@Eigen@@QEAAX_J0@Z
	?assignCoeffByOuterInner@?$generic_dense_assignment_kernel@U?$evaluator@V?$Matrix@N$02$02$0A@$02$02@Eigen@@@internal@Eigen@@U?$evaluator@V?$CwiseNullaryOp@U?$scalar_identity_op@N@internal@Eigen@@V?$Matrix@N$02$02$0A@$02$02@3@@Eigen@@@23@U?$assign_op@NN@23@$0A@@internal@Eigen@@QEAAX_J0@Z
	?assignCoeffByOuterInner@?$generic_dense_assignment_kernel@U?$evaluator@V?$Matrix@N$02$02$0A@$02$02@Eigen@@@internal@Eigen@@U?$evaluator@V?$Product@V?$Matrix@N$02$00$0A@$02$00@Eigen@@V?$Transpose@V?$Matrix@N$02$00$0A@$02$00@Eigen@@@2@$00@Eigen@@@23@U?$assign_op@NN@23@$0A@@internal@Eigen@@QEAAX_J0@Z
	?assignCoeffByOuterInner@?$generic_dense_assignment_kernel@U?$evaluator@V?$Matrix@N$02$02$0A@$02$02@Eigen@@@internal@Eigen@@U?$evaluator@V?$Product@V?$Product@V?$Matrix@N$02$03$0A@$02$03@Eigen@@V?$Matrix@N$03$03$0A@$03$03@2@$0A@@Eigen@@V?$Matrix@N$03$02$0A@$03$02@2@$00@Eigen@@@23@U?$assign_op@NN@23@$0A@@internal@Eigen@@QEAAX_J0@Z
	?assignCoeffByOuterInner@?$generic_dense_assignment_kernel@U?$evaluator@V?$Matrix@N$02$03$0A@$02$03@Eigen@@@internal@Eigen@@U?$evaluator@V?$Product@V?$Matrix@N$02$03$0A@$02$03@Eigen@@V?$Matrix@N$03$03$0A@$03$03@2@$00@Eigen@@@23@U?$assign_op@NN@23@$0A@@internal@Eigen@@QEAAX_J0@Z
	?atan2@@YAMMM@Z
	?atan@@YAMM@Z
	?atanh@@YAMM@Z
	?begin@?$_Tree@V?$_Tset_traits@HU?$less@H@std@@V?$allocator@H@2@$0A@@std@@@std@@QEBA?AV?$_Tree_const_iterator@V?$_Tree_val@U?$_Tree_simple_types@H@std@@@std@@@2@XZ
	?begin@?$basic_string@DU?$char_traits@D@std@@V?$allocator@D@2@@std@@QEAA?AV?$_String_iterator@V?$_String_val@U?$_Simple_types@D@std@@@std@@@2@XZ
	?begin@?$vector@NV?$allocator@N@std@@@std@@QEBA?AV?$_Vector_const_iterator@V?$_Vector_val@U?$_Simple_types@N@std@@@std@@@2@XZ
	?c@?$JacobiRotation@N@Eigen@@QEAAAEANXZ
	?c@?$JacobiRotation@N@Eigen@@QEBANXZ
	?c_str@?$basic_string@DU?$char_traits@D@std@@V?$allocator@D@2@@std@@QEBAPEBDXZ
	?capacity@?$vector@HV?$allocator@H@std@@@std@@QEBA_KXZ
	?capacity@?$vector@MV?$allocator@M@std@@@std@@QEBA_KXZ
	?capacity@?$vector@NV?$allocator@N@std@@@std@@QEBA_KXZ
	?capacity@?$vector@PEAV?$BindlessTexture2D@M@UtilsCuda@@V?$allocator@PEAV?$BindlessTexture2D@M@UtilsCuda@@@std@@@std@@QEBA_KXZ
	?capacity@?$vector@PEAVRadonIntermediate@EpipolarConsistency@@V?$allocator@PEAVRadonIntermediate@EpipolarConsistency@@@std@@@std@@QEBA_KXZ
	?capacity@?$vector@U?$pair@MM@std@@V?$allocator@U?$pair@MM@std@@@2@@std@@QEBA_KXZ
	?capacity@?$vector@V?$Matrix@H$03$00$0A@$03$00@Eigen@@V?$allocator@V?$Matrix@H$03$00$0A@$03$00@Eigen@@@std@@@std@@QEBA_KXZ
	?capacity@?$vector@V?$Matrix@N$02$03$0A@$02$03@Eigen@@V?$allocator@V?$Matrix@N$02$03$0A@$02$03@Eigen@@@std@@@std@@QEBA_KXZ
	?cbrt@@YAMM@Z
	?cc@EpipolarConsistency@@YAMPEAM@Z
	?ceil@@YAMM@Z
	?centralProjectionToPlane@Geometry@@YA?AV?$Matrix@N$03$03$0A@$03$03@Eigen@@AEBV?$Matrix@N$03$00$0A@$03$00@3@0@Z
	?check_indices@EpipolarConsistency@@YA_NAEBV?$vector@V?$Matrix@H$03$00$0A@$03$00@Eigen@@V?$allocator@V?$Matrix@H$03$00$0A@$03$00@Eigen@@@std@@@std@@HH@Z
	?clamp_edge@?$ImageView@M@NRRD@@SAXAEAHAEANH@Z
	?clear@?$_Tree@V?$_Tmap_traits@V?$basic_string@DU?$char_traits@D@std@@V?$allocator@D@2@@std@@V12@U?$less@V?$basic_string@DU?$char_traits@D@std@@V?$allocator@D@2@@std@@@2@V?$allocator@U?$pair@$$CBV?$basic_string@DU?$char_traits@D@std@@V?$allocator@D@2@@std@@V12@@std@@@2@$0A@@std@@@std@@QEAAXXZ
	?clear@?$vector@HV?$allocator@H@std@@@std@@QEAAXXZ
	?clear@?$vector@NV?$allocator@N@std@@@std@@QEAAXXZ
	?clearRawData@RadonIntermediate@EpipolarConsistency@@QEAAXXZ
	?close@?$basic_filebuf@DU?$char_traits@D@std@@@std@@QEAAPEAV12@XZ
	?close@?$basic_ifstream@DU?$char_traits@D@std@@@std@@QEAAXXZ
	?coeff@?$DenseCoeffsBase@V?$Block@V?$Matrix@N$02$00$0A@$02$00@Eigen@@$0?0$00$0A@@Eigen@@$0A@@Eigen@@QEBAAEBN_J@Z
	?coeff@?$DenseCoeffsBase@V?$Matrix@N$01$01$0A@$01$01@Eigen@@$0A@@Eigen@@QEBAAEBN_J0@Z
	?coeff@?$DenseCoeffsBase@V?$Matrix@N$02$00$0A@$02$00@Eigen@@$0A@@Eigen@@QEBAAEBN_J@Z
	?coeff@?$DenseCoeffsBase@V?$Matrix@N$02$02$0A@$02$02@Eigen@@$0A@@Eigen@@QEBAAEBN_J0@Z
	?coeff@?$DenseCoeffsBase@V?$Matrix@N$03$00$0A@$03$00@Eigen@@$0A@@Eigen@@QEBAAEBN_J@Z
	?coeff@?$DenseCoeffsBase@V?$Matrix@N$05$00$0A@$05$00@Eigen@@$0A@@Eigen@@QEBAAEBN_J@Z
	?coeff@?$PlainObjectBase@V?$Matrix@N$01$01$0A@$01$01@Eigen@@@Eigen@@QEBAAEBN_J0@Z
	?coeff@?$PlainObjectBase@V?$Matrix@N$02$00$0A@$02$00@Eigen@@@Eigen@@QEBAAEBN_J@Z
	?coeff@?$PlainObjectBase@V?$Matrix@N$02$02$0A@$02$02@Eigen@@@Eigen@@QEBAAEBN_J0@Z
	?coeff@?$binary_evaluator@V?$CwiseBinaryOp@U?$scalar_difference_op@NN@internal@Eigen@@$$CBV?$Matrix@N$02$00$0A@$02$00@3@$$CBV?$CwiseBinaryOp@U?$scalar_product_op@NN@internal@Eigen@@$$CBV?$Matrix@N$02$00$0A@$02$00@3@$$CBV?$CwiseNullaryOp@U?$scalar_constant_op@N@internal@Eigen@@$$CBV?$Matrix@N$02$00$0A@$02$00@3@@3@@3@@Eigen@@UIndexBased@internal@2@U342@NN@internal@Eigen@@QEBAN_J@Z
	?coeff@?$binary_evaluator@V?$CwiseBinaryOp@U?$scalar_difference_op@NN@internal@Eigen@@$$CBV?$Matrix@N$03$00$0A@$03$00@3@$$CBV43@@Eigen@@UIndexBased@internal@2@U342@NN@internal@Eigen@@QEBAN_J@Z
	?coeff@?$binary_evaluator@V?$CwiseBinaryOp@U?$scalar_product_op@NN@internal@Eigen@@$$CBV?$Matrix@N$02$00$0A@$02$00@3@$$CBV?$CwiseNullaryOp@U?$scalar_constant_op@N@internal@Eigen@@$$CBV?$Matrix@N$02$00$0A@$02$00@3@@3@@Eigen@@UIndexBased@internal@2@U342@NN@internal@Eigen@@QEBAN_J@Z
	?coeff@?$binary_evaluator@V?$CwiseBinaryOp@U?$scalar_product_op@NN@internal@Eigen@@$$CBV?$Transpose@$$CBV?$Block@$$CBV?$Block@$$CBV?$Matrix@N$02$02$0A@$02$02@Eigen@@$02$0?0$00@Eigen@@$00$0?0$0A@@Eigen@@@3@$$CBV?$Block@$$CBV?$Matrix@N$0?0$00$0A@$02$00@Eigen@@$0?0$00$00@3@@Eigen@@UIndexBased@internal@2@U342@NN@internal@Eigen@@QEBAN_J@Z
	?coeff@?$binary_evaluator@V?$CwiseBinaryOp@U?$scalar_product_op@NN@internal@Eigen@@$$CBV?$Transpose@$$CBV?$Block@$$CBV?$Matrix@N$02$00$0A@$02$00@Eigen@@$00$00$0A@@Eigen@@@3@$$CBV?$Block@$$CBV?$Transpose@V?$Matrix@N$02$00$0A@$02$00@Eigen@@@Eigen@@$00$00$0A@@3@@Eigen@@UIndexBased@internal@2@U342@NN@internal@Eigen@@QEBAN_J@Z
	?coeff@?$binary_evaluator@V?$CwiseBinaryOp@U?$scalar_product_op@NN@internal@Eigen@@$$CBV?$Transpose@$$CBV?$Block@$$CBV?$Matrix@N$02$03$00$02$03@Eigen@@$00$03$00@Eigen@@@3@$$CBV?$Block@$$CBV?$Matrix@N$03$00$0A@$03$00@Eigen@@$03$00$00@3@@Eigen@@UIndexBased@internal@2@U342@NN@internal@Eigen@@QEBAN_J@Z
	?coeff@?$binary_evaluator@V?$CwiseBinaryOp@U?$scalar_product_op@NN@internal@Eigen@@$$CBV?$Transpose@$$CBV?$Block@$$CBV?$Matrix@N$02$03$0A@$02$03@Eigen@@$00$03$0A@@Eigen@@@3@$$CBV?$Block@$$CBV?$Matrix@N$03$00$0A@$03$00@Eigen@@$03$00$00@3@@Eigen@@UIndexBased@internal@2@U342@NN@internal@Eigen@@QEBAN_J@Z
	?coeff@?$binary_evaluator@V?$CwiseBinaryOp@U?$scalar_product_op@NN@internal@Eigen@@$$CBV?$Transpose@$$CBV?$Block@$$CBV?$Matrix@N$02$03$0A@$02$03@Eigen@@$00$03$0A@@Eigen@@@3@$$CBV?$Block@$$CBV?$Matrix@N$03$02$0A@$03$02@Eigen@@$03$00$00@3@@Eigen@@UIndexBased@internal@2@U342@NN@internal@Eigen@@QEBAN_J@Z
	?coeff@?$binary_evaluator@V?$CwiseBinaryOp@U?$scalar_product_op@NN@internal@Eigen@@$$CBV?$Transpose@$$CBV?$Block@$$CBV?$Matrix@N$02$03$0A@$02$03@Eigen@@$00$03$0A@@Eigen@@@3@$$CBV?$Block@$$CBV?$Matrix@N$03$03$0A@$03$03@Eigen@@$03$00$00@3@@Eigen@@UIndexBased@internal@2@U342@NN@internal@Eigen@@QEBAN_J@Z
	?coeff@?$binary_evaluator@V?$CwiseBinaryOp@U?$scalar_product_op@NN@internal@Eigen@@$$CBV?$Transpose@$$CBV?$Block@$$CBV?$Transpose@$$CBV?$Block@$$CBV?$Matrix@N$02$02$0A@$02$02@Eigen@@$02$0?0$00@Eigen@@@Eigen@@$00$02$00@Eigen@@@3@$$CBV?$Block@$$CBV?$Matrix@N$02$00$0A@$02$00@Eigen@@$02$00$00@3@@Eigen@@UIndexBased@internal@2@U342@NN@internal@Eigen@@QEBAN_J@Z
	?coeff@?$binary_evaluator@V?$CwiseBinaryOp@U?$scalar_product_op@NN@internal@Eigen@@$$CBV?$Transpose@$$CBV?$Block@$$CBV?$Transpose@$$CBV?$Matrix@N$02$03$0A@$02$03@Eigen@@@Eigen@@$00$02$00@Eigen@@@3@$$CBV?$Block@$$CBV?$Matrix@N$02$00$0A@$02$00@Eigen@@$02$00$00@3@@Eigen@@UIndexBased@internal@2@U342@NN@internal@Eigen@@QEBAN_J@Z
	?coeff@?$binary_evaluator@V?$CwiseBinaryOp@U?$scalar_quotient_op@NN@internal@Eigen@@$$CBV?$Block@$$CBV?$Matrix@N$02$02$0A@$02$02@Eigen@@$02$02$0A@@3@$$CBV?$CwiseNullaryOp@U?$scalar_constant_op@N@internal@Eigen@@$$CBV?$Matrix@N$02$02$0A@$02$02@3@@3@@Eigen@@UIndexBased@internal@2@U342@NN@internal@Eigen@@QEBAN_J0@Z
	?coeff@?$binary_evaluator@V?$CwiseBinaryOp@U?$scalar_quotient_op@NN@internal@Eigen@@$$CBV?$Block@$$CBV?$Matrix@N$02$03$0A@$02$03@Eigen@@$00$02$0A@@3@$$CBV?$CwiseNullaryOp@U?$scalar_constant_op@N@internal@Eigen@@$$CBV?$Matrix@N$00$02$00$00$02@3@@3@@Eigen@@UIndexBased@internal@2@U342@NN@internal@Eigen@@QEBAN_J@Z
	?coeff@?$binary_evaluator@V?$CwiseBinaryOp@U?$scalar_quotient_op@NN@internal@Eigen@@$$CBV?$Matrix@N$02$00$0A@$02$00@3@$$CBV?$CwiseNullaryOp@U?$scalar_constant_op@N@internal@Eigen@@$$CBV?$Matrix@N$02$00$0A@$02$00@3@@3@@Eigen@@UIndexBased@internal@2@U342@NN@internal@Eigen@@QEBAN_J@Z
	?coeff@?$conditional_conj@N$00@internal@Eigen@@SANAEBN@Z
	?coeff@?$conditional_conj@N$0A@@internal@Eigen@@SANAEBN@Z
	?coeff@?$diagonal_product_evaluator_base@V?$Matrix@N$0?0$00$0A@$02$00@Eigen@@$$CBV?$CwiseUnaryOp@U?$scalar_inverse_op@N@internal@Eigen@@$$CBV?$Block@$$CBV?$Matrix@N$02$00$0A@$02$00@Eigen@@$0?0$00$0A@@3@@2@V?$Product@V?$DiagonalWrapper@$$CBV?$CwiseUnaryOp@U?$scalar_inverse_op@N@internal@Eigen@@$$CBV?$Block@$$CBV?$Matrix@N$02$00$0A@$02$00@Eigen@@$0?0$00$0A@@3@@Eigen@@@Eigen@@V?$Matrix@N$0?0$00$0A@$02$00@2@$00@2@$00@internal@Eigen@@QEBA?BN_J@Z
	?coeff@?$evaluator@V?$Diagonal@$$CBV?$CwiseUnaryOp@U?$scalar_abs_op@N@internal@Eigen@@$$CBV?$Matrix@N$02$02$0A@$02$02@3@@Eigen@@$0A@@Eigen@@@internal@Eigen@@QEBAN_J@Z
	?coeff@?$evaluator@V?$PlainObjectBase@V?$Matrix@M$02$00$0A@$02$00@Eigen@@@Eigen@@@internal@Eigen@@QEBAAEBM_J@Z
	?coeff@?$evaluator@V?$PlainObjectBase@V?$Matrix@M$02$03$00$02$03@Eigen@@@Eigen@@@internal@Eigen@@QEBAAEBM_J0@Z
	?coeff@?$evaluator@V?$PlainObjectBase@V?$Matrix@M$02$03$00$02$03@Eigen@@@Eigen@@@internal@Eigen@@QEBAAEBM_J@Z
	?coeff@?$evaluator@V?$PlainObjectBase@V?$Matrix@N$00$00$0A@$00$00@Eigen@@@Eigen@@@internal@Eigen@@QEBAAEBN_J0@Z
	?coeff@?$evaluator@V?$PlainObjectBase@V?$Matrix@N$00$00$0A@$00$00@Eigen@@@Eigen@@@internal@Eigen@@QEBAAEBN_J@Z
	?coeff@?$evaluator@V?$PlainObjectBase@V?$Matrix@N$00$02$00$00$02@Eigen@@@Eigen@@@internal@Eigen@@QEBAAEBN_J@Z
	?coeff@?$evaluator@V?$PlainObjectBase@V?$Matrix@N$01$01$0A@$01$01@Eigen@@@Eigen@@@internal@Eigen@@QEBAAEBN_J0@Z
	?coeff@?$evaluator@V?$PlainObjectBase@V?$Matrix@N$01$01$0A@$01$01@Eigen@@@Eigen@@@internal@Eigen@@QEBAAEBN_J@Z
	?coeff@?$evaluator@V?$PlainObjectBase@V?$Matrix@N$02$00$0A@$02$00@Eigen@@@Eigen@@@internal@Eigen@@QEBAAEBN_J0@Z
	?coeff@?$evaluator@V?$PlainObjectBase@V?$Matrix@N$02$00$0A@$02$00@Eigen@@@Eigen@@@internal@Eigen@@QEBAAEBN_J@Z
	?coeff@?$evaluator@V?$PlainObjectBase@V?$Matrix@N$02$02$0A@$02$02@Eigen@@@Eigen@@@internal@Eigen@@QEBAAEBN_J0@Z
	?coeff@?$evaluator@V?$PlainObjectBase@V?$Matrix@N$02$02$0A@$02$02@Eigen@@@Eigen@@@internal@Eigen@@QEBAAEBN_J@Z
	?coeff@?$evaluator@V?$PlainObjectBase@V?$Matrix@N$03$00$0A@$03$00@Eigen@@@Eigen@@@internal@Eigen@@QEBAAEBN_J0@Z
	?coeff@?$evaluator@V?$PlainObjectBase@V?$Matrix@N$03$00$0A@$03$00@Eigen@@@Eigen@@@internal@Eigen@@QEBAAEBN_J@Z
	?coeff@?$evaluator@V?$PlainObjectBase@V?$Matrix@N$03$02$0A@$03$02@Eigen@@@Eigen@@@internal@Eigen@@QEBAAEBN_J0@Z
	?coeff@?$evaluator@V?$PlainObjectBase@V?$Matrix@N$03$02$0A@$03$02@Eigen@@@Eigen@@@internal@Eigen@@QEBAAEBN_J@Z
	?coeff@?$evaluator@V?$PlainObjectBase@V?$Matrix@N$03$03$0A@$03$03@Eigen@@@Eigen@@@internal@Eigen@@QEBAAEBN_J0@Z
	?coeff@?$evaluator@V?$PlainObjectBase@V?$Matrix@N$03$03$0A@$03$03@Eigen@@@Eigen@@@internal@Eigen@@QEBAAEBN_J@Z
	?coeff@?$evaluator@V?$PlainObjectBase@V?$Matrix@N$05$00$0A@$05$00@Eigen@@@Eigen@@@internal@Eigen@@QEBAAEBN_J@Z
	?coeff@?$evaluator@V?$PlainObjectBase@V?$Matrix@N$0?0$00$0A@$02$00@Eigen@@@Eigen@@@internal@Eigen@@QEBAAEBN_J0@Z
	?coeff@?$evaluator@V?$PlainObjectBase@V?$Matrix@N$0?0$00$0A@$02$00@Eigen@@@Eigen@@@internal@Eigen@@QEBAAEBN_J@Z
	?coeff@?$inner_product_evaluator@U?$scalar_inner_product_op@NN$00@internal@Eigen@@V?$Matrix@N$02$00$0A@$02$00@3@V?$Block@V?$Matrix@N$03$00$0A@$03$00@Eigen@@$0?0$00$0A@@3@@internal@Eigen@@QEBANAEBN_J@Z
	?coeff@?$inner_product_evaluator@U?$scalar_inner_product_op@NN$00@internal@Eigen@@V?$Matrix@N$02$00$0A@$02$00@3@V?$Block@V?$Matrix@N$03$00$0A@$03$00@Eigen@@$0?0$00$0A@@3@@internal@Eigen@@QEBAN_J@Z
	?coeff@?$inner_product_evaluator@U?$scalar_inner_product_op@NN$0A@@internal@Eigen@@V?$Transpose@V?$Matrix@N$02$00$0A@$02$00@Eigen@@@3@V?$Matrix@N$02$00$0A@$02$00@3@@internal@Eigen@@QEBANAEBN_J@Z
	?coeff@?$inner_product_evaluator@U?$scalar_inner_product_op@NN$0A@@internal@Eigen@@V?$Transpose@V?$Matrix@N$02$00$0A@$02$00@Eigen@@@3@V?$Matrix@N$02$00$0A@$02$00@3@@internal@Eigen@@QEBAN_J@Z
	?coeff@?$mapbase_evaluator@V?$Block@$$CBV?$Block@$$CBV?$Matrix@N$02$02$0A@$02$02@Eigen@@$02$0?0$00@Eigen@@$00$0?0$0A@@Eigen@@V?$Matrix@N$00$0?0$00$00$02@2@@internal@Eigen@@QEBAAEBN_J@Z
	?coeff@?$mapbase_evaluator@V?$Block@$$CBV?$Matrix@N$02$00$0A@$02$00@Eigen@@$00$00$0A@@Eigen@@V?$Matrix@N$00$00$0A@$00$00@2@@internal@Eigen@@QEBAAEBN_J@Z
	?coeff@?$mapbase_evaluator@V?$Block@$$CBV?$Matrix@N$02$00$0A@$02$00@Eigen@@$02$00$00@Eigen@@V?$Matrix@N$02$00$0A@$02$00@2@@internal@Eigen@@QEBAAEBN_J@Z
	?coeff@?$mapbase_evaluator@V?$Block@$$CBV?$Matrix@N$02$00$0A@$02$00@Eigen@@$0?0$00$0A@@Eigen@@V?$Matrix@N$0?0$00$0A@$02$00@2@@internal@Eigen@@QEBAAEBN_J@Z
	?coeff@?$mapbase_evaluator@V?$Block@$$CBV?$Matrix@N$02$02$0A@$02$02@Eigen@@$02$02$0A@@Eigen@@V?$Matrix@N$02$02$0A@$02$02@2@@internal@Eigen@@QEBAAEBN_J0@Z
	?coeff@?$mapbase_evaluator@V?$Block@$$CBV?$Matrix@N$02$03$00$02$03@Eigen@@$00$03$00@Eigen@@V?$Matrix@N$00$03$00$00$03@2@@internal@Eigen@@QEBAAEBN_J@Z
	?coeff@?$mapbase_evaluator@V?$Block@$$CBV?$Matrix@N$02$03$0A@$02$03@Eigen@@$00$02$0A@@Eigen@@V?$Matrix@N$00$02$00$00$02@2@@internal@Eigen@@QEBAAEBN_J@Z
	?coeff@?$mapbase_evaluator@V?$Block@$$CBV?$Matrix@N$02$03$0A@$02$03@Eigen@@$00$03$0A@@Eigen@@V?$Matrix@N$00$03$00$00$03@2@@internal@Eigen@@QEBAAEBN_J@Z
