EXPORTS 
	?$TSS0@?1??manage_caching_sizes@internal@Eigen@@YAXW4Action@3@PEA_J11@Z@4HA 	 DATA
	??_R0?AV?$_Iosb@H@std@@@8 	 DATA
	??_R0?AV?$basic_ios@DU?$char_traits@D@std@@@std@@@8 	 DATA
	??_R0?AV?$basic_iostream@DU?$char_traits@D@std@@@std@@@8 	 DATA
	??_R0?AV?$basic_istream@DU?$char_traits@D@std@@@std@@@8 	 DATA
	??_R0?AV?$basic_ostream@DU?$char_traits@D@std@@@std@@@8 	 DATA
	??_R0?AV?$basic_streambuf@DU?$char_traits@D@std@@@std@@@8 	 DATA
	??_R0?AV?$basic_stringbuf@DU?$char_traits@D@std@@V?$allocator@D@2@@std@@@8 	 DATA
	??_R0?AV?$basic_stringstream@DU?$char_traits@D@std@@V?$allocator@D@2@@std@@@8 	 DATA
	??_R0?AVbad_alloc@std@@@8 	 DATA
	??_R0?AVbad_array_new_length@std@@@8 	 DATA
	??_R0?AVexception@std@@@8 	 DATA
	??_R0?AVios_base@std@@@8 	 DATA
	?m_cacheSizes@?1??manage_caching_sizes@internal@Eigen@@YAXW4Action@3@PEA_J11@Z@4UCacheSizes@23@A 	 DATA
	?m_maxThreads@?1??manage_multi_threading@internal@Eigen@@YAXW4Action@3@PEAH@Z@4HA 	 DATA
	_Avx2WmemEnabledWeakValue 	 DATA
	??$?0$$CBV?$Product@V?$Matrix@N$02$02$0A@$02$02@Eigen@@V12@$0A@@Eigen@@$$CBV?$Product@V?$Matrix@N$03$03$0A@$03$03@Eigen@@V12@$0A@@1@$0A@@?$pair@V?$Product@V?$Matrix@N$02$02$0A@$02$02@Eigen@@V12@$0A@@Eigen@@V?$Product@V?$Matrix@N$03$03$0A@$03$03@Eigen@@V12@$0A@@2@@std@@QEAA@$$QEBV?$Product@V?$Matrix@N$02$02$0A@$02$02@Eigen@@V12@$0A@@Eigen@@$$QEBV?$Product@V?$Matrix@N$03$03$0A@$03$03@Eigen@@V12@$0A@@3@@Z
	??$?0$$V@?$_Compressed_pair@V?$allocator@D@std@@V?$_String_val@U?$_Simple_types@D@std@@@2@$00@std@@QEAA@U_Zero_then_variadic_args_t@1@@Z
	??$?0$$V@?$_Compressed_pair@V?$allocator@U?$_Tree_node@U?$pair@$$CBHH@std@@PEAX@std@@@std@@V?$_Tree_val@U?$_Tree_simple_types@U?$pair@$$CBHH@std@@@std@@@2@$00@std@@QEAA@U_Zero_then_variadic_args_t@1@@Z
	??$?0AEBH$$Z$$V@?$pair@$$CBHH@std@@QEAA@Upiecewise_construct_t@1@V?$tuple@AEBH@1@V?$tuple@$$V@1@@Z
	??$?0AEBH$0A@@?$tuple@AEBH@std@@QEAA@AEBH@Z
	??$?0AEBH@?$_Tuple_val@AEBH@std@@QEAA@AEBH@Z
	??$?0AEBQEAU?$_Tree_node@U?$pair@$$CBHH@std@@PEAX@std@@_N$0A@@?$pair@PEAU?$_Tree_node@U?$pair@$$CBHH@std@@PEAX@std@@_N@std@@QEAA@AEBQEAU?$_Tree_node@U?$pair@$$CBHH@std@@PEAX@1@$$QEA_N@Z
	??$?0AEBU?$less@H@std@@U_Zero_then_variadic_args_t@1@@?$_Compressed_pair@U?$less@H@std@@V?$_Compressed_pair@V?$allocator@U?$_Tree_node@U?$pair@$$CBHH@std@@PEAX@std@@@std@@V?$_Tree_val@U?$_Tree_simple_types@U?$pair@$$CBHH@std@@@std@@@2@$00@2@$00@std@@QEAA@U_One_then_variadic_args_t@1@AEBU?$less@H@1@$$QEAU_Zero_then_variadic_args_t@1@@Z
	??$?0AEBUpiecewise_construct_t@std@@V?$tuple@AEBH@1@V?$tuple@$$V@1@@?$_Tree_temp_node@V?$allocator@U?$_Tree_node@U?$pair@$$CBHH@std@@PEAX@std@@@std@@@std@@QEAA@AEAV?$allocator@U?$_Tree_node@U?$pair@$$CBHH@std@@PEAX@std@@@1@PEAU?$_Tree_node@U?$pair@$$CBHH@std@@PEAX@1@AEBUpiecewise_construct_t@1@$$QEAV?$tuple@AEBH@1@$$QEAV?$tuple@$$V@1@@Z
	??$?0AEBV?$allocator@D@std@@$$V@?$_Compressed_pair@V?$allocator@D@std@@V?$_String_val@U?$_Simple_types@D@std@@@2@$00@std@@QEAA@U_One_then_variadic_args_t@1@AEBV?$allocator@D@1@@Z
	??$?0AEBV?$allocator@V?$Matrix@N$02$00$0A@$02$00@Eigen@@@std@@$$V@?$_Compressed_pair@V?$allocator@V?$Matrix@N$02$00$0A@$02$00@Eigen@@@std@@V?$_Vector_val@U?$_Simple_types@V?$Matrix@N$02$00$0A@$02$00@Eigen@@@std@@@2@$00@std@@QEAA@U_One_then_variadic_args_t@1@AEBV?$allocator@V?$Matrix@N$02$00$0A@$02$00@Eigen@@@1@@Z
	??$?0AEBV?$allocator@V?$Matrix@N$03$00$0A@$03$00@Eigen@@@std@@$$V@?$_Compressed_pair@V?$allocator@V?$Matrix@N$03$00$0A@$03$00@Eigen@@@std@@V?$_Vector_val@U?$_Simple_types@V?$Matrix@N$03$00$0A@$03$00@Eigen@@@std@@@2@$00@std@@QEAA@U_One_then_variadic_args_t@1@AEBV?$allocator@V?$Matrix@N$03$00$0A@$03$00@Eigen@@@1@@Z
	??$?0HH@?$Matrix@N$01$00$0A@$01$00@Eigen@@QEAA@AEBH0@Z
	??$?0HH@?$Matrix@N$0?0$0?0$0A@$0?0$0?0@Eigen@@QEAA@AEBH0@Z
	??$?0NN$0A@@?$pair@NN@std@@QEAA@$$QEAN0@Z
	??$?0PEAN@?$Matrix@N$03$02$0A@$03$02@Eigen@@QEAA@AEBQEAN@Z
	??$?0PEAU?$_Tree_node@U?$pair@$$CBHH@std@@PEAX@std@@_N$0A@@?$pair@PEAU?$_Tree_node@U?$pair@$$CBHH@std@@PEAX@std@@_N@std@@QEAA@$$QEAPEAU?$_Tree_node@U?$pair@$$CBHH@std@@PEAX@1@$$QEA_N@Z
	??$?0PEAV?$Matrix@N$02$00$0A@$02$00@Eigen@@$0A@@?$vector@V?$Matrix@N$02$00$0A@$02$00@Eigen@@V?$allocator@V?$Matrix@N$02$00$0A@$02$00@Eigen@@@std@@@std@@QEAA@PEAV?$Matrix@N$02$00$0A@$02$00@Eigen@@0AEBV?$allocator@V?$Matrix@N$02$00$0A@$02$00@Eigen@@@1@@Z
	??$?0PEAV?$Matrix@N$03$00$0A@$03$00@Eigen@@$0A@@?$vector@V?$Matrix@N$03$00$0A@$03$00@Eigen@@V?$allocator@V?$Matrix@N$03$00$0A@$03$00@Eigen@@@std@@@std@@QEAA@PEAV?$Matrix@N$03$00$0A@$03$00@Eigen@@0AEBV?$allocator@V?$Matrix@N$03$00$0A@$03$00@Eigen@@@1@@Z
	??$?0U_Exact_args_t@std@@$0A@@?$tuple@$$V@std@@QEAA@U_Exact_args_t@1@@Z
	??$?0U_Exact_args_t@std@@AEBH$$V$0A@@?$tuple@AEBH@std@@QEAA@U_Exact_args_t@1@AEBH@Z
	??$?0V?$Block@$$CBV?$Matrix@N$02$03$0A@$02$03@Eigen@@$00$02$0A@@Eigen@@@?$Matrix@N$02$00$0A@$02$00@Eigen@@QEAA@AEBU?$EigenBase@V?$Block@$$CBV?$Matrix@N$02$03$0A@$02$03@Eigen@@$00$02$0A@@Eigen@@@1@@Z
	??$?0V?$Block@$$CBV?$Matrix@N$02$03$0A@$02$03@Eigen@@$00$02$0A@@Eigen@@@?$PlainObjectBase@V?$Matrix@N$02$00$0A@$02$00@Eigen@@@Eigen@@IEAA@AEBV?$DenseBase@V?$Block@$$CBV?$Matrix@N$02$03$0A@$02$03@Eigen@@$00$02$0A@@Eigen@@@1@@Z
	??$?0V?$Block@$$CBV?$Matrix@N$02$03$0A@$02$03@Eigen@@$00$03$0A@@Eigen@@@?$Matrix@N$03$00$0A@$03$00@Eigen@@QEAA@AEBU?$EigenBase@V?$Block@$$CBV?$Matrix@N$02$03$0A@$02$03@Eigen@@$00$03$0A@@Eigen@@@1@@Z
	??$?0V?$Block@$$CBV?$Matrix@N$02$03$0A@$02$03@Eigen@@$00$03$0A@@Eigen@@@?$PlainObjectBase@V?$Matrix@N$03$00$0A@$03$00@Eigen@@@Eigen@@IEAA@AEBV?$DenseBase@V?$Block@$$CBV?$Matrix@N$02$03$0A@$02$03@Eigen@@$00$03$0A@@Eigen@@@1@@Z
	??$?0V?$Block@$$CBV?$Matrix@N$02$03$0A@$02$03@Eigen@@$02$02$0A@@Eigen@@@?$Matrix@N$02$02$0A@$02$02@Eigen@@QEAA@AEBU?$EigenBase@V?$Block@$$CBV?$Matrix@N$02$03$0A@$02$03@Eigen@@$02$02$0A@@Eigen@@@1@@Z
	??$?0V?$Block@$$CBV?$Matrix@N$02$03$0A@$02$03@Eigen@@$02$02$0A@@Eigen@@@?$PlainObjectBase@V?$Matrix@N$02$02$0A@$02$02@Eigen@@@Eigen@@IEAA@AEBV?$DenseBase@V?$Block@$$CBV?$Matrix@N$02$03$0A@$02$03@Eigen@@$02$02$0A@@Eigen@@@1@@Z
	??$?0V?$Block@$$CBV?$Product@V?$Matrix@N$0?0$0?0$0A@$0?0$0?0@Eigen@@V12@$0A@@Eigen@@$00$0?0$0A@@Eigen@@@?$Matrix@N$00$0?0$00$00$0?0@Eigen@@QEAA@AEBV?$Block@$$CBV?$Product@V?$Matrix@N$0?0$0?0$0A@$0?0$0?0@Eigen@@V12@$0A@@Eigen@@$00$0?0$0A@@1@@Z
	??$?0V?$Block@V?$Matrix@N$02$03$0A@$02$03@Eigen@@$00$02$0A@@Eigen@@@?$Matrix@N$02$00$0A@$02$00@Eigen@@QEAA@AEBU?$EigenBase@V?$Block@V?$Matrix@N$02$03$0A@$02$03@Eigen@@$00$02$0A@@Eigen@@@1@@Z
	??$?0V?$Block@V?$Matrix@N$02$03$0A@$02$03@Eigen@@$00$02$0A@@Eigen@@@?$PlainObjectBase@V?$Matrix@N$02$00$0A@$02$00@Eigen@@@Eigen@@IEAA@AEBV?$DenseBase@V?$Block@V?$Matrix@N$02$03$0A@$02$03@Eigen@@$00$02$0A@@Eigen@@@1@@Z
	??$?0V?$Block@V?$Matrix@N$0?0$0?0$0A@$0?0$0?0@Eigen@@$0?0$00$00@Eigen@@@?$Matrix@N$0?0$00$0A@$0?0$00@Eigen@@QEAA@AEBU?$EigenBase@V?$Block@V?$Matrix@N$0?0$0?0$0A@$0?0$0?0@Eigen@@$0?0$00$00@Eigen@@@1@@Z
	??$?0V?$Block@V?$Matrix@N$0?0$0?0$0A@$0?0$0?0@Eigen@@$0?0$00$00@Eigen@@@?$PlainObjectBase@V?$Matrix@N$0?0$00$0A@$0?0$00@Eigen@@@Eigen@@IEAA@AEBV?$DenseBase@V?$Block@V?$Matrix@N$0?0$0?0$0A@$0?0$0?0@Eigen@@$0?0$00$00@Eigen@@@1@@Z
	??$?0V?$Block@V?$Ref@V?$Matrix@N$02$02$0A@$02$02@Eigen@@$0A@V?$OuterStride@$0?0@2@@Eigen@@$0?0$0?0$0A@@Eigen@@@?$Ref@V?$Matrix@N$0?0$0?0$0A@$0?0$0?0@Eigen@@$0A@V?$OuterStride@$0?0@2@@Eigen@@QEAA@AEBV?$DenseBase@V?$Block@V?$Ref@V?$Matrix@N$02$02$0A@$02$02@Eigen@@$0A@V?$OuterStride@$0?0@2@@Eigen@@$0?0$0?0$0A@@Eigen@@@1@PEAV?$Block@V?$Ref@V?$Matrix@N$02$02$0A@$02$02@Eigen@@$0A@V?$OuterStride@$0?0@2@@Eigen@@$0?0$0?0$0A@@1@@Z
	??$?0V?$CwiseBinaryOp@U?$scalar_product_op@NN@internal@Eigen@@$$CBV?$CwiseNullaryOp@U?$scalar_constant_op@N@internal@Eigen@@$$CBV?$Matrix@N$0?0$00$0A@$02$00@3@@3@$$CBV?$Block@$$CBV?$Matrix@N$02$02$0A@$02$02@Eigen@@$0?0$00$0A@@3@@Eigen@@@?$Matrix@N$0?0$00$0A@$02$00@Eigen@@QEAA@AEBV?$CwiseBinaryOp@U?$scalar_product_op@NN@internal@Eigen@@$$CBV?$CwiseNullaryOp@U?$scalar_constant_op@N@internal@Eigen@@$$CBV?$Matrix@N$0?0$00$0A@$02$00@3@@3@$$CBV?$Block@$$CBV?$Matrix@N$02$02$0A@$02$02@Eigen@@$0?0$00$0A@@3@@1@@Z
	??$?0V?$CwiseBinaryOp@U?$scalar_product_op@NN@internal@Eigen@@$$CBV?$CwiseNullaryOp@U?$scalar_constant_op@N@internal@Eigen@@$$CBV?$Matrix@N$0?0$00$0A@$02$00@3@@3@$$CBV?$Block@V?$Block@V?$Block@V?$Matrix@N$02$02$0A@$02$02@Eigen@@$0?0$0?0$0A@@Eigen@@$0?0$00$00@Eigen@@$0?0$00$0A@@3@@Eigen@@@?$Matrix@N$0?0$00$0A@$02$00@Eigen@@QEAA@AEBV?$CwiseBinaryOp@U?$scalar_product_op@NN@internal@Eigen@@$$CBV?$CwiseNullaryOp@U?$scalar_constant_op@N@internal@Eigen@@$$CBV?$Matrix@N$0?0$00$0A@$02$00@3@@3@$$CBV?$Block@V?$Block@V?$Block@V?$Matrix@N$02$02$0A@$02$02@Eigen@@$0?0$0?0$0A@@Eigen@@$0?0$00$00@Eigen@@$0?0$00$0A@@3@@1@@Z
	??$?0V?$CwiseBinaryOp@U?$scalar_product_op@NN@internal@Eigen@@$$CBV?$CwiseNullaryOp@U?$scalar_constant_op@N@internal@Eigen@@$$CBV?$Matrix@N$0?0$00$0A@$02$00@3@@3@$$CBV?$Map@V?$Matrix@N$0?0$00$0A@$02$00@Eigen@@$0A@V?$Stride@$0A@$0A@@2@@3@@Eigen@@@?$Matrix@N$0?0$00$0A@$02$00@Eigen@@QEAA@AEBV?$CwiseBinaryOp@U?$scalar_product_op@NN@internal@Eigen@@$$CBV?$CwiseNullaryOp@U?$scalar_constant_op@N@internal@Eigen@@$$CBV?$Matrix@N$0?0$00$0A@$02$00@3@@3@$$CBV?$Map@V?$Matrix@N$0?0$00$0A@$02$00@Eigen@@$0A@V?$Stride@$0A@$0A@@2@@3@@1@@Z
	??$?0V?$CwiseBinaryOp@U?$scalar_quotient_op@NN@internal@Eigen@@$$CBV?$Block@V?$Matrix@N$03$00$0A@$03$00@Eigen@@$0?0$00$0A@@3@$$CBV?$CwiseNullaryOp@U?$scalar_constant_op@N@internal@Eigen@@$$CBV?$Matrix@N$0?0$00$0A@$03$00@3@@3@@Eigen@@@?$Matrix@N$02$00$0A@$02$00@Eigen@@QEAA@AEBU?$EigenBase@V?$CwiseBinaryOp@U?$scalar_quotient_op@NN@internal@Eigen@@$$CBV?$Block@V?$Matrix@N$03$00$0A@$03$00@Eigen@@$0?0$00$0A@@3@$$CBV?$CwiseNullaryOp@U?$scalar_constant_op@N@internal@Eigen@@$$CBV?$Matrix@N$0?0$00$0A@$03$00@3@@3@@Eigen@@@1@@Z
	??$?0V?$CwiseBinaryOp@U?$scalar_quotient_op@NN@internal@Eigen@@$$CBV?$Block@V?$Matrix@N$03$00$0A@$03$00@Eigen@@$0?0$00$0A@@3@$$CBV?$CwiseNullaryOp@U?$scalar_constant_op@N@internal@Eigen@@$$CBV?$Matrix@N$0?0$00$0A@$03$00@3@@3@@Eigen@@@?$PlainObjectBase@V?$Matrix@N$02$00$0A@$02$00@Eigen@@@Eigen@@IEAA@AEBV?$DenseBase@V?$CwiseBinaryOp@U?$scalar_quotient_op@NN@internal@Eigen@@$$CBV?$Block@V?$Matrix@N$03$00$0A@$03$00@Eigen@@$0?0$00$0A@@3@$$CBV?$CwiseNullaryOp@U?$scalar_constant_op@N@internal@Eigen@@$$CBV?$Matrix@N$0?0$00$0A@$03$00@3@@3@@Eigen@@@1@@Z
	??$?0V?$CwiseBinaryOp@U?$scalar_quotient_op@NN@internal@Eigen@@$$CBV?$Matrix@N$02$00$0A@$02$00@3@$$CBV?$CwiseNullaryOp@U?$scalar_constant_op@N@internal@Eigen@@$$CBV?$Matrix@N$02$00$0A@$02$00@3@@3@@Eigen@@@?$Matrix@N$02$00$0A@$02$00@Eigen@@QEAA@AEBU?$EigenBase@V?$CwiseBinaryOp@U?$scalar_quotient_op@NN@internal@Eigen@@$$CBV?$Matrix@N$02$00$0A@$02$00@3@$$CBV?$CwiseNullaryOp@U?$scalar_constant_op@N@internal@Eigen@@$$CBV?$Matrix@N$02$00$0A@$02$00@3@@3@@Eigen@@@1@@Z
	??$?0V?$CwiseBinaryOp@U?$scalar_quotient_op@NN@internal@Eigen@@$$CBV?$Matrix@N$02$00$0A@$02$00@3@$$CBV?$CwiseNullaryOp@U?$scalar_constant_op@N@internal@Eigen@@$$CBV?$Matrix@N$02$00$0A@$02$00@3@@3@@Eigen@@@?$PlainObjectBase@V?$Matrix@N$02$00$0A@$02$00@Eigen@@@Eigen@@IEAA@AEBV?$DenseBase@V?$CwiseBinaryOp@U?$scalar_quotient_op@NN@internal@Eigen@@$$CBV?$Matrix@N$02$00$0A@$02$00@3@$$CBV?$CwiseNullaryOp@U?$scalar_constant_op@N@internal@Eigen@@$$CBV?$Matrix@N$02$00$0A@$02$00@3@@3@@Eigen@@@1@@Z
	??$?0V?$CwiseBinaryOp@U?$scalar_quotient_op@NN@internal@Eigen@@$$CBV?$Matrix@N$03$00$0A@$03$00@3@$$CBV?$CwiseNullaryOp@U?$scalar_constant_op@N@internal@Eigen@@$$CBV?$Matrix@N$03$00$0A@$03$00@3@@3@@Eigen@@@?$Matrix@N$03$00$0A@$03$00@Eigen@@QEAA@AEBU?$EigenBase@V?$CwiseBinaryOp@U?$scalar_quotient_op@NN@internal@Eigen@@$$CBV?$Matrix@N$03$00$0A@$03$00@3@$$CBV?$CwiseNullaryOp@U?$scalar_constant_op@N@internal@Eigen@@$$CBV?$Matrix@N$03$00$0A@$03$00@3@@3@@Eigen@@@1@@Z
	??$?0V?$CwiseBinaryOp@U?$scalar_quotient_op@NN@internal@Eigen@@$$CBV?$Matrix@N$03$00$0A@$03$00@3@$$CBV?$CwiseNullaryOp@U?$scalar_constant_op@N@internal@Eigen@@$$CBV?$Matrix@N$03$00$0A@$03$00@3@@3@@Eigen@@@?$PlainObjectBase@V?$Matrix@N$03$00$0A@$03$00@Eigen@@@Eigen@@IEAA@AEBV?$DenseBase@V?$CwiseBinaryOp@U?$scalar_quotient_op@NN@internal@Eigen@@$$CBV?$Matrix@N$03$00$0A@$03$00@3@$$CBV?$CwiseNullaryOp@U?$scalar_constant_op@N@internal@Eigen@@$$CBV?$Matrix@N$03$00$0A@$03$00@3@@3@@Eigen@@@1@@Z
	??$?0V?$CwiseBinaryOp@U?$scalar_quotient_op@NN@internal@Eigen@@$$CBV?$Product@V?$Block@$$CBV?$Matrix@N$02$03$0A@$02$03@Eigen@@$02$02$0A@@Eigen@@V?$Transpose@$$CBV?$Block@$$CBV?$Matrix@N$02$03$0A@$02$03@Eigen@@$00$02$0A@@Eigen@@@2@$0A@@3@$$CBV?$CwiseNullaryOp@U?$scalar_constant_op@N@internal@Eigen@@$$CBV?$Matrix@N$02$00$0A@$02$00@3@@3@@Eigen@@@?$Matrix@N$02$00$0A@$02$00@Eigen@@QEAA@AEBU?$EigenBase@V?$CwiseBinaryOp@U?$scalar_quotient_op@NN@internal@Eigen@@$$CBV?$Product@V?$Block@$$CBV?$Matrix@N$02$03$0A@$02$03@Eigen@@$02$02$0A@@Eigen@@V?$Transpose@$$CBV?$Block@$$CBV?$Matrix@N$02$03$0A@$02$03@Eigen@@$00$02$0A@@Eigen@@@2@$0A@@3@$$CBV?$CwiseNullaryOp@U?$scalar_constant_op@N@internal@Eigen@@$$CBV?$Matrix@N$02$00$0A@$02$00@3@@3@@Eigen@@@1@@Z
	??$?0V?$CwiseBinaryOp@U?$scalar_quotient_op@NN@internal@Eigen@@$$CBV?$Product@V?$Block@$$CBV?$Matrix@N$02$03$0A@$02$03@Eigen@@$02$02$0A@@Eigen@@V?$Transpose@$$CBV?$Block@$$CBV?$Matrix@N$02$03$0A@$02$03@Eigen@@$00$02$0A@@Eigen@@@2@$0A@@3@$$CBV?$CwiseNullaryOp@U?$scalar_constant_op@N@internal@Eigen@@$$CBV?$Matrix@N$02$00$0A@$02$00@3@@3@@Eigen@@@?$PlainObjectBase@V?$Matrix@N$02$00$0A@$02$00@Eigen@@@Eigen@@IEAA@AEBV?$DenseBase@V?$CwiseBinaryOp@U?$scalar_quotient_op@NN@internal@Eigen@@$$CBV?$Product@V?$Block@$$CBV?$Matrix@N$02$03$0A@$02$03@Eigen@@$02$02$0A@@Eigen@@V?$Transpose@$$CBV?$Block@$$CBV?$Matrix@N$02$03$0A@$02$03@Eigen@@$00$02$0A@@Eigen@@@2@$0A@@3@$$CBV?$CwiseNullaryOp@U?$scalar_constant_op@N@internal@Eigen@@$$CBV?$Matrix@N$02$00$0A@$02$00@3@@3@@Eigen@@@1@@Z
	??$?0V?$CwiseBinaryOp@U?$scalar_sum_op@NN@internal@Eigen@@$$CBV?$CwiseBinaryOp@U?$scalar_quotient_op@NN@internal@Eigen@@$$CBV?$CwiseBinaryOp@U?$scalar_sum_op@NN@internal@Eigen@@$$CBV?$CwiseBinaryOp@U?$scalar_product_op@NN@internal@Eigen@@$$CBV?$Matrix@N$03$00$0A@$03$00@3@$$CBV?$CwiseNullaryOp@U?$scalar_constant_op@N@internal@Eigen@@$$CBV?$Matrix@N$03$00$0A@$03$00@3@@3@@3@$$CBV43@@3@$$CBV?$CwiseNullaryOp@U?$scalar_constant_op@N@internal@Eigen@@$$CBV?$Matrix@N$03$00$0A@$03$00@3@@3@@3@$$CBV?$Matrix@N$03$00$0A@$03$00@3@@Eigen@@@?$Matrix@N$03$00$0A@$03$00@Eigen@@QEAA@AEBU?$EigenBase@V?$CwiseBinaryOp@U?$scalar_sum_op@NN@internal@Eigen@@$$CBV?$CwiseBinaryOp@U?$scalar_quotient_op@NN@internal@Eigen@@$$CBV?$CwiseBinaryOp@U?$scalar_sum_op@NN@internal@Eigen@@$$CBV?$CwiseBinaryOp@U?$scalar_product_op@NN@internal@Eigen@@$$CBV?$Matrix@N$03$00$0A@$03$00@3@$$CBV?$CwiseNullaryOp@U?$scalar_constant_op@N@internal@Eigen@@$$CBV?$Matrix@N$03$00$0A@$03$00@3@@3@@3@$$CBV43@@3@$$CBV?$CwiseNullaryOp@U?$scalar_constant_op@N@internal@Eigen@@$$CBV?$Matrix@N$03$00$0A@$03$00@3@@3@@3@$$CBV?$Matrix@N$03$00$0A@$03$00@3@@Eigen@@@1@@Z
	??$?0V?$CwiseBinaryOp@U?$scalar_sum_op@NN@internal@Eigen@@$$CBV?$CwiseBinaryOp@U?$scalar_quotient_op@NN@internal@Eigen@@$$CBV?$CwiseBinaryOp@U?$scalar_sum_op@NN@internal@Eigen@@$$CBV?$CwiseBinaryOp@U?$scalar_product_op@NN@internal@Eigen@@$$CBV?$Matrix@N$03$00$0A@$03$00@3@$$CBV?$CwiseNullaryOp@U?$scalar_constant_op@N@internal@Eigen@@$$CBV?$Matrix@N$03$00$0A@$03$00@3@@3@@3@$$CBV43@@3@$$CBV?$CwiseNullaryOp@U?$scalar_constant_op@N@internal@Eigen@@$$CBV?$Matrix@N$03$00$0A@$03$00@3@@3@@3@$$CBV?$Matrix@N$03$00$0A@$03$00@3@@Eigen@@@?$PlainObjectBase@V?$Matrix@N$03$00$0A@$03$00@Eigen@@@Eigen@@IEAA@AEBV?$DenseBase@V?$CwiseBinaryOp@U?$scalar_sum_op@NN@internal@Eigen@@$$CBV?$CwiseBinaryOp@U?$scalar_quotient_op@NN@internal@Eigen@@$$CBV?$CwiseBinaryOp@U?$scalar_sum_op@NN@internal@Eigen@@$$CBV?$CwiseBinaryOp@U?$scalar_product_op@NN@internal@Eigen@@$$CBV?$Matrix@N$03$00$0A@$03$00@3@$$CBV?$CwiseNullaryOp@U?$scalar_constant_op@N@internal@Eigen@@$$CBV?$Matrix@N$03$00$0A@$03$00@3@@3@@3@$$CBV43@@3@$$CBV?$CwiseNullaryOp@U?$scalar_constant_op@N@internal@Eigen@@$$CBV?$Matrix@N$03$00$0A@$03$00@3@@3@@3@$$CBV?$Matrix@N$03$00$0A@$03$00@3@@Eigen@@@1@@Z
	??$?0V?$CwiseBinaryOp@U?$scalar_sum_op@NN@internal@Eigen@@$$CBV?$CwiseBinaryOp@U?$scalar_sum_op@NN@internal@Eigen@@$$CBV?$CwiseBinaryOp@U?$scalar_sum_op@NN@internal@Eigen@@$$CBV?$Matrix@N$03$00$0A@$03$00@3@$$CBV43@@3@$$CBV?$Matrix@N$03$00$0A@$03$00@3@@3@$$CBV?$Matrix@N$03$00$0A@$03$00@3@@Eigen@@@?$Matrix@N$03$00$0A@$03$00@Eigen@@QEAA@AEBU?$EigenBase@V?$CwiseBinaryOp@U?$scalar_sum_op@NN@internal@Eigen@@$$CBV?$CwiseBinaryOp@U?$scalar_sum_op@NN@internal@Eigen@@$$CBV?$CwiseBinaryOp@U?$scalar_sum_op@NN@internal@Eigen@@$$CBV?$Matrix@N$03$00$0A@$03$00@3@$$CBV43@@3@$$CBV?$Matrix@N$03$00$0A@$03$00@3@@3@$$CBV?$Matrix@N$03$00$0A@$03$00@3@@Eigen@@@1@@Z
	??$?0V?$CwiseBinaryOp@U?$scalar_sum_op@NN@internal@Eigen@@$$CBV?$CwiseBinaryOp@U?$scalar_sum_op@NN@internal@Eigen@@$$CBV?$CwiseBinaryOp@U?$scalar_sum_op@NN@internal@Eigen@@$$CBV?$Matrix@N$03$00$0A@$03$00@3@$$CBV43@@3@$$CBV?$Matrix@N$03$00$0A@$03$00@3@@3@$$CBV?$Matrix@N$03$00$0A@$03$00@3@@Eigen@@@?$PlainObjectBase@V?$Matrix@N$03$00$0A@$03$00@Eigen@@@Eigen@@IEAA@AEBV?$DenseBase@V?$CwiseBinaryOp@U?$scalar_sum_op@NN@internal@Eigen@@$$CBV?$CwiseBinaryOp@U?$scalar_sum_op@NN@internal@Eigen@@$$CBV?$CwiseBinaryOp@U?$scalar_sum_op@NN@internal@Eigen@@$$CBV?$Matrix@N$03$00$0A@$03$00@3@$$CBV43@@3@$$CBV?$Matrix@N$03$00$0A@$03$00@3@@3@$$CBV?$Matrix@N$03$00$0A@$03$00@3@@Eigen@@@1@@Z
	??$?0V?$CwiseBinaryOp@U?$scalar_sum_op@NN@internal@Eigen@@$$CBV?$CwiseBinaryOp@U?$scalar_sum_op@NN@internal@Eigen@@$$CBV?$Matrix@N$03$00$0A@$03$00@3@$$CBV43@@3@$$CBV?$Matrix@N$03$00$0A@$03$00@3@@Eigen@@@?$Matrix@N$03$00$0A@$03$00@Eigen@@QEAA@AEBU?$EigenBase@V?$CwiseBinaryOp@U?$scalar_sum_op@NN@internal@Eigen@@$$CBV?$CwiseBinaryOp@U?$scalar_sum_op@NN@internal@Eigen@@$$CBV?$Matrix@N$03$00$0A@$03$00@3@$$CBV43@@3@$$CBV?$Matrix@N$03$00$0A@$03$00@3@@Eigen@@@1@@Z
	??$?0V?$CwiseBinaryOp@U?$scalar_sum_op@NN@internal@Eigen@@$$CBV?$CwiseBinaryOp@U?$scalar_sum_op@NN@internal@Eigen@@$$CBV?$Matrix@N$03$00$0A@$03$00@3@$$CBV43@@3@$$CBV?$Matrix@N$03$00$0A@$03$00@3@@Eigen@@@?$PlainObjectBase@V?$Matrix@N$03$00$0A@$03$00@Eigen@@@Eigen@@IEAA@AEBV?$DenseBase@V?$CwiseBinaryOp@U?$scalar_sum_op@NN@internal@Eigen@@$$CBV?$CwiseBinaryOp@U?$scalar_sum_op@NN@internal@Eigen@@$$CBV?$Matrix@N$03$00$0A@$03$00@3@$$CBV43@@3@$$CBV?$Matrix@N$03$00$0A@$03$00@3@@Eigen@@@1@@Z
	??$?0V?$CwiseBinaryOp@U?$scalar_sum_op@NN@internal@Eigen@@$$CBV?$Matrix@N$03$00$0A@$03$00@3@$$CBV43@@Eigen@@@?$Matrix@N$03$00$0A@$03$00@Eigen@@QEAA@AEBU?$EigenBase@V?$CwiseBinaryOp@U?$scalar_sum_op@NN@internal@Eigen@@$$CBV?$Matrix@N$03$00$0A@$03$00@3@$$CBV43@@Eigen@@@1@@Z
	??$?0V?$CwiseBinaryOp@U?$scalar_sum_op@NN@internal@Eigen@@$$CBV?$Matrix@N$03$00$0A@$03$00@3@$$CBV43@@Eigen@@@?$PlainObjectBase@V?$Matrix@N$03$00$0A@$03$00@Eigen@@@Eigen@@IEAA@AEBV?$DenseBase@V?$CwiseBinaryOp@U?$scalar_sum_op@NN@internal@Eigen@@$$CBV?$Matrix@N$03$00$0A@$03$00@3@$$CBV43@@Eigen@@@1@@Z
	??$?0V?$CwiseNullaryOp@U?$scalar_zero_op@N@internal@Eigen@@V?$Matrix@N$02$03$0A@$02$03@3@@Eigen@@@?$Matrix@N$02$03$0A@$02$03@Eigen@@QEAA@AEBU?$EigenBase@V?$CwiseNullaryOp@U?$scalar_zero_op@N@internal@Eigen@@V?$Matrix@N$02$03$0A@$02$03@3@@Eigen@@@1@@Z
	??$?0V?$CwiseNullaryOp@U?$scalar_zero_op@N@internal@Eigen@@V?$Matrix@N$02$03$0A@$02$03@3@@Eigen@@@?$PlainObjectBase@V?$Matrix@N$02$03$0A@$02$03@Eigen@@@Eigen@@IEAA@AEBV?$DenseBase@V?$CwiseNullaryOp@U?$scalar_zero_op@N@internal@Eigen@@V?$Matrix@N$02$03$0A@$02$03@3@@Eigen@@@1@@Z
	??$?0V?$CwiseNullaryOp@U?$scalar_zero_op@N@internal@Eigen@@V?$Matrix@N$03$00$0A@$03$00@3@@Eigen@@@?$Matrix@N$03$00$0A@$03$00@Eigen@@QEAA@AEBV?$CwiseNullaryOp@U?$scalar_zero_op@N@internal@Eigen@@V?$Matrix@N$03$00$0A@$03$00@3@@1@@Z
	??$?0V?$CwiseUnaryOp@U?$scalar_opposite_op@N@internal@Eigen@@$$CBV?$Matrix@N$02$00$0A@$02$00@3@@Eigen@@@?$Matrix@N$02$00$0A@$02$00@Eigen@@QEAA@AEBU?$EigenBase@V?$CwiseUnaryOp@U?$scalar_opposite_op@N@internal@Eigen@@$$CBV?$Matrix@N$02$00$0A@$02$00@3@@Eigen@@@1@@Z
	??$?0V?$CwiseUnaryOp@U?$scalar_opposite_op@N@internal@Eigen@@$$CBV?$Matrix@N$02$00$0A@$02$00@3@@Eigen@@@?$PlainObjectBase@V?$Matrix@N$02$00$0A@$02$00@Eigen@@@Eigen@@IEAA@AEBV?$DenseBase@V?$CwiseUnaryOp@U?$scalar_opposite_op@N@internal@Eigen@@$$CBV?$Matrix@N$02$00$0A@$02$00@3@@Eigen@@@1@@Z
	??$?0V?$Inverse@V?$CwiseNullaryOp@U?$scalar_identity_op@N@internal@Eigen@@V?$Matrix@N$02$02$0A@$02$02@3@@Eigen@@@Eigen@@@?$Matrix@N$02$02$0A@$02$02@Eigen@@QEAA@AEBV?$Inverse@V?$CwiseNullaryOp@U?$scalar_identity_op@N@internal@Eigen@@V?$Matrix@N$02$02$0A@$02$02@3@@Eigen@@@1@@Z
	??$?0V?$Map@V?$Matrix@N$02$02$0A@$02$02@Eigen@@$0A@V?$Stride@$0?0$0A@@2@@Eigen@@@?$Ref@V?$Matrix@N$02$02$0A@$02$02@Eigen@@$0A@V?$OuterStride@$0?0@2@@Eigen@@QEAA@AEBV?$DenseBase@V?$Map@V?$Matrix@N$02$02$0A@$02$02@Eigen@@$0A@V?$Stride@$0?0$0A@@2@@Eigen@@@1@PEAV?$Map@V?$Matrix@N$02$02$0A@$02$02@Eigen@@$0A@V?$Stride@$0?0$0A@@2@@1@@Z
	??$?0V?$Matrix@N$02$02$0A@$02$02@Eigen@@@?$HouseholderQR@V?$Matrix@N$02$02$0A@$02$02@Eigen@@@Eigen@@QEAA@AEBU?$EigenBase@V?$Matrix@N$02$02$0A@$02$02@Eigen@@@1@@Z
	??$?0V?$Matrix@N$02$02$0A@$02$02@Eigen@@@?$PartialPivLU@V?$Matrix@N$02$02$0A@$02$02@Eigen@@H@Eigen@@QEAA@AEBU?$EigenBase@V?$Matrix@N$02$02$0A@$02$02@Eigen@@@1@@Z
	??$?0V?$Matrix@N$02$03$0A@$02$03@Eigen@@@?$JacobiSVD@V?$Matrix@N$0?0$0?0$0A@$0?0$0?0@Eigen@@$0A@@Eigen@@QEAA@AEBV?$MatrixBase@V?$Matrix@N$02$03$0A@$02$03@Eigen@@@1@I@Z
	??$?0V?$Matrix@N$02$03$0A@$02$03@Eigen@@@?$Matrix@N$0?0$0?0$0A@$0?0$0?0@Eigen@@QEAA@AEBU?$EigenBase@V?$Matrix@N$02$03$0A@$02$03@Eigen@@@1@@Z
	??$?0V?$Matrix@N$02$03$0A@$02$03@Eigen@@@?$Matrix@N$0?0$0?0$0A@$0?0$0?0@Eigen@@QEAA@AEBV?$Matrix@N$02$03$0A@$02$03@1@@Z
	??$?0V?$Matrix@N$02$03$0A@$02$03@Eigen@@@?$PlainObjectBase@V?$Matrix@N$0?0$0?0$0A@$0?0$0?0@Eigen@@@Eigen@@IEAA@AEBV?$DenseBase@V?$Matrix@N$02$03$0A@$02$03@Eigen@@@1@@Z
	??$?0V?$Matrix@N$03$00$0A@$03$00@Eigen@@V01@$0A@@?$pair@V?$Matrix@N$03$00$0A@$03$00@Eigen@@V12@@std@@QEAA@$$QEAV?$Matrix@N$03$00$0A@$03$00@Eigen@@0@Z
	??$?0V?$Matrix@N$0?0$00$0A@$0?0$00@Eigen@@@?$Matrix@N$03$00$0A@$03$00@Eigen@@QEAA@AEBU?$EigenBase@V?$Matrix@N$0?0$00$0A@$0?0$00@Eigen@@@1@@Z
	??$?0V?$Matrix@N$0?0$00$0A@$0?0$00@Eigen@@@?$PlainObjectBase@V?$Matrix@N$03$00$0A@$03$00@Eigen@@@Eigen@@IEAA@AEBV?$DenseBase@V?$Matrix@N$0?0$00$0A@$0?0$00@Eigen@@@1@@Z
	??$?0V?$Matrix@N$0?0$0?0$0A@$0?0$0?0@Eigen@@@?$JacobiSVD@V?$Matrix@N$0?0$0?0$0A@$0?0$0?0@Eigen@@$0A@@Eigen@@QEAA@AEBV?$MatrixBase@V?$Matrix@N$0?0$0?0$0A@$0?0$0?0@Eigen@@@1@I@Z
	??$?0V?$Matrix@N$0?0$0?0$0A@$0?0$0?0@Eigen@@@?$Matrix@N$03$02$0A@$03$02@Eigen@@QEAA@AEBU?$EigenBase@V?$Matrix@N$0?0$0?0$0A@$0?0$0?0@Eigen@@@1@@Z
	??$?0V?$Matrix@N$0?0$0?0$0A@$0?0$0?0@Eigen@@@?$PlainObjectBase@V?$Matrix@N$03$02$0A@$03$02@Eigen@@@Eigen@@IEAA@AEBV?$DenseBase@V?$Matrix@N$0?0$0?0$0A@$0?0$0?0@Eigen@@@1@@Z
	??$?0V?$Product@V?$CwiseNullaryOp@U?$scalar_identity_op@N@internal@Eigen@@V?$Matrix@N$02$02$0A@$02$02@3@@Eigen@@V?$Matrix@N$02$00$0A@$02$00@2@$0A@@Eigen@@@?$Matrix@N$02$00$0A@$02$00@Eigen@@QEAA@AEBU?$EigenBase@V?$Product@V?$CwiseNullaryOp@U?$scalar_identity_op@N@internal@Eigen@@V?$Matrix@N$02$02$0A@$02$02@3@@Eigen@@V?$Matrix@N$02$00$0A@$02$00@2@$0A@@Eigen@@@1@@Z
	??$?0V?$Product@V?$CwiseNullaryOp@U?$scalar_identity_op@N@internal@Eigen@@V?$Matrix@N$02$02$0A@$02$02@3@@Eigen@@V?$Matrix@N$02$00$0A@$02$00@2@$0A@@Eigen@@@?$PlainObjectBase@V?$Matrix@N$02$00$0A@$02$00@Eigen@@@Eigen@@IEAA@AEBV?$DenseBase@V?$Product@V?$CwiseNullaryOp@U?$scalar_identity_op@N@internal@Eigen@@V?$Matrix@N$02$02$0A@$02$02@3@@Eigen@@V?$Matrix@N$02$00$0A@$02$00@2@$0A@@Eigen@@@1@@Z
	??$?0V?$Product@V?$CwiseNullaryOp@U?$scalar_identity_op@N@internal@Eigen@@V?$Matrix@N$03$03$0A@$03$03@3@@Eigen@@V?$Matrix@N$03$00$0A@$03$00@2@$0A@@Eigen@@@?$Matrix@N$03$00$0A@$03$00@Eigen@@QEAA@AEBU?$EigenBase@V?$Product@V?$CwiseNullaryOp@U?$scalar_identity_op@N@internal@Eigen@@V?$Matrix@N$03$03$0A@$03$03@3@@Eigen@@V?$Matrix@N$03$00$0A@$03$00@2@$0A@@Eigen@@@1@@Z
	??$?0V?$Product@V?$CwiseNullaryOp@U?$scalar_identity_op@N@internal@Eigen@@V?$Matrix@N$03$03$0A@$03$03@3@@Eigen@@V?$Matrix@N$03$00$0A@$03$00@2@$0A@@Eigen@@@?$PlainObjectBase@V?$Matrix@N$03$00$0A@$03$00@Eigen@@@Eigen@@IEAA@AEBV?$DenseBase@V?$Product@V?$CwiseNullaryOp@U?$scalar_identity_op@N@internal@Eigen@@V?$Matrix@N$03$03$0A@$03$03@3@@Eigen@@V?$Matrix@N$03$00$0A@$03$00@2@$0A@@Eigen@@@1@@Z
	??$?0V?$Product@V?$Inverse@V?$CwiseNullaryOp@U?$scalar_identity_op@N@internal@Eigen@@V?$Matrix@N$02$02$0A@$02$02@3@@Eigen@@@Eigen@@V?$Matrix@N$02$03$0A@$02$03@2@$0A@@Eigen@@@?$Matrix@N$02$03$0A@$02$03@Eigen@@QEAA@AEBV?$Product@V?$Inverse@V?$CwiseNullaryOp@U?$scalar_identity_op@N@internal@Eigen@@V?$Matrix@N$02$02$0A@$02$02@3@@Eigen@@@Eigen@@V?$Matrix@N$02$03$0A@$02$03@2@$0A@@1@@Z
	??$?0V?$Product@V?$Matrix@N$02$02$0A@$02$02@Eigen@@V12@$0A@@Eigen@@@?$Matrix@N$02$02$0A@$02$02@Eigen@@QEAA@AEBU?$EigenBase@V?$Product@V?$Matrix@N$02$02$0A@$02$02@Eigen@@V12@$0A@@Eigen@@@1@@Z
	??$?0V?$Product@V?$Matrix@N$02$02$0A@$02$02@Eigen@@V12@$0A@@Eigen@@@?$Matrix@N$02$02$0A@$02$02@Eigen@@QEAA@AEBV?$Product@V?$Matrix@N$02$02$0A@$02$02@Eigen@@V12@$0A@@1@@Z
	??$?0V?$Product@V?$Matrix@N$02$02$0A@$02$02@Eigen@@V12@$0A@@Eigen@@@?$PlainObjectBase@V?$Matrix@N$02$02$0A@$02$02@Eigen@@@Eigen@@IEAA@AEBV?$DenseBase@V?$Product@V?$Matrix@N$02$02$0A@$02$02@Eigen@@V12@$0A@@Eigen@@@1@@Z
	??$?0V?$Product@V?$Matrix@N$02$02$0A@$02$02@Eigen@@V12@$0A@@Eigen@@V?$Product@V?$Matrix@N$03$03$0A@$03$03@Eigen@@V12@$0A@@1@$0A@@?$pair@V?$Matrix@N$02$02$0A@$02$02@Eigen@@V?$Matrix@N$03$03$0A@$03$03@2@@std@@QEAA@$$QEAU?$pair@V?$Product@V?$Matrix@N$02$02$0A@$02$02@Eigen@@V12@$0A@@Eigen@@V?$Product@V?$Matrix@N$03$03$0A@$03$03@Eigen@@V12@$0A@@2@@1@@Z
	??$?0V?$Product@V?$Matrix@N$02$02$0A@$02$02@Eigen@@V?$Matrix@N$02$00$0A@$02$00@2@$0A@@Eigen@@@?$Matrix@N$02$00$0A@$02$00@Eigen@@QEAA@AEBV?$Product@V?$Matrix@N$02$02$0A@$02$02@Eigen@@V?$Matrix@N$02$00$0A@$02$00@2@$0A@@1@@Z
	??$?0V?$Product@V?$Matrix@N$02$02$0A@$02$02@Eigen@@V?$Matrix@N$02$03$0A@$02$03@2@$0A@@Eigen@@@?$Matrix@N$02$03$0A@$02$03@Eigen@@QEAA@AEBV?$Product@V?$Matrix@N$02$02$0A@$02$02@Eigen@@V?$Matrix@N$02$03$0A@$02$03@2@$0A@@1@@Z
	??$?0V?$Product@V?$Matrix@N$02$03$0A@$02$03@Eigen@@V?$Matrix@N$03$00$0A@$03$00@2@$0A@@Eigen@@@?$Matrix@N$02$00$0A@$02$00@Eigen@@QEAA@AEBU?$EigenBase@V?$Product@V?$Matrix@N$02$03$0A@$02$03@Eigen@@V?$Matrix@N$03$00$0A@$03$00@2@$0A@@Eigen@@@1@@Z
	??$?0V?$Product@V?$Matrix@N$02$03$0A@$02$03@Eigen@@V?$Matrix@N$03$00$0A@$03$00@2@$0A@@Eigen@@@?$PlainObjectBase@V?$Matrix@N$02$00$0A@$02$00@Eigen@@@Eigen@@IEAA@AEBV?$DenseBase@V?$Product@V?$Matrix@N$02$03$0A@$02$03@Eigen@@V?$Matrix@N$03$00$0A@$03$00@2@$0A@@Eigen@@@1@@Z
	??$?0V?$Product@V?$Matrix@N$03$03$0A@$03$03@Eigen@@V12@$0A@@Eigen@@@?$Matrix@N$03$03$0A@$03$03@Eigen@@QEAA@AEBV?$Product@V?$Matrix@N$03$03$0A@$03$03@Eigen@@V12@$0A@@1@@Z
	??$?0V?$Product@V?$Matrix@N$03$03$0A@$03$03@Eigen@@V?$Matrix@N$03$00$0A@$03$00@2@$0A@@Eigen@@@?$Matrix@N$03$00$0A@$03$00@Eigen@@QEAA@AEBU?$EigenBase@V?$Product@V?$Matrix@N$03$03$0A@$03$03@Eigen@@V?$Matrix@N$03$00$0A@$03$00@2@$0A@@Eigen@@@1@@Z
	??$?0V?$Product@V?$Matrix@N$03$03$0A@$03$03@Eigen@@V?$Matrix@N$03$00$0A@$03$00@2@$0A@@Eigen@@@?$Matrix@N$03$00$0A@$03$00@Eigen@@QEAA@AEBV?$Product@V?$Matrix@N$03$03$0A@$03$03@Eigen@@V?$Matrix@N$03$00$0A@$03$00@2@$0A@@1@@Z
	??$?0V?$Product@V?$Matrix@N$03$03$0A@$03$03@Eigen@@V?$Matrix@N$03$00$0A@$03$00@2@$0A@@Eigen@@@?$PlainObjectBase@V?$Matrix@N$03$00$0A@$03$00@Eigen@@@Eigen@@IEAA@AEBV?$DenseBase@V?$Product@V?$Matrix@N$03$03$0A@$03$03@Eigen@@V?$Matrix@N$03$00$0A@$03$00@2@$0A@@Eigen@@@1@@Z
	??$?0V?$Product@V?$Matrix@N$0?0$0?0$0A@$0?0$0?0@Eigen@@V12@$0A@@Eigen@@@?$Matrix@N$0?0$0?0$0A@$0?0$0?0@Eigen@@QEAA@AEBU?$EigenBase@V?$Product@V?$Matrix@N$0?0$0?0$0A@$0?0$0?0@Eigen@@V12@$0A@@Eigen@@@1@@Z
	??$?0V?$Product@V?$Matrix@N$0?0$0?0$0A@$0?0$0?0@Eigen@@V12@$0A@@Eigen@@@?$Matrix@N$0?0$0?0$0A@$0?0$0?0@Eigen@@QEAA@AEBV?$Product@V?$Matrix@N$0?0$0?0$0A@$0?0$0?0@Eigen@@V12@$0A@@1@@Z
	??$?0V?$Product@V?$Matrix@N$0?0$0?0$0A@$0?0$0?0@Eigen@@V12@$0A@@Eigen@@@?$PlainObjectBase@V?$Matrix@N$0?0$0?0$0A@$0?0$0?0@Eigen@@@Eigen@@IEAA@AEBV?$DenseBase@V?$Product@V?$Matrix@N$0?0$0?0$0A@$0?0$0?0@Eigen@@V12@$0A@@Eigen@@@1@@Z
	??$?0V?$Product@V?$Matrix@N$0?0$0?0$0A@$0?0$0?0@Eigen@@V?$DiagonalWrapper@$$CBV?$Matrix@N$0?0$00$0A@$0?0$00@Eigen@@@2@$00@Eigen@@@?$Matrix@N$0?0$0?0$0A@$0?0$0?0@Eigen@@QEAA@AEBU?$EigenBase@V?$Product@V?$Matrix@N$0?0$0?0$0A@$0?0$0?0@Eigen@@V?$DiagonalWrapper@$$CBV?$Matrix@N$0?0$00$0A@$0?0$00@Eigen@@@2@$00@Eigen@@@1@@Z
	??$?0V?$Product@V?$Matrix@N$0?0$0?0$0A@$0?0$0?0@Eigen@@V?$DiagonalWrapper@$$CBV?$Matrix@N$0?0$00$0A@$0?0$00@Eigen@@@2@$00@Eigen@@@?$Matrix@N$0?0$0?0$0A@$0?0$0?0@Eigen@@QEAA@AEBV?$Product@V?$Matrix@N$0?0$0?0$0A@$0?0$0?0@Eigen@@V?$DiagonalWrapper@$$CBV?$Matrix@N$0?0$00$0A@$0?0$00@Eigen@@@2@$00@1@@Z
	??$?0V?$Product@V?$Matrix@N$0?0$0?0$0A@$0?0$0?0@Eigen@@V?$DiagonalWrapper@$$CBV?$Matrix@N$0?0$00$0A@$0?0$00@Eigen@@@2@$00@Eigen@@@?$PlainObjectBase@V?$Matrix@N$0?0$0?0$0A@$0?0$0?0@Eigen@@@Eigen@@IEAA@AEBV?$DenseBase@V?$Product@V?$Matrix@N$0?0$0?0$0A@$0?0$0?0@Eigen@@V?$DiagonalWrapper@$$CBV?$Matrix@N$0?0$00$0A@$0?0$00@Eigen@@@2@$00@Eigen@@@1@@Z
	??$?0V?$Product@V?$PermutationMatrix@$02$02H@Eigen@@V?$Block@$$CBV?$Matrix@N$02$03$0A@$02$03@Eigen@@$02$00$0A@@2@$0A@@Eigen@@@?$Matrix@N$02$00$0A@$02$00@Eigen@@QEAA@AEBV?$Product@V?$PermutationMatrix@$02$02H@Eigen@@V?$Block@$$CBV?$Matrix@N$02$03$0A@$02$03@Eigen@@$02$00$0A@@2@$0A@@1@@Z
	??$?0V?$Product@V?$Product@V?$Inverse@V?$CwiseNullaryOp@U?$scalar_identity_op@N@internal@Eigen@@V?$Matrix@N$02$02$0A@$02$02@3@@Eigen@@@Eigen@@V?$Matrix@N$02$03$0A@$02$03@2@$0A@@Eigen@@V?$CwiseNullaryOp@U?$scalar_identity_op@N@internal@Eigen@@V?$Matrix@N$03$03$0A@$03$03@3@@2@$0A@@Eigen@@@?$Matrix@N$02$03$0A@$02$03@Eigen@@QEAA@AEBU?$EigenBase@V?$Product@V?$Product@V?$Inverse@V?$CwiseNullaryOp@U?$scalar_identity_op@N@internal@Eigen@@V?$Matrix@N$02$02$0A@$02$02@3@@Eigen@@@Eigen@@V?$Matrix@N$02$03$0A@$02$03@2@$0A@@Eigen@@V?$CwiseNullaryOp@U?$scalar_identity_op@N@internal@Eigen@@V?$Matrix@N$03$03$0A@$03$03@3@@2@$0A@@Eigen@@@1@@Z
	??$?0V?$Product@V?$Product@V?$Inverse@V?$CwiseNullaryOp@U?$scalar_identity_op@N@internal@Eigen@@V?$Matrix@N$02$02$0A@$02$02@3@@Eigen@@@Eigen@@V?$Matrix@N$02$03$0A@$02$03@2@$0A@@Eigen@@V?$CwiseNullaryOp@U?$scalar_identity_op@N@internal@Eigen@@V?$Matrix@N$03$03$0A@$03$03@3@@2@$0A@@Eigen@@@?$PlainObjectBase@V?$Matrix@N$02$03$0A@$02$03@Eigen@@@Eigen@@IEAA@AEBV?$DenseBase@V?$Product@V?$Product@V?$Inverse@V?$CwiseNullaryOp@U?$scalar_identity_op@N@internal@Eigen@@V?$Matrix@N$02$02$0A@$02$02@3@@Eigen@@@Eigen@@V?$Matrix@N$02$03$0A@$02$03@2@$0A@@Eigen@@V?$CwiseNullaryOp@U?$scalar_identity_op@N@internal@Eigen@@V?$Matrix@N$03$03$0A@$03$03@3@@2@$0A@@Eigen@@@1@@Z
	??$?0V?$Product@V?$Product@V?$Matrix@N$02$02$0A@$02$02@Eigen@@V?$Matrix@N$02$03$0A@$02$03@2@$0A@@Eigen@@V?$Matrix@N$03$02$0A@$03$02@2@$0A@@Eigen@@@?$Matrix@N$02$02$0A@$02$02@Eigen@@QEAA@AEBU?$EigenBase@V?$Product@V?$Product@V?$Matrix@N$02$02$0A@$02$02@Eigen@@V?$Matrix@N$02$03$0A@$02$03@2@$0A@@Eigen@@V?$Matrix@N$03$02$0A@$03$02@2@$0A@@Eigen@@@1@@Z
	??$?0V?$Product@V?$Product@V?$Matrix@N$02$02$0A@$02$02@Eigen@@V?$Matrix@N$02$03$0A@$02$03@2@$0A@@Eigen@@V?$Matrix@N$03$02$0A@$03$02@2@$0A@@Eigen@@@?$PlainObjectBase@V?$Matrix@N$02$02$0A@$02$02@Eigen@@@Eigen@@IEAA@AEBV?$DenseBase@V?$Product@V?$Product@V?$Matrix@N$02$02$0A@$02$02@Eigen@@V?$Matrix@N$02$03$0A@$02$03@2@$0A@@Eigen@@V?$Matrix@N$03$02$0A@$03$02@2@$0A@@Eigen@@@1@@Z
	??$?0V?$Product@V?$Product@V?$Matrix@N$0?0$0?0$0A@$0?0$0?0@Eigen@@V12@$0A@@Eigen@@V?$Transpose@$$CBV?$Matrix@N$0?0$0?0$0A@$0?0$0?0@Eigen@@@2@$0A@@Eigen@@@?$Matrix@N$0?0$0?0$00$0?0$0?0@Eigen@@QEAA@AEBV?$Product@V?$Product@V?$Matrix@N$0?0$0?0$0A@$0?0$0?0@Eigen@@V12@$0A@@Eigen@@V?$Transpose@$$CBV?$Matrix@N$0?0$0?0$0A@$0?0$0?0@Eigen@@@2@$0A@@1@@Z
	??$?0V?$Product@V?$Product@V?$Matrix@N$0?0$0?0$0A@$0?0$0?0@Eigen@@V12@$0A@@Eigen@@V?$Transpose@$$CBV?$Matrix@N$0?0$0?0$0A@$0?0$0?0@Eigen@@@2@$0A@@Eigen@@@?$Matrix@N$0?0$0?0$0A@$0?0$0?0@Eigen@@QEAA@AEBU?$EigenBase@V?$Product@V?$Product@V?$Matrix@N$0?0$0?0$0A@$0?0$0?0@Eigen@@V12@$0A@@Eigen@@V?$Transpose@$$CBV?$Matrix@N$0?0$0?0$0A@$0?0$0?0@Eigen@@@2@$0A@@Eigen@@@1@@Z
	??$?0V?$Product@V?$Product@V?$Matrix@N$0?0$0?0$0A@$0?0$0?0@Eigen@@V12@$0A@@Eigen@@V?$Transpose@$$CBV?$Matrix@N$0?0$0?0$0A@$0?0$0?0@Eigen@@@2@$0A@@Eigen@@@?$PlainObjectBase@V?$Matrix@N$0?0$0?0$0A@$0?0$0?0@Eigen@@@Eigen@@IEAA@AEBV?$DenseBase@V?$Product@V?$Product@V?$Matrix@N$0?0$0?0$0A@$0?0$0?0@Eigen@@V12@$0A@@Eigen@@V?$Transpose@$$CBV?$Matrix@N$0?0$0?0$0A@$0?0$0?0@Eigen@@@2@$0A@@Eigen@@@1@@Z
	??$?0V?$Product@V?$Product@V?$Matrix@N$0?0$0?0$0A@$0?0$0?0@Eigen@@V?$DiagonalWrapper@$$CBV?$Matrix@N$0?0$00$0A@$0?0$00@Eigen@@@2@$00@Eigen@@V?$Transpose@$$CBV?$Matrix@N$0?0$0?0$0A@$0?0$0?0@Eigen@@@2@$0A@@Eigen@@@?$Matrix@N$0?0$0?0$0A@$0?0$0?0@Eigen@@QEAA@AEBU?$EigenBase@V?$Product@V?$Product@V?$Matrix@N$0?0$0?0$0A@$0?0$0?0@Eigen@@V?$DiagonalWrapper@$$CBV?$Matrix@N$0?0$00$0A@$0?0$00@Eigen@@@2@$00@Eigen@@V?$Transpose@$$CBV?$Matrix@N$0?0$0?0$0A@$0?0$0?0@Eigen@@@2@$0A@@Eigen@@@1@@Z
	??$?0V?$Product@V?$Product@V?$Matrix@N$0?0$0?0$0A@$0?0$0?0@Eigen@@V?$DiagonalWrapper@$$CBV?$Matrix@N$0?0$00$0A@$0?0$00@Eigen@@@2@$00@Eigen@@V?$Transpose@$$CBV?$Matrix@N$0?0$0?0$0A@$0?0$0?0@Eigen@@@2@$0A@@Eigen@@@?$PlainObjectBase@V?$Matrix@N$0?0$0?0$0A@$0?0$0?0@Eigen@@@Eigen@@IEAA@AEBV?$DenseBase@V?$Product@V?$Product@V?$Matrix@N$0?0$0?0$0A@$0?0$0?0@Eigen@@V?$DiagonalWrapper@$$CBV?$Matrix@N$0?0$00$0A@$0?0$00@Eigen@@@2@$00@Eigen@@V?$Transpose@$$CBV?$Matrix@N$0?0$0?0$0A@$0?0$0?0@Eigen@@@2@$0A@@Eigen@@@1@@Z
	??$?0V?$Product@V?$Transpose@$$CBV?$Matrix@N$02$02$0A@$02$02@Eigen@@@Eigen@@V12@$0A@@Eigen@@@?$Matrix@N$02$02$0A@$02$02@Eigen@@QEAA@AEBV?$Product@V?$Transpose@$$CBV?$Matrix@N$02$02$0A@$02$02@Eigen@@@Eigen@@V12@$0A@@1@@Z
	??$?0V?$Product@V?$TriangularView@$$CBV?$Transpose@$$CBV?$Block@V?$Matrix@N$02$02$0A@$02$02@Eigen@@$0?0$0?0$0A@@Eigen@@@Eigen@@$05@Eigen@@V?$Block@V?$Matrix@N$02$02$0A@$02$02@Eigen@@$0?0$02$0A@@2@$0A@@Eigen@@@?$Matrix@N$0?0$02$0A@$02$02@Eigen@@QEAA@AEBU?$EigenBase@V?$Product@V?$TriangularView@$$CBV?$Transpose@$$CBV?$Block@V?$Matrix@N$02$02$0A@$02$02@Eigen@@$0?0$0?0$0A@@Eigen@@@Eigen@@$05@Eigen@@V?$Block@V?$Matrix@N$02$02$0A@$02$02@Eigen@@$0?0$02$0A@@2@$0A@@Eigen@@@1@@Z
	??$?0V?$Product@V?$TriangularView@$$CBV?$Transpose@$$CBV?$Block@V?$Matrix@N$02$02$0A@$02$02@Eigen@@$0?0$0?0$0A@@Eigen@@@Eigen@@$05@Eigen@@V?$Block@V?$Matrix@N$02$02$0A@$02$02@Eigen@@$0?0$02$0A@@2@$0A@@Eigen@@@?$PlainObjectBase@V?$Matrix@N$0?0$02$0A@$02$02@Eigen@@@Eigen@@IEAA@AEBV?$DenseBase@V?$Product@V?$TriangularView@$$CBV?$Transpose@$$CBV?$Block@V?$Matrix@N$02$02$0A@$02$02@Eigen@@$0?0$0?0$0A@@Eigen@@@Eigen@@$05@Eigen@@V?$Block@V?$Matrix@N$02$02$0A@$02$02@Eigen@@$0?0$02$0A@@2@$0A@@Eigen@@@1@@Z
	??$?0V?$Product@V?$TriangularView@$$CBV?$Transpose@$$CBV?$Block@V?$Matrix@N$02$02$0A@$02$02@Eigen@@$0?0$0?0$0A@@Eigen@@@Eigen@@$05@Eigen@@V?$Block@V?$Matrix@N$02$02$0A@$02$02@Eigen@@$0?0$0?0$0A@@2@$0A@@Eigen@@@?$Matrix@N$0?0$0?0$0A@$02$02@Eigen@@QEAA@AEBU?$EigenBase@V?$Product@V?$TriangularView@$$CBV?$Transpose@$$CBV?$Block@V?$Matrix@N$02$02$0A@$02$02@Eigen@@$0?0$0?0$0A@@Eigen@@@Eigen@@$05@Eigen@@V?$Block@V?$Matrix@N$02$02$0A@$02$02@Eigen@@$0?0$0?0$0A@@2@$0A@@Eigen@@@1@@Z
	??$?0V?$Product@V?$TriangularView@$$CBV?$Transpose@$$CBV?$Block@V?$Matrix@N$02$02$0A@$02$02@Eigen@@$0?0$0?0$0A@@Eigen@@@Eigen@@$05@Eigen@@V?$Block@V?$Matrix@N$02$02$0A@$02$02@Eigen@@$0?0$0?0$0A@@2@$0A@@Eigen@@@?$PlainObjectBase@V?$Matrix@N$0?0$0?0$0A@$02$02@Eigen@@@Eigen@@IEAA@AEBV?$DenseBase@V?$Product@V?$TriangularView@$$CBV?$Transpose@$$CBV?$Block@V?$Matrix@N$02$02$0A@$02$02@Eigen@@$0?0$0?0$0A@@Eigen@@@Eigen@@$05@Eigen@@V?$Block@V?$Matrix@N$02$02$0A@$02$02@Eigen@@$0?0$0?0$0A@@2@$0A@@Eigen@@@1@@Z
	??$?0V?$Product@V?$TriangularView@$$CBV?$Transpose@$$CBV?$Block@V?$Matrix@N$0?0$0?0$0A@$0?0$0?0@Eigen@@$0?0$0?0$0A@@Eigen@@@Eigen@@$05@Eigen@@V?$Block@V?$Matrix@N$0?0$0?0$0A@$0?0$0?0@Eigen@@$0?0$0?0$0A@@2@$0A@@Eigen@@@?$Matrix@N$0?0$0?0$0A@$0?0$0?0@Eigen@@QEAA@AEBU?$EigenBase@V?$Product@V?$TriangularView@$$CBV?$Transpose@$$CBV?$Block@V?$Matrix@N$0?0$0?0$0A@$0?0$0?0@Eigen@@$0?0$0?0$0A@@Eigen@@@Eigen@@$05@Eigen@@V?$Block@V?$Matrix@N$0?0$0?0$0A@$0?0$0?0@Eigen@@$0?0$0?0$0A@@2@$0A@@Eigen@@@1@@Z
	??$?0V?$Product@V?$TriangularView@$$CBV?$Transpose@$$CBV?$Block@V?$Matrix@N$0?0$0?0$0A@$0?0$0?0@Eigen@@$0?0$0?0$0A@@Eigen@@@Eigen@@$05@Eigen@@V?$Block@V?$Matrix@N$0?0$0?0$0A@$0?0$0?0@Eigen@@$0?0$0?0$0A@@2@$0A@@Eigen@@@?$PlainObjectBase@V?$Matrix@N$0?0$0?0$0A@$0?0$0?0@Eigen@@@Eigen@@IEAA@AEBV?$DenseBase@V?$Product@V?$TriangularView@$$CBV?$Transpose@$$CBV?$Block@V?$Matrix@N$0?0$0?0$0A@$0?0$0?0@Eigen@@$0?0$0?0$0A@@Eigen@@@Eigen@@$05@Eigen@@V?$Block@V?$Matrix@N$0?0$0?0$0A@$0?0$0?0@Eigen@@$0?0$0?0$0A@@2@$0A@@Eigen@@@1@@Z
	??$?0V?$Product@V?$TriangularView@$$CBV?$Transpose@$$CBV?$Matrix@N$0?0$0?0$00$0?0$0?0@Eigen@@@Eigen@@$00@Eigen@@V?$Matrix@N$0?0$02$0A@$02$02@2@$0A@@Eigen@@@?$Matrix@N$0?0$02$0A@$0?0$02@Eigen@@QEAA@AEBV?$Product@V?$TriangularView@$$CBV?$Transpose@$$CBV?$Matrix@N$0?0$0?0$00$0?0$0?0@Eigen@@@Eigen@@$00@Eigen@@V?$Matrix@N$0?0$02$0A@$02$02@2@$0A@@1@@Z
	??$?0V?$Product@V?$TriangularView@$$CBV?$Transpose@$$CBV?$Matrix@N$0?0$0?0$00$0?0$0?0@Eigen@@@Eigen@@$00@Eigen@@V?$Matrix@N$0?0$0?0$0A@$02$02@2@$0A@@Eigen@@@?$Matrix@N$0?0$0?0$0A@$0?0$02@Eigen@@QEAA@AEBV?$Product@V?$TriangularView@$$CBV?$Transpose@$$CBV?$Matrix@N$0?0$0?0$00$0?0$0?0@Eigen@@@Eigen@@$00@Eigen@@V?$Matrix@N$0?0$0?0$0A@$02$02@2@$0A@@1@@Z
	??$?0V?$Product@V?$TriangularView@$$CBV?$Transpose@$$CBV?$Matrix@N$0?0$0?0$00$0?0$0?0@Eigen@@@Eigen@@$00@Eigen@@V?$Matrix@N$0?0$0?0$0A@$0?0$0?0@2@$0A@@Eigen@@@?$Matrix@N$0?0$0?0$0A@$0?0$0?0@Eigen@@QEAA@AEBV?$Product@V?$TriangularView@$$CBV?$Transpose@$$CBV?$Matrix@N$0?0$0?0$00$0?0$0?0@Eigen@@@Eigen@@$00@Eigen@@V?$Matrix@N$0?0$0?0$0A@$0?0$0?0@2@$0A@@1@@Z
	??$?0V?$Product@V?$TriangularView@V?$Matrix@N$0?0$0?0$00$0?0$0?0@Eigen@@$01@Eigen@@V?$Matrix@N$0?0$02$0A@$02$02@2@$0A@@Eigen@@@?$Matrix@N$0?0$02$0A@$0?0$02@Eigen@@QEAA@AEBV?$Product@V?$TriangularView@V?$Matrix@N$0?0$0?0$00$0?0$0?0@Eigen@@$01@Eigen@@V?$Matrix@N$0?0$02$0A@$02$02@2@$0A@@1@@Z
	??$?0V?$Product@V?$TriangularView@V?$Matrix@N$0?0$0?0$00$0?0$0?0@Eigen@@$01@Eigen@@V?$Matrix@N$0?0$0?0$0A@$02$02@2@$0A@@Eigen@@@?$Matrix@N$0?0$0?0$0A@$0?0$02@Eigen@@QEAA@AEBV?$Product@V?$TriangularView@V?$Matrix@N$0?0$0?0$00$0?0$0?0@Eigen@@$01@Eigen@@V?$Matrix@N$0?0$0?0$0A@$02$02@2@$0A@@1@@Z
	??$?0V?$Product@V?$TriangularView@V?$Matrix@N$0?0$0?0$00$0?0$0?0@Eigen@@$01@Eigen@@V?$Matrix@N$0?0$0?0$0A@$0?0$0?0@2@$0A@@Eigen@@@?$Matrix@N$0?0$0?0$0A@$0?0$0?0@Eigen@@QEAA@AEBV?$Product@V?$TriangularView@V?$Matrix@N$0?0$0?0$00$0?0$0?0@Eigen@@$01@Eigen@@V?$Matrix@N$0?0$0?0$0A@$0?0$0?0@2@$0A@@1@@Z
	??$?0V?$Transpose@$$CBV?$Block@$$CBV?$Product@V?$Matrix@N$0?0$0?0$0A@$0?0$0?0@Eigen@@V?$DiagonalWrapper@$$CBV?$Matrix@N$0?0$00$0A@$0?0$00@Eigen@@@2@$00@Eigen@@$00$0?0$0A@@Eigen@@@Eigen@@@?$Matrix@N$0?0$00$0A@$0?0$00@Eigen@@QEAA@AEBU?$EigenBase@V?$Transpose@$$CBV?$Block@$$CBV?$Product@V?$Matrix@N$0?0$0?0$0A@$0?0$0?0@Eigen@@V?$DiagonalWrapper@$$CBV?$Matrix@N$0?0$00$0A@$0?0$00@Eigen@@@2@$00@Eigen@@$00$0?0$0A@@Eigen@@@Eigen@@@1@@Z
	??$?0V?$Transpose@$$CBV?$Block@$$CBV?$Product@V?$Matrix@N$0?0$0?0$0A@$0?0$0?0@Eigen@@V?$DiagonalWrapper@$$CBV?$Matrix@N$0?0$00$0A@$0?0$00@Eigen@@@2@$00@Eigen@@$00$0?0$0A@@Eigen@@@Eigen@@@?$PlainObjectBase@V?$Matrix@N$0?0$00$0A@$0?0$00@Eigen@@@Eigen@@IEAA@AEBV?$DenseBase@V?$Transpose@$$CBV?$Block@$$CBV?$Product@V?$Matrix@N$0?0$0?0$0A@$0?0$0?0@Eigen@@V?$DiagonalWrapper@$$CBV?$Matrix@N$0?0$00$0A@$0?0$00@Eigen@@@2@$00@Eigen@@$00$0?0$0A@@Eigen@@@Eigen@@@1@@Z
	??$?0V?$Transpose@$$CBV?$Matrix@N$0?0$0?0$0A@$0?0$0?0@Eigen@@@Eigen@@@?$Matrix@N$0?0$0?0$0A@$0?0$0?0@Eigen@@QEAA@AEBU?$EigenBase@V?$Transpose@$$CBV?$Matrix@N$0?0$0?0$0A@$0?0$0?0@Eigen@@@Eigen@@@1@@Z
	??$?0V?$Transpose@$$CBV?$Matrix@N$0?0$0?0$0A@$0?0$0?0@Eigen@@@Eigen@@@?$PlainObjectBase@V?$Matrix@N$0?0$0?0$0A@$0?0$0?0@Eigen@@@Eigen@@IEAA@AEBV?$DenseBase@V?$Transpose@$$CBV?$Matrix@N$0?0$0?0$0A@$0?0$0?0@Eigen@@@Eigen@@@1@@Z
	??$?0V?$Transpose@V?$Matrix@N$03$02$0A@$03$02@Eigen@@@Eigen@@@?$Matrix@N$02$03$0A@$02$03@Eigen@@QEAA@AEBU?$EigenBase@V?$Transpose@V?$Matrix@N$03$02$0A@$03$02@Eigen@@@Eigen@@@1@@Z
	??$?0V?$Transpose@V?$Matrix@N$03$02$0A@$03$02@Eigen@@@Eigen@@@?$PlainObjectBase@V?$Matrix@N$02$03$0A@$02$03@Eigen@@@Eigen@@IEAA@AEBV?$DenseBase@V?$Transpose@V?$Matrix@N$03$02$0A@$03$02@Eigen@@@Eigen@@@1@@Z
	??$?0V?$allocator@D@std@@$$V@?$_Compressed_pair@V?$allocator@D@std@@V?$_String_val@U?$_Simple_types@D@std@@@2@$00@std@@QEAA@U_One_then_variadic_args_t@1@$$QEAV?$allocator@D@1@@Z
	??$?0V?$tuple@AEBH@std@@V?$tuple@$$V@1@$0A@$$Z$S@?$pair@$$CBHH@std@@AEAA@AEAV?$tuple@AEBH@1@AEAV?$tuple@$$V@1@U?$integer_sequence@_K$0A@@1@U?$integer_sequence@_K$S@1@@Z
	??$?0_J@?$Matrix@H$02$00$0A@$02$00@Eigen@@QEAA@AEB_J@Z
	??$?0_J@?$Matrix@N$00$02$00$00$02@Eigen@@QEAA@AEB_J@Z
	??$?0_J@?$Matrix@N$02$00$0A@$02$00@Eigen@@QEAA@AEB_J@Z
	??$?0_J@?$Matrix@_N$02$00$0A@$02$00@Eigen@@QEAA@AEB_J@Z
	??$?0_J_J@?$Matrix@N$02$00$0A@$02$00@Eigen@@QEAA@AEB_J0@Z
	??$?0_J_J@?$Matrix@N$02$02$0A@$02$02@Eigen@@QEAA@AEB_J0@Z
	??$?0_J_J@?$Matrix@N$0?0$0?0$00$0?0$0?0@Eigen@@QEAA@AEB_J0@Z
	??$?0_J_J@?$Matrix@N$0?0$0?0$0A@$0?0$0?0@Eigen@@QEAA@AEB_J0@Z
	??$?0_KH@?$Matrix@N$0?0$0?0$0A@$0?0$0?0@Eigen@@QEAA@AEB_KAEBH@Z
	??$?4V?$Block@$$CBV?$Block@$$CBV?$Matrix@N$02$03$0A@$02$03@Eigen@@$02$00$0A@@Eigen@@$00$00$0A@@Eigen@@@?$MatrixBase@V?$Block@V?$Matrix@N$02$00$0A@$02$00@Eigen@@$00$00$0A@@Eigen@@@Eigen@@QEAAAEAV?$Block@V?$Matrix@N$02$00$0A@$02$00@Eigen@@$00$00$0A@@1@AEBV?$DenseBase@V?$Block@$$CBV?$Block@$$CBV?$Matrix@N$02$03$0A@$02$03@Eigen@@$02$00$0A@@Eigen@@$00$00$0A@@Eigen@@@1@@Z
	??$?4V?$Block@V?$Matrix@N$02$03$0A@$02$03@Eigen@@$00$03$0A@@Eigen@@@?$Matrix@N$03$00$0A@$03$00@Eigen@@QEAAAEAV01@AEBV?$DenseBase@V?$Block@V?$Matrix@N$02$03$0A@$02$03@Eigen@@$00$03$0A@@Eigen@@@1@@Z
	??$?4V?$Block@V?$Matrix@N$0?0$0?0$00$0?0$0?0@Eigen@@$0?0$00$0A@@Eigen@@@?$MatrixBase@V?$Map@V?$Matrix@N$0?0$00$0A@$0?0$00@Eigen@@$01V?$Stride@$0A@$0A@@2@@Eigen@@@Eigen@@QEAAAEAV?$Map@V?$Matrix@N$0?0$00$0A@$0?0$00@Eigen@@$01V?$Stride@$0A@$0A@@2@@1@AEBV?$DenseBase@V?$Block@V?$Matrix@N$0?0$0?0$00$0?0$0?0@Eigen@@$0?0$00$0A@@Eigen@@@1@@Z
	??$?4V?$Block@V?$Matrix@N$0?0$0?0$0A@$0?0$0?0@Eigen@@$0?0$00$00@Eigen@@@?$Matrix@N$03$00$0A@$03$00@Eigen@@QEAAAEAV01@AEBV?$DenseBase@V?$Block@V?$Matrix@N$0?0$0?0$0A@$0?0$0?0@Eigen@@$0?0$00$00@Eigen@@@1@@Z
	??$?4V?$Block@V?$Matrix@N$0?0$0?0$0A@$0?0$0?0@Eigen@@$0?0$00$00@Eigen@@@?$MatrixBase@V?$Map@V?$Matrix@N$0?0$00$0A@$0?0$00@Eigen@@$01V?$Stride@$0A@$0A@@2@@Eigen@@@Eigen@@QEAAAEAV?$Map@V?$Matrix@N$0?0$00$0A@$0?0$00@Eigen@@$01V?$Stride@$0A@$0A@@2@@1@AEBV?$DenseBase@V?$Block@V?$Matrix@N$0?0$0?0$0A@$0?0$0?0@Eigen@@$0?0$00$00@Eigen@@@1@@Z
	??$?4V?$Block@V?$Ref@V?$Matrix@N$0?0$0?0$0A@$0?0$0?0@Eigen@@$0A@V?$OuterStride@$0?0@2@@Eigen@@$0?0$00$00@Eigen@@@?$MatrixBase@V?$Map@V?$Matrix@N$0?0$00$0A@$0?0$00@Eigen@@$01V?$Stride@$0A@$0A@@2@@Eigen@@@Eigen@@QEAAAEAV?$Map@V?$Matrix@N$0?0$00$0A@$0?0$00@Eigen@@$01V?$Stride@$0A@$0A@@2@@1@AEBV?$DenseBase@V?$Block@V?$Ref@V?$Matrix@N$0?0$0?0$0A@$0?0$0?0@Eigen@@$0A@V?$OuterStride@$0?0@2@@Eigen@@$0?0$00$00@Eigen@@@1@@Z
	??$?4V?$CwiseBinaryOp@U?$scalar_difference_op@NN@internal@Eigen@@$$CBV?$CwiseBinaryOp@U?$scalar_difference_op@NN@internal@Eigen@@$$CBV?$Matrix@N$03$00$0A@$03$00@3@$$CBV?$CwiseBinaryOp@U?$scalar_product_op@NN@internal@Eigen@@$$CBV?$Matrix@N$03$00$0A@$03$00@3@$$CBV?$CwiseNullaryOp@U?$scalar_constant_op@N@internal@Eigen@@$$CBV?$Matrix@N$03$00$0A@$03$00@3@@3@@3@@3@$$CBV?$CwiseBinaryOp@U?$scalar_product_op@NN@internal@Eigen@@$$CBV?$Matrix@N$03$00$0A@$03$00@3@$$CBV?$CwiseNullaryOp@U?$scalar_constant_op@N@internal@Eigen@@$$CBV?$Matrix@N$03$00$0A@$03$00@3@@3@@3@@Eigen@@@?$Matrix@N$03$00$0A@$03$00@Eigen@@QEAAAEAV01@AEBV?$DenseBase@V?$CwiseBinaryOp@U?$scalar_difference_op@NN@internal@Eigen@@$$CBV?$CwiseBinaryOp@U?$scalar_difference_op@NN@internal@Eigen@@$$CBV?$Matrix@N$03$00$0A@$03$00@3@$$CBV?$CwiseBinaryOp@U?$scalar_product_op@NN@internal@Eigen@@$$CBV?$Matrix@N$03$00$0A@$03$00@3@$$CBV?$CwiseNullaryOp@U?$scalar_constant_op@N@internal@Eigen@@$$CBV?$Matrix@N$03$00$0A@$03$00@3@@3@@3@@3@$$CBV?$CwiseBinaryOp@U?$scalar_product_op@NN@internal@Eigen@@$$CBV?$Matrix@N$03$00$0A@$03$00@3@$$CBV?$CwiseNullaryOp@U?$scalar_constant_op@N@internal@Eigen@@$$CBV?$Matrix@N$03$00$0A@$03$00@3@@3@@3@@Eigen@@@1@@Z
	??$?4V?$CwiseBinaryOp@U?$scalar_difference_op@NN@internal@Eigen@@$$CBV?$CwiseBinaryOp@U?$scalar_quotient_op@NN@internal@Eigen@@$$CBV?$Matrix@N$03$00$0A@$03$00@3@$$CBV?$CwiseNullaryOp@U?$scalar_constant_op@N@internal@Eigen@@$$CBV?$Matrix@N$03$00$0A@$03$00@3@@3@@3@$$CBV?$Matrix@N$03$00$0A@$03$00@3@@Eigen@@@?$Matrix@N$03$00$0A@$03$00@Eigen@@QEAAAEAV01@AEBV?$DenseBase@V?$CwiseBinaryOp@U?$scalar_difference_op@NN@internal@Eigen@@$$CBV?$CwiseBinaryOp@U?$scalar_quotient_op@NN@internal@Eigen@@$$CBV?$Matrix@N$03$00$0A@$03$00@3@$$CBV?$CwiseNullaryOp@U?$scalar_constant_op@N@internal@Eigen@@$$CBV?$Matrix@N$03$00$0A@$03$00@3@@3@@3@$$CBV?$Matrix@N$03$00$0A@$03$00@3@@Eigen@@@1@@Z
	??$?4V?$CwiseBinaryOp@U?$scalar_difference_op@NN@internal@Eigen@@$$CBV?$Matrix@N$03$00$0A@$03$00@3@$$CBV?$CwiseBinaryOp@U?$scalar_product_op@NN@internal@Eigen@@$$CBV?$Matrix@N$03$00$0A@$03$00@3@$$CBV?$CwiseNullaryOp@U?$scalar_constant_op@N@internal@Eigen@@$$CBV?$Matrix@N$03$00$0A@$03$00@3@@3@@3@@Eigen@@@?$Matrix@N$03$00$0A@$03$00@Eigen@@QEAAAEAV01@AEBV?$DenseBase@V?$CwiseBinaryOp@U?$scalar_difference_op@NN@internal@Eigen@@$$CBV?$Matrix@N$03$00$0A@$03$00@3@$$CBV?$CwiseBinaryOp@U?$scalar_product_op@NN@internal@Eigen@@$$CBV?$Matrix@N$03$00$0A@$03$00@3@$$CBV?$CwiseNullaryOp@U?$scalar_constant_op@N@internal@Eigen@@$$CBV?$Matrix@N$03$00$0A@$03$00@3@@3@@3@@Eigen@@@1@@Z
	??$?4V?$CwiseBinaryOp@U?$scalar_product_op@NN@internal@Eigen@@$$CBV?$CwiseNullaryOp@U?$scalar_constant_op@N@internal@Eigen@@$$CBV?$Matrix@N$00$03$00$00$03@3@@3@$$CBV?$Transpose@V?$Matrix@N$03$00$0A@$03$00@Eigen@@@3@@Eigen@@@?$MatrixBase@V?$Block@V?$Matrix@N$0?0$0?0$0A@$0?0$0?0@Eigen@@$00$03$0A@@Eigen@@@Eigen@@QEAAAEAV?$Block@V?$Matrix@N$0?0$0?0$0A@$0?0$0?0@Eigen@@$00$03$0A@@1@AEBV?$DenseBase@V?$CwiseBinaryOp@U?$scalar_product_op@NN@internal@Eigen@@$$CBV?$CwiseNullaryOp@U?$scalar_constant_op@N@internal@Eigen@@$$CBV?$Matrix@N$00$03$00$00$03@3@@3@$$CBV?$Transpose@V?$Matrix@N$03$00$0A@$03$00@Eigen@@@3@@Eigen@@@1@@Z
	??$?4V?$CwiseBinaryOp@U?$scalar_product_op@NN@internal@Eigen@@$$CBV?$CwiseNullaryOp@U?$scalar_constant_op@N@internal@Eigen@@$$CBV?$Matrix@N$0?0$00$0A@$0?0$00@3@@3@$$CBV?$Block@$$CBV?$Matrix@N$0?0$0?0$0A@$0?0$0?0@Eigen@@$0?0$00$0A@@3@@Eigen@@@?$MatrixBase@V?$Map@V?$Matrix@N$0?0$00$0A@$0?0$00@Eigen@@$0BA@V?$Stride@$0A@$0A@@2@@Eigen@@@Eigen@@QEAAAEAV?$Map@V?$Matrix@N$0?0$00$0A@$0?0$00@Eigen@@$0BA@V?$Stride@$0A@$0A@@2@@1@AEBV?$DenseBase@V?$CwiseBinaryOp@U?$scalar_product_op@NN@internal@Eigen@@$$CBV?$CwiseNullaryOp@U?$scalar_constant_op@N@internal@Eigen@@$$CBV?$Matrix@N$0?0$00$0A@$0?0$00@3@@3@$$CBV?$Block@$$CBV?$Matrix@N$0?0$0?0$0A@$0?0$0?0@Eigen@@$0?0$00$0A@@3@@Eigen@@@1@@Z
	??$?4V?$CwiseBinaryOp@U?$scalar_product_op@NN@internal@Eigen@@$$CBV?$CwiseNullaryOp@U?$scalar_constant_op@N@internal@Eigen@@$$CBV?$Matrix@N$0?0$00$0A@$0?0$00@3@@3@$$CBV?$Block@V?$Block@V?$Matrix@N$0?0$0?0$0A@$0?0$0?0@Eigen@@$0?0$00$00@Eigen@@$0?0$00$0A@@3@@Eigen@@@?$MatrixBase@V?$Map@V?$Matrix@N$0?0$00$0A@$0?0$00@Eigen@@$0BA@V?$Stride@$0A@$0A@@2@@Eigen@@@Eigen@@QEAAAEAV?$Map@V?$Matrix@N$0?0$00$0A@$0?0$00@Eigen@@$0BA@V?$Stride@$0A@$0A@@2@@1@AEBV?$DenseBase@V?$CwiseBinaryOp@U?$scalar_product_op@NN@internal@Eigen@@$$CBV?$CwiseNullaryOp@U?$scalar_constant_op@N@internal@Eigen@@$$CBV?$Matrix@N$0?0$00$0A@$0?0$00@3@@3@$$CBV?$Block@V?$Block@V?$Matrix@N$0?0$0?0$0A@$0?0$0?0@Eigen@@$0?0$00$00@Eigen@@$0?0$00$0A@@3@@Eigen@@@1@@Z
	??$?4V?$CwiseBinaryOp@U?$scalar_product_op@NN@internal@Eigen@@$$CBV?$CwiseNullaryOp@U?$scalar_constant_op@N@internal@Eigen@@$$CBV?$Matrix@N$0?0$00$0A@$0?0$00@3@@3@$$CBV?$Map@V?$Matrix@N$0?0$00$0A@$0?0$00@Eigen@@$0A@V?$Stride@$0A@$0A@@2@@3@@Eigen@@@?$MatrixBase@V?$Map@V?$Matrix@N$0?0$00$0A@$0?0$00@Eigen@@$0BA@V?$Stride@$0A@$0A@@2@@Eigen@@@Eigen@@QEAAAEAV?$Map@V?$Matrix@N$0?0$00$0A@$0?0$00@Eigen@@$0BA@V?$Stride@$0A@$0A@@2@@1@AEBV?$DenseBase@V?$CwiseBinaryOp@U?$scalar_product_op@NN@internal@Eigen@@$$CBV?$CwiseNullaryOp@U?$scalar_constant_op@N@internal@Eigen@@$$CBV?$Matrix@N$0?0$00$0A@$0?0$00@3@@3@$$CBV?$Map@V?$Matrix@N$0?0$00$0A@$0?0$00@Eigen@@$0A@V?$Stride@$0A@$0A@@2@@3@@Eigen@@@1@@Z
	??$?4V?$CwiseBinaryOp@U?$scalar_product_op@NN@internal@Eigen@@$$CBV?$Matrix@N$02$00$0A@$02$00@3@$$CBV?$CwiseNullaryOp@U?$scalar_constant_op@N@internal@Eigen@@$$CBV?$Matrix@N$02$00$0A@$02$00@3@@3@@Eigen@@@?$MatrixBase@V?$Block@V?$Matrix@N$02$02$0A@$02$02@Eigen@@$00$02$0A@@Eigen@@@Eigen@@QEAAAEAV?$Block@V?$Matrix@N$02$02$0A@$02$02@Eigen@@$00$02$0A@@1@AEBV?$DenseBase@V?$CwiseBinaryOp@U?$scalar_product_op@NN@internal@Eigen@@$$CBV?$Matrix@N$02$00$0A@$02$00@3@$$CBV?$CwiseNullaryOp@U?$scalar_constant_op@N@internal@Eigen@@$$CBV?$Matrix@N$02$00$0A@$02$00@3@@3@@Eigen@@@1@@Z
	??$?4V?$CwiseBinaryOp@U?$scalar_product_op@NN@internal@Eigen@@$$CBV?$Matrix@N$02$03$0A@$02$03@3@$$CBV?$CwiseNullaryOp@U?$scalar_constant_op@N@internal@Eigen@@$$CBV?$Matrix@N$02$03$0A@$02$03@3@@3@@Eigen@@@?$Matrix@N$02$03$0A@$02$03@Eigen@@QEAAAEAV01@AEBV?$DenseBase@V?$CwiseBinaryOp@U?$scalar_product_op@NN@internal@Eigen@@$$CBV?$Matrix@N$02$03$0A@$02$03@3@$$CBV?$CwiseNullaryOp@U?$scalar_constant_op@N@internal@Eigen@@$$CBV?$Matrix@N$02$03$0A@$02$03@3@@3@@Eigen@@@1@@Z
	??$?4V?$CwiseBinaryOp@U?$scalar_product_op@NN@internal@Eigen@@$$CBV?$Matrix@N$03$00$0A@$03$00@3@$$CBV?$CwiseNullaryOp@U?$scalar_constant_op@N@internal@Eigen@@$$CBV?$Matrix@N$03$00$0A@$03$00@3@@3@@Eigen@@@?$Matrix@N$03$00$0A@$03$00@Eigen@@QEAAAEAV01@AEBV?$DenseBase@V?$CwiseBinaryOp@U?$scalar_product_op@NN@internal@Eigen@@$$CBV?$Matrix@N$03$00$0A@$03$00@3@$$CBV?$CwiseNullaryOp@U?$scalar_constant_op@N@internal@Eigen@@$$CBV?$Matrix@N$03$00$0A@$03$00@3@@3@@Eigen@@@1@@Z
	??$?4V?$CwiseBinaryOp@U?$scalar_quotient_op@NN@internal@Eigen@@$$CBV?$Block@$$CBV?$Block@V?$Block@V?$Block@V?$Matrix@N$02$02$0A@$02$02@Eigen@@$0?0$0?0$0A@@Eigen@@$0?0$00$00@Eigen@@$0?0$00$0A@@Eigen@@$0?0$00$0A@@3@$$CBV?$CwiseNullaryOp@U?$scalar_constant_op@N@internal@Eigen@@$$CBV?$Matrix@N$0?0$00$0A@$02$00@3@@3@@Eigen@@@?$MatrixBase@V?$Block@V?$Block@V?$Block@V?$Block@V?$Matrix@N$02$02$0A@$02$02@Eigen@@$0?0$0?0$0A@@Eigen@@$0?0$00$00@Eigen@@$0?0$00$0A@@Eigen@@$0?0$00$0A@@Eigen@@@Eigen@@QEAAAEAV?$Block@V?$Block@V?$Block@V?$Block@V?$Matrix@N$02$02$0A@$02$02@Eigen@@$0?0$0?0$0A@@Eigen@@$0?0$00$00@Eigen@@$0?0$00$0A@@Eigen@@$0?0$00$0A@@1@AEBV?$DenseBase@V?$CwiseBinaryOp@U?$scalar_quotient_op@NN@internal@Eigen@@$$CBV?$Block@$$CBV?$Block@V?$Block@V?$Block@V?$Matrix@N$02$02$0A@$02$02@Eigen@@$0?0$0?0$0A@@Eigen@@$0?0$00$00@Eigen@@$0?0$00$0A@@Eigen@@$0?0$00$0A@@3@$$CBV?$CwiseNullaryOp@U?$scalar_constant_op@N@internal@Eigen@@$$CBV?$Matrix@N$0?0$00$0A@$02$00@3@@3@@Eigen@@@1@@Z
	??$?4V?$CwiseBinaryOp@U?$scalar_quotient_op@NN@internal@Eigen@@$$CBV?$Block@$$CBV?$Block@V?$Block@V?$Matrix@N$0?0$0?0$0A@$0?0$0?0@Eigen@@$0?0$00$00@Eigen@@$0?0$00$0A@@Eigen@@$0?0$00$0A@@3@$$CBV?$CwiseNullaryOp@U?$scalar_constant_op@N@internal@Eigen@@$$CBV?$Matrix@N$0?0$00$0A@$0?0$00@3@@3@@Eigen@@@?$MatrixBase@V?$Block@V?$Block@V?$Block@V?$Matrix@N$0?0$0?0$0A@$0?0$0?0@Eigen@@$0?0$00$00@Eigen@@$0?0$00$0A@@Eigen@@$0?0$00$0A@@Eigen@@@Eigen@@QEAAAEAV?$Block@V?$Block@V?$Block@V?$Matrix@N$0?0$0?0$0A@$0?0$0?0@Eigen@@$0?0$00$00@Eigen@@$0?0$00$0A@@Eigen@@$0?0$00$0A@@1@AEBV?$DenseBase@V?$CwiseBinaryOp@U?$scalar_quotient_op@NN@internal@Eigen@@$$CBV?$Block@$$CBV?$Block@V?$Block@V?$Matrix@N$0?0$0?0$0A@$0?0$0?0@Eigen@@$0?0$00$00@Eigen@@$0?0$00$0A@@Eigen@@$0?0$00$0A@@3@$$CBV?$CwiseNullaryOp@U?$scalar_constant_op@N@internal@Eigen@@$$CBV?$Matrix@N$0?0$00$0A@$0?0$00@3@@3@@Eigen@@@1@@Z
	??$?4V?$CwiseBinaryOp@U?$scalar_quotient_op@NN@internal@Eigen@@$$CBV?$Block@$$CBV?$Matrix@N$02$03$0A@$02$03@Eigen@@$0?0$0?0$0A@@3@$$CBV?$CwiseNullaryOp@U?$scalar_constant_op@N@internal@Eigen@@$$CBV?$Matrix@N$0?0$0?0$0A@$02$03@3@@3@@Eigen@@@?$Matrix@N$0?0$0?0$0A@$0?0$0?0@Eigen@@QEAAAEAV01@AEBV?$DenseBase@V?$CwiseBinaryOp@U?$scalar_quotient_op@NN@internal@Eigen@@$$CBV?$Block@$$CBV?$Matrix@N$02$03$0A@$02$03@Eigen@@$0?0$0?0$0A@@3@$$CBV?$CwiseNullaryOp@U?$scalar_constant_op@N@internal@Eigen@@$$CBV?$Matrix@N$0?0$0?0$0A@$02$03@3@@3@@Eigen@@@1@@Z
	??$?4V?$CwiseBinaryOp@U?$scalar_quotient_op@NN@internal@Eigen@@$$CBV?$Block@$$CBV?$Matrix@N$0?0$0?0$0A@$0?0$0?0@Eigen@@$0?0$0?0$0A@@3@$$CBV?$CwiseNullaryOp@U?$scalar_constant_op@N@internal@Eigen@@$$CBV?$Matrix@N$0?0$0?0$0A@$0?0$0?0@3@@3@@Eigen@@@?$Matrix@N$0?0$0?0$0A@$0?0$0?0@Eigen@@QEAAAEAV01@AEBV?$DenseBase@V?$CwiseBinaryOp@U?$scalar_quotient_op@NN@internal@Eigen@@$$CBV?$Block@$$CBV?$Matrix@N$0?0$0?0$0A@$0?0$0?0@Eigen@@$0?0$0?0$0A@@3@$$CBV?$CwiseNullaryOp@U?$scalar_constant_op@N@internal@Eigen@@$$CBV?$Matrix@N$0?0$0?0$0A@$0?0$0?0@3@@3@@Eigen@@@1@@Z
	??$?4V?$CwiseBinaryOp@U?$scalar_quotient_op@NN@internal@Eigen@@$$CBV?$Matrix@N$02$03$0A@$02$03@3@$$CBV?$CwiseNullaryOp@U?$scalar_constant_op@N@internal@Eigen@@$$CBV?$Matrix@N$02$03$0A@$02$03@3@@3@@Eigen@@@?$Matrix@N$0?0$0?0$0A@$0?0$0?0@Eigen@@QEAAAEAV01@AEBV?$DenseBase@V?$CwiseBinaryOp@U?$scalar_quotient_op@NN@internal@Eigen@@$$CBV?$Matrix@N$02$03$0A@$02$03@3@$$CBV?$CwiseNullaryOp@U?$scalar_constant_op@N@internal@Eigen@@$$CBV?$Matrix@N$02$03$0A@$02$03@3@@3@@Eigen@@@1@@Z
	??$?4V?$CwiseBinaryOp@U?$scalar_quotient_op@NN@internal@Eigen@@$$CBV?$Matrix@N$03$00$0A@$03$00@3@$$CBV?$CwiseNullaryOp@U?$scalar_constant_op@N@internal@Eigen@@$$CBV?$Matrix@N$03$00$0A@$03$00@3@@3@@Eigen@@@?$Matrix@N$03$00$0A@$03$00@Eigen@@QEAAAEAV01@AEBV?$DenseBase@V?$CwiseBinaryOp@U?$scalar_quotient_op@NN@internal@Eigen@@$$CBV?$Matrix@N$03$00$0A@$03$00@3@$$CBV?$CwiseNullaryOp@U?$scalar_constant_op@N@internal@Eigen@@$$CBV?$Matrix@N$03$00$0A@$03$00@3@@3@@Eigen@@@1@@Z
	??$?4V?$CwiseBinaryOp@U?$scalar_quotient_op@NN@internal@Eigen@@$$CBV?$Matrix@N$0?0$0?0$0A@$0?0$0?0@3@$$CBV?$CwiseNullaryOp@U?$scalar_constant_op@N@internal@Eigen@@$$CBV?$Matrix@N$0?0$0?0$0A@$0?0$0?0@3@@3@@Eigen@@@?$Matrix@N$0?0$0?0$0A@$0?0$0?0@Eigen@@QEAAAEAV01@AEBV?$DenseBase@V?$CwiseBinaryOp@U?$scalar_quotient_op@NN@internal@Eigen@@$$CBV?$Matrix@N$0?0$0?0$0A@$0?0$0?0@3@$$CBV?$CwiseNullaryOp@U?$scalar_constant_op@N@internal@Eigen@@$$CBV?$Matrix@N$0?0$0?0$0A@$0?0$0?0@3@@3@@Eigen@@@1@@Z
	??$?4V?$CwiseNullaryOp@U?$scalar_constant_op@N@internal@Eigen@@V?$Matrix@N$02$02$0A@$02$02@3@@Eigen@@@?$TriangularViewImpl@V?$Matrix@N$02$02$0A@$02$02@Eigen@@$09UDense@2@@Eigen@@QEAAAEAV?$TriangularView@V?$Matrix@N$02$02$0A@$02$02@Eigen@@$09@1@AEBV?$MatrixBase@V?$CwiseNullaryOp@U?$scalar_constant_op@N@internal@Eigen@@V?$Matrix@N$02$02$0A@$02$02@3@@Eigen@@@1@@Z
	??$?4V?$CwiseNullaryOp@U?$scalar_constant_op@N@internal@Eigen@@V?$Matrix@N$0?0$0?0$0A@$0?0$0?0@3@@Eigen@@@?$TriangularViewImpl@V?$Matrix@N$0?0$0?0$0A@$0?0$0?0@Eigen@@$09UDense@2@@Eigen@@QEAAAEAV?$TriangularView@V?$Matrix@N$0?0$0?0$0A@$0?0$0?0@Eigen@@$09@1@AEBV?$MatrixBase@V?$CwiseNullaryOp@U?$scalar_constant_op@N@internal@Eigen@@V?$Matrix@N$0?0$0?0$0A@$0?0$0?0@3@@Eigen@@@1@@Z
	??$?4V?$CwiseNullaryOp@U?$scalar_identity_op@N@internal@Eigen@@V?$Matrix@N$02$02$0A@$02$02@3@@Eigen@@@?$Matrix@N$02$02$0A@$02$02@Eigen@@QEAAAEAV01@AEBV?$DenseBase@V?$CwiseNullaryOp@U?$scalar_identity_op@N@internal@Eigen@@V?$Matrix@N$02$02$0A@$02$02@3@@Eigen@@@1@@Z
	??$?4V?$CwiseNullaryOp@U?$scalar_identity_op@N@internal@Eigen@@V?$Matrix@N$0?0$0?0$0A@$0?0$0?0@3@@Eigen@@@?$Matrix@N$0?0$0?0$0A@$0?0$0?0@Eigen@@QEAAAEAV01@AEBV?$DenseBase@V?$CwiseNullaryOp@U?$scalar_identity_op@N@internal@Eigen@@V?$Matrix@N$0?0$0?0$0A@$0?0$0?0@3@@Eigen@@@1@@Z
	??$?4V?$CwiseUnaryOp@U?$scalar_opposite_op@N@internal@Eigen@@$$CBV?$Block@V?$Matrix@N$0?0$0?0$0A@$0?0$0?0@Eigen@@$0?0$00$00@3@@Eigen@@@?$MatrixBase@V?$Block@V?$Matrix@N$0?0$0?0$0A@$0?0$0?0@Eigen@@$0?0$00$00@Eigen@@@Eigen@@QEAAAEAV?$Block@V?$Matrix@N$0?0$0?0$0A@$0?0$0?0@Eigen@@$0?0$00$00@1@AEBV?$DenseBase@V?$CwiseUnaryOp@U?$scalar_opposite_op@N@internal@Eigen@@$$CBV?$Block@V?$Matrix@N$0?0$0?0$0A@$0?0$0?0@Eigen@@$0?0$00$00@3@@Eigen@@@1@@Z
	??$?4V?$DiagonalWrapper@$$CBV?$Matrix@N$0?0$00$0A@$0?0$00@Eigen@@@Eigen@@@?$MatrixBase@V?$Block@V?$Matrix@N$0?0$0?0$0A@$0?0$0?0@Eigen@@$0?0$0?0$0A@@Eigen@@@Eigen@@QEAAAEAV?$Block@V?$Matrix@N$0?0$0?0$0A@$0?0$0?0@Eigen@@$0?0$0?0$0A@@1@AEBU?$EigenBase@V?$DiagonalWrapper@$$CBV?$Matrix@N$0?0$00$0A@$0?0$00@Eigen@@@Eigen@@@1@@Z
	??$?4V?$HouseholderSequence@V?$Matrix@N$02$02$0A@$02$02@Eigen@@V?$Matrix@N$02$00$0A@$02$00@2@$00@Eigen@@@?$Matrix@N$02$02$0A@$02$02@Eigen@@QEAAAEAV01@AEBU?$EigenBase@V?$HouseholderSequence@V?$Matrix@N$02$02$0A@$02$02@Eigen@@V?$Matrix@N$02$00$0A@$02$00@2@$00@Eigen@@@1@@Z
	??$?4V?$HouseholderSequence@V?$Matrix@N$02$02$0A@$02$02@Eigen@@V?$Matrix@N$02$00$0A@$02$00@2@$00@Eigen@@@?$MatrixBase@V?$Matrix@N$02$02$0A@$02$02@Eigen@@@Eigen@@QEAAAEAV?$Matrix@N$02$02$0A@$02$02@1@AEBU?$EigenBase@V?$HouseholderSequence@V?$Matrix@N$02$02$0A@$02$02@Eigen@@V?$Matrix@N$02$00$0A@$02$00@2@$00@Eigen@@@1@@Z
	??$?4V?$HouseholderSequence@V?$Matrix@N$02$02$0A@$02$02@Eigen@@V?$Matrix@N$02$00$0A@$02$00@2@$00@Eigen@@@?$PlainObjectBase@V?$Matrix@N$02$02$0A@$02$02@Eigen@@@Eigen@@QEAAAEAV?$Matrix@N$02$02$0A@$02$02@1@AEBU?$EigenBase@V?$HouseholderSequence@V?$Matrix@N$02$02$0A@$02$02@Eigen@@V?$Matrix@N$02$00$0A@$02$00@2@$00@Eigen@@@1@@Z
	??$?4V?$Map@V?$Matrix@N$0?0$00$0A@$0?0$00@Eigen@@$01V?$Stride@$0A@$0A@@2@@Eigen@@@?$MatrixBase@V?$Block@V?$Matrix@N$0?0$0?0$00$0?0$0?0@Eigen@@$0?0$00$0A@@Eigen@@@Eigen@@QEAAAEAV?$Block@V?$Matrix@N$0?0$0?0$00$0?0$0?0@Eigen@@$0?0$00$0A@@1@AEBV?$DenseBase@V?$Map@V?$Matrix@N$0?0$00$0A@$0?0$00@Eigen@@$01V?$Stride@$0A@$0A@@2@@Eigen@@@1@@Z
	??$?4V?$Map@V?$Matrix@N$0?0$00$0A@$0?0$00@Eigen@@$01V?$Stride@$0A@$0A@@2@@Eigen@@@?$MatrixBase@V?$Block@V?$Matrix@N$0?0$0?0$0A@$0?0$0?0@Eigen@@$0?0$00$00@Eigen@@@Eigen@@QEAAAEAV?$Block@V?$Matrix@N$0?0$0?0$0A@$0?0$0?0@Eigen@@$0?0$00$00@1@AEBV?$DenseBase@V?$Map@V?$Matrix@N$0?0$00$0A@$0?0$00@Eigen@@$01V?$Stride@$0A@$0A@@2@@Eigen@@@1@@Z
	??$?4V?$Map@V?$Matrix@N$0?0$00$0A@$0?0$00@Eigen@@$01V?$Stride@$0A@$0A@@2@@Eigen@@@?$MatrixBase@V?$Block@V?$Ref@V?$Matrix@N$0?0$0?0$0A@$0?0$0?0@Eigen@@$0A@V?$OuterStride@$0?0@2@@Eigen@@$0?0$00$00@Eigen@@@Eigen@@QEAAAEAV?$Block@V?$Ref@V?$Matrix@N$0?0$0?0$0A@$0?0$0?0@Eigen@@$0A@V?$OuterStride@$0?0@2@@Eigen@@$0?0$00$00@1@AEBV?$DenseBase@V?$Map@V?$Matrix@N$0?0$00$0A@$0?0$00@Eigen@@$01V?$Stride@$0A@$0A@@2@@Eigen@@@1@@Z
	??$?4V?$Map@V?$Matrix@N$0?0$00$0A@$0?0$00@Eigen@@$01V?$Stride@$0A@$0A@@2@@Eigen@@@?$MatrixBase@V?$Map@V?$Matrix@N$0?0$00$0A@$0?0$00@Eigen@@$0A@V?$Stride@$0A@$0A@@2@@Eigen@@@Eigen@@QEAAAEAV?$Map@V?$Matrix@N$0?0$00$0A@$0?0$00@Eigen@@$0A@V?$Stride@$0A@$0A@@2@@1@AEBV?$DenseBase@V?$Map@V?$Matrix@N$0?0$00$0A@$0?0$00@Eigen@@$01V?$Stride@$0A@$0A@@2@@Eigen@@@1@@Z
	??$?4V?$Map@V?$Matrix@N$0?0$00$0A@$0?0$00@Eigen@@$01V?$Stride@$0A@$0A@@2@@Eigen@@@?$MatrixBase@V?$Transpose@V?$Block@V?$Matrix@N$0?0$0?0$00$0?0$0?0@Eigen@@$00$0?0$00@Eigen@@@Eigen@@@Eigen@@QEAAAEAV?$Transpose@V?$Block@V?$Matrix@N$0?0$0?0$00$0?0$0?0@Eigen@@$00$0?0$00@Eigen@@@1@AEBV?$DenseBase@V?$Map@V?$Matrix@N$0?0$00$0A@$0?0$00@Eigen@@$01V?$Stride@$0A@$0A@@2@@Eigen@@@1@@Z
	??$?4V?$Map@V?$Matrix@N$0?0$00$0A@$0?0$00@Eigen@@$01V?$Stride@$0A@$0A@@2@@Eigen@@@?$MatrixBase@V?$Transpose@V?$Block@V?$Matrix@N$0?0$0?0$0A@$0?0$0?0@Eigen@@$00$0?0$0A@@Eigen@@@Eigen@@@Eigen@@QEAAAEAV?$Transpose@V?$Block@V?$Matrix@N$0?0$0?0$0A@$0?0$0?0@Eigen@@$00$0?0$0A@@Eigen@@@1@AEBV?$DenseBase@V?$Map@V?$Matrix@N$0?0$00$0A@$0?0$00@Eigen@@$01V?$Stride@$0A@$0A@@2@@Eigen@@@1@@Z
	??$?4V?$Map@V?$Matrix@N$0?0$00$0A@$0?0$00@Eigen@@$0A@V?$Stride@$0A@$0A@@2@@Eigen@@@?$MatrixBase@V?$Map@V?$Matrix@N$0?0$00$0A@$0?0$00@Eigen@@$01V?$Stride@$0A@$0A@@2@@Eigen@@@Eigen@@QEAAAEAV?$Map@V?$Matrix@N$0?0$00$0A@$0?0$00@Eigen@@$01V?$Stride@$0A@$0A@@2@@1@AEBV?$DenseBase@V?$Map@V?$Matrix@N$0?0$00$0A@$0?0$00@Eigen@@$0A@V?$Stride@$0A@$0A@@2@@Eigen@@@1@@Z
	??$?4V?$Matrix@N$02$00$0A@$02$00@Eigen@@@?$MatrixBase@V?$Block@V?$Matrix@N$03$00$0A@$03$00@Eigen@@$0?0$00$0A@@Eigen@@@Eigen@@QEAAAEAV?$Block@V?$Matrix@N$03$00$0A@$03$00@Eigen@@$0?0$00$0A@@1@AEBV?$DenseBase@V?$Matrix@N$02$00$0A@$02$00@Eigen@@@1@@Z
	??$?4V?$Matrix@N$02$02$0A@$02$02@Eigen@@@?$MatrixBase@V?$Block@V?$Matrix@N$02$03$0A@$02$03@Eigen@@$02$02$0A@@Eigen@@@Eigen@@QEAAAEAV?$Block@V?$Matrix@N$02$03$0A@$02$03@Eigen@@$02$02$0A@@1@AEBV?$DenseBase@V?$Matrix@N$02$02$0A@$02$02@Eigen@@@1@@Z
	??$?4V?$Matrix@N$0?0$00$0A@$0?0$00@Eigen@@@?$MatrixBase@V?$Diagonal@V?$Block@V?$Matrix@N$0?0$0?0$0A@$0?0$0?0@Eigen@@$0?0$0?0$0A@@Eigen@@$0A@@Eigen@@@Eigen@@QEAAAEAV?$Diagonal@V?$Block@V?$Matrix@N$0?0$0?0$0A@$0?0$0?0@Eigen@@$0?0$0?0$0A@@Eigen@@$0A@@1@AEBV?$DenseBase@V?$Matrix@N$0?0$00$0A@$0?0$00@Eigen@@@1@@Z
	??$?4V?$PermutationMatrix@$0?0$0?0H@Eigen@@@?$Matrix@N$0?0$0?0$0A@$0?0$0?0@Eigen@@QEAAAEAV01@AEBU?$EigenBase@V?$PermutationMatrix@$0?0$0?0H@Eigen@@@1@@Z
	??$?4V?$PermutationMatrix@$0?0$0?0H@Eigen@@@?$MatrixBase@V?$Matrix@N$0?0$0?0$0A@$0?0$0?0@Eigen@@@Eigen@@QEAAAEAV?$Matrix@N$0?0$0?0$0A@$0?0$0?0@1@AEBU?$EigenBase@V?$PermutationMatrix@$0?0$0?0H@Eigen@@@1@@Z
	??$?4V?$PermutationMatrix@$0?0$0?0H@Eigen@@@?$PlainObjectBase@V?$Matrix@N$0?0$0?0$0A@$0?0$0?0@Eigen@@@Eigen@@QEAAAEAV?$Matrix@N$0?0$0?0$0A@$0?0$0?0@1@AEBU?$EigenBase@V?$PermutationMatrix@$0?0$0?0H@Eigen@@@1@@Z
	??$?4V?$Product@V?$Block@V?$Block@V?$Matrix@N$02$02$0A@$02$02@Eigen@@$0?0$0?0$0A@@Eigen@@$0?0$0?0$0A@@Eigen@@V?$Block@$$CBV?$Matrix@N$02$02$0A@$02$02@Eigen@@$0?0$00$0A@@2@$0A@@Eigen@@@?$NoAlias@V?$Map@V?$Matrix@N$0?0$00$0A@$02$00@Eigen@@$0A@V?$Stride@$0A@$0A@@2@@Eigen@@VMatrixBase@2@@Eigen@@QEAAAEAV?$Map@V?$Matrix@N$0?0$00$0A@$02$00@Eigen@@$0A@V?$Stride@$0A@$0A@@2@@1@AEBV?$MatrixBase@V?$Product@V?$Block@V?$Block@V?$Matrix@N$02$02$0A@$02$02@Eigen@@$0?0$0?0$0A@@Eigen@@$0?0$0?0$0A@@Eigen@@V?$Block@$$CBV?$Matrix@N$02$02$0A@$02$02@Eigen@@$0?0$00$0A@@2@$0A@@Eigen@@@1@@Z
	??$?4V?$Product@V?$Block@V?$Block@V?$Matrix@N$0?0$0?0$0A@$0?0$0?0@Eigen@@$0?0$0?0$0A@@Eigen@@$0?0$0?0$0A@@Eigen@@V?$Block@$$CBV?$Matrix@N$0?0$0?0$0A@$0?0$0?0@Eigen@@$0?0$00$0A@@2@$0A@@Eigen@@@?$NoAlias@V?$Map@V?$Matrix@N$0?0$00$0A@$0?0$00@Eigen@@$0A@V?$Stride@$0A@$0A@@2@@Eigen@@VMatrixBase@2@@Eigen@@QEAAAEAV?$Map@V?$Matrix@N$0?0$00$0A@$0?0$00@Eigen@@$0A@V?$Stride@$0A@$0A@@2@@1@AEBV?$MatrixBase@V?$Product@V?$Block@V?$Block@V?$Matrix@N$0?0$0?0$0A@$0?0$0?0@Eigen@@$0?0$0?0$0A@@Eigen@@$0?0$0?0$0A@@Eigen@@V?$Block@$$CBV?$Matrix@N$0?0$0?0$0A@$0?0$0?0@Eigen@@$0?0$00$0A@@2@$0A@@Eigen@@@1@@Z
	??$?4V?$Product@V?$CwiseBinaryOp@U?$scalar_product_op@NN@internal@Eigen@@$$CBV?$CwiseNullaryOp@U?$scalar_constant_op@N@internal@Eigen@@$$CBV?$Matrix@N$00$0?0$00$00$02@3@@3@$$CBV?$Transpose@$$CBV?$Block@$$CBV?$Block@$$CBV?$Block@V?$Matrix@N$02$02$0A@$02$02@Eigen@@$0?0$0?0$0A@@Eigen@@$0?0$00$00@Eigen@@$0?0$00$0A@@Eigen@@@3@@Eigen@@V?$TriangularView@$$CBV?$Block@$$CBV?$Block@V?$Matrix@N$02$02$0A@$02$02@Eigen@@$0?0$0?0$0A@@Eigen@@$0?0$0?0$0A@@Eigen@@$04@2@$0A@@Eigen@@@?$NoAlias@V?$Block@V?$Block@V?$Matrix@N$0?0$0?0$00$0?0$0?0@Eigen@@$00$0?0$00@Eigen@@$00$0?0$0A@@Eigen@@VMatrixBase@2@@Eigen@@QEAAAEAV?$Block@V?$Block@V?$Matrix@N$0?0$0?0$00$0?0$0?0@Eigen@@$00$0?0$00@Eigen@@$00$0?0$0A@@1@AEBV?$MatrixBase@V?$Product@V?$CwiseBinaryOp@U?$scalar_product_op@NN@internal@Eigen@@$$CBV?$CwiseNullaryOp@U?$scalar_constant_op@N@internal@Eigen@@$$CBV?$Matrix@N$00$0?0$00$00$02@3@@3@$$CBV?$Transpose@$$CBV?$Block@$$CBV?$Block@$$CBV?$Block@V?$Matrix@N$02$02$0A@$02$02@Eigen@@$0?0$0?0$0A@@Eigen@@$0?0$00$00@Eigen@@$0?0$00$0A@@Eigen@@@3@@Eigen@@V?$TriangularView@$$CBV?$Block@$$CBV?$Block@V?$Matrix@N$02$02$0A@$02$02@Eigen@@$0?0$0?0$0A@@Eigen@@$0?0$0?0$0A@@Eigen@@$04@2@$0A@@Eigen@@@1@@Z
	??$?4V?$Product@V?$CwiseBinaryOp@U?$scalar_product_op@NN@internal@Eigen@@$$CBV?$CwiseNullaryOp@U?$scalar_constant_op@N@internal@Eigen@@$$CBV?$Matrix@N$00$0?0$00$00$0?0@3@@3@$$CBV?$Transpose@$$CBV?$Block@$$CBV?$Block@$$CBV?$Block@V?$Matrix@N$0?0$0?0$0A@$0?0$0?0@Eigen@@$0?0$0?0$0A@@Eigen@@$0?0$00$00@Eigen@@$0?0$00$0A@@Eigen@@@3@@Eigen@@V?$TriangularView@$$CBV?$Block@$$CBV?$Block@V?$Matrix@N$0?0$0?0$0A@$0?0$0?0@Eigen@@$0?0$0?0$0A@@Eigen@@$0?0$0?0$0A@@Eigen@@$04@2@$0A@@Eigen@@@?$NoAlias@V?$Block@V?$Block@V?$Matrix@N$0?0$0?0$00$0?0$0?0@Eigen@@$00$0?0$00@Eigen@@$00$0?0$0A@@Eigen@@VMatrixBase@2@@Eigen@@QEAAAEAV?$Block@V?$Block@V?$Matrix@N$0?0$0?0$00$0?0$0?0@Eigen@@$00$0?0$00@Eigen@@$00$0?0$0A@@1@AEBV?$MatrixBase@V?$Product@V?$CwiseBinaryOp@U?$scalar_product_op@NN@internal@Eigen@@$$CBV?$CwiseNullaryOp@U?$scalar_constant_op@N@internal@Eigen@@$$CBV?$Matrix@N$00$0?0$00$00$0?0@3@@3@$$CBV?$Transpose@$$CBV?$Block@$$CBV?$Block@$$CBV?$Block@V?$Matrix@N$0?0$0?0$0A@$0?0$0?0@Eigen@@$0?0$0?0$0A@@Eigen@@$0?0$00$00@Eigen@@$0?0$00$0A@@Eigen@@@3@@Eigen@@V?$TriangularView@$$CBV?$Block@$$CBV?$Block@V?$Matrix@N$0?0$0?0$0A@$0?0$0?0@Eigen@@$0?0$0?0$0A@@Eigen@@$0?0$0?0$0A@@Eigen@@$04@2@$0A@@Eigen@@@1@@Z
	??$?4V?$Product@V?$Matrix@N$02$02$0A@$02$02@Eigen@@V12@$0A@@Eigen@@@?$Matrix@N$02$02$0A@$02$02@Eigen@@QEAAAEAV01@AEBV?$DenseBase@V?$Product@V?$Matrix@N$02$02$0A@$02$02@Eigen@@V12@$0A@@Eigen@@@1@@Z
	??$?4V?$Product@V?$Matrix@N$02$02$0A@$02$02@Eigen@@V?$Matrix@N$02$00$0A@$02$00@2@$0A@@Eigen@@@?$MatrixBase@V?$Block@V?$Matrix@N$02$03$0A@$02$03@Eigen@@$02$00$0A@@Eigen@@@Eigen@@QEAAAEAV?$Block@V?$Matrix@N$02$03$0A@$02$03@Eigen@@$02$00$0A@@1@AEBV?$DenseBase@V?$Product@V?$Matrix@N$02$02$0A@$02$02@Eigen@@V?$Matrix@N$02$00$0A@$02$00@2@$0A@@Eigen@@@1@@Z
	??$?4V?$Product@V?$PermutationMatrix@$02$02H@Eigen@@V?$Block@$$CBV?$Matrix@N$02$03$0A@$02$03@Eigen@@$02$00$0A@@2@$0A@@Eigen@@@?$Matrix@N$02$00$0A@$02$00@Eigen@@QEAAAEAV01@AEBV?$DenseBase@V?$Product@V?$PermutationMatrix@$02$02H@Eigen@@V?$Block@$$CBV?$Matrix@N$02$03$0A@$02$03@Eigen@@$02$00$0A@@2@$0A@@Eigen@@@1@@Z
	??$?4V?$Product@V?$Product@V?$Matrix@N$0?0$0?0$0A@$0?0$0?0@Eigen@@V12@$0A@@Eigen@@V?$Transpose@$$CBV?$Matrix@N$0?0$0?0$0A@$0?0$0?0@Eigen@@@2@$0A@@Eigen@@@?$Matrix@N$03$02$0A@$03$02@Eigen@@QEAAAEAV01@AEBV?$DenseBase@V?$Product@V?$Product@V?$Matrix@N$0?0$0?0$0A@$0?0$0?0@Eigen@@V12@$0A@@Eigen@@V?$Transpose@$$CBV?$Matrix@N$0?0$0?0$0A@$0?0$0?0@Eigen@@@2@$0A@@Eigen@@@1@@Z
	??$?4V?$Product@V?$Transpose@$$CBV?$Block@$$CBV?$Matrix@N$02$02$0A@$02$02@Eigen@@$0?0$00$0A@@Eigen@@@Eigen@@V?$Block@V?$Block@V?$Matrix@N$02$02$0A@$02$02@Eigen@@$0?0$02$0A@@Eigen@@$0?0$02$0A@@2@$0A@@Eigen@@@?$NoAlias@V?$Map@V?$Matrix@N$00$02$00$00$02@Eigen@@$0A@V?$Stride@$0A@$0A@@2@@Eigen@@VMatrixBase@2@@Eigen@@QEAAAEAV?$Map@V?$Matrix@N$00$02$00$00$02@Eigen@@$0A@V?$Stride@$0A@$0A@@2@@1@AEBV?$MatrixBase@V?$Product@V?$Transpose@$$CBV?$Block@$$CBV?$Matrix@N$02$02$0A@$02$02@Eigen@@$0?0$00$0A@@Eigen@@@Eigen@@V?$Block@V?$Block@V?$Matrix@N$02$02$0A@$02$02@Eigen@@$0?0$02$0A@@Eigen@@$0?0$02$0A@@2@$0A@@Eigen@@@1@@Z
	??$?4V?$Product@V?$Transpose@$$CBV?$Block@$$CBV?$Matrix@N$02$02$0A@$02$02@Eigen@@$0?0$00$0A@@Eigen@@@Eigen@@V?$Block@V?$Block@V?$Matrix@N$02$02$0A@$02$02@Eigen@@$0?0$0?0$0A@@Eigen@@$0?0$0?0$0A@@2@$0A@@Eigen@@@?$NoAlias@V?$Map@V?$Matrix@N$00$0?0$00$00$02@Eigen@@$0A@V?$Stride@$0A@$0A@@2@@Eigen@@VMatrixBase@2@@Eigen@@QEAAAEAV?$Map@V?$Matrix@N$00$0?0$00$00$02@Eigen@@$0A@V?$Stride@$0A@$0A@@2@@1@AEBV?$MatrixBase@V?$Product@V?$Transpose@$$CBV?$Block@$$CBV?$Matrix@N$02$02$0A@$02$02@Eigen@@$0?0$00$0A@@Eigen@@@Eigen@@V?$Block@V?$Block@V?$Matrix@N$02$02$0A@$02$02@Eigen@@$0?0$0?0$0A@@Eigen@@$0?0$0?0$0A@@2@$0A@@Eigen@@@1@@Z
	??$?4V?$Product@V?$Transpose@$$CBV?$Block@$$CBV?$Matrix@N$0?0$0?0$0A@$0?0$0?0@Eigen@@$0?0$00$0A@@Eigen@@@Eigen@@V?$Block@V?$Block@V?$Matrix@N$0?0$0?0$0A@$0?0$0?0@Eigen@@$0?0$0?0$0A@@Eigen@@$0?0$0?0$0A@@2@$0A@@Eigen@@@?$NoAlias@V?$Map@V?$Matrix@N$00$0?0$00$00$0?0@Eigen@@$0A@V?$Stride@$0A@$0A@@2@@Eigen@@VMatrixBase@2@@Eigen@@QEAAAEAV?$Map@V?$Matrix@N$00$0?0$00$00$0?0@Eigen@@$0A@V?$Stride@$0A@$0A@@2@@1@AEBV?$MatrixBase@V?$Product@V?$Transpose@$$CBV?$Block@$$CBV?$Matrix@N$0?0$0?0$0A@$0?0$0?0@Eigen@@$0?0$00$0A@@Eigen@@@Eigen@@V?$Block@V?$Block@V?$Matrix@N$0?0$0?0$0A@$0?0$0?0@Eigen@@$0?0$0?0$0A@@Eigen@@$0?0$0?0$0A@@2@$0A@@Eigen@@@1@@Z
	??$?4V?$Product@V?$Transpose@$$CBV?$Block@V?$Block@V?$Block@V?$Matrix@N$02$02$0A@$02$02@Eigen@@$0?0$0?0$0A@@Eigen@@$0?0$00$00@Eigen@@$0?0$00$0A@@Eigen@@@Eigen@@V?$Block@V?$Block@V?$Block@V?$Matrix@N$02$02$0A@$02$02@Eigen@@$0?0$0?0$0A@@Eigen@@$0?0$0?0$0A@@Eigen@@$0?0$0?0$0A@@2@$0A@@Eigen@@@?$NoAlias@V?$Map@V?$Matrix@N$00$0?0$00$00$02@Eigen@@$0A@V?$Stride@$0A@$0A@@2@@Eigen@@VMatrixBase@2@@Eigen@@QEAAAEAV?$Map@V?$Matrix@N$00$0?0$00$00$02@Eigen@@$0A@V?$Stride@$0A@$0A@@2@@1@AEBV?$MatrixBase@V?$Product@V?$Transpose@$$CBV?$Block@V?$Block@V?$Block@V?$Matrix@N$02$02$0A@$02$02@Eigen@@$0?0$0?0$0A@@Eigen@@$0?0$00$00@Eigen@@$0?0$00$0A@@Eigen@@@Eigen@@V?$Block@V?$Block@V?$Block@V?$Matrix@N$02$02$0A@$02$02@Eigen@@$0?0$0?0$0A@@Eigen@@$0?0$0?0$0A@@Eigen@@$0?0$0?0$0A@@2@$0A@@Eigen@@@1@@Z
	??$?4V?$Product@V?$Transpose@$$CBV?$Block@V?$Block@V?$Matrix@N$0?0$0?0$0A@$0?0$0?0@Eigen@@$0?0$00$00@Eigen@@$0?0$00$0A@@Eigen@@@Eigen@@V?$Block@V?$Block@V?$Matrix@N$0?0$0?0$0A@$0?0$0?0@Eigen@@$0?0$0?0$0A@@Eigen@@$0?0$0?0$0A@@2@$0A@@Eigen@@@?$NoAlias@V?$Map@V?$Matrix@N$00$0?0$00$00$0?0@Eigen@@$0A@V?$Stride@$0A@$0A@@2@@Eigen@@VMatrixBase@2@@Eigen@@QEAAAEAV?$Map@V?$Matrix@N$00$0?0$00$00$0?0@Eigen@@$0A@V?$Stride@$0A@$0A@@2@@1@AEBV?$MatrixBase@V?$Product@V?$Transpose@$$CBV?$Block@V?$Block@V?$Matrix@N$0?0$0?0$0A@$0?0$0?0@Eigen@@$0?0$00$00@Eigen@@$0?0$00$0A@@Eigen@@@Eigen@@V?$Block@V?$Block@V?$Matrix@N$0?0$0?0$0A@$0?0$0?0@Eigen@@$0?0$0?0$0A@@Eigen@@$0?0$0?0$0A@@2@$0A@@Eigen@@@1@@Z
	??$?4V?$Product@V?$Transpose@$$CBV?$Matrix@N$02$02$0A@$02$02@Eigen@@@Eigen@@V12@$0A@@Eigen@@@?$Matrix@N$02$02$0A@$02$02@Eigen@@QEAAAEAV01@AEBV?$DenseBase@V?$Product@V?$Transpose@$$CBV?$Matrix@N$02$02$0A@$02$02@Eigen@@@Eigen@@V12@$0A@@Eigen@@@1@@Z
	??$?4V?$Product@V?$TriangularView@$$CBV?$Transpose@$$CBV?$Matrix@N$0?0$0?0$00$0?0$0?0@Eigen@@@Eigen@@$00@Eigen@@V?$Matrix@N$0?0$02$0A@$02$02@2@$0A@@Eigen@@@?$Matrix@N$0?0$02$0A@$02$02@Eigen@@QEAAAEAV01@AEBV?$DenseBase@V?$Product@V?$TriangularView@$$CBV?$Transpose@$$CBV?$Matrix@N$0?0$0?0$00$0?0$0?0@Eigen@@@Eigen@@$00@Eigen@@V?$Matrix@N$0?0$02$0A@$02$02@2@$0A@@Eigen@@@1@@Z
	??$?4V?$Product@V?$TriangularView@$$CBV?$Transpose@$$CBV?$Matrix@N$0?0$0?0$00$0?0$0?0@Eigen@@@Eigen@@$00@Eigen@@V?$Matrix@N$0?0$0?0$0A@$02$02@2@$0A@@Eigen@@@?$Matrix@N$0?0$0?0$0A@$02$02@Eigen@@QEAAAEAV01@AEBV?$DenseBase@V?$Product@V?$TriangularView@$$CBV?$Transpose@$$CBV?$Matrix@N$0?0$0?0$00$0?0$0?0@Eigen@@@Eigen@@$00@Eigen@@V?$Matrix@N$0?0$0?0$0A@$02$02@2@$0A@@Eigen@@@1@@Z
	??$?4V?$Product@V?$TriangularView@$$CBV?$Transpose@$$CBV?$Matrix@N$0?0$0?0$00$0?0$0?0@Eigen@@@Eigen@@$00@Eigen@@V?$Matrix@N$0?0$0?0$0A@$0?0$0?0@2@$0A@@Eigen@@@?$Matrix@N$0?0$0?0$0A@$0?0$0?0@Eigen@@QEAAAEAV01@AEBV?$DenseBase@V?$Product@V?$TriangularView@$$CBV?$Transpose@$$CBV?$Matrix@N$0?0$0?0$00$0?0$0?0@Eigen@@@Eigen@@$00@Eigen@@V?$Matrix@N$0?0$0?0$0A@$0?0$0?0@2@$0A@@Eigen@@@1@@Z
	??$?4V?$Product@V?$TriangularView@V?$Matrix@N$0?0$0?0$00$0?0$0?0@Eigen@@$01@Eigen@@V?$Matrix@N$0?0$02$0A@$02$02@2@$0A@@Eigen@@@?$Matrix@N$0?0$02$0A@$02$02@Eigen@@QEAAAEAV01@AEBV?$DenseBase@V?$Product@V?$TriangularView@V?$Matrix@N$0?0$0?0$00$0?0$0?0@Eigen@@$01@Eigen@@V?$Matrix@N$0?0$02$0A@$02$02@2@$0A@@Eigen@@@1@@Z
	??$?4V?$Product@V?$TriangularView@V?$Matrix@N$0?0$0?0$00$0?0$0?0@Eigen@@$01@Eigen@@V?$Matrix@N$0?0$0?0$0A@$02$02@2@$0A@@Eigen@@@?$Matrix@N$0?0$0?0$0A@$02$02@Eigen@@QEAAAEAV01@AEBV?$DenseBase@V?$Product@V?$TriangularView@V?$Matrix@N$0?0$0?0$00$0?0$0?0@Eigen@@$01@Eigen@@V?$Matrix@N$0?0$0?0$0A@$02$02@2@$0A@@Eigen@@@1@@Z
	??$?4V?$Product@V?$TriangularView@V?$Matrix@N$0?0$0?0$00$0?0$0?0@Eigen@@$01@Eigen@@V?$Matrix@N$0?0$0?0$0A@$0?0$0?0@2@$0A@@Eigen@@@?$Matrix@N$0?0$0?0$0A@$0?0$0?0@Eigen@@QEAAAEAV01@AEBV?$DenseBase@V?$Product@V?$TriangularView@V?$Matrix@N$0?0$0?0$00$0?0$0?0@Eigen@@$01@Eigen@@V?$Matrix@N$0?0$0?0$0A@$0?0$0?0@2@$0A@@Eigen@@@1@@Z
	??$?4V?$Solve@V?$PartialPivLU@V?$Matrix@N$02$02$0A@$02$02@Eigen@@H@Eigen@@V?$Block@$$CBV?$Matrix@N$02$03$0A@$02$03@Eigen@@$02$00$0A@@2@@Eigen@@@?$Matrix@N$02$00$0A@$02$00@Eigen@@QEAAAEAV01@AEBV?$DenseBase@V?$Solve@V?$PartialPivLU@V?$Matrix@N$02$02$0A@$02$02@Eigen@@H@Eigen@@V?$Block@$$CBV?$Matrix@N$02$03$0A@$02$03@Eigen@@$02$00$0A@@2@@Eigen@@@1@@Z
	??$?4V?$Transpose@$$CBV?$Block@$$CBV?$Matrix@N$0?0$0?0$0A@$0?0$0?0@Eigen@@$00$0?0$0A@@Eigen@@@Eigen@@@?$MatrixBase@V?$Map@V?$Matrix@N$0?0$00$0A@$0?0$00@Eigen@@$0A@V?$Stride@$0A@$0A@@2@@Eigen@@@Eigen@@QEAAAEAV?$Map@V?$Matrix@N$0?0$00$0A@$0?0$00@Eigen@@$0A@V?$Stride@$0A@$0A@@2@@1@AEBV?$DenseBase@V?$Transpose@$$CBV?$Block@$$CBV?$Matrix@N$0?0$0?0$0A@$0?0$0?0@Eigen@@$00$0?0$0A@@Eigen@@@Eigen@@@1@@Z
	??$?4V?$Transpose@$$CBV?$Block@$$CBV?$Ref@V?$Matrix@N$0?0$0?0$0A@$0?0$0?0@Eigen@@$0A@V?$OuterStride@$0?0@2@@Eigen@@$00$0?0$0A@@Eigen@@@Eigen@@@?$MatrixBase@V?$Map@V?$Matrix@N$0?0$00$0A@$0?0$00@Eigen@@$0A@V?$Stride@$0A@$0A@@2@@Eigen@@@Eigen@@QEAAAEAV?$Map@V?$Matrix@N$0?0$00$0A@$0?0$00@Eigen@@$0A@V?$Stride@$0A@$0A@@2@@1@AEBV?$DenseBase@V?$Transpose@$$CBV?$Block@$$CBV?$Ref@V?$Matrix@N$0?0$0?0$0A@$0?0$0?0@Eigen@@$0A@V?$OuterStride@$0?0@2@@Eigen@@$00$0?0$0A@@Eigen@@@Eigen@@@1@@Z
	??$?4V?$Transpose@$$CBV?$CwiseBinaryOp@U?$scalar_quotient_op@NN@internal@Eigen@@$$CBV?$Matrix@N$02$03$0A@$02$03@3@$$CBV?$CwiseNullaryOp@U?$scalar_constant_op@N@internal@Eigen@@$$CBV?$Matrix@N$02$03$0A@$02$03@3@@3@@Eigen@@@Eigen@@@?$Matrix@N$0?0$0?0$0A@$0?0$0?0@Eigen@@QEAAAEAV01@AEBV?$DenseBase@V?$Transpose@$$CBV?$CwiseBinaryOp@U?$scalar_quotient_op@NN@internal@Eigen@@$$CBV?$Matrix@N$02$03$0A@$02$03@3@$$CBV?$CwiseNullaryOp@U?$scalar_constant_op@N@internal@Eigen@@$$CBV?$Matrix@N$02$03$0A@$02$03@3@@3@@Eigen@@@Eigen@@@1@@Z
	??$?4V?$Transpose@$$CBV?$CwiseBinaryOp@U?$scalar_quotient_op@NN@internal@Eigen@@$$CBV?$Matrix@N$0?0$0?0$0A@$0?0$0?0@3@$$CBV?$CwiseNullaryOp@U?$scalar_constant_op@N@internal@Eigen@@$$CBV?$Matrix@N$0?0$0?0$0A@$0?0$0?0@3@@3@@Eigen@@@Eigen@@@?$Matrix@N$0?0$0?0$0A@$0?0$0?0@Eigen@@QEAAAEAV01@AEBV?$DenseBase@V?$Transpose@$$CBV?$CwiseBinaryOp@U?$scalar_quotient_op@NN@internal@Eigen@@$$CBV?$Matrix@N$0?0$0?0$0A@$0?0$0?0@3@$$CBV?$CwiseNullaryOp@U?$scalar_constant_op@N@internal@Eigen@@$$CBV?$Matrix@N$0?0$0?0$0A@$0?0$0?0@3@@3@@Eigen@@@Eigen@@@1@@Z
	??$?4V?$Transpose@$$CBV?$Transpose@$$CBV?$Block@$$CBV?$Block@$$CBV?$Block@V?$Matrix@N$02$02$0A@$02$02@Eigen@@$0?0$0?0$0A@@Eigen@@$0?0$00$00@Eigen@@$0?0$00$0A@@Eigen@@@Eigen@@@Eigen@@@?$MatrixBase@V?$Map@V?$Matrix@N$0?0$00$0A@$02$00@Eigen@@$0BA@V?$Stride@$0A@$0A@@2@@Eigen@@@Eigen@@QEAAAEAV?$Map@V?$Matrix@N$0?0$00$0A@$02$00@Eigen@@$0BA@V?$Stride@$0A@$0A@@2@@1@AEBV?$DenseBase@V?$Transpose@$$CBV?$Transpose@$$CBV?$Block@$$CBV?$Block@$$CBV?$Block@V?$Matrix@N$02$02$0A@$02$02@Eigen@@$0?0$0?0$0A@@Eigen@@$0?0$00$00@Eigen@@$0?0$00$0A@@Eigen@@@Eigen@@@Eigen@@@1@@Z
	??$?4V?$Transpose@$$CBV?$Transpose@$$CBV?$Block@$$CBV?$Block@$$CBV?$Block@V?$Matrix@N$0?0$0?0$0A@$0?0$0?0@Eigen@@$0?0$0?0$0A@@Eigen@@$0?0$00$00@Eigen@@$0?0$00$0A@@Eigen@@@Eigen@@@Eigen@@@?$MatrixBase@V?$Map@V?$Matrix@N$0?0$00$0A@$0?0$00@Eigen@@$0BA@V?$Stride@$0A@$0A@@2@@Eigen@@@Eigen@@QEAAAEAV?$Map@V?$Matrix@N$0?0$00$0A@$0?0$00@Eigen@@$0BA@V?$Stride@$0A@$0A@@2@@1@AEBV?$DenseBase@V?$Transpose@$$CBV?$Transpose@$$CBV?$Block@$$CBV?$Block@$$CBV?$Block@V?$Matrix@N$0?0$0?0$0A@$0?0$0?0@Eigen@@$0?0$0?0$0A@@Eigen@@$0?0$00$00@Eigen@@$0?0$00$0A@@Eigen@@@Eigen@@@Eigen@@@1@@Z
	??$?4V?$Transpose@$$CBV?$Transpose@$$CBV?$Block@$$CBV?$Matrix@N$0?0$0?0$0A@$0?0$0?0@Eigen@@$0?0$00$0A@@Eigen@@@Eigen@@@Eigen@@@?$MatrixBase@V?$Map@V?$Matrix@N$0?0$00$0A@$0?0$00@Eigen@@$0A@V?$Stride@$0A@$0A@@2@@Eigen@@@Eigen@@QEAAAEAV?$Map@V?$Matrix@N$0?0$00$0A@$0?0$00@Eigen@@$0A@V?$Stride@$0A@$0A@@2@@1@AEBV?$DenseBase@V?$Transpose@$$CBV?$Transpose@$$CBV?$Block@$$CBV?$Matrix@N$0?0$0?0$0A@$0?0$0?0@Eigen@@$0?0$00$0A@@Eigen@@@Eigen@@@Eigen@@@1@@Z
	??$?4V?$Transpose@$$CBV?$Transpose@$$CBV?$Block@V?$Block@V?$Matrix@N$0?0$0?0$0A@$0?0$0?0@Eigen@@$0?0$00$00@Eigen@@$0?0$00$0A@@Eigen@@@Eigen@@@Eigen@@@?$MatrixBase@V?$Map@V?$Matrix@N$0?0$00$0A@$0?0$00@Eigen@@$0A@V?$Stride@$0A@$0A@@2@@Eigen@@@Eigen@@QEAAAEAV?$Map@V?$Matrix@N$0?0$00$0A@$0?0$00@Eigen@@$0A@V?$Stride@$0A@$0A@@2@@1@AEBV?$DenseBase@V?$Transpose@$$CBV?$Transpose@$$CBV?$Block@V?$Block@V?$Matrix@N$0?0$0?0$0A@$0?0$0?0@Eigen@@$0?0$00$00@Eigen@@$0?0$00$0A@@Eigen@@@Eigen@@@Eigen@@@1@@Z
	??$?4V?$Transpose@V?$Block@V?$Matrix@N$0?0$0?0$00$0?0$0?0@Eigen@@$00$0?0$00@Eigen@@@Eigen@@@?$MatrixBase@V?$Map@V?$Matrix@N$0?0$00$0A@$0?0$00@Eigen@@$01V?$Stride@$0A@$0A@@2@@Eigen@@@Eigen@@QEAAAEAV?$Map@V?$Matrix@N$0?0$00$0A@$0?0$00@Eigen@@$01V?$Stride@$0A@$0A@@2@@1@AEBV?$DenseBase@V?$Transpose@V?$Block@V?$Matrix@N$0?0$0?0$00$0?0$0?0@Eigen@@$00$0?0$00@Eigen@@@Eigen@@@1@@Z
	??$?4V?$Transpose@V?$Block@V?$Matrix@N$0?0$0?0$0A@$0?0$0?0@Eigen@@$00$0?0$0A@@Eigen@@@Eigen@@@?$MatrixBase@V?$Map@V?$Matrix@N$0?0$00$0A@$0?0$00@Eigen@@$01V?$Stride@$0A@$0A@@2@@Eigen@@@Eigen@@QEAAAEAV?$Map@V?$Matrix@N$0?0$00$0A@$0?0$00@Eigen@@$01V?$Stride@$0A@$0A@@2@@1@AEBV?$DenseBase@V?$Transpose@V?$Block@V?$Matrix@N$0?0$0?0$0A@$0?0$0?0@Eigen@@$00$0?0$0A@@Eigen@@@Eigen@@@1@@Z
	??$?4V?$Transpositions@$02$02H@Eigen@@@?$PermutationBase@V?$PermutationMatrix@$02$02H@Eigen@@@Eigen@@QEAAAEAV?$PermutationMatrix@$02$02H@1@AEBV?$TranspositionsBase@V?$Transpositions@$02$02H@Eigen@@@1@@Z
	??$?4V?$Transpositions@$02$02H@Eigen@@@?$PermutationMatrix@$02$02H@Eigen@@QEAAAEAV01@AEBV?$TranspositionsBase@V?$Transpositions@$02$02H@Eigen@@@1@@Z
	??$?4V?$TriangularView@$$CBV?$Block@$$CBV?$Matrix@N$0?0$0?0$0A@$0?0$0?0@Eigen@@$0?0$0?0$0A@@Eigen@@$01@Eigen@@@?$Matrix@N$0?0$0?0$0A@$0?0$0?0@Eigen@@QEAAAEAV01@AEBU?$EigenBase@V?$TriangularView@$$CBV?$Block@$$CBV?$Matrix@N$0?0$0?0$0A@$0?0$0?0@Eigen@@$0?0$0?0$0A@@Eigen@@$01@Eigen@@@1@@Z
	??$?4V?$TriangularView@$$CBV?$Block@$$CBV?$Matrix@N$0?0$0?0$0A@$0?0$0?0@Eigen@@$0?0$0?0$0A@@Eigen@@$01@Eigen@@@?$MatrixBase@V?$Matrix@N$0?0$0?0$0A@$0?0$0?0@Eigen@@@Eigen@@QEAAAEAV?$Matrix@N$0?0$0?0$0A@$0?0$0?0@1@AEBU?$EigenBase@V?$TriangularView@$$CBV?$Block@$$CBV?$Matrix@N$0?0$0?0$0A@$0?0$0?0@Eigen@@$0?0$0?0$0A@@Eigen@@$01@Eigen@@@1@@Z
	??$?4V?$TriangularView@$$CBV?$Block@$$CBV?$Matrix@N$0?0$0?0$0A@$0?0$0?0@Eigen@@$0?0$0?0$0A@@Eigen@@$01@Eigen@@@?$PlainObjectBase@V?$Matrix@N$0?0$0?0$0A@$0?0$0?0@Eigen@@@Eigen@@QEAAAEAV?$Matrix@N$0?0$0?0$0A@$0?0$0?0@1@AEBU?$EigenBase@V?$TriangularView@$$CBV?$Block@$$CBV?$Matrix@N$0?0$0?0$0A@$0?0$0?0@Eigen@@$0?0$0?0$0A@@Eigen@@$01@Eigen@@@1@@Z
	??$?4V?$TriangularView@$$CBV?$Transpose@$$CBV?$Block@$$CBV?$Matrix@N$0?0$0?0$0A@$0?0$0?0@Eigen@@$0?0$0?0$0A@@Eigen@@@Eigen@@$00@Eigen@@@?$Matrix@N$0?0$0?0$0A@$0?0$0?0@Eigen@@QEAAAEAV01@AEBU?$EigenBase@V?$TriangularView@$$CBV?$Transpose@$$CBV?$Block@$$CBV?$Matrix@N$0?0$0?0$0A@$0?0$0?0@Eigen@@$0?0$0?0$0A@@Eigen@@@Eigen@@$00@Eigen@@@1@@Z
	??$?4V?$TriangularView@$$CBV?$Transpose@$$CBV?$Block@$$CBV?$Matrix@N$0?0$0?0$0A@$0?0$0?0@Eigen@@$0?0$0?0$0A@@Eigen@@@Eigen@@$00@Eigen@@@?$MatrixBase@V?$Matrix@N$0?0$0?0$0A@$0?0$0?0@Eigen@@@Eigen@@QEAAAEAV?$Matrix@N$0?0$0?0$0A@$0?0$0?0@1@AEBU?$EigenBase@V?$TriangularView@$$CBV?$Transpose@$$CBV?$Block@$$CBV?$Matrix@N$0?0$0?0$0A@$0?0$0?0@Eigen@@$0?0$0?0$0A@@Eigen@@@Eigen@@$00@Eigen@@@1@@Z
	??$?4V?$TriangularView@$$CBV?$Transpose@$$CBV?$Block@$$CBV?$Matrix@N$0?0$0?0$0A@$0?0$0?0@Eigen@@$0?0$0?0$0A@@Eigen@@@Eigen@@$00@Eigen@@@?$PlainObjectBase@V?$Matrix@N$0?0$0?0$0A@$0?0$0?0@Eigen@@@Eigen@@QEAAAEAV?$Matrix@N$0?0$0?0$0A@$0?0$0?0@1@AEBU?$EigenBase@V?$TriangularView@$$CBV?$Transpose@$$CBV?$Block@$$CBV?$Matrix@N$0?0$0?0$0A@$0?0$0?0@Eigen@@$0?0$0?0$0A@@Eigen@@@Eigen@@$00@Eigen@@@1@@Z
	??$?6DU?$char_traits@D@std@@V?$allocator@D@1@@std@@YAAEAV?$basic_ostream@DU?$char_traits@D@std@@@0@AEAV10@AEBV?$basic_string@DU?$char_traits@D@std@@V?$allocator@D@2@@0@@Z
	??$?6U?$char_traits@D@std@@@std@@YAAEAV?$basic_ostream@DU?$char_traits@D@std@@@0@AEAV10@PEBD@Z
	??$?6V?$Matrix@N$02$03$0A@$02$03@Eigen@@@Eigen@@YAAEAV?$basic_ostream@DU?$char_traits@D@std@@@std@@AEAV12@AEBV?$DenseBase@V?$Matrix@N$02$03$0A@$02$03@Eigen@@@0@@Z
	??$?6V?$Matrix@N$03$00$0A@$03$00@Eigen@@@Eigen@@YAAEAV?$basic_ostream@DU?$char_traits@D@std@@@std@@AEAV12@AEBV?$DenseBase@V?$Matrix@N$03$00$0A@$03$00@Eigen@@@0@@Z
	??$?DN@?$MatrixBase@V?$Matrix@N$02$00$0A@$02$00@Eigen@@@Eigen@@QEBA?BV?$CwiseBinaryOp@U?$scalar_product_op@NN@internal@Eigen@@$$CBV?$Matrix@N$02$00$0A@$02$00@3@$$CBV?$CwiseNullaryOp@U?$scalar_constant_op@N@internal@Eigen@@$$CBV?$Matrix@N$02$00$0A@$02$00@3@@3@@1@AEBN@Z
	??$?DN@?$MatrixBase@V?$Matrix@N$02$03$0A@$02$03@Eigen@@@Eigen@@QEBA?BV?$CwiseBinaryOp@U?$scalar_product_op@NN@internal@Eigen@@$$CBV?$Matrix@N$02$03$0A@$02$03@3@$$CBV?$CwiseNullaryOp@U?$scalar_constant_op@N@internal@Eigen@@$$CBV?$Matrix@N$02$03$0A@$02$03@3@@3@@1@AEBN@Z
	??$?DN@?$MatrixBase@V?$Matrix@N$03$00$0A@$03$00@Eigen@@@Eigen@@QEBA?BV?$CwiseBinaryOp@U?$scalar_product_op@NN@internal@Eigen@@$$CBV?$Matrix@N$03$00$0A@$03$00@3@$$CBV?$CwiseNullaryOp@U?$scalar_constant_op@N@internal@Eigen@@$$CBV?$Matrix@N$03$00$0A@$03$00@3@@3@@1@AEBN@Z
	??$?DN@Eigen@@YA?BV?$CwiseBinaryOp@U?$scalar_product_op@NN@internal@Eigen@@$$CBV?$CwiseNullaryOp@U?$scalar_constant_op@N@internal@Eigen@@$$CBV?$Matrix@N$00$02$00$00$02@3@@3@$$CBV?$Map@V?$Matrix@N$00$02$00$00$02@Eigen@@$0A@V?$Stride@$0A@$0A@@2@@3@@0@AEBNAEBV?$MatrixBase@V?$Map@V?$Matrix@N$00$02$00$00$02@Eigen@@$0A@V?$Stride@$0A@$0A@@2@@Eigen@@@0@@Z
	??$?DN@Eigen@@YA?BV?$CwiseBinaryOp@U?$scalar_product_op@NN@internal@Eigen@@$$CBV?$CwiseNullaryOp@U?$scalar_constant_op@N@internal@Eigen@@$$CBV?$Matrix@N$00$03$00$00$03@3@@3@$$CBV?$Transpose@V?$Matrix@N$03$00$0A@$03$00@Eigen@@@3@@0@AEBNAEBV?$MatrixBase@V?$Transpose@V?$Matrix@N$03$00$0A@$03$00@Eigen@@@Eigen@@@0@@Z
	??$?DN@Eigen@@YA?BV?$CwiseBinaryOp@U?$scalar_product_op@NN@internal@Eigen@@$$CBV?$CwiseNullaryOp@U?$scalar_constant_op@N@internal@Eigen@@$$CBV?$Matrix@N$00$0?0$00$00$02@3@@3@$$CBV?$Map@V?$Matrix@N$00$0?0$00$00$02@Eigen@@$0A@V?$Stride@$0A@$0A@@2@@3@@0@AEBNAEBV?$MatrixBase@V?$Map@V?$Matrix@N$00$0?0$00$00$02@Eigen@@$0A@V?$Stride@$0A@$0A@@2@@Eigen@@@0@@Z
	??$?DN@Eigen@@YA?BV?$CwiseBinaryOp@U?$scalar_product_op@NN@internal@Eigen@@$$CBV?$CwiseNullaryOp@U?$scalar_constant_op@N@internal@Eigen@@$$CBV?$Matrix@N$00$0?0$00$00$02@3@@3@$$CBV?$Transpose@$$CBV?$Block@$$CBV?$Block@$$CBV?$Block@V?$Matrix@N$02$02$0A@$02$02@Eigen@@$0?0$0?0$0A@@Eigen@@$0?0$00$00@Eigen@@$0?0$00$0A@@Eigen@@@3@@0@AEBNAEBV?$MatrixBase@V?$Transpose@$$CBV?$Block@$$CBV?$Block@$$CBV?$Block@V?$Matrix@N$02$02$0A@$02$02@Eigen@@$0?0$0?0$0A@@Eigen@@$0?0$00$00@Eigen@@$0?0$00$0A@@Eigen@@@Eigen@@@0@@Z
	??$?DN@Eigen@@YA?BV?$CwiseBinaryOp@U?$scalar_product_op@NN@internal@Eigen@@$$CBV?$CwiseNullaryOp@U?$scalar_constant_op@N@internal@Eigen@@$$CBV?$Matrix@N$00$0?0$00$00$0?0@3@@3@$$CBV?$Block@V?$Block@V?$Matrix@N$0?0$0?0$00$0?0$0?0@Eigen@@$00$0?0$00@Eigen@@$00$0?0$0A@@3@@0@AEBNAEBV?$MatrixBase@V?$Block@V?$Block@V?$Matrix@N$0?0$0?0$00$0?0$0?0@Eigen@@$00$0?0$00@Eigen@@$00$0?0$0A@@Eigen@@@0@@Z
	??$?DN@Eigen@@YA?BV?$CwiseBinaryOp@U?$scalar_product_op@NN@internal@Eigen@@$$CBV?$CwiseNullaryOp@U?$scalar_constant_op@N@internal@Eigen@@$$CBV?$Matrix@N$00$0?0$00$00$0?0@3@@3@$$CBV?$Map@V?$Matrix@N$00$0?0$00$00$0?0@Eigen@@$0A@V?$Stride@$0A@$0A@@2@@3@@0@AEBNAEBV?$MatrixBase@V?$Map@V?$Matrix@N$00$0?0$00$00$0?0@Eigen@@$0A@V?$Stride@$0A@$0A@@2@@Eigen@@@0@@Z
	??$?DN@Eigen@@YA?BV?$CwiseBinaryOp@U?$scalar_product_op@NN@internal@Eigen@@$$CBV?$CwiseNullaryOp@U?$scalar_constant_op@N@internal@Eigen@@$$CBV?$Matrix@N$00$0?0$00$00$0?0@3@@3@$$CBV?$Transpose@$$CBV?$Block@$$CBV?$Block@$$CBV?$Block@V?$Matrix@N$0?0$0?0$0A@$0?0$0?0@Eigen@@$0?0$0?0$0A@@Eigen@@$0?0$00$00@Eigen@@$0?0$00$0A@@Eigen@@@3@@0@AEBNAEBV?$MatrixBase@V?$Transpose@$$CBV?$Block@$$CBV?$Block@$$CBV?$Block@V?$Matrix@N$0?0$0?0$0A@$0?0$0?0@Eigen@@$0?0$0?0$0A@@Eigen@@$0?0$00$00@Eigen@@$0?0$00$0A@@Eigen@@@Eigen@@@0@@Z
	??$?DN@Eigen@@YA?BV?$CwiseBinaryOp@U?$scalar_product_op@NN@internal@Eigen@@$$CBV?$CwiseNullaryOp@U?$scalar_constant_op@N@internal@Eigen@@$$CBV?$Matrix@N$0?0$00$0A@$02$00@3@@3@$$CBV?$Block@$$CBV?$Matrix@N$02$02$0A@$02$02@Eigen@@$0?0$00$0A@@3@@0@AEBNAEBV?$MatrixBase@V?$Block@$$CBV?$Matrix@N$02$02$0A@$02$02@Eigen@@$0?0$00$0A@@Eigen@@@0@@Z
	??$?DN@Eigen@@YA?BV?$CwiseBinaryOp@U?$scalar_product_op@NN@internal@Eigen@@$$CBV?$CwiseNullaryOp@U?$scalar_constant_op@N@internal@Eigen@@$$CBV?$Matrix@N$0?0$00$0A@$02$00@3@@3@$$CBV?$Block@$$CBV?$Transpose@$$CBV?$CwiseBinaryOp@U?$scalar_product_op@NN@internal@Eigen@@$$CBV?$CwiseNullaryOp@U?$scalar_constant_op@N@internal@Eigen@@$$CBV?$Matrix@N$00$0?0$00$00$02@3@@3@$$CBV?$Transpose@$$CBV?$Block@$$CBV?$Block@$$CBV?$Block@V?$Matrix@N$02$02$0A@$02$02@Eigen@@$0?0$0?0$0A@@Eigen@@$0?0$00$00@Eigen@@$0?0$00$0A@@Eigen@@@3@@Eigen@@@Eigen@@$0?0$00$0A@@3@@0@AEBNAEBV?$MatrixBase@V?$Block@$$CBV?$Transpose@$$CBV?$CwiseBinaryOp@U?$scalar_product_op@NN@internal@Eigen@@$$CBV?$CwiseNullaryOp@U?$scalar_constant_op@N@internal@Eigen@@$$CBV?$Matrix@N$00$0?0$00$00$02@3@@3@$$CBV?$Transpose@$$CBV?$Block@$$CBV?$Block@$$CBV?$Block@V?$Matrix@N$02$02$0A@$02$02@Eigen@@$0?0$0?0$0A@@Eigen@@$0?0$00$00@Eigen@@$0?0$00$0A@@Eigen@@@3@@Eigen@@@Eigen@@$0?0$00$0A@@Eigen@@@0@@Z
	??$?DN@Eigen@@YA?BV?$CwiseBinaryOp@U?$scalar_product_op@NN@internal@Eigen@@$$CBV?$CwiseNullaryOp@U?$scalar_constant_op@N@internal@Eigen@@$$CBV?$Matrix@N$0?0$00$0A@$02$00@3@@3@$$CBV?$Block@V?$Block@V?$Block@V?$Matrix@N$02$02$0A@$02$02@Eigen@@$0?0$0?0$0A@@Eigen@@$0?0$00$00@Eigen@@$0?0$00$0A@@3@@0@AEBNAEBV?$MatrixBase@V?$Block@V?$Block@V?$Block@V?$Matrix@N$02$02$0A@$02$02@Eigen@@$0?0$0?0$0A@@Eigen@@$0?0$00$00@Eigen@@$0?0$00$0A@@Eigen@@@0@@Z
	??$?DN@Eigen@@YA?BV?$CwiseBinaryOp@U?$scalar_product_op@NN@internal@Eigen@@$$CBV?$CwiseNullaryOp@U?$scalar_constant_op@N@internal@Eigen@@$$CBV?$Matrix@N$0?0$00$0A@$02$00@3@@3@$$CBV?$Map@V?$Matrix@N$0?0$00$0A@$02$00@Eigen@@$0A@V?$Stride@$0A@$0A@@2@@3@@0@AEBNAEBV?$MatrixBase@V?$Map@V?$Matrix@N$0?0$00$0A@$02$00@Eigen@@$0A@V?$Stride@$0A@$0A@@2@@Eigen@@@0@@Z
	??$?DN@Eigen@@YA?BV?$CwiseBinaryOp@U?$scalar_product_op@NN@internal@Eigen@@$$CBV?$CwiseNullaryOp@U?$scalar_constant_op@N@internal@Eigen@@$$CBV?$Matrix@N$0?0$00$0A@$0?0$00@3@@3@$$CBV?$Block@$$CBV?$Matrix@N$0?0$0?0$0A@$0?0$0?0@Eigen@@$0?0$00$0A@@3@@0@AEBNAEBV?$MatrixBase@V?$Block@$$CBV?$Matrix@N$0?0$0?0$0A@$0?0$0?0@Eigen@@$0?0$00$0A@@Eigen@@@0@@Z
	??$?DN@Eigen@@YA?BV?$CwiseBinaryOp@U?$scalar_product_op@NN@internal@Eigen@@$$CBV?$CwiseNullaryOp@U?$scalar_constant_op@N@internal@Eigen@@$$CBV?$Matrix@N$0?0$00$0A@$0?0$00@3@@3@$$CBV?$Block@$$CBV?$Product@V?$Matrix@N$0?0$0?0$0A@$0?0$0?0@Eigen@@V?$DiagonalWrapper@$$CBV?$Matrix@N$0?0$00$0A@$0?0$00@Eigen@@@2@$00@Eigen@@$0?0$00$00@3@@0@AEBNAEBV?$MatrixBase@V?$Block@$$CBV?$Product@V?$Matrix@N$0?0$0?0$0A@$0?0$0?0@Eigen@@V?$DiagonalWrapper@$$CBV?$Matrix@N$0?0$00$0A@$0?0$00@Eigen@@@2@$00@Eigen@@$0?0$00$00@Eigen@@@0@@Z
	??$?DN@Eigen@@YA?BV?$CwiseBinaryOp@U?$scalar_product_op@NN@internal@Eigen@@$$CBV?$CwiseNullaryOp@U?$scalar_constant_op@N@internal@Eigen@@$$CBV?$Matrix@N$0?0$00$0A@$0?0$00@3@@3@$$CBV?$Block@$$CBV?$Transpose@$$CBV?$CwiseBinaryOp@U?$scalar_product_op@NN@internal@Eigen@@$$CBV?$CwiseNullaryOp@U?$scalar_constant_op@N@internal@Eigen@@$$CBV?$Matrix@N$00$0?0$00$00$0?0@3@@3@$$CBV?$Transpose@$$CBV?$Block@$$CBV?$Block@$$CBV?$Block@V?$Matrix@N$0?0$0?0$0A@$0?0$0?0@Eigen@@$0?0$0?0$0A@@Eigen@@$0?0$00$00@Eigen@@$0?0$00$0A@@Eigen@@@3@@Eigen@@@Eigen@@$0?0$00$0A@@3@@0@AEBNAEBV?$MatrixBase@V?$Block@$$CBV?$Transpose@$$CBV?$CwiseBinaryOp@U?$scalar_product_op@NN@internal@Eigen@@$$CBV?$CwiseNullaryOp@U?$scalar_constant_op@N@internal@Eigen@@$$CBV?$Matrix@N$00$0?0$00$00$0?0@3@@3@$$CBV?$Transpose@$$CBV?$Block@$$CBV?$Block@$$CBV?$Block@V?$Matrix@N$0?0$0?0$0A@$0?0$0?0@Eigen@@$0?0$0?0$0A@@Eigen@@$0?0$00$00@Eigen@@$0?0$00$0A@@Eigen@@@3@@Eigen@@@Eigen@@$0?0$00$0A@@Eigen@@@0@@Z
	??$?DN@Eigen@@YA?BV?$CwiseBinaryOp@U?$scalar_product_op@NN@internal@Eigen@@$$CBV?$CwiseNullaryOp@U?$scalar_constant_op@N@internal@Eigen@@$$CBV?$Matrix@N$0?0$00$0A@$0?0$00@3@@3@$$CBV?$Block@V?$Block@V?$Matrix@N$0?0$0?0$0A@$0?0$0?0@Eigen@@$0?0$00$00@Eigen@@$0?0$00$0A@@3@@0@AEBNAEBV?$MatrixBase@V?$Block@V?$Block@V?$Matrix@N$0?0$0?0$0A@$0?0$0?0@Eigen@@$0?0$00$00@Eigen@@$0?0$00$0A@@Eigen@@@0@@Z
	??$?DN@Eigen@@YA?BV?$CwiseBinaryOp@U?$scalar_product_op@NN@internal@Eigen@@$$CBV?$CwiseNullaryOp@U?$scalar_constant_op@N@internal@Eigen@@$$CBV?$Matrix@N$0?0$00$0A@$0?0$00@3@@3@$$CBV?$Map@V?$Matrix@N$0?0$00$0A@$0?0$00@Eigen@@$01V?$Stride@$0A@$0A@@2@@3@@0@AEBNAEBV?$MatrixBase@V?$Map@V?$Matrix@N$0?0$00$0A@$0?0$00@Eigen@@$01V?$Stride@$0A@$0A@@2@@Eigen@@@0@@Z
	??$?DN@Eigen@@YA?BV?$CwiseBinaryOp@U?$scalar_product_op@NN@internal@Eigen@@$$CBV?$CwiseNullaryOp@U?$scalar_constant_op@N@internal@Eigen@@$$CBV?$Matrix@N$0?0$00$0A@$0?0$00@3@@3@$$CBV?$Map@V?$Matrix@N$0?0$00$0A@$0?0$00@Eigen@@$0A@V?$Stride@$0A@$0A@@2@@3@@0@AEBNAEBV?$MatrixBase@V?$Map@V?$Matrix@N$0?0$00$0A@$0?0$00@Eigen@@$0A@V?$Stride@$0A@$0A@@2@@Eigen@@@0@@Z
	??$?DN@Eigen@@YA?BV?$CwiseBinaryOp@U?$scalar_product_op@NN@internal@Eigen@@$$CBV?$CwiseNullaryOp@U?$scalar_constant_op@N@internal@Eigen@@$$CBV?$Matrix@N$0?0$00$0A@$0?0$00@3@@3@$$CBV?$Map@V?$Matrix@N$0?0$00$0A@$0?0$00@Eigen@@$0BA@V?$Stride@$0A@$0A@@2@@3@@0@AEBNAEBV?$MatrixBase@V?$Map@V?$Matrix@N$0?0$00$0A@$0?0$00@Eigen@@$0BA@V?$Stride@$0A@$0A@@2@@Eigen@@@0@@Z
	??$?DN@Eigen@@YA?BV?$CwiseBinaryOp@U?$scalar_product_op@NN@internal@Eigen@@$$CBV?$CwiseNullaryOp@U?$scalar_constant_op@N@internal@Eigen@@$$CBV?$Matrix@N$0?0$02$0A@$02$02@3@@3@$$CBV?$Block@V?$Matrix@N$02$02$0A@$02$02@Eigen@@$0?0$02$0A@@3@@0@AEBNAEBV?$MatrixBase@V?$Block@V?$Matrix@N$02$02$0A@$02$02@Eigen@@$0?0$02$0A@@Eigen@@@0@@Z
	??$?DN@Eigen@@YA?BV?$CwiseBinaryOp@U?$scalar_product_op@NN@internal@Eigen@@$$CBV?$CwiseNullaryOp@U?$scalar_constant_op@N@internal@Eigen@@$$CBV?$Matrix@N$0?0$02$0A@$02$02@3@@3@$$CBV?$Matrix@N$0?0$02$0A@$02$02@3@@0@AEBNAEBV?$MatrixBase@V?$Matrix@N$0?0$02$0A@$02$02@Eigen@@@0@@Z
	??$?DN@Eigen@@YA?BV?$CwiseBinaryOp@U?$scalar_product_op@NN@internal@Eigen@@$$CBV?$CwiseNullaryOp@U?$scalar_constant_op@N@internal@Eigen@@$$CBV?$Matrix@N$0?0$0?0$00$02$02@3@@3@$$CBV?$Block@$$CBV?$Transpose@$$CBV?$Block@V?$Matrix@N$02$02$0A@$02$02@Eigen@@$0?0$0?0$0A@@Eigen@@@Eigen@@$0?0$0?0$0A@@3@@0@AEBNAEBV?$MatrixBase@V?$Block@$$CBV?$Transpose@$$CBV?$Block@V?$Matrix@N$02$02$0A@$02$02@Eigen@@$0?0$0?0$0A@@Eigen@@@Eigen@@$0?0$0?0$0A@@Eigen@@@0@@Z
	??$?DN@Eigen@@YA?BV?$CwiseBinaryOp@U?$scalar_product_op@NN@internal@Eigen@@$$CBV?$CwiseNullaryOp@U?$scalar_constant_op@N@internal@Eigen@@$$CBV?$Matrix@N$0?0$0?0$00$0?0$0?0@3@@3@$$CBV?$Block@$$CBV?$Matrix@N$0?0$0?0$00$0?0$0?0@Eigen@@$0?0$0?0$0A@@3@@0@AEBNAEBV?$MatrixBase@V?$Block@$$CBV?$Matrix@N$0?0$0?0$00$0?0$0?0@Eigen@@$0?0$0?0$0A@@Eigen@@@0@@Z
	??$?DN@Eigen@@YA?BV?$CwiseBinaryOp@U?$scalar_product_op@NN@internal@Eigen@@$$CBV?$CwiseNullaryOp@U?$scalar_constant_op@N@internal@Eigen@@$$CBV?$Matrix@N$0?0$0?0$00$0?0$0?0@3@@3@$$CBV?$Block@$$CBV?$Transpose@$$CBV?$Block@V?$Matrix@N$0?0$0?0$0A@$0?0$0?0@Eigen@@$0?0$0?0$0A@@Eigen@@@Eigen@@$0?0$0?0$0A@@3@@0@AEBNAEBV?$MatrixBase@V?$Block@$$CBV?$Transpose@$$CBV?$Block@V?$Matrix@N$0?0$0?0$0A@$0?0$0?0@Eigen@@$0?0$0?0$0A@@Eigen@@@Eigen@@$0?0$0?0$0A@@Eigen@@@0@@Z
	??$?DN@Eigen@@YA?BV?$CwiseBinaryOp@U?$scalar_product_op@NN@internal@Eigen@@$$CBV?$CwiseNullaryOp@U?$scalar_constant_op@N@internal@Eigen@@$$CBV?$Matrix@N$0?0$0?0$0A@$02$02@3@@3@$$CBV?$Block@$$CBV?$Block@V?$Matrix@N$02$02$0A@$02$02@Eigen@@$0?0$0?0$0A@@Eigen@@$0?0$0?0$00@3@@0@AEBNAEBV?$MatrixBase@V?$Block@$$CBV?$Block@V?$Matrix@N$02$02$0A@$02$02@Eigen@@$0?0$0?0$0A@@Eigen@@$0?0$0?0$00@Eigen@@@0@@Z
	??$?DN@Eigen@@YA?BV?$CwiseBinaryOp@U?$scalar_product_op@NN@internal@Eigen@@$$CBV?$CwiseNullaryOp@U?$scalar_constant_op@N@internal@Eigen@@$$CBV?$Matrix@N$0?0$0?0$0A@$02$02@3@@3@$$CBV?$Block@V?$Matrix@N$02$02$0A@$02$02@Eigen@@$0?0$0?0$0A@@3@@0@AEBNAEBV?$MatrixBase@V?$Block@V?$Matrix@N$02$02$0A@$02$02@Eigen@@$0?0$0?0$0A@@Eigen@@@0@@Z
	??$?DN@Eigen@@YA?BV?$CwiseBinaryOp@U?$scalar_product_op@NN@internal@Eigen@@$$CBV?$CwiseNullaryOp@U?$scalar_constant_op@N@internal@Eigen@@$$CBV?$Matrix@N$0?0$0?0$0A@$02$02@3@@3@$$CBV?$Matrix@N$0?0$0?0$0A@$02$02@3@@0@AEBNAEBV?$MatrixBase@V?$Matrix@N$0?0$0?0$0A@$02$02@Eigen@@@0@@Z
	??$?DN@Eigen@@YA?BV?$CwiseBinaryOp@U?$scalar_product_op@NN@internal@Eigen@@$$CBV?$CwiseNullaryOp@U?$scalar_constant_op@N@internal@Eigen@@$$CBV?$Matrix@N$0?0$0?0$0A@$0?0$0?0@3@@3@$$CBV?$Block@$$CBV?$Block@V?$Matrix@N$0?0$0?0$0A@$0?0$0?0@Eigen@@$0?0$0?0$0A@@Eigen@@$0?0$0?0$00@3@@0@AEBNAEBV?$MatrixBase@V?$Block@$$CBV?$Block@V?$Matrix@N$0?0$0?0$0A@$0?0$0?0@Eigen@@$0?0$0?0$0A@@Eigen@@$0?0$0?0$00@Eigen@@@0@@Z
	??$?DN@Eigen@@YA?BV?$CwiseBinaryOp@U?$scalar_product_op@NN@internal@Eigen@@$$CBV?$CwiseNullaryOp@U?$scalar_constant_op@N@internal@Eigen@@$$CBV?$Matrix@N$0?0$0?0$0A@$0?0$0?0@3@@3@$$CBV?$Block@$$CBV?$Transpose@$$CBV?$Matrix@N$0?0$0?0$00$0?0$0?0@Eigen@@@Eigen@@$0?0$0?0$00@3@@0@AEBNAEBV?$MatrixBase@V?$Block@$$CBV?$Transpose@$$CBV?$Matrix@N$0?0$0?0$00$0?0$0?0@Eigen@@@Eigen@@$0?0$0?0$00@Eigen@@@0@@Z
	??$?DN@Eigen@@YA?BV?$CwiseBinaryOp@U?$scalar_product_op@NN@internal@Eigen@@$$CBV?$CwiseNullaryOp@U?$scalar_constant_op@N@internal@Eigen@@$$CBV?$Matrix@N$0?0$0?0$0A@$0?0$0?0@3@@3@$$CBV?$Block@V?$Matrix@N$0?0$0?0$0A@$0?0$0?0@Eigen@@$0?0$0?0$0A@@3@@0@AEBNAEBV?$MatrixBase@V?$Block@V?$Matrix@N$0?0$0?0$0A@$0?0$0?0@Eigen@@$0?0$0?0$0A@@Eigen@@@0@@Z
	??$?DN@Eigen@@YA?BV?$CwiseBinaryOp@U?$scalar_product_op@NN@internal@Eigen@@$$CBV?$CwiseNullaryOp@U?$scalar_constant_op@N@internal@Eigen@@$$CBV?$Matrix@N$0?0$0?0$0A@$0?0$0?0@3@@3@$$CBV?$Matrix@N$0?0$0?0$0A@$0?0$0?0@3@@0@AEBNAEBV?$MatrixBase@V?$Matrix@N$0?0$0?0$0A@$0?0$0?0@Eigen@@@0@@Z
	??$?DV?$Block@$$CBV?$Matrix@N$02$02$0A@$02$02@Eigen@@$0?0$00$0A@@Eigen@@@?$MatrixBase@V?$Block@V?$Block@V?$Matrix@N$02$02$0A@$02$02@Eigen@@$0?0$0?0$0A@@Eigen@@$0?0$0?0$0A@@Eigen@@@Eigen@@QEBA?BV?$Product@V?$Block@V?$Block@V?$Matrix@N$02$02$0A@$02$02@Eigen@@$0?0$0?0$0A@@Eigen@@$0?0$0?0$0A@@Eigen@@V?$Block@$$CBV?$Matrix@N$02$02$0A@$02$02@Eigen@@$0?0$00$0A@@2@$0A@@1@AEBV?$MatrixBase@V?$Block@$$CBV?$Matrix@N$02$02$0A@$02$02@Eigen@@$0?0$00$0A@@Eigen@@@1@@Z
	??$?DV?$Block@$$CBV?$Matrix@N$0?0$0?0$0A@$0?0$0?0@Eigen@@$0?0$00$0A@@Eigen@@@?$MatrixBase@V?$Block@V?$Block@V?$Matrix@N$0?0$0?0$0A@$0?0$0?0@Eigen@@$0?0$0?0$0A@@Eigen@@$0?0$0?0$0A@@Eigen@@@Eigen@@QEBA?BV?$Product@V?$Block@V?$Block@V?$Matrix@N$0?0$0?0$0A@$0?0$0?0@Eigen@@$0?0$0?0$0A@@Eigen@@$0?0$0?0$0A@@Eigen@@V?$Block@$$CBV?$Matrix@N$0?0$0?0$0A@$0?0$0?0@Eigen@@$0?0$00$0A@@2@$0A@@1@AEBV?$MatrixBase@V?$Block@$$CBV?$Matrix@N$0?0$0?0$0A@$0?0$0?0@Eigen@@$0?0$00$0A@@Eigen@@@1@@Z
	??$?DV?$Block@V?$Block@V?$Block@V?$Matrix@N$02$02$0A@$02$02@Eigen@@$0?0$0?0$0A@@Eigen@@$0?0$0?0$0A@@Eigen@@$0?0$0?0$0A@@Eigen@@@?$MatrixBase@V?$Transpose@$$CBV?$Block@V?$Block@V?$Block@V?$Matrix@N$02$02$0A@$02$02@Eigen@@$0?0$0?0$0A@@Eigen@@$0?0$00$00@Eigen@@$0?0$00$0A@@Eigen@@@Eigen@@@Eigen@@QEBA?BV?$Product@V?$Transpose@$$CBV?$Block@V?$Block@V?$Block@V?$Matrix@N$02$02$0A@$02$02@Eigen@@$0?0$0?0$0A@@Eigen@@$0?0$00$00@Eigen@@$0?0$00$0A@@Eigen@@@Eigen@@V?$Block@V?$Block@V?$Block@V?$Matrix@N$02$02$0A@$02$02@Eigen@@$0?0$0?0$0A@@Eigen@@$0?0$0?0$0A@@Eigen@@$0?0$0?0$0A@@2@$0A@@1@AEBV?$MatrixBase@V?$Block@V?$Block@V?$Block@V?$Matrix@N$02$02$0A@$02$02@Eigen@@$0?0$0?0$0A@@Eigen@@$0?0$0?0$0A@@Eigen@@$0?0$0?0$0A@@Eigen@@@1@@Z
	??$?DV?$Block@V?$Block@V?$Matrix@N$02$02$0A@$02$02@Eigen@@$0?0$02$0A@@Eigen@@$0?0$02$0A@@Eigen@@@?$MatrixBase@V?$Transpose@$$CBV?$Block@$$CBV?$Matrix@N$02$02$0A@$02$02@Eigen@@$0?0$00$0A@@Eigen@@@Eigen@@@Eigen@@QEBA?BV?$Product@V?$Transpose@$$CBV?$Block@$$CBV?$Matrix@N$02$02$0A@$02$02@Eigen@@$0?0$00$0A@@Eigen@@@Eigen@@V?$Block@V?$Block@V?$Matrix@N$02$02$0A@$02$02@Eigen@@$0?0$02$0A@@Eigen@@$0?0$02$0A@@2@$0A@@1@AEBV?$MatrixBase@V?$Block@V?$Block@V?$Matrix@N$02$02$0A@$02$02@Eigen@@$0?0$02$0A@@Eigen@@$0?0$02$0A@@Eigen@@@1@@Z
	??$?DV?$Block@V?$Block@V?$Matrix@N$02$02$0A@$02$02@Eigen@@$0?0$0?0$0A@@Eigen@@$0?0$0?0$0A@@Eigen@@@?$MatrixBase@V?$Transpose@$$CBV?$Block@$$CBV?$Matrix@N$02$02$0A@$02$02@Eigen@@$0?0$00$0A@@Eigen@@@Eigen@@@Eigen@@QEBA?BV?$Product@V?$Transpose@$$CBV?$Block@$$CBV?$Matrix@N$02$02$0A@$02$02@Eigen@@$0?0$00$0A@@Eigen@@@Eigen@@V?$Block@V?$Block@V?$Matrix@N$02$02$0A@$02$02@Eigen@@$0?0$0?0$0A@@Eigen@@$0?0$0?0$0A@@2@$0A@@1@AEBV?$MatrixBase@V?$Block@V?$Block@V?$Matrix@N$02$02$0A@$02$02@Eigen@@$0?0$0?0$0A@@Eigen@@$0?0$0?0$0A@@Eigen@@@1@@Z
	??$?DV?$Block@V?$Block@V?$Matrix@N$0?0$0?0$0A@$0?0$0?0@Eigen@@$0?0$0?0$0A@@Eigen@@$0?0$0?0$0A@@Eigen@@@?$MatrixBase@V?$Transpose@$$CBV?$Block@$$CBV?$Matrix@N$0?0$0?0$0A@$0?0$0?0@Eigen@@$0?0$00$0A@@Eigen@@@Eigen@@@Eigen@@QEBA?BV?$Product@V?$Transpose@$$CBV?$Block@$$CBV?$Matrix@N$0?0$0?0$0A@$0?0$0?0@Eigen@@$0?0$00$0A@@Eigen@@@Eigen@@V?$Block@V?$Block@V?$Matrix@N$0?0$0?0$0A@$0?0$0?0@Eigen@@$0?0$0?0$0A@@Eigen@@$0?0$0?0$0A@@2@$0A@@1@AEBV?$MatrixBase@V?$Block@V?$Block@V?$Matrix@N$0?0$0?0$0A@$0?0$0?0@Eigen@@$0?0$0?0$0A@@Eigen@@$0?0$0?0$0A@@Eigen@@@1@@Z
	??$?DV?$Block@V?$Block@V?$Matrix@N$0?0$0?0$0A@$0?0$0?0@Eigen@@$0?0$0?0$0A@@Eigen@@$0?0$0?0$0A@@Eigen@@@?$MatrixBase@V?$Transpose@$$CBV?$Block@V?$Block@V?$Matrix@N$0?0$0?0$0A@$0?0$0?0@Eigen@@$0?0$00$00@Eigen@@$0?0$00$0A@@Eigen@@@Eigen@@@Eigen@@QEBA?BV?$Product@V?$Transpose@$$CBV?$Block@V?$Block@V?$Matrix@N$0?0$0?0$0A@$0?0$0?0@Eigen@@$0?0$00$00@Eigen@@$0?0$00$0A@@Eigen@@@Eigen@@V?$Block@V?$Block@V?$Matrix@N$0?0$0?0$0A@$0?0$0?0@Eigen@@$0?0$0?0$0A@@Eigen@@$0?0$0?0$0A@@2@$0A@@1@AEBV?$MatrixBase@V?$Block@V?$Block@V?$Matrix@N$0?0$0?0$0A@$0?0$0?0@Eigen@@$0?0$0?0$0A@@Eigen@@$0?0$0?0$0A@@Eigen@@@1@@Z
	??$?DV?$Block@V?$Block@V?$Ref@V?$Matrix@N$02$02$0A@$02$02@Eigen@@$0A@V?$OuterStride@$0?0@2@@Eigen@@$00$02$0A@@Eigen@@$00$0?0$0A@@Eigen@@@?$MatrixBase@V?$Block@V?$Block@V?$Ref@V?$Matrix@N$02$02$0A@$02$02@Eigen@@$0A@V?$OuterStride@$0?0@2@@Eigen@@$02$00$00@Eigen@@$0?0$00$0A@@Eigen@@@Eigen@@QEBA?BV?$Product@V?$Block@V?$Block@V?$Ref@V?$Matrix@N$02$02$0A@$02$02@Eigen@@$0A@V?$OuterStride@$0?0@2@@Eigen@@$02$00$00@Eigen@@$0?0$00$0A@@Eigen@@V?$Block@V?$Block@V?$Ref@V?$Matrix@N$02$02$0A@$02$02@Eigen@@$0A@V?$OuterStride@$0?0@2@@Eigen@@$00$02$0A@@Eigen@@$00$0?0$0A@@2@$0A@@1@AEBV?$MatrixBase@V?$Block@V?$Block@V?$Ref@V?$Matrix@N$02$02$0A@$02$02@Eigen@@$0A@V?$OuterStride@$0?0@2@@Eigen@@$00$02$0A@@Eigen@@$00$0?0$0A@@Eigen@@@1@@Z
	??$?DV?$Block@V?$Matrix@N$02$02$0A@$02$02@Eigen@@$0?0$02$0A@@Eigen@@@?$TriangularViewImpl@$$CBV?$Transpose@$$CBV?$Block@V?$Matrix@N$02$02$0A@$02$02@Eigen@@$0?0$0?0$0A@@Eigen@@@Eigen@@$05UDense@2@@Eigen@@QEBA?BV?$Product@V?$TriangularView@$$CBV?$Transpose@$$CBV?$Block@V?$Matrix@N$02$02$0A@$02$02@Eigen@@$0?0$0?0$0A@@Eigen@@@Eigen@@$05@Eigen@@V?$Block@V?$Matrix@N$02$02$0A@$02$02@Eigen@@$0?0$02$0A@@2@$0A@@1@AEBV?$MatrixBase@V?$Block@V?$Matrix@N$02$02$0A@$02$02@Eigen@@$0?0$02$0A@@Eigen@@@1@@Z
	??$?DV?$Block@V?$Matrix@N$02$02$0A@$02$02@Eigen@@$0?0$0?0$0A@@Eigen@@@?$TriangularViewImpl@$$CBV?$Transpose@$$CBV?$Block@V?$Matrix@N$02$02$0A@$02$02@Eigen@@$0?0$0?0$0A@@Eigen@@@Eigen@@$05UDense@2@@Eigen@@QEBA?BV?$Product@V?$TriangularView@$$CBV?$Transpose@$$CBV?$Block@V?$Matrix@N$02$02$0A@$02$02@Eigen@@$0?0$0?0$0A@@Eigen@@@Eigen@@$05@Eigen@@V?$Block@V?$Matrix@N$02$02$0A@$02$02@Eigen@@$0?0$0?0$0A@@2@$0A@@1@AEBV?$MatrixBase@V?$Block@V?$Matrix@N$02$02$0A@$02$02@Eigen@@$0?0$0?0$0A@@Eigen@@@1@@Z
	??$?DV?$Block@V?$Matrix@N$0?0$0?0$0A@$0?0$0?0@Eigen@@$0?0$0?0$0A@@Eigen@@@?$TriangularViewImpl@$$CBV?$Transpose@$$CBV?$Block@V?$Matrix@N$0?0$0?0$0A@$0?0$0?0@Eigen@@$0?0$0?0$0A@@Eigen@@@Eigen@@$05UDense@2@@Eigen@@QEBA?BV?$Product@V?$TriangularView@$$CBV?$Transpose@$$CBV?$Block@V?$Matrix@N$0?0$0?0$0A@$0?0$0?0@Eigen@@$0?0$0?0$0A@@Eigen@@@Eigen@@$05@Eigen@@V?$Block@V?$Matrix@N$0?0$0?0$0A@$0?0$0?0@Eigen@@$0?0$0?0$0A@@2@$0A@@1@AEBV?$MatrixBase@V?$Block@V?$Matrix@N$0?0$0?0$0A@$0?0$0?0@Eigen@@$0?0$0?0$0A@@Eigen@@@1@@Z
	??$?DV?$CwiseBinaryOp@U?$scalar_product_op@NN@internal@Eigen@@$$CBV?$CwiseNullaryOp@U?$scalar_constant_op@N@internal@Eigen@@$$CBV?$Matrix@N$00$0?0$00$00$02@3@@3@$$CBV?$Transpose@$$CBV?$Block@$$CBV?$Block@$$CBV?$Block@V?$Matrix@N$02$02$0A@$02$02@Eigen@@$0?0$0?0$0A@@Eigen@@$0?0$00$00@Eigen@@$0?0$00$0A@@Eigen@@@3@@Eigen@@@Eigen@@YA?BV?$Product@V?$CwiseBinaryOp@U?$scalar_product_op@NN@internal@Eigen@@$$CBV?$CwiseNullaryOp@U?$scalar_constant_op@N@internal@Eigen@@$$CBV?$Matrix@N$00$0?0$00$00$02@3@@3@$$CBV?$Transpose@$$CBV?$Block@$$CBV?$Block@$$CBV?$Block@V?$Matrix@N$02$02$0A@$02$02@Eigen@@$0?0$0?0$0A@@Eigen@@$0?0$00$00@Eigen@@$0?0$00$0A@@Eigen@@@3@@Eigen@@V?$TriangularView@$$CBV?$Block@$$CBV?$Block@V?$Matrix@N$02$02$0A@$02$02@Eigen@@$0?0$0?0$0A@@Eigen@@$0?0$0?0$0A@@Eigen@@$04@2@$0A@@0@AEBV?$MatrixBase@V?$CwiseBinaryOp@U?$scalar_product_op@NN@internal@Eigen@@$$CBV?$CwiseNullaryOp@U?$scalar_constant_op@N@internal@Eigen@@$$CBV?$Matrix@N$00$0?0$00$00$02@3@@3@$$CBV?$Transpose@$$CBV?$Block@$$CBV?$Block@$$CBV?$Block@V?$Matrix@N$02$02$0A@$02$02@Eigen@@$0?0$0?0$0A@@Eigen@@$0?0$00$00@Eigen@@$0?0$00$0A@@Eigen@@@3@@Eigen@@@0@AEBV?$TriangularViewImpl@$$CBV?$Block@$$CBV?$Block@V?$Matrix@N$02$02$0A@$02$02@Eigen@@$0?0$0?0$0A@@Eigen@@$0?0$0?0$0A@@Eigen@@$04UDense@2@@0@@Z
	??$?DV?$CwiseBinaryOp@U?$scalar_product_op@NN@internal@Eigen@@$$CBV?$CwiseNullaryOp@U?$scalar_constant_op@N@internal@Eigen@@$$CBV?$Matrix@N$00$0?0$00$00$0?0@3@@3@$$CBV?$Transpose@$$CBV?$Block@$$CBV?$Block@$$CBV?$Block@V?$Matrix@N$0?0$0?0$0A@$0?0$0?0@Eigen@@$0?0$0?0$0A@@Eigen@@$0?0$00$00@Eigen@@$0?0$00$0A@@Eigen@@@3@@Eigen@@@Eigen@@YA?BV?$Product@V?$CwiseBinaryOp@U?$scalar_product_op@NN@internal@Eigen@@$$CBV?$CwiseNullaryOp@U?$scalar_constant_op@N@internal@Eigen@@$$CBV?$Matrix@N$00$0?0$00$00$0?0@3@@3@$$CBV?$Transpose@$$CBV?$Block@$$CBV?$Block@$$CBV?$Block@V?$Matrix@N$0?0$0?0$0A@$0?0$0?0@Eigen@@$0?0$0?0$0A@@Eigen@@$0?0$00$00@Eigen@@$0?0$00$0A@@Eigen@@@3@@Eigen@@V?$TriangularView@$$CBV?$Block@$$CBV?$Block@V?$Matrix@N$0?0$0?0$0A@$0?0$0?0@Eigen@@$0?0$0?0$0A@@Eigen@@$0?0$0?0$0A@@Eigen@@$04@2@$0A@@0@AEBV?$MatrixBase@V?$CwiseBinaryOp@U?$scalar_product_op@NN@internal@Eigen@@$$CBV?$CwiseNullaryOp@U?$scalar_constant_op@N@internal@Eigen@@$$CBV?$Matrix@N$00$0?0$00$00$0?0@3@@3@$$CBV?$Transpose@$$CBV?$Block@$$CBV?$Block@$$CBV?$Block@V?$Matrix@N$0?0$0?0$0A@$0?0$0?0@Eigen@@$0?0$0?0$0A@@Eigen@@$0?0$00$00@Eigen@@$0?0$00$0A@@Eigen@@@3@@Eigen@@@0@AEBV?$TriangularViewImpl@$$CBV?$Block@$$CBV?$Block@V?$Matrix@N$0?0$0?0$0A@$0?0$0?0@Eigen@@$0?0$0?0$0A@@Eigen@@$0?0$0?0$0A@@Eigen@@$04UDense@2@@0@@Z
	??$?DV?$CwiseNullaryOp@U?$scalar_identity_op@N@internal@Eigen@@V?$Matrix@N$03$03$0A@$03$03@3@@Eigen@@@?$MatrixBase@V?$Product@V?$Inverse@V?$CwiseNullaryOp@U?$scalar_identity_op@N@internal@Eigen@@V?$Matrix@N$02$02$0A@$02$02@3@@Eigen@@@Eigen@@V?$Matrix@N$02$03$0A@$02$03@2@$0A@@Eigen@@@Eigen@@QEBA?BV?$Product@V?$Product@V?$Inverse@V?$CwiseNullaryOp@U?$scalar_identity_op@N@internal@Eigen@@V?$Matrix@N$02$02$0A@$02$02@3@@Eigen@@@Eigen@@V?$Matrix@N$02$03$0A@$02$03@2@$0A@@Eigen@@V?$CwiseNullaryOp@U?$scalar_identity_op@N@internal@Eigen@@V?$Matrix@N$03$03$0A@$03$03@3@@2@$0A@@1@AEBV?$MatrixBase@V?$CwiseNullaryOp@U?$scalar_identity_op@N@internal@Eigen@@V?$Matrix@N$03$03$0A@$03$03@3@@Eigen@@@1@@Z
	??$?DV?$DiagonalWrapper@$$CBV?$Matrix@N$0?0$00$0A@$0?0$00@Eigen@@@Eigen@@@?$MatrixBase@V?$Matrix@N$0?0$0?0$0A@$0?0$0?0@Eigen@@@Eigen@@QEBA?BV?$Product@V?$Matrix@N$0?0$0?0$0A@$0?0$0?0@Eigen@@V?$DiagonalWrapper@$$CBV?$Matrix@N$0?0$00$0A@$0?0$00@Eigen@@@2@$00@1@AEBV?$DiagonalBase@V?$DiagonalWrapper@$$CBV?$Matrix@N$0?0$00$0A@$0?0$00@Eigen@@@Eigen@@@1@@Z
	??$?DV?$Map@V?$Matrix@N$00$02$00$00$02@Eigen@@$0A@V?$Stride@$0A@$0A@@2@@Eigen@@@?$MatrixBase@V?$CwiseBinaryOp@U?$scalar_product_op@NN@internal@Eigen@@$$CBV?$CwiseNullaryOp@U?$scalar_constant_op@N@internal@Eigen@@$$CBV?$Matrix@N$0?0$00$0A@$02$00@3@@3@$$CBV?$Block@$$CBV?$Matrix@N$02$02$0A@$02$02@Eigen@@$0?0$00$0A@@3@@Eigen@@@Eigen@@QEBA?BV?$Product@V?$CwiseBinaryOp@U?$scalar_product_op@NN@internal@Eigen@@$$CBV?$CwiseNullaryOp@U?$scalar_constant_op@N@internal@Eigen@@$$CBV?$Matrix@N$0?0$00$0A@$02$00@3@@3@$$CBV?$Block@$$CBV?$Matrix@N$02$02$0A@$02$02@Eigen@@$0?0$00$0A@@3@@Eigen@@V?$Map@V?$Matrix@N$00$02$00$00$02@Eigen@@$0A@V?$Stride@$0A@$0A@@2@@2@$0A@@1@AEBV?$MatrixBase@V?$Map@V?$Matrix@N$00$02$00$00$02@Eigen@@$0A@V?$Stride@$0A@$0A@@2@@Eigen@@@1@@Z
	??$?DV?$Map@V?$Matrix@N$00$0?0$00$00$02@Eigen@@$0A@V?$Stride@$0A@$0A@@2@@Eigen@@@?$MatrixBase@V?$CwiseBinaryOp@U?$scalar_product_op@NN@internal@Eigen@@$$CBV?$CwiseNullaryOp@U?$scalar_constant_op@N@internal@Eigen@@$$CBV?$Matrix@N$0?0$00$0A@$02$00@3@@3@$$CBV?$Block@$$CBV?$Matrix@N$02$02$0A@$02$02@Eigen@@$0?0$00$0A@@3@@Eigen@@@Eigen@@QEBA?BV?$Product@V?$CwiseBinaryOp@U?$scalar_product_op@NN@internal@Eigen@@$$CBV?$CwiseNullaryOp@U?$scalar_constant_op@N@internal@Eigen@@$$CBV?$Matrix@N$0?0$00$0A@$02$00@3@@3@$$CBV?$Block@$$CBV?$Matrix@N$02$02$0A@$02$02@Eigen@@$0?0$00$0A@@3@@Eigen@@V?$Map@V?$Matrix@N$00$0?0$00$00$02@Eigen@@$0A@V?$Stride@$0A@$0A@@2@@2@$0A@@1@AEBV?$MatrixBase@V?$Map@V?$Matrix@N$00$0?0$00$00$02@Eigen@@$0A@V?$Stride@$0A@$0A@@2@@Eigen@@@1@@Z
	??$?DV?$Map@V?$Matrix@N$00$0?0$00$00$02@Eigen@@$0A@V?$Stride@$0A@$0A@@2@@Eigen@@@?$MatrixBase@V?$CwiseBinaryOp@U?$scalar_product_op@NN@internal@Eigen@@$$CBV?$CwiseNullaryOp@U?$scalar_constant_op@N@internal@Eigen@@$$CBV?$Matrix@N$0?0$00$0A@$02$00@3@@3@$$CBV?$Block@V?$Block@V?$Block@V?$Matrix@N$02$02$0A@$02$02@Eigen@@$0?0$0?0$0A@@Eigen@@$0?0$00$00@Eigen@@$0?0$00$0A@@3@@Eigen@@@Eigen@@QEBA?BV?$Product@V?$CwiseBinaryOp@U?$scalar_product_op@NN@internal@Eigen@@$$CBV?$CwiseNullaryOp@U?$scalar_constant_op@N@internal@Eigen@@$$CBV?$Matrix@N$0?0$00$0A@$02$00@3@@3@$$CBV?$Block@V?$Block@V?$Block@V?$Matrix@N$02$02$0A@$02$02@Eigen@@$0?0$0?0$0A@@Eigen@@$0?0$00$00@Eigen@@$0?0$00$0A@@3@@Eigen@@V?$Map@V?$Matrix@N$00$0?0$00$00$02@Eigen@@$0A@V?$Stride@$0A@$0A@@2@@2@$0A@@1@AEBV?$MatrixBase@V?$Map@V?$Matrix@N$00$0?0$00$00$02@Eigen@@$0A@V?$Stride@$0A@$0A@@2@@Eigen@@@1@@Z
	??$?DV?$Map@V?$Matrix@N$00$0?0$00$00$0?0@Eigen@@$0A@V?$Stride@$0A@$0A@@2@@Eigen@@@?$MatrixBase@V?$CwiseBinaryOp@U?$scalar_product_op@NN@internal@Eigen@@$$CBV?$CwiseNullaryOp@U?$scalar_constant_op@N@internal@Eigen@@$$CBV?$Matrix@N$0?0$00$0A@$0?0$00@3@@3@$$CBV?$Block@$$CBV?$Matrix@N$0?0$0?0$0A@$0?0$0?0@Eigen@@$0?0$00$0A@@3@@Eigen@@@Eigen@@QEBA?BV?$Product@V?$CwiseBinaryOp@U?$scalar_product_op@NN@internal@Eigen@@$$CBV?$CwiseNullaryOp@U?$scalar_constant_op@N@internal@Eigen@@$$CBV?$Matrix@N$0?0$00$0A@$0?0$00@3@@3@$$CBV?$Block@$$CBV?$Matrix@N$0?0$0?0$0A@$0?0$0?0@Eigen@@$0?0$00$0A@@3@@Eigen@@V?$Map@V?$Matrix@N$00$0?0$00$00$0?0@Eigen@@$0A@V?$Stride@$0A@$0A@@2@@2@$0A@@1@AEBV?$MatrixBase@V?$Map@V?$Matrix@N$00$0?0$00$00$0?0@Eigen@@$0A@V?$Stride@$0A@$0A@@2@@Eigen@@@1@@Z
	??$?DV?$Map@V?$Matrix@N$00$0?0$00$00$0?0@Eigen@@$0A@V?$Stride@$0A@$0A@@2@@Eigen@@@?$MatrixBase@V?$CwiseBinaryOp@U?$scalar_product_op@NN@internal@Eigen@@$$CBV?$CwiseNullaryOp@U?$scalar_constant_op@N@internal@Eigen@@$$CBV?$Matrix@N$0?0$00$0A@$0?0$00@3@@3@$$CBV?$Block@V?$Block@V?$Matrix@N$0?0$0?0$0A@$0?0$0?0@Eigen@@$0?0$00$00@Eigen@@$0?0$00$0A@@3@@Eigen@@@Eigen@@QEBA?BV?$Product@V?$CwiseBinaryOp@U?$scalar_product_op@NN@internal@Eigen@@$$CBV?$CwiseNullaryOp@U?$scalar_constant_op@N@internal@Eigen@@$$CBV?$Matrix@N$0?0$00$0A@$0?0$00@3@@3@$$CBV?$Block@V?$Block@V?$Matrix@N$0?0$0?0$0A@$0?0$0?0@Eigen@@$0?0$00$00@Eigen@@$0?0$00$0A@@3@@Eigen@@V?$Map@V?$Matrix@N$00$0?0$00$00$0?0@Eigen@@$0A@V?$Stride@$0A@$0A@@2@@2@$0A@@1@AEBV?$MatrixBase@V?$Map@V?$Matrix@N$00$0?0$00$00$0?0@Eigen@@$0A@V?$Stride@$0A@$0A@@2@@Eigen@@@1@@Z
	??$?DV?$Matrix@N$02$00$0A@$02$00@Eigen@@@?$MatrixBase@V?$CwiseNullaryOp@U?$scalar_identity_op@N@internal@Eigen@@V?$Matrix@N$02$02$0A@$02$02@3@@Eigen@@@Eigen@@QEBA?BV?$Product@V?$CwiseNullaryOp@U?$scalar_identity_op@N@internal@Eigen@@V?$Matrix@N$02$02$0A@$02$02@3@@Eigen@@V?$Matrix@N$02$00$0A@$02$00@2@$0A@@1@AEBV?$MatrixBase@V?$Matrix@N$02$00$0A@$02$00@Eigen@@@1@@Z
	??$?DV?$Matrix@N$02$00$0A@$02$00@Eigen@@@?$MatrixBase@V?$Matrix@N$02$02$0A@$02$02@Eigen@@@Eigen@@QEBA?BV?$Product@V?$Matrix@N$02$02$0A@$02$02@Eigen@@V?$Matrix@N$02$00$0A@$02$00@2@$0A@@1@AEBV?$MatrixBase@V?$Matrix@N$02$00$0A@$02$00@Eigen@@@1@@Z
	??$?DV?$Matrix@N$02$02$0A@$02$02@Eigen@@@?$MatrixBase@V?$Matrix@N$02$02$0A@$02$02@Eigen@@@Eigen@@QEBA?BV?$Product@V?$Matrix@N$02$02$0A@$02$02@Eigen@@V12@$0A@@1@AEBV01@@Z
	??$?DV?$Matrix@N$02$03$0A@$02$03@Eigen@@@?$MatrixBase@V?$Inverse@V?$CwiseNullaryOp@U?$scalar_identity_op@N@internal@Eigen@@V?$Matrix@N$02$02$0A@$02$02@3@@Eigen@@@Eigen@@@Eigen@@QEBA?BV?$Product@V?$Inverse@V?$CwiseNullaryOp@U?$scalar_identity_op@N@internal@Eigen@@V?$Matrix@N$02$02$0A@$02$02@3@@Eigen@@@Eigen@@V?$Matrix@N$02$03$0A@$02$03@2@$0A@@1@AEBV?$MatrixBase@V?$Matrix@N$02$03$0A@$02$03@Eigen@@@1@@Z
	??$?DV?$Matrix@N$02$03$0A@$02$03@Eigen@@@?$MatrixBase@V?$Matrix@N$02$02$0A@$02$02@Eigen@@@Eigen@@QEBA?BV?$Product@V?$Matrix@N$02$02$0A@$02$02@Eigen@@V?$Matrix@N$02$03$0A@$02$03@2@$0A@@1@AEBV?$MatrixBase@V?$Matrix@N$02$03$0A@$02$03@Eigen@@@1@@Z
	??$?DV?$Matrix@N$03$00$0A@$03$00@Eigen@@@?$MatrixBase@V?$CwiseNullaryOp@U?$scalar_identity_op@N@internal@Eigen@@V?$Matrix@N$03$03$0A@$03$03@3@@Eigen@@@Eigen@@QEBA?BV?$Product@V?$CwiseNullaryOp@U?$scalar_identity_op@N@internal@Eigen@@V?$Matrix@N$03$03$0A@$03$03@3@@Eigen@@V?$Matrix@N$03$00$0A@$03$00@2@$0A@@1@AEBV?$MatrixBase@V?$Matrix@N$03$00$0A@$03$00@Eigen@@@1@@Z
	??$?DV?$Matrix@N$03$00$0A@$03$00@Eigen@@@?$MatrixBase@V?$Matrix@N$02$03$0A@$02$03@Eigen@@@Eigen@@QEBA?BV?$Product@V?$Matrix@N$02$03$0A@$02$03@Eigen@@V?$Matrix@N$03$00$0A@$03$00@2@$0A@@1@AEBV?$MatrixBase@V?$Matrix@N$03$00$0A@$03$00@Eigen@@@1@@Z
	??$?DV?$Matrix@N$03$00$0A@$03$00@Eigen@@@?$MatrixBase@V?$Matrix@N$03$03$0A@$03$03@Eigen@@@Eigen@@QEBA?BV?$Product@V?$Matrix@N$03$03$0A@$03$03@Eigen@@V?$Matrix@N$03$00$0A@$03$00@2@$0A@@1@AEBV?$MatrixBase@V?$Matrix@N$03$00$0A@$03$00@Eigen@@@1@@Z
	??$?DV?$Matrix@N$03$02$0A@$03$02@Eigen@@@?$MatrixBase@V?$Product@V?$Matrix@N$02$02$0A@$02$02@Eigen@@V?$Matrix@N$02$03$0A@$02$03@2@$0A@@Eigen@@@Eigen@@QEBA?BV?$Product@V?$Product@V?$Matrix@N$02$02$0A@$02$02@Eigen@@V?$Matrix@N$02$03$0A@$02$03@2@$0A@@Eigen@@V?$Matrix@N$03$02$0A@$03$02@2@$0A@@1@AEBV?$MatrixBase@V?$Matrix@N$03$02$0A@$03$02@Eigen@@@1@@Z
	??$?DV?$Matrix@N$03$03$0A@$03$03@Eigen@@@?$MatrixBase@V?$Matrix@N$03$03$0A@$03$03@Eigen@@@Eigen@@QEBA?BV?$Product@V?$Matrix@N$03$03$0A@$03$03@Eigen@@V12@$0A@@1@AEBV01@@Z
	??$?DV?$Matrix@N$0?0$02$0A@$02$02@Eigen@@@?$TriangularViewImpl@$$CBV?$Block@V?$Matrix@N$02$02$0A@$02$02@Eigen@@$0?0$0?0$0A@@Eigen@@$04UDense@2@@Eigen@@QEBA?BV?$Product@V?$TriangularView@$$CBV?$Block@V?$Matrix@N$02$02$0A@$02$02@Eigen@@$0?0$0?0$0A@@Eigen@@$04@Eigen@@V?$Matrix@N$0?0$02$0A@$02$02@2@$0A@@1@AEBV?$MatrixBase@V?$Matrix@N$0?0$02$0A@$02$02@Eigen@@@1@@Z
	??$?DV?$Matrix@N$0?0$02$0A@$02$02@Eigen@@@?$TriangularViewImpl@$$CBV?$Transpose@$$CBV?$Matrix@N$0?0$0?0$00$0?0$0?0@Eigen@@@Eigen@@$00UDense@2@@Eigen@@QEBA?BV?$Product@V?$TriangularView@$$CBV?$Transpose@$$CBV?$Matrix@N$0?0$0?0$00$0?0$0?0@Eigen@@@Eigen@@$00@Eigen@@V?$Matrix@N$0?0$02$0A@$02$02@2@$0A@@1@AEBV?$MatrixBase@V?$Matrix@N$0?0$02$0A@$02$02@Eigen@@@1@@Z
	??$?DV?$Matrix@N$0?0$02$0A@$02$02@Eigen@@@?$TriangularViewImpl@V?$Matrix@N$0?0$0?0$00$0?0$0?0@Eigen@@$01UDense@2@@Eigen@@QEBA?BV?$Product@V?$TriangularView@V?$Matrix@N$0?0$0?0$00$0?0$0?0@Eigen@@$01@Eigen@@V?$Matrix@N$0?0$02$0A@$02$02@2@$0A@@1@AEBV?$MatrixBase@V?$Matrix@N$0?0$02$0A@$02$02@Eigen@@@1@@Z
	??$?DV?$Matrix@N$0?0$0?0$0A@$02$02@Eigen@@@?$TriangularViewImpl@$$CBV?$Block@V?$Matrix@N$02$02$0A@$02$02@Eigen@@$0?0$0?0$0A@@Eigen@@$04UDense@2@@Eigen@@QEBA?BV?$Product@V?$TriangularView@$$CBV?$Block@V?$Matrix@N$02$02$0A@$02$02@Eigen@@$0?0$0?0$0A@@Eigen@@$04@Eigen@@V?$Matrix@N$0?0$0?0$0A@$02$02@2@$0A@@1@AEBV?$MatrixBase@V?$Matrix@N$0?0$0?0$0A@$02$02@Eigen@@@1@@Z
	??$?DV?$Matrix@N$0?0$0?0$0A@$02$02@Eigen@@@?$TriangularViewImpl@$$CBV?$Transpose@$$CBV?$Matrix@N$0?0$0?0$00$0?0$0?0@Eigen@@@Eigen@@$00UDense@2@@Eigen@@QEBA?BV?$Product@V?$TriangularView@$$CBV?$Transpose@$$CBV?$Matrix@N$0?0$0?0$00$0?0$0?0@Eigen@@@Eigen@@$00@Eigen@@V?$Matrix@N$0?0$0?0$0A@$02$02@2@$0A@@1@AEBV?$MatrixBase@V?$Matrix@N$0?0$0?0$0A@$02$02@Eigen@@@1@@Z
	??$?DV?$Matrix@N$0?0$0?0$0A@$02$02@Eigen@@@?$TriangularViewImpl@V?$Matrix@N$0?0$0?0$00$0?0$0?0@Eigen@@$01UDense@2@@Eigen@@QEBA?BV?$Product@V?$TriangularView@V?$Matrix@N$0?0$0?0$00$0?0$0?0@Eigen@@$01@Eigen@@V?$Matrix@N$0?0$0?0$0A@$02$02@2@$0A@@1@AEBV?$MatrixBase@V?$Matrix@N$0?0$0?0$0A@$02$02@Eigen@@@1@@Z
	??$?DV?$Matrix@N$0?0$0?0$0A@$0?0$0?0@Eigen@@@?$MatrixBase@V?$Matrix@N$0?0$0?0$0A@$0?0$0?0@Eigen@@@Eigen@@QEBA?BV?$Product@V?$Matrix@N$0?0$0?0$0A@$0?0$0?0@Eigen@@V12@$0A@@1@AEBV01@@Z
	??$?DV?$Matrix@N$0?0$0?0$0A@$0?0$0?0@Eigen@@@?$TriangularViewImpl@$$CBV?$Block@V?$Matrix@N$0?0$0?0$0A@$0?0$0?0@Eigen@@$0?0$0?0$0A@@Eigen@@$04UDense@2@@Eigen@@QEBA?BV?$Product@V?$TriangularView@$$CBV?$Block@V?$Matrix@N$0?0$0?0$0A@$0?0$0?0@Eigen@@$0?0$0?0$0A@@Eigen@@$04@Eigen@@V?$Matrix@N$0?0$0?0$0A@$0?0$0?0@2@$0A@@1@AEBV?$MatrixBase@V?$Matrix@N$0?0$0?0$0A@$0?0$0?0@Eigen@@@1@@Z
	??$?DV?$Matrix@N$0?0$0?0$0A@$0?0$0?0@Eigen@@@?$TriangularViewImpl@$$CBV?$Transpose@$$CBV?$Matrix@N$0?0$0?0$00$0?0$0?0@Eigen@@@Eigen@@$00UDense@2@@Eigen@@QEBA?BV?$Product@V?$TriangularView@$$CBV?$Transpose@$$CBV?$Matrix@N$0?0$0?0$00$0?0$0?0@Eigen@@@Eigen@@$00@Eigen@@V?$Matrix@N$0?0$0?0$0A@$0?0$0?0@2@$0A@@1@AEBV?$MatrixBase@V?$Matrix@N$0?0$0?0$0A@$0?0$0?0@Eigen@@@1@@Z
	??$?DV?$Matrix@N$0?0$0?0$0A@$0?0$0?0@Eigen@@@?$TriangularViewImpl@V?$Matrix@N$0?0$0?0$00$0?0$0?0@Eigen@@$01UDense@2@@Eigen@@QEBA?BV?$Product@V?$TriangularView@V?$Matrix@N$0?0$0?0$00$0?0$0?0@Eigen@@$01@Eigen@@V?$Matrix@N$0?0$0?0$0A@$0?0$0?0@2@$0A@@1@AEBV?$MatrixBase@V?$Matrix@N$0?0$0?0$0A@$0?0$0?0@Eigen@@@1@@Z
	??$?DV?$PermutationMatrix@$02$02H@Eigen@@V?$Block@$$CBV?$Matrix@N$02$03$0A@$02$03@Eigen@@$02$00$0A@@1@@Eigen@@YA?BV?$Product@V?$PermutationMatrix@$02$02H@Eigen@@V?$Block@$$CBV?$Matrix@N$02$03$0A@$02$03@Eigen@@$02$00$0A@@2@$0A@@0@AEBV?$PermutationBase@V?$PermutationMatrix@$02$02H@Eigen@@@0@AEBV?$MatrixBase@V?$Block@$$CBV?$Matrix@N$02$03$0A@$02$03@Eigen@@$02$00$0A@@Eigen@@@0@@Z
	??$?DV?$Ref@V?$Matrix@N$0?0$0?0$0A@$0?0$0?0@Eigen@@$0A@V?$OuterStride@$0?0@2@@Eigen@@@?$MatrixBase@V?$Ref@V?$Matrix@N$0?0$0?0$0A@$0?0$0?0@Eigen@@$0A@V?$OuterStride@$0?0@2@@Eigen@@@Eigen@@QEBA?BV?$Product@V?$Ref@V?$Matrix@N$0?0$0?0$0A@$0?0$0?0@Eigen@@$0A@V?$OuterStride@$0?0@2@@Eigen@@V12@$0A@@1@AEBV01@@Z
	??$?DV?$Transpose@$$CBV?$Block@$$CBV?$Matrix@N$02$02$0A@$02$02@Eigen@@$0?0$00$0A@@Eigen@@@Eigen@@@?$MatrixBase@V?$CwiseBinaryOp@U?$scalar_product_op@NN@internal@Eigen@@$$CBV?$CwiseNullaryOp@U?$scalar_constant_op@N@internal@Eigen@@$$CBV?$Matrix@N$0?0$00$0A@$02$00@3@@3@$$CBV?$Map@V?$Matrix@N$0?0$00$0A@$02$00@Eigen@@$0A@V?$Stride@$0A@$0A@@2@@3@@Eigen@@@Eigen@@QEBA?BV?$Product@V?$CwiseBinaryOp@U?$scalar_product_op@NN@internal@Eigen@@$$CBV?$CwiseNullaryOp@U?$scalar_constant_op@N@internal@Eigen@@$$CBV?$Matrix@N$0?0$00$0A@$02$00@3@@3@$$CBV?$Map@V?$Matrix@N$0?0$00$0A@$02$00@Eigen@@$0A@V?$Stride@$0A@$0A@@2@@3@@Eigen@@V?$Transpose@$$CBV?$Block@$$CBV?$Matrix@N$02$02$0A@$02$02@Eigen@@$0?0$00$0A@@Eigen@@@2@$0A@@1@AEBV?$MatrixBase@V?$Transpose@$$CBV?$Block@$$CBV?$Matrix@N$02$02$0A@$02$02@Eigen@@$0?0$00$0A@@Eigen@@@Eigen@@@1@@Z
	??$?DV?$Transpose@$$CBV?$Block@$$CBV?$Matrix@N$02$03$0A@$02$03@Eigen@@$00$02$0A@@Eigen@@@Eigen@@@?$MatrixBase@V?$Block@$$CBV?$Matrix@N$02$03$0A@$02$03@Eigen@@$02$02$0A@@Eigen@@@Eigen@@QEBA?BV?$Product@V?$Block@$$CBV?$Matrix@N$02$03$0A@$02$03@Eigen@@$02$02$0A@@Eigen@@V?$Transpose@$$CBV?$Block@$$CBV?$Matrix@N$02$03$0A@$02$03@Eigen@@$00$02$0A@@Eigen@@@2@$0A@@1@AEBV?$MatrixBase@V?$Transpose@$$CBV?$Block@$$CBV?$Matrix@N$02$03$0A@$02$03@Eigen@@$00$02$0A@@Eigen@@@Eigen@@@1@@Z
	??$?DV?$Transpose@$$CBV?$Block@$$CBV?$Matrix@N$0?0$0?0$0A@$0?0$0?0@Eigen@@$0?0$00$0A@@Eigen@@@Eigen@@@?$MatrixBase@V?$CwiseBinaryOp@U?$scalar_product_op@NN@internal@Eigen@@$$CBV?$CwiseNullaryOp@U?$scalar_constant_op@N@internal@Eigen@@$$CBV?$Matrix@N$0?0$00$0A@$0?0$00@3@@3@$$CBV?$Map@V?$Matrix@N$0?0$00$0A@$0?0$00@Eigen@@$0A@V?$Stride@$0A@$0A@@2@@3@@Eigen@@@Eigen@@QEBA?BV?$Product@V?$CwiseBinaryOp@U?$scalar_product_op@NN@internal@Eigen@@$$CBV?$CwiseNullaryOp@U?$scalar_constant_op@N@internal@Eigen@@$$CBV?$Matrix@N$0?0$00$0A@$0?0$00@3@@3@$$CBV?$Map@V?$Matrix@N$0?0$00$0A@$0?0$00@Eigen@@$0A@V?$Stride@$0A@$0A@@2@@3@@Eigen@@V?$Transpose@$$CBV?$Block@$$CBV?$Matrix@N$0?0$0?0$0A@$0?0$0?0@Eigen@@$0?0$00$0A@@Eigen@@@2@$0A@@1@AEBV?$MatrixBase@V?$Transpose@$$CBV?$Block@$$CBV?$Matrix@N$0?0$0?0$0A@$0?0$0?0@Eigen@@$0?0$00$0A@@Eigen@@@Eigen@@@1@@Z
	??$?DV?$Transpose@$$CBV?$Matrix@N$0?0$0?0$0A@$0?0$0?0@Eigen@@@Eigen@@@?$MatrixBase@V?$Product@V?$Matrix@N$0?0$0?0$0A@$0?0$0?0@Eigen@@V12@$0A@@Eigen@@@Eigen@@QEBA?BV?$Product@V?$Product@V?$Matrix@N$0?0$0?0$0A@$0?0$0?0@Eigen@@V12@$0A@@Eigen@@V?$Transpose@$$CBV?$Matrix@N$0?0$0?0$0A@$0?0$0?0@Eigen@@@2@$0A@@1@AEBV?$MatrixBase@V?$Transpose@$$CBV?$Matrix@N$0?0$0?0$0A@$0?0$0?0@Eigen@@@Eigen@@@1@@Z
	??$?DV?$Transpose@$$CBV?$Matrix@N$0?0$0?0$0A@$0?0$0?0@Eigen@@@Eigen@@@?$MatrixBase@V?$Product@V?$Matrix@N$0?0$0?0$0A@$0?0$0?0@Eigen@@V?$DiagonalWrapper@$$CBV?$Matrix@N$0?0$00$0A@$0?0$00@Eigen@@@2@$00@Eigen@@@Eigen@@QEBA?BV?$Product@V?$Product@V?$Matrix@N$0?0$0?0$0A@$0?0$0?0@Eigen@@V?$DiagonalWrapper@$$CBV?$Matrix@N$0?0$00$0A@$0?0$00@Eigen@@@2@$00@Eigen@@V?$Transpose@$$CBV?$Matrix@N$0?0$0?0$0A@$0?0$0?0@Eigen@@@2@$0A@@1@AEBV?$MatrixBase@V?$Transpose@$$CBV?$Matrix@N$0?0$0?0$0A@$0?0$0?0@Eigen@@@Eigen@@@1@@Z
	??$?GV?$CwiseBinaryOp@U?$scalar_product_op@NN@internal@Eigen@@$$CBV?$Matrix@N$03$00$0A@$03$00@3@$$CBV?$CwiseNullaryOp@U?$scalar_constant_op@N@internal@Eigen@@$$CBV?$Matrix@N$03$00$0A@$03$00@3@@3@@Eigen@@@?$MatrixBase@V?$CwiseBinaryOp@U?$scalar_difference_op@NN@internal@Eigen@@$$CBV?$Matrix@N$03$00$0A@$03$00@3@$$CBV?$CwiseBinaryOp@U?$scalar_product_op@NN@internal@Eigen@@$$CBV?$Matrix@N$03$00$0A@$03$00@3@$$CBV?$CwiseNullaryOp@U?$scalar_constant_op@N@internal@Eigen@@$$CBV?$Matrix@N$03$00$0A@$03$00@3@@3@@3@@Eigen@@@Eigen@@QEBA?BV?$CwiseBinaryOp@U?$scalar_difference_op@NN@internal@Eigen@@$$CBV?$CwiseBinaryOp@U?$scalar_difference_op@NN@internal@Eigen@@$$CBV?$Matrix@N$03$00$0A@$03$00@3@$$CBV?$CwiseBinaryOp@U?$scalar_product_op@NN@internal@Eigen@@$$CBV?$Matrix@N$03$00$0A@$03$00@3@$$CBV?$CwiseNullaryOp@U?$scalar_constant_op@N@internal@Eigen@@$$CBV?$Matrix@N$03$00$0A@$03$00@3@@3@@3@@3@$$CBV?$CwiseBinaryOp@U?$scalar_product_op@NN@internal@Eigen@@$$CBV?$Matrix@N$03$00$0A@$03$00@3@$$CBV?$CwiseNullaryOp@U?$scalar_constant_op@N@internal@Eigen@@$$CBV?$Matrix@N$03$00$0A@$03$00@3@@3@@3@@1@AEBV?$MatrixBase@V?$CwiseBinaryOp@U?$scalar_product_op@NN@internal@Eigen@@$$CBV?$Matrix@N$03$00$0A@$03$00@3@$$CBV?$CwiseNullaryOp@U?$scalar_constant_op@N@internal@Eigen@@$$CBV?$Matrix@N$03$00$0A@$03$00@3@@3@@Eigen@@@1@@Z
	??$?GV?$CwiseBinaryOp@U?$scalar_product_op@NN@internal@Eigen@@$$CBV?$Matrix@N$03$00$0A@$03$00@3@$$CBV?$CwiseNullaryOp@U?$scalar_constant_op@N@internal@Eigen@@$$CBV?$Matrix@N$03$00$0A@$03$00@3@@3@@Eigen@@@?$MatrixBase@V?$Matrix@N$03$00$0A@$03$00@Eigen@@@Eigen@@QEBA?BV?$CwiseBinaryOp@U?$scalar_difference_op@NN@internal@Eigen@@$$CBV?$Matrix@N$03$00$0A@$03$00@3@$$CBV?$CwiseBinaryOp@U?$scalar_product_op@NN@internal@Eigen@@$$CBV?$Matrix@N$03$00$0A@$03$00@3@$$CBV?$CwiseNullaryOp@U?$scalar_constant_op@N@internal@Eigen@@$$CBV?$Matrix@N$03$00$0A@$03$00@3@@3@@3@@1@AEBV?$MatrixBase@V?$CwiseBinaryOp@U?$scalar_product_op@NN@internal@Eigen@@$$CBV?$Matrix@N$03$00$0A@$03$00@3@$$CBV?$CwiseNullaryOp@U?$scalar_constant_op@N@internal@Eigen@@$$CBV?$Matrix@N$03$00$0A@$03$00@3@@3@@Eigen@@@1@@Z
	??$?GV?$Matrix@N$01$00$0A@$01$00@Eigen@@@?$MatrixBase@V?$Block@$$CBV?$Matrix@N$02$00$0A@$02$00@Eigen@@$0?0$00$0A@@Eigen@@@Eigen@@QEBA?BV?$CwiseBinaryOp@U?$scalar_difference_op@NN@internal@Eigen@@$$CBV?$Block@$$CBV?$Matrix@N$02$00$0A@$02$00@Eigen@@$0?0$00$0A@@3@$$CBV?$Matrix@N$01$00$0A@$01$00@3@@1@AEBV?$MatrixBase@V?$Matrix@N$01$00$0A@$01$00@Eigen@@@1@@Z
	??$?GV?$Matrix@N$02$00$0A@$02$00@Eigen@@@?$MatrixBase@V?$Block@$$CBV?$Matrix@N$03$00$0A@$03$00@Eigen@@$0?0$00$0A@@Eigen@@@Eigen@@QEBA?BV?$CwiseBinaryOp@U?$scalar_difference_op@NN@internal@Eigen@@$$CBV?$Block@$$CBV?$Matrix@N$03$00$0A@$03$00@Eigen@@$0?0$00$0A@@3@$$CBV?$Matrix@N$02$00$0A@$02$00@3@@1@AEBV?$MatrixBase@V?$Matrix@N$02$00$0A@$02$00@Eigen@@@1@@Z
	??$?GV?$Matrix@N$03$00$0A@$03$00@Eigen@@@?$MatrixBase@V?$CwiseBinaryOp@U?$scalar_quotient_op@NN@internal@Eigen@@$$CBV?$Matrix@N$03$00$0A@$03$00@3@$$CBV?$CwiseNullaryOp@U?$scalar_constant_op@N@internal@Eigen@@$$CBV?$Matrix@N$03$00$0A@$03$00@3@@3@@Eigen@@@Eigen@@QEBA?BV?$CwiseBinaryOp@U?$scalar_difference_op@NN@internal@Eigen@@$$CBV?$CwiseBinaryOp@U?$scalar_quotient_op@NN@internal@Eigen@@$$CBV?$Matrix@N$03$00$0A@$03$00@3@$$CBV?$CwiseNullaryOp@U?$scalar_constant_op@N@internal@Eigen@@$$CBV?$Matrix@N$03$00$0A@$03$00@3@@3@@3@$$CBV?$Matrix@N$03$00$0A@$03$00@3@@1@AEBV?$MatrixBase@V?$Matrix@N$03$00$0A@$03$00@Eigen@@@1@@Z
	??$?HV?$CwiseBinaryOp@U?$scalar_product_op@NN@internal@Eigen@@$$CBV?$Matrix@N$03$00$0A@$03$00@3@$$CBV?$CwiseNullaryOp@U?$scalar_constant_op@N@internal@Eigen@@$$CBV?$Matrix@N$03$00$0A@$03$00@3@@3@@Eigen@@@?$MatrixBase@V?$CwiseBinaryOp@U?$scalar_product_op@NN@internal@Eigen@@$$CBV?$Matrix@N$03$00$0A@$03$00@3@$$CBV?$CwiseNullaryOp@U?$scalar_constant_op@N@internal@Eigen@@$$CBV?$Matrix@N$03$00$0A@$03$00@3@@3@@Eigen@@@Eigen@@QEBA?BV?$CwiseBinaryOp@U?$scalar_sum_op@NN@internal@Eigen@@$$CBV?$CwiseBinaryOp@U?$scalar_product_op@NN@internal@Eigen@@$$CBV?$Matrix@N$03$00$0A@$03$00@3@$$CBV?$CwiseNullaryOp@U?$scalar_constant_op@N@internal@Eigen@@$$CBV?$Matrix@N$03$00$0A@$03$00@3@@3@@3@$$CBV43@@1@AEBV01@@Z
	??$?HV?$Matrix@N$03$00$0A@$03$00@Eigen@@@?$MatrixBase@V?$CwiseBinaryOp@U?$scalar_quotient_op@NN@internal@Eigen@@$$CBV?$CwiseBinaryOp@U?$scalar_sum_op@NN@internal@Eigen@@$$CBV?$CwiseBinaryOp@U?$scalar_product_op@NN@internal@Eigen@@$$CBV?$Matrix@N$03$00$0A@$03$00@3@$$CBV?$CwiseNullaryOp@U?$scalar_constant_op@N@internal@Eigen@@$$CBV?$Matrix@N$03$00$0A@$03$00@3@@3@@3@$$CBV43@@3@$$CBV?$CwiseNullaryOp@U?$scalar_constant_op@N@internal@Eigen@@$$CBV?$Matrix@N$03$00$0A@$03$00@3@@3@@Eigen@@@Eigen@@QEBA?BV?$CwiseBinaryOp@U?$scalar_sum_op@NN@internal@Eigen@@$$CBV?$CwiseBinaryOp@U?$scalar_quotient_op@NN@internal@Eigen@@$$CBV?$CwiseBinaryOp@U?$scalar_sum_op@NN@internal@Eigen@@$$CBV?$CwiseBinaryOp@U?$scalar_product_op@NN@internal@Eigen@@$$CBV?$Matrix@N$03$00$0A@$03$00@3@$$CBV?$CwiseNullaryOp@U?$scalar_constant_op@N@internal@Eigen@@$$CBV?$Matrix@N$03$00$0A@$03$00@3@@3@@3@$$CBV43@@3@$$CBV?$CwiseNullaryOp@U?$scalar_constant_op@N@internal@Eigen@@$$CBV?$Matrix@N$03$00$0A@$03$00@3@@3@@3@$$CBV?$Matrix@N$03$00$0A@$03$00@3@@1@AEBV?$MatrixBase@V?$Matrix@N$03$00$0A@$03$00@Eigen@@@1@@Z
	??$?HV?$Matrix@N$03$00$0A@$03$00@Eigen@@@?$MatrixBase@V?$CwiseBinaryOp@U?$scalar_sum_op@NN@internal@Eigen@@$$CBV?$CwiseBinaryOp@U?$scalar_sum_op@NN@internal@Eigen@@$$CBV?$Matrix@N$03$00$0A@$03$00@3@$$CBV43@@3@$$CBV?$Matrix@N$03$00$0A@$03$00@3@@Eigen@@@Eigen@@QEBA?BV?$CwiseBinaryOp@U?$scalar_sum_op@NN@internal@Eigen@@$$CBV?$CwiseBinaryOp@U?$scalar_sum_op@NN@internal@Eigen@@$$CBV?$CwiseBinaryOp@U?$scalar_sum_op@NN@internal@Eigen@@$$CBV?$Matrix@N$03$00$0A@$03$00@3@$$CBV43@@3@$$CBV?$Matrix@N$03$00$0A@$03$00@3@@3@$$CBV?$Matrix@N$03$00$0A@$03$00@3@@1@AEBV?$MatrixBase@V?$Matrix@N$03$00$0A@$03$00@Eigen@@@1@@Z
	??$?HV?$Matrix@N$03$00$0A@$03$00@Eigen@@@?$MatrixBase@V?$CwiseBinaryOp@U?$scalar_sum_op@NN@internal@Eigen@@$$CBV?$Matrix@N$03$00$0A@$03$00@3@$$CBV43@@Eigen@@@Eigen@@QEBA?BV?$CwiseBinaryOp@U?$scalar_sum_op@NN@internal@Eigen@@$$CBV?$CwiseBinaryOp@U?$scalar_sum_op@NN@internal@Eigen@@$$CBV?$Matrix@N$03$00$0A@$03$00@3@$$CBV43@@3@$$CBV?$Matrix@N$03$00$0A@$03$00@3@@1@AEBV?$MatrixBase@V?$Matrix@N$03$00$0A@$03$00@Eigen@@@1@@Z
	??$?HV?$Matrix@N$03$00$0A@$03$00@Eigen@@@?$MatrixBase@V?$Matrix@N$03$00$0A@$03$00@Eigen@@@Eigen@@QEBA?BV?$CwiseBinaryOp@U?$scalar_sum_op@NN@internal@Eigen@@$$CBV?$Matrix@N$03$00$0A@$03$00@3@$$CBV43@@1@AEBV01@@Z
	??$?KN@?$MatrixBase@V?$Block@$$CBV?$Block@V?$Block@V?$Block@V?$Matrix@N$02$02$0A@$02$02@Eigen@@$0?0$0?0$0A@@Eigen@@$0?0$00$00@Eigen@@$0?0$00$0A@@Eigen@@$0?0$00$0A@@Eigen@@@Eigen@@QEBA?BV?$CwiseBinaryOp@U?$scalar_quotient_op@NN@internal@Eigen@@$$CBV?$Block@$$CBV?$Block@V?$Block@V?$Block@V?$Matrix@N$02$02$0A@$02$02@Eigen@@$0?0$0?0$0A@@Eigen@@$0?0$00$00@Eigen@@$0?0$00$0A@@Eigen@@$0?0$00$0A@@3@$$CBV?$CwiseNullaryOp@U?$scalar_constant_op@N@internal@Eigen@@$$CBV?$Matrix@N$0?0$00$0A@$02$00@3@@3@@1@AEBN@Z
	??$?KN@?$MatrixBase@V?$Block@$$CBV?$Block@V?$Block@V?$Matrix@N$0?0$0?0$0A@$0?0$0?0@Eigen@@$0?0$00$00@Eigen@@$0?0$00$0A@@Eigen@@$0?0$00$0A@@Eigen@@@Eigen@@QEBA?BV?$CwiseBinaryOp@U?$scalar_quotient_op@NN@internal@Eigen@@$$CBV?$Block@$$CBV?$Block@V?$Block@V?$Matrix@N$0?0$0?0$0A@$0?0$0?0@Eigen@@$0?0$00$00@Eigen@@$0?0$00$0A@@Eigen@@$0?0$00$0A@@3@$$CBV?$CwiseNullaryOp@U?$scalar_constant_op@N@internal@Eigen@@$$CBV?$Matrix@N$0?0$00$0A@$0?0$00@3@@3@@1@AEBN@Z
	??$?KN@?$MatrixBase@V?$Block@$$CBV?$Matrix@N$02$03$0A@$02$03@Eigen@@$0?0$0?0$0A@@Eigen@@@Eigen@@QEBA?BV?$CwiseBinaryOp@U?$scalar_quotient_op@NN@internal@Eigen@@$$CBV?$Block@$$CBV?$Matrix@N$02$03$0A@$02$03@Eigen@@$0?0$0?0$0A@@3@$$CBV?$CwiseNullaryOp@U?$scalar_constant_op@N@internal@Eigen@@$$CBV?$Matrix@N$0?0$0?0$0A@$02$03@3@@3@@1@AEBN@Z
	??$?KN@?$MatrixBase@V?$Block@$$CBV?$Matrix@N$0?0$0?0$0A@$0?0$0?0@Eigen@@$0?0$0?0$0A@@Eigen@@@Eigen@@QEBA?BV?$CwiseBinaryOp@U?$scalar_quotient_op@NN@internal@Eigen@@$$CBV?$Block@$$CBV?$Matrix@N$0?0$0?0$0A@$0?0$0?0@Eigen@@$0?0$0?0$0A@@3@$$CBV?$CwiseNullaryOp@U?$scalar_constant_op@N@internal@Eigen@@$$CBV?$Matrix@N$0?0$0?0$0A@$0?0$0?0@3@@3@@1@AEBN@Z
	??$?KN@?$MatrixBase@V?$Block@V?$Matrix@N$03$00$0A@$03$00@Eigen@@$0?0$00$0A@@Eigen@@@Eigen@@QEBA?BV?$CwiseBinaryOp@U?$scalar_quotient_op@NN@internal@Eigen@@$$CBV?$Block@V?$Matrix@N$03$00$0A@$03$00@Eigen@@$0?0$00$0A@@3@$$CBV?$CwiseNullaryOp@U?$scalar_constant_op@N@internal@Eigen@@$$CBV?$Matrix@N$0?0$00$0A@$03$00@3@@3@@1@AEBN@Z
	??$?KN@?$MatrixBase@V?$CwiseBinaryOp@U?$scalar_sum_op@NN@internal@Eigen@@$$CBV?$CwiseBinaryOp@U?$scalar_product_op@NN@internal@Eigen@@$$CBV?$Matrix@N$03$00$0A@$03$00@3@$$CBV?$CwiseNullaryOp@U?$scalar_constant_op@N@internal@Eigen@@$$CBV?$Matrix@N$03$00$0A@$03$00@3@@3@@3@$$CBV43@@Eigen@@@Eigen@@QEBA?BV?$CwiseBinaryOp@U?$scalar_quotient_op@NN@internal@Eigen@@$$CBV?$CwiseBinaryOp@U?$scalar_sum_op@NN@internal@Eigen@@$$CBV?$CwiseBinaryOp@U?$scalar_product_op@NN@internal@Eigen@@$$CBV?$Matrix@N$03$00$0A@$03$00@3@$$CBV?$CwiseNullaryOp@U?$scalar_constant_op@N@internal@Eigen@@$$CBV?$Matrix@N$03$00$0A@$03$00@3@@3@@3@$$CBV43@@3@$$CBV?$CwiseNullaryOp@U?$scalar_constant_op@N@internal@Eigen@@$$CBV?$Matrix@N$03$00$0A@$03$00@3@@3@@1@AEBN@Z
	??$?KN@?$MatrixBase@V?$Matrix@N$02$00$0A@$02$00@Eigen@@@Eigen@@QEBA?BV?$CwiseBinaryOp@U?$scalar_quotient_op@NN@internal@Eigen@@$$CBV?$Matrix@N$02$00$0A@$02$00@3@$$CBV?$CwiseNullaryOp@U?$scalar_constant_op@N@internal@Eigen@@$$CBV?$Matrix@N$02$00$0A@$02$00@3@@3@@1@AEBN@Z
	??$?KN@?$MatrixBase@V?$Matrix@N$02$03$0A@$02$03@Eigen@@@Eigen@@QEBA?BV?$CwiseBinaryOp@U?$scalar_quotient_op@NN@internal@Eigen@@$$CBV?$Matrix@N$02$03$0A@$02$03@3@$$CBV?$CwiseNullaryOp@U?$scalar_constant_op@N@internal@Eigen@@$$CBV?$Matrix@N$02$03$0A@$02$03@3@@3@@1@AEBN@Z
	??$?KN@?$MatrixBase@V?$Matrix@N$03$00$0A@$03$00@Eigen@@@Eigen@@QEBA?BV?$CwiseBinaryOp@U?$scalar_quotient_op@NN@internal@Eigen@@$$CBV?$Matrix@N$03$00$0A@$03$00@3@$$CBV?$CwiseNullaryOp@U?$scalar_constant_op@N@internal@Eigen@@$$CBV?$Matrix@N$03$00$0A@$03$00@3@@3@@1@AEBN@Z
	??$?KN@?$MatrixBase@V?$Matrix@N$0?0$0?0$0A@$0?0$0?0@Eigen@@@Eigen@@QEBA?BV?$CwiseBinaryOp@U?$scalar_quotient_op@NN@internal@Eigen@@$$CBV?$Matrix@N$0?0$0?0$0A@$0?0$0?0@3@$$CBV?$CwiseNullaryOp@U?$scalar_constant_op@N@internal@Eigen@@$$CBV?$Matrix@N$0?0$0?0$0A@$0?0$0?0@3@@3@@1@AEBN@Z
	??$?KN@?$MatrixBase@V?$Product@V?$Block@$$CBV?$Matrix@N$02$03$0A@$02$03@Eigen@@$02$02$0A@@Eigen@@V?$Transpose@$$CBV?$Block@$$CBV?$Matrix@N$02$03$0A@$02$03@Eigen@@$00$02$0A@@Eigen@@@2@$0A@@Eigen@@@Eigen@@QEBA?BV?$CwiseBinaryOp@U?$scalar_quotient_op@NN@internal@Eigen@@$$CBV?$Product@V?$Block@$$CBV?$Matrix@N$02$03$0A@$02$03@Eigen@@$02$02$0A@@Eigen@@V?$Transpose@$$CBV?$Block@$$CBV?$Matrix@N$02$03$0A@$02$03@Eigen@@$00$02$0A@@Eigen@@@2@$0A@@3@$$CBV?$CwiseNullaryOp@U?$scalar_constant_op@N@internal@Eigen@@$$CBV?$Matrix@N$02$00$0A@$02$00@3@@3@@1@AEBN@Z
	??$?RN@?$conj_if@$0A@@internal@Eigen@@QEBAAEBNAEBN@Z
	??$?RV?$Block@$$CBV?$CwiseUnaryOp@U?$scalar_abs_op@N@internal@Eigen@@$$CBV?$Matrix@N$02$02$0A@$02$02@3@@Eigen@@$02$00$00@Eigen@@@?$member_sum@NN@internal@Eigen@@QEBANAEBV?$Block@$$CBV?$CwiseUnaryOp@U?$scalar_abs_op@N@internal@Eigen@@$$CBV?$Matrix@N$02$02$0A@$02$02@3@@Eigen@@$02$00$00@2@@Z
	??$?RV?$Block@V?$Block@V?$Block@V?$Matrix@N$0?0$0?0$0A@$0?0$0?0@Eigen@@$0?0$0?0$0A@@Eigen@@$0?0$0?0$0A@@Eigen@@$0?0$00$00@Eigen@@V?$CwiseBinaryOp@U?$scalar_product_op@NN@internal@Eigen@@$$CBV?$CwiseNullaryOp@U?$scalar_constant_op@N@internal@Eigen@@$$CBV?$Matrix@N$0?0$00$0A@$0?0$00@3@@3@$$CBV?$Map@V?$Matrix@N$0?0$00$0A@$0?0$00@Eigen@@$0BA@V?$Stride@$0A@$0A@@2@@3@@1@@sub@?$generic_product_impl@V?$CwiseBinaryOp@U?$scalar_product_op@NN@internal@Eigen@@$$CBV?$CwiseNullaryOp@U?$scalar_constant_op@N@internal@Eigen@@$$CBV?$Matrix@N$0?0$00$0A@$0?0$00@3@@3@$$CBV?$Block@$$CBV?$Matrix@N$0?0$0?0$0A@$0?0$0?0@Eigen@@$0?0$00$0A@@3@@Eigen@@V?$Map@V?$Matrix@N$00$0?0$00$00$0?0@Eigen@@$0A@V?$Stride@$0A@$0A@@2@@2@UDenseShape@2@U42@$04@internal@Eigen@@QEBAXAEBV?$Block@V?$Block@V?$Block@V?$Matrix@N$0?0$0?0$0A@$0?0$0?0@Eigen@@$0?0$0?0$0A@@Eigen@@$0?0$0?0$0A@@Eigen@@$0?0$00$00@3@AEBV?$CwiseBinaryOp@U?$scalar_product_op@NN@internal@Eigen@@$$CBV?$CwiseNullaryOp@U?$scalar_constant_op@N@internal@Eigen@@$$CBV?$Matrix@N$0?0$00$0A@$0?0$00@3@@3@$$CBV?$Map@V?$Matrix@N$0?0$00$0A@$0?0$00@Eigen@@$0BA@V?$Stride@$0A@$0A@@2@@3@@3@@Z
	??$?RV?$Block@V?$Block@V?$Block@V?$Matrix@N$0?0$0?0$0A@$0?0$0?0@Eigen@@$0?0$0?0$0A@@Eigen@@$0?0$0?0$0A@@Eigen@@$0?0$00$00@Eigen@@V?$CwiseBinaryOp@U?$scalar_product_op@NN@internal@Eigen@@$$CBV?$CwiseNullaryOp@U?$scalar_constant_op@N@internal@Eigen@@$$CBV?$Matrix@N$0?0$00$0A@$0?0$00@3@@3@$$CBV?$Map@V?$Matrix@N$0?0$00$0A@$0?0$00@Eigen@@$0BA@V?$Stride@$0A@$0A@@2@@3@@1@@sub@?$generic_product_impl@V?$CwiseBinaryOp@U?$scalar_product_op@NN@internal@Eigen@@$$CBV?$CwiseNullaryOp@U?$scalar_constant_op@N@internal@Eigen@@$$CBV?$Matrix@N$0?0$00$0A@$0?0$00@3@@3@$$CBV?$Block@V?$Block@V?$Matrix@N$0?0$0?0$0A@$0?0$0?0@Eigen@@$0?0$00$00@Eigen@@$0?0$00$0A@@3@@Eigen@@V?$Map@V?$Matrix@N$00$0?0$00$00$0?0@Eigen@@$0A@V?$Stride@$0A@$0A@@2@@2@UDenseShape@2@U42@$04@internal@Eigen@@QEBAXAEBV?$Block@V?$Block@V?$Block@V?$Matrix@N$0?0$0?0$0A@$0?0$0?0@Eigen@@$0?0$0?0$0A@@Eigen@@$0?0$0?0$0A@@Eigen@@$0?0$00$00@3@AEBV?$CwiseBinaryOp@U?$scalar_product_op@NN@internal@Eigen@@$$CBV?$CwiseNullaryOp@U?$scalar_constant_op@N@internal@Eigen@@$$CBV?$Matrix@N$0?0$00$0A@$0?0$00@3@@3@$$CBV?$Map@V?$Matrix@N$0?0$00$0A@$0?0$00@Eigen@@$0BA@V?$Stride@$0A@$0A@@2@@3@@3@@Z
	??$?RV?$Block@V?$Block@V?$Block@V?$Matrix@N$0?0$0?0$0A@$0?0$0?0@Eigen@@$0?0$0?0$0A@@Eigen@@$0?0$0?0$0A@@Eigen@@$0?0$00$00@Eigen@@V?$CwiseBinaryOp@U?$scalar_product_op@NN@internal@Eigen@@$$CBV?$CwiseNullaryOp@U?$scalar_constant_op@N@internal@Eigen@@$$CBV?$Matrix@N$0?0$00$0A@$0?0$00@3@@3@$$CBV?$Map@V?$Matrix@N$0?0$00$0A@$0?0$00@Eigen@@$0BA@V?$Stride@$0A@$0A@@2@@3@@1@@sub@?$generic_product_impl@V?$CwiseBinaryOp@U?$scalar_product_op@NN@internal@Eigen@@$$CBV?$CwiseNullaryOp@U?$scalar_constant_op@N@internal@Eigen@@$$CBV?$Matrix@N$0?0$00$0A@$0?0$00@3@@3@$$CBV?$Map@V?$Matrix@N$0?0$00$0A@$0?0$00@Eigen@@$0A@V?$Stride@$0A@$0A@@2@@3@@Eigen@@V?$Transpose@$$CBV?$Block@$$CBV?$Matrix@N$0?0$0?0$0A@$0?0$0?0@Eigen@@$0?0$00$0A@@Eigen@@@2@UDenseShape@2@U42@$04@internal@Eigen@@QEBAXAEBV?$Block@V?$Block@V?$Block@V?$Matrix@N$0?0$0?0$0A@$0?0$0?0@Eigen@@$0?0$0?0$0A@@Eigen@@$0?0$0?0$0A@@Eigen@@$0?0$00$00@3@AEBV?$CwiseBinaryOp@U?$scalar_product_op@NN@internal@Eigen@@$$CBV?$CwiseNullaryOp@U?$scalar_constant_op@N@internal@Eigen@@$$CBV?$Matrix@N$0?0$00$0A@$0?0$00@3@@3@$$CBV?$Map@V?$Matrix@N$0?0$00$0A@$0?0$00@Eigen@@$0BA@V?$Stride@$0A@$0A@@2@@3@@3@@Z
	??$?R_J@?$nullary_wrapper@NU?$scalar_constant_op@N@internal@Eigen@@$00$0A@$0A@@internal@Eigen@@QEBANAEBU?$scalar_constant_op@N@12@_J1@Z
	??$?R_J@?$nullary_wrapper@NU?$scalar_identity_op@N@internal@Eigen@@$0A@$0A@$00@internal@Eigen@@QEBANAEBU?$scalar_identity_op@N@12@_J1@Z
	??$?R_J@?$nullary_wrapper@NU?$scalar_zero_op@N@internal@Eigen@@$00$0A@$0A@@internal@Eigen@@QEBANAEBU?$scalar_zero_op@N@12@_J1@Z
	??$?R_J@?$nullary_wrapper@_NU?$scalar_constant_op@_N@internal@Eigen@@$00$0A@$0A@@internal@Eigen@@QEBA_NAEBU?$scalar_constant_op@_N@12@_J1@Z
	??$?R_J@?$scalar_identity_op@N@internal@Eigen@@QEBA?BN_J0@Z
	??$?YV?$Block@$$CBV?$Matrix@N$02$00$0A@$02$00@Eigen@@$0?0$00$0A@@Eigen@@@?$MatrixBase@V?$Matrix@N$01$00$0A@$01$00@Eigen@@@Eigen@@QEAAAEAV?$Matrix@N$01$00$0A@$01$00@1@AEBV?$MatrixBase@V?$Block@$$CBV?$Matrix@N$02$00$0A@$02$00@Eigen@@$0?0$00$0A@@Eigen@@@1@@Z
	??$?YV?$Block@$$CBV?$Matrix@N$03$00$0A@$03$00@Eigen@@$0?0$00$0A@@Eigen@@@?$MatrixBase@V?$Matrix@N$02$00$0A@$02$00@Eigen@@@Eigen@@QEAAAEAV?$Matrix@N$02$00$0A@$02$00@1@AEBV?$MatrixBase@V?$Block@$$CBV?$Matrix@N$03$00$0A@$03$00@Eigen@@$0?0$00$0A@@Eigen@@@1@@Z
	??$?YV?$Block@V?$Block@V?$Block@V?$Matrix@N$02$02$0A@$02$02@Eigen@@$0?0$0?0$0A@@Eigen@@$0?0$0?0$0A@@Eigen@@$00$0?0$0A@@Eigen@@@?$MatrixBase@V?$Map@V?$Matrix@N$00$0?0$00$00$02@Eigen@@$0A@V?$Stride@$0A@$0A@@2@@Eigen@@@Eigen@@QEAAAEAV?$Map@V?$Matrix@N$00$0?0$00$00$02@Eigen@@$0A@V?$Stride@$0A@$0A@@2@@1@AEBV?$MatrixBase@V?$Block@V?$Block@V?$Block@V?$Matrix@N$02$02$0A@$02$02@Eigen@@$0?0$0?0$0A@@Eigen@@$0?0$0?0$0A@@Eigen@@$00$0?0$0A@@Eigen@@@1@@Z
	??$?YV?$Block@V?$Block@V?$Matrix@N$02$02$0A@$02$02@Eigen@@$0?0$02$0A@@Eigen@@$00$02$0A@@Eigen@@@?$MatrixBase@V?$Map@V?$Matrix@N$00$02$00$00$02@Eigen@@$0A@V?$Stride@$0A@$0A@@2@@Eigen@@@Eigen@@QEAAAEAV?$Map@V?$Matrix@N$00$02$00$00$02@Eigen@@$0A@V?$Stride@$0A@$0A@@2@@1@AEBV?$MatrixBase@V?$Block@V?$Block@V?$Matrix@N$02$02$0A@$02$02@Eigen@@$0?0$02$0A@@Eigen@@$00$02$0A@@Eigen@@@1@@Z
	??$?YV?$Block@V?$Block@V?$Matrix@N$02$02$0A@$02$02@Eigen@@$0?0$0?0$0A@@Eigen@@$00$0?0$0A@@Eigen@@@?$MatrixBase@V?$Map@V?$Matrix@N$00$0?0$00$00$02@Eigen@@$0A@V?$Stride@$0A@$0A@@2@@Eigen@@@Eigen@@QEAAAEAV?$Map@V?$Matrix@N$00$0?0$00$00$02@Eigen@@$0A@V?$Stride@$0A@$0A@@2@@1@AEBV?$MatrixBase@V?$Block@V?$Block@V?$Matrix@N$02$02$0A@$02$02@Eigen@@$0?0$0?0$0A@@Eigen@@$00$0?0$0A@@Eigen@@@1@@Z
	??$?YV?$Block@V?$Block@V?$Matrix@N$02$02$0A@$02$02@Eigen@@$0?0$0?0$0A@@Eigen@@$0?0$00$00@Eigen@@@?$MatrixBase@V?$Map@V?$Matrix@N$0?0$00$0A@$02$00@Eigen@@$0A@V?$Stride@$0A@$0A@@2@@Eigen@@@Eigen@@QEAAAEAV?$Map@V?$Matrix@N$0?0$00$0A@$02$00@Eigen@@$0A@V?$Stride@$0A@$0A@@2@@1@AEBV?$MatrixBase@V?$Block@V?$Block@V?$Matrix@N$02$02$0A@$02$02@Eigen@@$0?0$0?0$0A@@Eigen@@$0?0$00$00@Eigen@@@1@@Z
	??$?YV?$Block@V?$Block@V?$Matrix@N$0?0$0?0$0A@$0?0$0?0@Eigen@@$0?0$0?0$0A@@Eigen@@$00$0?0$0A@@Eigen@@@?$MatrixBase@V?$Map@V?$Matrix@N$00$0?0$00$00$0?0@Eigen@@$0A@V?$Stride@$0A@$0A@@2@@Eigen@@@Eigen@@QEAAAEAV?$Map@V?$Matrix@N$00$0?0$00$00$0?0@Eigen@@$0A@V?$Stride@$0A@$0A@@2@@1@AEBV?$MatrixBase@V?$Block@V?$Block@V?$Matrix@N$0?0$0?0$0A@$0?0$0?0@Eigen@@$0?0$0?0$0A@@Eigen@@$00$0?0$0A@@Eigen@@@1@@Z
	??$?YV?$Block@V?$Block@V?$Matrix@N$0?0$0?0$0A@$0?0$0?0@Eigen@@$0?0$0?0$0A@@Eigen@@$0?0$00$00@Eigen@@@?$MatrixBase@V?$Map@V?$Matrix@N$0?0$00$0A@$0?0$00@Eigen@@$0A@V?$Stride@$0A@$0A@@2@@Eigen@@@Eigen@@QEAAAEAV?$Map@V?$Matrix@N$0?0$00$0A@$0?0$00@Eigen@@$0A@V?$Stride@$0A@$0A@@2@@1@AEBV?$MatrixBase@V?$Block@V?$Block@V?$Matrix@N$0?0$0?0$0A@$0?0$0?0@Eigen@@$0?0$0?0$0A@@Eigen@@$0?0$00$00@Eigen@@@1@@Z
	??$?YV?$CwiseBinaryOp@U?$scalar_product_op@NN@internal@Eigen@@$$CBV?$CwiseNullaryOp@U?$scalar_constant_op@N@internal@Eigen@@$$CBV?$Matrix@N$00$0?0$00$00$0?0@3@@3@$$CBV?$Block@V?$Block@V?$Matrix@N$0?0$0?0$00$0?0$0?0@Eigen@@$00$0?0$00@Eigen@@$00$0?0$0A@@3@@Eigen@@@?$MatrixBase@V?$Block@V?$Block@V?$Matrix@N$0?0$0?0$00$0?0$0?0@Eigen@@$00$0?0$00@Eigen@@$00$0?0$0A@@Eigen@@@Eigen@@QEAAAEAV?$Block@V?$Block@V?$Matrix@N$0?0$0?0$00$0?0$0?0@Eigen@@$00$0?0$00@Eigen@@$00$0?0$0A@@1@AEBV?$MatrixBase@V?$CwiseBinaryOp@U?$scalar_product_op@NN@internal@Eigen@@$$CBV?$CwiseNullaryOp@U?$scalar_constant_op@N@internal@Eigen@@$$CBV?$Matrix@N$00$0?0$00$00$0?0@3@@3@$$CBV?$Block@V?$Block@V?$Matrix@N$0?0$0?0$00$0?0$0?0@Eigen@@$00$0?0$00@Eigen@@$00$0?0$0A@@3@@Eigen@@@1@@Z
	??$?YV?$CwiseBinaryOp@U?$scalar_product_op@NN@internal@Eigen@@$$CBV?$CwiseNullaryOp@U?$scalar_constant_op@N@internal@Eigen@@$$CBV?$Matrix@N$0?0$00$0A@$0?0$00@3@@3@$$CBV?$Block@$$CBV?$Product@V?$Matrix@N$0?0$0?0$0A@$0?0$0?0@Eigen@@V?$DiagonalWrapper@$$CBV?$Matrix@N$0?0$00$0A@$0?0$00@Eigen@@@2@$00@Eigen@@$0?0$00$00@3@@Eigen@@@?$MatrixBase@V?$Block@V?$Matrix@N$0?0$0?0$0A@$0?0$0?0@Eigen@@$0?0$00$00@Eigen@@@Eigen@@QEAAAEAV?$Block@V?$Matrix@N$0?0$0?0$0A@$0?0$0?0@Eigen@@$0?0$00$00@1@AEBV?$MatrixBase@V?$CwiseBinaryOp@U?$scalar_product_op@NN@internal@Eigen@@$$CBV?$CwiseNullaryOp@U?$scalar_constant_op@N@internal@Eigen@@$$CBV?$Matrix@N$0?0$00$0A@$0?0$00@3@@3@$$CBV?$Block@$$CBV?$Product@V?$Matrix@N$0?0$0?0$0A@$0?0$0?0@Eigen@@V?$DiagonalWrapper@$$CBV?$Matrix@N$0?0$00$0A@$0?0$00@Eigen@@@2@$00@Eigen@@$0?0$00$00@3@@Eigen@@@1@@Z
	??$?YV?$CwiseBinaryOp@U?$scalar_product_op@NN@internal@Eigen@@$$CBV?$CwiseNullaryOp@U?$scalar_constant_op@N@internal@Eigen@@$$CBV?$Matrix@N$0?0$00$0A@$0?0$00@3@@3@$$CBV?$Map@V?$Matrix@N$0?0$00$0A@$0?0$00@Eigen@@$01V?$Stride@$0A@$0A@@2@@3@@Eigen@@@?$MatrixBase@V?$Block@V?$Matrix@N$0?0$0?0$00$0?0$0?0@Eigen@@$0?0$00$0A@@Eigen@@@Eigen@@QEAAAEAV?$Block@V?$Matrix@N$0?0$0?0$00$0?0$0?0@Eigen@@$0?0$00$0A@@1@AEBV?$MatrixBase@V?$CwiseBinaryOp@U?$scalar_product_op@NN@internal@Eigen@@$$CBV?$CwiseNullaryOp@U?$scalar_constant_op@N@internal@Eigen@@$$CBV?$Matrix@N$0?0$00$0A@$0?0$00@3@@3@$$CBV?$Map@V?$Matrix@N$0?0$00$0A@$0?0$00@Eigen@@$01V?$Stride@$0A@$0A@@2@@3@@Eigen@@@1@@Z
	??$?YV?$CwiseBinaryOp@U?$scalar_product_op@NN@internal@Eigen@@$$CBV?$CwiseNullaryOp@U?$scalar_constant_op@N@internal@Eigen@@$$CBV?$Matrix@N$0?0$00$0A@$0?0$00@3@@3@$$CBV?$Map@V?$Matrix@N$0?0$00$0A@$0?0$00@Eigen@@$01V?$Stride@$0A@$0A@@2@@3@@Eigen@@@?$MatrixBase@V?$Block@V?$Matrix@N$0?0$0?0$0A@$0?0$0?0@Eigen@@$0?0$00$00@Eigen@@@Eigen@@QEAAAEAV?$Block@V?$Matrix@N$0?0$0?0$0A@$0?0$0?0@Eigen@@$0?0$00$00@1@AEBV?$MatrixBase@V?$CwiseBinaryOp@U?$scalar_product_op@NN@internal@Eigen@@$$CBV?$CwiseNullaryOp@U?$scalar_constant_op@N@internal@Eigen@@$$CBV?$Matrix@N$0?0$00$0A@$0?0$00@3@@3@$$CBV?$Map@V?$Matrix@N$0?0$00$0A@$0?0$00@Eigen@@$01V?$Stride@$0A@$0A@@2@@3@@Eigen@@@1@@Z
	??$?YV?$CwiseBinaryOp@U?$scalar_product_op@NN@internal@Eigen@@$$CBV?$CwiseNullaryOp@U?$scalar_constant_op@N@internal@Eigen@@$$CBV?$Matrix@N$0?0$00$0A@$0?0$00@3@@3@$$CBV?$Map@V?$Matrix@N$0?0$00$0A@$0?0$00@Eigen@@$01V?$Stride@$0A@$0A@@2@@3@@Eigen@@@?$MatrixBase@V?$Block@V?$Ref@V?$Matrix@N$0?0$0?0$0A@$0?0$0?0@Eigen@@$0A@V?$OuterStride@$0?0@2@@Eigen@@$0?0$00$00@Eigen@@@Eigen@@QEAAAEAV?$Block@V?$Ref@V?$Matrix@N$0?0$0?0$0A@$0?0$0?0@Eigen@@$0A@V?$OuterStride@$0?0@2@@Eigen@@$0?0$00$00@1@AEBV?$MatrixBase@V?$CwiseBinaryOp@U?$scalar_product_op@NN@internal@Eigen@@$$CBV?$CwiseNullaryOp@U?$scalar_constant_op@N@internal@Eigen@@$$CBV?$Matrix@N$0?0$00$0A@$0?0$00@3@@3@$$CBV?$Map@V?$Matrix@N$0?0$00$0A@$0?0$00@Eigen@@$01V?$Stride@$0A@$0A@@2@@3@@Eigen@@@1@@Z
	??$?YV?$CwiseBinaryOp@U?$scalar_product_op@NN@internal@Eigen@@$$CBV?$CwiseNullaryOp@U?$scalar_constant_op@N@internal@Eigen@@$$CBV?$Matrix@N$0?0$00$0A@$0?0$00@3@@3@$$CBV?$Map@V?$Matrix@N$0?0$00$0A@$0?0$00@Eigen@@$01V?$Stride@$0A@$0A@@2@@3@@Eigen@@@?$MatrixBase@V?$Map@V?$Matrix@N$0?0$00$0A@$0?0$00@Eigen@@$0A@V?$Stride@$0A@$0A@@2@@Eigen@@@Eigen@@QEAAAEAV?$Map@V?$Matrix@N$0?0$00$0A@$0?0$00@Eigen@@$0A@V?$Stride@$0A@$0A@@2@@1@AEBV?$MatrixBase@V?$CwiseBinaryOp@U?$scalar_product_op@NN@internal@Eigen@@$$CBV?$CwiseNullaryOp@U?$scalar_constant_op@N@internal@Eigen@@$$CBV?$Matrix@N$0?0$00$0A@$0?0$00@3@@3@$$CBV?$Map@V?$Matrix@N$0?0$00$0A@$0?0$00@Eigen@@$01V?$Stride@$0A@$0A@@2@@3@@Eigen@@@1@@Z
	??$?YV?$CwiseBinaryOp@U?$scalar_product_op@NN@internal@Eigen@@$$CBV?$CwiseNullaryOp@U?$scalar_constant_op@N@internal@Eigen@@$$CBV?$Matrix@N$0?0$00$0A@$0?0$00@3@@3@$$CBV?$Map@V?$Matrix@N$0?0$00$0A@$0?0$00@Eigen@@$01V?$Stride@$0A@$0A@@2@@3@@Eigen@@@?$MatrixBase@V?$Transpose@V?$Block@V?$Matrix@N$0?0$0?0$00$0?0$0?0@Eigen@@$00$0?0$00@Eigen@@@Eigen@@@Eigen@@QEAAAEAV?$Transpose@V?$Block@V?$Matrix@N$0?0$0?0$00$0?0$0?0@Eigen@@$00$0?0$00@Eigen@@@1@AEBV?$MatrixBase@V?$CwiseBinaryOp@U?$scalar_product_op@NN@internal@Eigen@@$$CBV?$CwiseNullaryOp@U?$scalar_constant_op@N@internal@Eigen@@$$CBV?$Matrix@N$0?0$00$0A@$0?0$00@3@@3@$$CBV?$Map@V?$Matrix@N$0?0$00$0A@$0?0$00@Eigen@@$01V?$Stride@$0A@$0A@@2@@3@@Eigen@@@1@@Z
	??$?YV?$CwiseBinaryOp@U?$scalar_product_op@NN@internal@Eigen@@$$CBV?$CwiseNullaryOp@U?$scalar_constant_op@N@internal@Eigen@@$$CBV?$Matrix@N$0?0$00$0A@$0?0$00@3@@3@$$CBV?$Map@V?$Matrix@N$0?0$00$0A@$0?0$00@Eigen@@$01V?$Stride@$0A@$0A@@2@@3@@Eigen@@@?$MatrixBase@V?$Transpose@V?$Block@V?$Matrix@N$0?0$0?0$0A@$0?0$0?0@Eigen@@$00$0?0$0A@@Eigen@@@Eigen@@@Eigen@@QEAAAEAV?$Transpose@V?$Block@V?$Matrix@N$0?0$0?0$0A@$0?0$0?0@Eigen@@$00$0?0$0A@@Eigen@@@1@AEBV?$MatrixBase@V?$CwiseBinaryOp@U?$scalar_product_op@NN@internal@Eigen@@$$CBV?$CwiseNullaryOp@U?$scalar_constant_op@N@internal@Eigen@@$$CBV?$Matrix@N$0?0$00$0A@$0?0$00@3@@3@$$CBV?$Map@V?$Matrix@N$0?0$00$0A@$0?0$00@Eigen@@$01V?$Stride@$0A@$0A@@2@@3@@Eigen@@@1@@Z
	??$?ZV?$Block@$$CBV?$CwiseBinaryOp@U?$scalar_product_op@NN@internal@Eigen@@$$CBV?$CwiseNullaryOp@U?$scalar_constant_op@N@internal@Eigen@@$$CBV?$Matrix@N$0?0$02$0A@$02$02@3@@3@$$CBV?$Block@V?$Matrix@N$02$02$0A@$02$02@Eigen@@$0?0$02$0A@@3@@Eigen@@$0?0$02$0A@@Eigen@@@?$MatrixBase@V?$Block@V?$Matrix@N$0?0$02$0A@$02$02@Eigen@@$0?0$02$0A@@Eigen@@@Eigen@@QEAAAEAV?$Block@V?$Matrix@N$0?0$02$0A@$02$02@Eigen@@$0?0$02$0A@@1@AEBV?$MatrixBase@V?$Block@$$CBV?$CwiseBinaryOp@U?$scalar_product_op@NN@internal@Eigen@@$$CBV?$CwiseNullaryOp@U?$scalar_constant_op@N@internal@Eigen@@$$CBV?$Matrix@N$0?0$02$0A@$02$02@3@@3@$$CBV?$Block@V?$Matrix@N$02$02$0A@$02$02@Eigen@@$0?0$02$0A@@3@@Eigen@@$0?0$02$0A@@Eigen@@@1@@Z
	??$?ZV?$Block@$$CBV?$CwiseBinaryOp@U?$scalar_product_op@NN@internal@Eigen@@$$CBV?$CwiseNullaryOp@U?$scalar_constant_op@N@internal@Eigen@@$$CBV?$Matrix@N$0?0$02$0A@$02$02@3@@3@$$CBV?$Matrix@N$0?0$02$0A@$02$02@3@@Eigen@@$0?0$02$0A@@Eigen@@@?$MatrixBase@V?$Block@V?$Block@V?$Matrix@N$02$02$0A@$02$02@Eigen@@$0?0$02$0A@@Eigen@@$0?0$02$0A@@Eigen@@@Eigen@@QEAAAEAV?$Block@V?$Block@V?$Matrix@N$02$02$0A@$02$02@Eigen@@$0?0$02$0A@@Eigen@@$0?0$02$0A@@1@AEBV?$MatrixBase@V?$Block@$$CBV?$CwiseBinaryOp@U?$scalar_product_op@NN@internal@Eigen@@$$CBV?$CwiseNullaryOp@U?$scalar_constant_op@N@internal@Eigen@@$$CBV?$Matrix@N$0?0$02$0A@$02$02@3@@3@$$CBV?$Matrix@N$0?0$02$0A@$02$02@3@@Eigen@@$0?0$02$0A@@Eigen@@@1@@Z
	??$?ZV?$Block@$$CBV?$CwiseBinaryOp@U?$scalar_product_op@NN@internal@Eigen@@$$CBV?$CwiseNullaryOp@U?$scalar_constant_op@N@internal@Eigen@@$$CBV?$Matrix@N$0?0$02$0A@$02$02@3@@3@$$CBV?$Matrix@N$0?0$02$0A@$02$02@3@@Eigen@@$0?0$02$0A@@Eigen@@@?$MatrixBase@V?$Block@V?$Matrix@N$0?0$02$0A@$0?0$02@Eigen@@$0?0$02$0A@@Eigen@@@Eigen@@QEAAAEAV?$Block@V?$Matrix@N$0?0$02$0A@$0?0$02@Eigen@@$0?0$02$0A@@1@AEBV?$MatrixBase@V?$Block@$$CBV?$CwiseBinaryOp@U?$scalar_product_op@NN@internal@Eigen@@$$CBV?$CwiseNullaryOp@U?$scalar_constant_op@N@internal@Eigen@@$$CBV?$Matrix@N$0?0$02$0A@$02$02@3@@3@$$CBV?$Matrix@N$0?0$02$0A@$02$02@3@@Eigen@@$0?0$02$0A@@Eigen@@@1@@Z
	??$?ZV?$Block@$$CBV?$CwiseBinaryOp@U?$scalar_product_op@NN@internal@Eigen@@$$CBV?$CwiseNullaryOp@U?$scalar_constant_op@N@internal@Eigen@@$$CBV?$Matrix@N$0?0$0?0$0A@$02$02@3@@3@$$CBV?$Block@V?$Matrix@N$02$02$0A@$02$02@Eigen@@$0?0$0?0$0A@@3@@Eigen@@$0?0$0?0$0A@@Eigen@@@?$MatrixBase@V?$Block@V?$Matrix@N$0?0$0?0$0A@$02$02@Eigen@@$0?0$0?0$0A@@Eigen@@@Eigen@@QEAAAEAV?$Block@V?$Matrix@N$0?0$0?0$0A@$02$02@Eigen@@$0?0$0?0$0A@@1@AEBV?$MatrixBase@V?$Block@$$CBV?$CwiseBinaryOp@U?$scalar_product_op@NN@internal@Eigen@@$$CBV?$CwiseNullaryOp@U?$scalar_constant_op@N@internal@Eigen@@$$CBV?$Matrix@N$0?0$0?0$0A@$02$02@3@@3@$$CBV?$Block@V?$Matrix@N$02$02$0A@$02$02@Eigen@@$0?0$0?0$0A@@3@@Eigen@@$0?0$0?0$0A@@Eigen@@@1@@Z
	??$?ZV?$Block@$$CBV?$CwiseBinaryOp@U?$scalar_product_op@NN@internal@Eigen@@$$CBV?$CwiseNullaryOp@U?$scalar_constant_op@N@internal@Eigen@@$$CBV?$Matrix@N$0?0$0?0$0A@$02$02@3@@3@$$CBV?$Matrix@N$0?0$0?0$0A@$02$02@3@@Eigen@@$0?0$0?0$0A@@Eigen@@@?$MatrixBase@V?$Block@V?$Block@V?$Matrix@N$02$02$0A@$02$02@Eigen@@$0?0$0?0$0A@@Eigen@@$0?0$0?0$0A@@Eigen@@@Eigen@@QEAAAEAV?$Block@V?$Block@V?$Matrix@N$02$02$0A@$02$02@Eigen@@$0?0$0?0$0A@@Eigen@@$0?0$0?0$0A@@1@AEBV?$MatrixBase@V?$Block@$$CBV?$CwiseBinaryOp@U?$scalar_product_op@NN@internal@Eigen@@$$CBV?$CwiseNullaryOp@U?$scalar_constant_op@N@internal@Eigen@@$$CBV?$Matrix@N$0?0$0?0$0A@$02$02@3@@3@$$CBV?$Matrix@N$0?0$0?0$0A@$02$02@3@@Eigen@@$0?0$0?0$0A@@Eigen@@@1@@Z
	??$?ZV?$Block@$$CBV?$CwiseBinaryOp@U?$scalar_product_op@NN@internal@Eigen@@$$CBV?$CwiseNullaryOp@U?$scalar_constant_op@N@internal@Eigen@@$$CBV?$Matrix@N$0?0$0?0$0A@$02$02@3@@3@$$CBV?$Matrix@N$0?0$0?0$0A@$02$02@3@@Eigen@@$0?0$0?0$0A@@Eigen@@@?$MatrixBase@V?$Block@V?$Matrix@N$0?0$0?0$0A@$0?0$02@Eigen@@$0?0$0?0$0A@@Eigen@@@Eigen@@QEAAAEAV?$Block@V?$Matrix@N$0?0$0?0$0A@$0?0$02@Eigen@@$0?0$0?0$0A@@1@AEBV?$MatrixBase@V?$Block@$$CBV?$CwiseBinaryOp@U?$scalar_product_op@NN@internal@Eigen@@$$CBV?$CwiseNullaryOp@U?$scalar_constant_op@N@internal@Eigen@@$$CBV?$Matrix@N$0?0$0?0$0A@$02$02@3@@3@$$CBV?$Matrix@N$0?0$0?0$0A@$02$02@3@@Eigen@@$0?0$0?0$0A@@Eigen@@@1@@Z
	??$?ZV?$Block@$$CBV?$CwiseBinaryOp@U?$scalar_product_op@NN@internal@Eigen@@$$CBV?$CwiseNullaryOp@U?$scalar_constant_op@N@internal@Eigen@@$$CBV?$Matrix@N$0?0$0?0$0A@$0?0$0?0@3@@3@$$CBV?$Block@V?$Matrix@N$0?0$0?0$0A@$0?0$0?0@Eigen@@$0?0$0?0$0A@@3@@Eigen@@$0?0$0?0$0A@@Eigen@@@?$MatrixBase@V?$Block@V?$Matrix@N$0?0$0?0$0A@$0?0$0?0@Eigen@@$0?0$0?0$0A@@Eigen@@@Eigen@@QEAAAEAV?$Block@V?$Matrix@N$0?0$0?0$0A@$0?0$0?0@Eigen@@$0?0$0?0$0A@@1@AEBV?$MatrixBase@V?$Block@$$CBV?$CwiseBinaryOp@U?$scalar_product_op@NN@internal@Eigen@@$$CBV?$CwiseNullaryOp@U?$scalar_constant_op@N@internal@Eigen@@$$CBV?$Matrix@N$0?0$0?0$0A@$0?0$0?0@3@@3@$$CBV?$Block@V?$Matrix@N$0?0$0?0$0A@$0?0$0?0@Eigen@@$0?0$0?0$0A@@3@@Eigen@@$0?0$0?0$0A@@Eigen@@@1@@Z
	??$?ZV?$Block@$$CBV?$CwiseBinaryOp@U?$scalar_product_op@NN@internal@Eigen@@$$CBV?$CwiseNullaryOp@U?$scalar_constant_op@N@internal@Eigen@@$$CBV?$Matrix@N$0?0$0?0$0A@$0?0$0?0@3@@3@$$CBV?$Matrix@N$0?0$0?0$0A@$0?0$0?0@3@@Eigen@@$0?0$0?0$0A@@Eigen@@@?$MatrixBase@V?$Block@V?$Block@V?$Matrix@N$0?0$0?0$0A@$0?0$0?0@Eigen@@$0?0$0?0$0A@@Eigen@@$0?0$0?0$0A@@Eigen@@@Eigen@@QEAAAEAV?$Block@V?$Block@V?$Matrix@N$0?0$0?0$0A@$0?0$0?0@Eigen@@$0?0$0?0$0A@@Eigen@@$0?0$0?0$0A@@1@AEBV?$MatrixBase@V?$Block@$$CBV?$CwiseBinaryOp@U?$scalar_product_op@NN@internal@Eigen@@$$CBV?$CwiseNullaryOp@U?$scalar_constant_op@N@internal@Eigen@@$$CBV?$Matrix@N$0?0$0?0$0A@$0?0$0?0@3@@3@$$CBV?$Matrix@N$0?0$0?0$0A@$0?0$0?0@3@@Eigen@@$0?0$0?0$0A@@Eigen@@@1@@Z
	??$?ZV?$Block@$$CBV?$CwiseBinaryOp@U?$scalar_product_op@NN@internal@Eigen@@$$CBV?$CwiseNullaryOp@U?$scalar_constant_op@N@internal@Eigen@@$$CBV?$Matrix@N$0?0$0?0$0A@$0?0$0?0@3@@3@$$CBV?$Matrix@N$0?0$0?0$0A@$0?0$0?0@3@@Eigen@@$0?0$0?0$0A@@Eigen@@@?$MatrixBase@V?$Block@V?$Matrix@N$0?0$0?0$0A@$0?0$0?0@Eigen@@$0?0$0?0$0A@@Eigen@@@Eigen@@QEAAAEAV?$Block@V?$Matrix@N$0?0$0?0$0A@$0?0$0?0@Eigen@@$0?0$0?0$0A@@1@AEBV?$MatrixBase@V?$Block@$$CBV?$CwiseBinaryOp@U?$scalar_product_op@NN@internal@Eigen@@$$CBV?$CwiseNullaryOp@U?$scalar_constant_op@N@internal@Eigen@@$$CBV?$Matrix@N$0?0$0?0$0A@$0?0$0?0@3@@3@$$CBV?$Matrix@N$0?0$0?0$0A@$0?0$0?0@3@@Eigen@@$0?0$0?0$0A@@Eigen@@@1@@Z
	??$?ZV?$CwiseBinaryOp@U?$scalar_product_op@NN@internal@Eigen@@$$CBV?$CwiseNullaryOp@U?$scalar_constant_op@N@internal@Eigen@@$$CBV?$Matrix@N$00$02$00$00$02@3@@3@$$CBV?$Map@V?$Matrix@N$00$02$00$00$02@Eigen@@$0A@V?$Stride@$0A@$0A@@2@@3@@Eigen@@@?$MatrixBase@V?$Block@V?$Block@V?$Matrix@N$02$02$0A@$02$02@Eigen@@$0?0$02$0A@@Eigen@@$00$02$0A@@Eigen@@@Eigen@@QEAAAEAV?$Block@V?$Block@V?$Matrix@N$02$02$0A@$02$02@Eigen@@$0?0$02$0A@@Eigen@@$00$02$0A@@1@AEBV?$MatrixBase@V?$CwiseBinaryOp@U?$scalar_product_op@NN@internal@Eigen@@$$CBV?$CwiseNullaryOp@U?$scalar_constant_op@N@internal@Eigen@@$$CBV?$Matrix@N$00$02$00$00$02@3@@3@$$CBV?$Map@V?$Matrix@N$00$02$00$00$02@Eigen@@$0A@V?$Stride@$0A@$0A@@2@@3@@Eigen@@@1@@Z
	??$?ZV?$CwiseBinaryOp@U?$scalar_product_op@NN@internal@Eigen@@$$CBV?$CwiseNullaryOp@U?$scalar_constant_op@N@internal@Eigen@@$$CBV?$Matrix@N$00$0?0$00$00$02@3@@3@$$CBV?$Map@V?$Matrix@N$00$0?0$00$00$02@Eigen@@$0A@V?$Stride@$0A@$0A@@2@@3@@Eigen@@@?$MatrixBase@V?$Block@V?$Block@V?$Block@V?$Matrix@N$02$02$0A@$02$02@Eigen@@$0?0$0?0$0A@@Eigen@@$0?0$0?0$0A@@Eigen@@$00$0?0$0A@@Eigen@@@Eigen@@QEAAAEAV?$Block@V?$Block@V?$Block@V?$Matrix@N$02$02$0A@$02$02@Eigen@@$0?0$0?0$0A@@Eigen@@$0?0$0?0$0A@@Eigen@@$00$0?0$0A@@1@AEBV?$MatrixBase@V?$CwiseBinaryOp@U?$scalar_product_op@NN@internal@Eigen@@$$CBV?$CwiseNullaryOp@U?$scalar_constant_op@N@internal@Eigen@@$$CBV?$Matrix@N$00$0?0$00$00$02@3@@3@$$CBV?$Map@V?$Matrix@N$00$0?0$00$00$02@Eigen@@$0A@V?$Stride@$0A@$0A@@2@@3@@Eigen@@@1@@Z
	??$?ZV?$CwiseBinaryOp@U?$scalar_product_op@NN@internal@Eigen@@$$CBV?$CwiseNullaryOp@U?$scalar_constant_op@N@internal@Eigen@@$$CBV?$Matrix@N$00$0?0$00$00$02@3@@3@$$CBV?$Map@V?$Matrix@N$00$0?0$00$00$02@Eigen@@$0A@V?$Stride@$0A@$0A@@2@@3@@Eigen@@@?$MatrixBase@V?$Block@V?$Block@V?$Matrix@N$02$02$0A@$02$02@Eigen@@$0?0$0?0$0A@@Eigen@@$00$0?0$0A@@Eigen@@@Eigen@@QEAAAEAV?$Block@V?$Block@V?$Matrix@N$02$02$0A@$02$02@Eigen@@$0?0$0?0$0A@@Eigen@@$00$0?0$0A@@1@AEBV?$MatrixBase@V?$CwiseBinaryOp@U?$scalar_product_op@NN@internal@Eigen@@$$CBV?$CwiseNullaryOp@U?$scalar_constant_op@N@internal@Eigen@@$$CBV?$Matrix@N$00$0?0$00$00$02@3@@3@$$CBV?$Map@V?$Matrix@N$00$0?0$00$00$02@Eigen@@$0A@V?$Stride@$0A@$0A@@2@@3@@Eigen@@@1@@Z
	??$?ZV?$CwiseBinaryOp@U?$scalar_product_op@NN@internal@Eigen@@$$CBV?$CwiseNullaryOp@U?$scalar_constant_op@N@internal@Eigen@@$$CBV?$Matrix@N$00$0?0$00$00$0?0@3@@3@$$CBV?$Map@V?$Matrix@N$00$0?0$00$00$0?0@Eigen@@$0A@V?$Stride@$0A@$0A@@2@@3@@Eigen@@@?$MatrixBase@V?$Block@V?$Block@V?$Matrix@N$0?0$0?0$0A@$0?0$0?0@Eigen@@$0?0$0?0$0A@@Eigen@@$00$0?0$0A@@Eigen@@@Eigen@@QEAAAEAV?$Block@V?$Block@V?$Matrix@N$0?0$0?0$0A@$0?0$0?0@Eigen@@$0?0$0?0$0A@@Eigen@@$00$0?0$0A@@1@AEBV?$MatrixBase@V?$CwiseBinaryOp@U?$scalar_product_op@NN@internal@Eigen@@$$CBV?$CwiseNullaryOp@U?$scalar_constant_op@N@internal@Eigen@@$$CBV?$Matrix@N$00$0?0$00$00$0?0@3@@3@$$CBV?$Map@V?$Matrix@N$00$0?0$00$00$0?0@Eigen@@$0A@V?$Stride@$0A@$0A@@2@@3@@Eigen@@@1@@Z
	??$?ZV?$CwiseBinaryOp@U?$scalar_product_op@NN@internal@Eigen@@$$CBV?$CwiseNullaryOp@U?$scalar_constant_op@N@internal@Eigen@@$$CBV?$Matrix@N$0?0$00$0A@$02$00@3@@3@$$CBV?$Block@$$CBV?$Transpose@$$CBV?$CwiseBinaryOp@U?$scalar_product_op@NN@internal@Eigen@@$$CBV?$CwiseNullaryOp@U?$scalar_constant_op@N@internal@Eigen@@$$CBV?$Matrix@N$00$0?0$00$00$02@3@@3@$$CBV?$Transpose@$$CBV?$Block@$$CBV?$Block@$$CBV?$Block@V?$Matrix@N$02$02$0A@$02$02@Eigen@@$0?0$0?0$0A@@Eigen@@$0?0$00$00@Eigen@@$0?0$00$0A@@Eigen@@@3@@Eigen@@@Eigen@@$0?0$00$0A@@3@@Eigen@@@?$MatrixBase@V?$Block@V?$Transpose@V?$Block@V?$Block@V?$Matrix@N$0?0$0?0$00$0?0$0?0@Eigen@@$00$0?0$00@Eigen@@$00$0?0$0A@@Eigen@@@Eigen@@$0?0$00$0A@@Eigen@@@Eigen@@QEAAAEAV?$Block@V?$Transpose@V?$Block@V?$Block@V?$Matrix@N$0?0$0?0$00$0?0$0?0@Eigen@@$00$0?0$00@Eigen@@$00$0?0$0A@@Eigen@@@Eigen@@$0?0$00$0A@@1@AEBV?$MatrixBase@V?$CwiseBinaryOp@U?$scalar_product_op@NN@internal@Eigen@@$$CBV?$CwiseNullaryOp@U?$scalar_constant_op@N@internal@Eigen@@$$CBV?$Matrix@N$0?0$00$0A@$02$00@3@@3@$$CBV?$Block@$$CBV?$Transpose@$$CBV?$CwiseBinaryOp@U?$scalar_product_op@NN@internal@Eigen@@$$CBV?$CwiseNullaryOp@U?$scalar_constant_op@N@internal@Eigen@@$$CBV?$Matrix@N$00$0?0$00$00$02@3@@3@$$CBV?$Transpose@$$CBV?$Block@$$CBV?$Block@$$CBV?$Block@V?$Matrix@N$02$02$0A@$02$02@Eigen@@$0?0$0?0$0A@@Eigen@@$0?0$00$00@Eigen@@$0?0$00$0A@@Eigen@@@3@@Eigen@@@Eigen@@$0?0$00$0A@@3@@Eigen@@@1@@Z
	??$?ZV?$CwiseBinaryOp@U?$scalar_product_op@NN@internal@Eigen@@$$CBV?$CwiseNullaryOp@U?$scalar_constant_op@N@internal@Eigen@@$$CBV?$Matrix@N$0?0$00$0A@$02$00@3@@3@$$CBV?$Map@V?$Matrix@N$0?0$00$0A@$02$00@Eigen@@$0A@V?$Stride@$0A@$0A@@2@@3@@Eigen@@@?$MatrixBase@V?$Block@V?$Block@V?$Matrix@N$02$02$0A@$02$02@Eigen@@$0?0$0?0$0A@@Eigen@@$0?0$00$00@Eigen@@@Eigen@@QEAAAEAV?$Block@V?$Block@V?$Matrix@N$02$02$0A@$02$02@Eigen@@$0?0$0?0$0A@@Eigen@@$0?0$00$00@1@AEBV?$MatrixBase@V?$CwiseBinaryOp@U?$scalar_product_op@NN@internal@Eigen@@$$CBV?$CwiseNullaryOp@U?$scalar_constant_op@N@internal@Eigen@@$$CBV?$Matrix@N$0?0$00$0A@$02$00@3@@3@$$CBV?$Map@V?$Matrix@N$0?0$00$0A@$02$00@Eigen@@$0A@V?$Stride@$0A@$0A@@2@@3@@Eigen@@@1@@Z
	??$?ZV?$CwiseBinaryOp@U?$scalar_product_op@NN@internal@Eigen@@$$CBV?$CwiseNullaryOp@U?$scalar_constant_op@N@internal@Eigen@@$$CBV?$Matrix@N$0?0$00$0A@$0?0$00@3@@3@$$CBV?$Block@$$CBV?$Transpose@$$CBV?$CwiseBinaryOp@U?$scalar_product_op@NN@internal@Eigen@@$$CBV?$CwiseNullaryOp@U?$scalar_constant_op@N@internal@Eigen@@$$CBV?$Matrix@N$00$0?0$00$00$0?0@3@@3@$$CBV?$Transpose@$$CBV?$Block@$$CBV?$Block@$$CBV?$Block@V?$Matrix@N$0?0$0?0$0A@$0?0$0?0@Eigen@@$0?0$0?0$0A@@Eigen@@$0?0$00$00@Eigen@@$0?0$00$0A@@Eigen@@@3@@Eigen@@@Eigen@@$0?0$00$0A@@3@@Eigen@@@?$MatrixBase@V?$Block@V?$Transpose@V?$Block@V?$Block@V?$Matrix@N$0?0$0?0$00$0?0$0?0@Eigen@@$00$0?0$00@Eigen@@$00$0?0$0A@@Eigen@@@Eigen@@$0?0$00$0A@@Eigen@@@Eigen@@QEAAAEAV?$Block@V?$Transpose@V?$Block@V?$Block@V?$Matrix@N$0?0$0?0$00$0?0$0?0@Eigen@@$00$0?0$00@Eigen@@$00$0?0$0A@@Eigen@@@Eigen@@$0?0$00$0A@@1@AEBV?$MatrixBase@V?$CwiseBinaryOp@U?$scalar_product_op@NN@internal@Eigen@@$$CBV?$CwiseNullaryOp@U?$scalar_constant_op@N@internal@Eigen@@$$CBV?$Matrix@N$0?0$00$0A@$0?0$00@3@@3@$$CBV?$Block@$$CBV?$Transpose@$$CBV?$CwiseBinaryOp@U?$scalar_product_op@NN@internal@Eigen@@$$CBV?$CwiseNullaryOp@U?$scalar_constant_op@N@internal@Eigen@@$$CBV?$Matrix@N$00$0?0$00$00$0?0@3@@3@$$CBV?$Transpose@$$CBV?$Block@$$CBV?$Block@$$CBV?$Block@V?$Matrix@N$0?0$0?0$0A@$0?0$0?0@Eigen@@$0?0$0?0$0A@@Eigen@@$0?0$00$00@Eigen@@$0?0$00$0A@@Eigen@@@3@@Eigen@@@Eigen@@$0?0$00$0A@@3@@Eigen@@@1@@Z
	??$?ZV?$CwiseBinaryOp@U?$scalar_product_op@NN@internal@Eigen@@$$CBV?$CwiseNullaryOp@U?$scalar_constant_op@N@internal@Eigen@@$$CBV?$Matrix@N$0?0$00$0A@$0?0$00@3@@3@$$CBV?$Map@V?$Matrix@N$0?0$00$0A@$0?0$00@Eigen@@$0A@V?$Stride@$0A@$0A@@2@@3@@Eigen@@@?$MatrixBase@V?$Block@V?$Block@V?$Matrix@N$0?0$0?0$0A@$0?0$0?0@Eigen@@$0?0$0?0$0A@@Eigen@@$0?0$00$00@Eigen@@@Eigen@@QEAAAEAV?$Block@V?$Block@V?$Matrix@N$0?0$0?0$0A@$0?0$0?0@Eigen@@$0?0$0?0$0A@@Eigen@@$0?0$00$00@1@AEBV?$MatrixBase@V?$CwiseBinaryOp@U?$scalar_product_op@NN@internal@Eigen@@$$CBV?$CwiseNullaryOp@U?$scalar_constant_op@N@internal@Eigen@@$$CBV?$Matrix@N$0?0$00$0A@$0?0$00@3@@3@$$CBV?$Map@V?$Matrix@N$0?0$00$0A@$0?0$00@Eigen@@$0A@V?$Stride@$0A@$0A@@2@@3@@Eigen@@@1@@Z
	??$?ZV?$CwiseBinaryOp@U?$scalar_product_op@NN@internal@Eigen@@$$CBV?$CwiseNullaryOp@U?$scalar_constant_op@N@internal@Eigen@@$$CBV?$Matrix@N$0?0$00$0A@$0?0$00@3@@3@$$CBV?$Map@V?$Matrix@N$0?0$00$0A@$0?0$00@Eigen@@$0BA@V?$Stride@$0A@$0A@@2@@3@@Eigen@@@?$MatrixBase@V?$Block@V?$Block@V?$Block@V?$Matrix@N$0?0$0?0$0A@$0?0$0?0@Eigen@@$0?0$0?0$0A@@Eigen@@$0?0$0?0$0A@@Eigen@@$0?0$00$00@Eigen@@@Eigen@@QEAAAEAV?$Block@V?$Block@V?$Block@V?$Matrix@N$0?0$0?0$0A@$0?0$0?0@Eigen@@$0?0$0?0$0A@@Eigen@@$0?0$0?0$0A@@Eigen@@$0?0$00$00@1@AEBV?$MatrixBase@V?$CwiseBinaryOp@U?$scalar_product_op@NN@internal@Eigen@@$$CBV?$CwiseNullaryOp@U?$scalar_constant_op@N@internal@Eigen@@$$CBV?$Matrix@N$0?0$00$0A@$0?0$00@3@@3@$$CBV?$Map@V?$Matrix@N$0?0$00$0A@$0?0$00@Eigen@@$0BA@V?$Stride@$0A@$0A@@2@@3@@Eigen@@@1@@Z
	??$?ZV?$CwiseBinaryOp@U?$scalar_product_op@NN@internal@Eigen@@$$CBV?$CwiseNullaryOp@U?$scalar_constant_op@N@internal@Eigen@@$$CBV?$Matrix@N$0?0$0?0$00$02$02@3@@3@$$CBV?$Block@$$CBV?$Transpose@$$CBV?$Block@V?$Matrix@N$02$02$0A@$02$02@Eigen@@$0?0$0?0$0A@@Eigen@@@Eigen@@$0?0$0?0$0A@@3@@Eigen@@@?$MatrixBase@V?$Block@V?$Matrix@N$0?0$02$0A@$02$02@Eigen@@$0?0$0?0$00@Eigen@@@Eigen@@QEAAAEAV?$Block@V?$Matrix@N$0?0$02$0A@$02$02@Eigen@@$0?0$0?0$00@1@AEBV?$MatrixBase@V?$CwiseBinaryOp@U?$scalar_product_op@NN@internal@Eigen@@$$CBV?$CwiseNullaryOp@U?$scalar_constant_op@N@internal@Eigen@@$$CBV?$Matrix@N$0?0$0?0$00$02$02@3@@3@$$CBV?$Block@$$CBV?$Transpose@$$CBV?$Block@V?$Matrix@N$02$02$0A@$02$02@Eigen@@$0?0$0?0$0A@@Eigen@@@Eigen@@$0?0$0?0$0A@@3@@Eigen@@@1@@Z
	??$?ZV?$CwiseBinaryOp@U?$scalar_product_op@NN@internal@Eigen@@$$CBV?$CwiseNullaryOp@U?$scalar_constant_op@N@internal@Eigen@@$$CBV?$Matrix@N$0?0$0?0$00$02$02@3@@3@$$CBV?$Block@$$CBV?$Transpose@$$CBV?$Block@V?$Matrix@N$02$02$0A@$02$02@Eigen@@$0?0$0?0$0A@@Eigen@@@Eigen@@$0?0$0?0$0A@@3@@Eigen@@@?$MatrixBase@V?$Block@V?$Matrix@N$0?0$0?0$0A@$02$02@Eigen@@$0?0$0?0$00@Eigen@@@Eigen@@QEAAAEAV?$Block@V?$Matrix@N$0?0$0?0$0A@$02$02@Eigen@@$0?0$0?0$00@1@AEBV?$MatrixBase@V?$CwiseBinaryOp@U?$scalar_product_op@NN@internal@Eigen@@$$CBV?$CwiseNullaryOp@U?$scalar_constant_op@N@internal@Eigen@@$$CBV?$Matrix@N$0?0$0?0$00$02$02@3@@3@$$CBV?$Block@$$CBV?$Transpose@$$CBV?$Block@V?$Matrix@N$02$02$0A@$02$02@Eigen@@$0?0$0?0$0A@@Eigen@@@Eigen@@$0?0$0?0$0A@@3@@Eigen@@@1@@Z
	??$?ZV?$CwiseBinaryOp@U?$scalar_product_op@NN@internal@Eigen@@$$CBV?$CwiseNullaryOp@U?$scalar_constant_op@N@internal@Eigen@@$$CBV?$Matrix@N$0?0$0?0$00$0?0$0?0@3@@3@$$CBV?$Block@$$CBV?$Matrix@N$0?0$0?0$00$0?0$0?0@Eigen@@$0?0$0?0$0A@@3@@Eigen@@@?$MatrixBase@V?$Block@V?$Matrix@N$0?0$02$0A@$0?0$02@Eigen@@$0?0$0?0$00@Eigen@@@Eigen@@QEAAAEAV?$Block@V?$Matrix@N$0?0$02$0A@$0?0$02@Eigen@@$0?0$0?0$00@1@AEBV?$MatrixBase@V?$CwiseBinaryOp@U?$scalar_product_op@NN@internal@Eigen@@$$CBV?$CwiseNullaryOp@U?$scalar_constant_op@N@internal@Eigen@@$$CBV?$Matrix@N$0?0$0?0$00$0?0$0?0@3@@3@$$CBV?$Block@$$CBV?$Matrix@N$0?0$0?0$00$0?0$0?0@Eigen@@$0?0$0?0$0A@@3@@Eigen@@@1@@Z
	??$?ZV?$CwiseBinaryOp@U?$scalar_product_op@NN@internal@Eigen@@$$CBV?$CwiseNullaryOp@U?$scalar_constant_op@N@internal@Eigen@@$$CBV?$Matrix@N$0?0$0?0$00$0?0$0?0@3@@3@$$CBV?$Block@$$CBV?$Matrix@N$0?0$0?0$00$0?0$0?0@Eigen@@$0?0$0?0$0A@@3@@Eigen@@@?$MatrixBase@V?$Block@V?$Matrix@N$0?0$0?0$0A@$0?0$02@Eigen@@$0?0$0?0$00@Eigen@@@Eigen@@QEAAAEAV?$Block@V?$Matrix@N$0?0$0?0$0A@$0?0$02@Eigen@@$0?0$0?0$00@1@AEBV?$MatrixBase@V?$CwiseBinaryOp@U?$scalar_product_op@NN@internal@Eigen@@$$CBV?$CwiseNullaryOp@U?$scalar_constant_op@N@internal@Eigen@@$$CBV?$Matrix@N$0?0$0?0$00$0?0$0?0@3@@3@$$CBV?$Block@$$CBV?$Matrix@N$0?0$0?0$00$0?0$0?0@Eigen@@$0?0$0?0$0A@@3@@Eigen@@@1@@Z
	??$?ZV?$CwiseBinaryOp@U?$scalar_product_op@NN@internal@Eigen@@$$CBV?$CwiseNullaryOp@U?$scalar_constant_op@N@internal@Eigen@@$$CBV?$Matrix@N$0?0$0?0$00$0?0$0?0@3@@3@$$CBV?$Block@$$CBV?$Matrix@N$0?0$0?0$00$0?0$0?0@Eigen@@$0?0$0?0$0A@@3@@Eigen@@@?$MatrixBase@V?$Block@V?$Matrix@N$0?0$0?0$0A@$0?0$0?0@Eigen@@$0?0$0?0$00@Eigen@@@Eigen@@QEAAAEAV?$Block@V?$Matrix@N$0?0$0?0$0A@$0?0$0?0@Eigen@@$0?0$0?0$00@1@AEBV?$MatrixBase@V?$CwiseBinaryOp@U?$scalar_product_op@NN@internal@Eigen@@$$CBV?$CwiseNullaryOp@U?$scalar_constant_op@N@internal@Eigen@@$$CBV?$Matrix@N$0?0$0?0$00$0?0$0?0@3@@3@$$CBV?$Block@$$CBV?$Matrix@N$0?0$0?0$00$0?0$0?0@Eigen@@$0?0$0?0$0A@@3@@Eigen@@@1@@Z
	??$?ZV?$CwiseBinaryOp@U?$scalar_product_op@NN@internal@Eigen@@$$CBV?$CwiseNullaryOp@U?$scalar_constant_op@N@internal@Eigen@@$$CBV?$Matrix@N$0?0$0?0$00$0?0$0?0@3@@3@$$CBV?$Block@$$CBV?$Transpose@$$CBV?$Block@V?$Matrix@N$0?0$0?0$0A@$0?0$0?0@Eigen@@$0?0$0?0$0A@@Eigen@@@Eigen@@$0?0$0?0$0A@@3@@Eigen@@@?$MatrixBase@V?$Block@V?$Matrix@N$0?0$0?0$0A@$0?0$0?0@Eigen@@$0?0$0?0$00@Eigen@@@Eigen@@QEAAAEAV?$Block@V?$Matrix@N$0?0$0?0$0A@$0?0$0?0@Eigen@@$0?0$0?0$00@1@AEBV?$MatrixBase@V?$CwiseBinaryOp@U?$scalar_product_op@NN@internal@Eigen@@$$CBV?$CwiseNullaryOp@U?$scalar_constant_op@N@internal@Eigen@@$$CBV?$Matrix@N$0?0$0?0$00$0?0$0?0@3@@3@$$CBV?$Block@$$CBV?$Transpose@$$CBV?$Block@V?$Matrix@N$0?0$0?0$0A@$0?0$0?0@Eigen@@$0?0$0?0$0A@@Eigen@@@Eigen@@$0?0$0?0$0A@@3@@Eigen@@@1@@Z
	??$?ZV?$CwiseBinaryOp@U?$scalar_product_op@NN@internal@Eigen@@$$CBV?$CwiseNullaryOp@U?$scalar_constant_op@N@internal@Eigen@@$$CBV?$Matrix@N$0?0$0?0$0A@$02$02@3@@3@$$CBV?$Block@$$CBV?$Block@V?$Matrix@N$02$02$0A@$02$02@Eigen@@$0?0$0?0$0A@@Eigen@@$0?0$0?0$00@3@@Eigen@@@?$MatrixBase@V?$Block@V?$Block@V?$Matrix@N$02$02$0A@$02$02@Eigen@@$0?0$02$0A@@Eigen@@$0?0$0?0$00@Eigen@@@Eigen@@QEAAAEAV?$Block@V?$Block@V?$Matrix@N$02$02$0A@$02$02@Eigen@@$0?0$02$0A@@Eigen@@$0?0$0?0$00@1@AEBV?$MatrixBase@V?$CwiseBinaryOp@U?$scalar_product_op@NN@internal@Eigen@@$$CBV?$CwiseNullaryOp@U?$scalar_constant_op@N@internal@Eigen@@$$CBV?$Matrix@N$0?0$0?0$0A@$02$02@3@@3@$$CBV?$Block@$$CBV?$Block@V?$Matrix@N$02$02$0A@$02$02@Eigen@@$0?0$0?0$0A@@Eigen@@$0?0$0?0$00@3@@Eigen@@@1@@Z
	??$?ZV?$CwiseBinaryOp@U?$scalar_product_op@NN@internal@Eigen@@$$CBV?$CwiseNullaryOp@U?$scalar_constant_op@N@internal@Eigen@@$$CBV?$Matrix@N$0?0$0?0$0A@$02$02@3@@3@$$CBV?$Block@$$CBV?$Block@V?$Matrix@N$02$02$0A@$02$02@Eigen@@$0?0$0?0$0A@@Eigen@@$0?0$0?0$00@3@@Eigen@@@?$MatrixBase@V?$Block@V?$Block@V?$Matrix@N$02$02$0A@$02$02@Eigen@@$0?0$0?0$0A@@Eigen@@$0?0$0?0$00@Eigen@@@Eigen@@QEAAAEAV?$Block@V?$Block@V?$Matrix@N$02$02$0A@$02$02@Eigen@@$0?0$0?0$0A@@Eigen@@$0?0$0?0$00@1@AEBV?$MatrixBase@V?$CwiseBinaryOp@U?$scalar_product_op@NN@internal@Eigen@@$$CBV?$CwiseNullaryOp@U?$scalar_constant_op@N@internal@Eigen@@$$CBV?$Matrix@N$0?0$0?0$0A@$02$02@3@@3@$$CBV?$Block@$$CBV?$Block@V?$Matrix@N$02$02$0A@$02$02@Eigen@@$0?0$0?0$0A@@Eigen@@$0?0$0?0$00@3@@Eigen@@@1@@Z
	??$?ZV?$CwiseBinaryOp@U?$scalar_product_op@NN@internal@Eigen@@$$CBV?$CwiseNullaryOp@U?$scalar_constant_op@N@internal@Eigen@@$$CBV?$Matrix@N$0?0$0?0$0A@$0?0$0?0@3@@3@$$CBV?$Block@$$CBV?$Block@V?$Matrix@N$0?0$0?0$0A@$0?0$0?0@Eigen@@$0?0$0?0$0A@@Eigen@@$0?0$0?0$00@3@@Eigen@@@?$MatrixBase@V?$Block@V?$Block@V?$Matrix@N$0?0$0?0$0A@$0?0$0?0@Eigen@@$0?0$0?0$0A@@Eigen@@$0?0$0?0$00@Eigen@@@Eigen@@QEAAAEAV?$Block@V?$Block@V?$Matrix@N$0?0$0?0$0A@$0?0$0?0@Eigen@@$0?0$0?0$0A@@Eigen@@$0?0$0?0$00@1@AEBV?$MatrixBase@V?$CwiseBinaryOp@U?$scalar_product_op@NN@internal@Eigen@@$$CBV?$CwiseNullaryOp@U?$scalar_constant_op@N@internal@Eigen@@$$CBV?$Matrix@N$0?0$0?0$0A@$0?0$0?0@3@@3@$$CBV?$Block@$$CBV?$Block@V?$Matrix@N$0?0$0?0$0A@$0?0$0?0@Eigen@@$0?0$0?0$0A@@Eigen@@$0?0$0?0$00@3@@Eigen@@@1@@Z
	??$?ZV?$CwiseBinaryOp@U?$scalar_product_op@NN@internal@Eigen@@$$CBV?$CwiseNullaryOp@U?$scalar_constant_op@N@internal@Eigen@@$$CBV?$Matrix@N$0?0$0?0$0A@$0?0$0?0@3@@3@$$CBV?$Block@$$CBV?$Transpose@$$CBV?$Matrix@N$0?0$0?0$00$0?0$0?0@Eigen@@@Eigen@@$0?0$0?0$00@3@@Eigen@@@?$MatrixBase@V?$Block@V?$Matrix@N$0?0$02$0A@$0?0$02@Eigen@@$0?0$0?0$00@Eigen@@@Eigen@@QEAAAEAV?$Block@V?$Matrix@N$0?0$02$0A@$0?0$02@Eigen@@$0?0$0?0$00@1@AEBV?$MatrixBase@V?$CwiseBinaryOp@U?$scalar_product_op@NN@internal@Eigen@@$$CBV?$CwiseNullaryOp@U?$scalar_constant_op@N@internal@Eigen@@$$CBV?$Matrix@N$0?0$0?0$0A@$0?0$0?0@3@@3@$$CBV?$Block@$$CBV?$Transpose@$$CBV?$Matrix@N$0?0$0?0$00$0?0$0?0@Eigen@@@Eigen@@$0?0$0?0$00@3@@Eigen@@@1@@Z
	??$?ZV?$CwiseBinaryOp@U?$scalar_product_op@NN@internal@Eigen@@$$CBV?$CwiseNullaryOp@U?$scalar_constant_op@N@internal@Eigen@@$$CBV?$Matrix@N$0?0$0?0$0A@$0?0$0?0@3@@3@$$CBV?$Block@$$CBV?$Transpose@$$CBV?$Matrix@N$0?0$0?0$00$0?0$0?0@Eigen@@@Eigen@@$0?0$0?0$00@3@@Eigen@@@?$MatrixBase@V?$Block@V?$Matrix@N$0?0$0?0$0A@$0?0$02@Eigen@@$0?0$0?0$00@Eigen@@@Eigen@@QEAAAEAV?$Block@V?$Matrix@N$0?0$0?0$0A@$0?0$02@Eigen@@$0?0$0?0$00@1@AEBV?$MatrixBase@V?$CwiseBinaryOp@U?$scalar_product_op@NN@internal@Eigen@@$$CBV?$CwiseNullaryOp@U?$scalar_constant_op@N@internal@Eigen@@$$CBV?$Matrix@N$0?0$0?0$0A@$0?0$0?0@3@@3@$$CBV?$Block@$$CBV?$Transpose@$$CBV?$Matrix@N$0?0$0?0$00$0?0$0?0@Eigen@@@Eigen@@$0?0$0?0$00@3@@Eigen@@@1@@Z
	??$?ZV?$CwiseBinaryOp@U?$scalar_product_op@NN@internal@Eigen@@$$CBV?$CwiseNullaryOp@U?$scalar_constant_op@N@internal@Eigen@@$$CBV?$Matrix@N$0?0$0?0$0A@$0?0$0?0@3@@3@$$CBV?$Block@$$CBV?$Transpose@$$CBV?$Matrix@N$0?0$0?0$00$0?0$0?0@Eigen@@@Eigen@@$0?0$0?0$00@3@@Eigen@@@?$MatrixBase@V?$Block@V?$Matrix@N$0?0$0?0$0A@$0?0$0?0@Eigen@@$0?0$0?0$00@Eigen@@@Eigen@@QEAAAEAV?$Block@V?$Matrix@N$0?0$0?0$0A@$0?0$0?0@Eigen@@$0?0$0?0$00@1@AEBV?$MatrixBase@V?$CwiseBinaryOp@U?$scalar_product_op@NN@internal@Eigen@@$$CBV?$CwiseNullaryOp@U?$scalar_constant_op@N@internal@Eigen@@$$CBV?$Matrix@N$0?0$0?0$0A@$0?0$0?0@3@@3@$$CBV?$Block@$$CBV?$Transpose@$$CBV?$Matrix@N$0?0$0?0$00$0?0$0?0@Eigen@@@Eigen@@$0?0$0?0$00@3@@Eigen@@@1@@Z
	??$?ZV?$Product@V?$Block@V?$Block@V?$Ref@V?$Matrix@N$02$02$0A@$02$02@Eigen@@$0A@V?$OuterStride@$0?0@2@@Eigen@@$02$00$00@Eigen@@$0?0$00$0A@@Eigen@@V?$Block@V?$Block@V?$Ref@V?$Matrix@N$02$02$0A@$02$02@Eigen@@$0A@V?$OuterStride@$0?0@2@@Eigen@@$00$02$0A@@Eigen@@$00$0?0$0A@@2@$0A@@Eigen@@@?$NoAlias@V?$Block@V?$Ref@V?$Matrix@N$02$02$0A@$02$02@Eigen@@$0A@V?$OuterStride@$0?0@2@@Eigen@@$0?0$0?0$0A@@Eigen@@VMatrixBase@2@@Eigen@@QEAAAEAV?$Block@V?$Ref@V?$Matrix@N$02$02$0A@$02$02@Eigen@@$0A@V?$OuterStride@$0?0@2@@Eigen@@$0?0$0?0$0A@@1@AEBV?$MatrixBase@V?$Product@V?$Block@V?$Block@V?$Ref@V?$Matrix@N$02$02$0A@$02$02@Eigen@@$0A@V?$OuterStride@$0?0@2@@Eigen@@$02$00$00@Eigen@@$0?0$00$0A@@Eigen@@V?$Block@V?$Block@V?$Ref@V?$Matrix@N$02$02$0A@$02$02@Eigen@@$0A@V?$OuterStride@$0?0@2@@Eigen@@$00$02$0A@@Eigen@@$00$0?0$0A@@2@$0A@@Eigen@@@1@@Z
	??$?ZV?$Product@V?$CwiseBinaryOp@U?$scalar_product_op@NN@internal@Eigen@@$$CBV?$CwiseNullaryOp@U?$scalar_constant_op@N@internal@Eigen@@$$CBV?$Matrix@N$0?0$00$0A@$02$00@3@@3@$$CBV?$Block@$$CBV?$Matrix@N$02$02$0A@$02$02@Eigen@@$0?0$00$0A@@3@@Eigen@@V?$Map@V?$Matrix@N$00$02$00$00$02@Eigen@@$0A@V?$Stride@$0A@$0A@@2@@2@$0A@@Eigen@@@?$NoAlias@V?$Block@V?$Block@V?$Matrix@N$02$02$0A@$02$02@Eigen@@$0?0$02$0A@@Eigen@@$0?0$02$0A@@Eigen@@VMatrixBase@2@@Eigen@@QEAAAEAV?$Block@V?$Block@V?$Matrix@N$02$02$0A@$02$02@Eigen@@$0?0$02$0A@@Eigen@@$0?0$02$0A@@1@AEBV?$MatrixBase@V?$Product@V?$CwiseBinaryOp@U?$scalar_product_op@NN@internal@Eigen@@$$CBV?$CwiseNullaryOp@U?$scalar_constant_op@N@internal@Eigen@@$$CBV?$Matrix@N$0?0$00$0A@$02$00@3@@3@$$CBV?$Block@$$CBV?$Matrix@N$02$02$0A@$02$02@Eigen@@$0?0$00$0A@@3@@Eigen@@V?$Map@V?$Matrix@N$00$02$00$00$02@Eigen@@$0A@V?$Stride@$0A@$0A@@2@@2@$0A@@Eigen@@@1@@Z
	??$?ZV?$Product@V?$CwiseBinaryOp@U?$scalar_product_op@NN@internal@Eigen@@$$CBV?$CwiseNullaryOp@U?$scalar_constant_op@N@internal@Eigen@@$$CBV?$Matrix@N$0?0$00$0A@$02$00@3@@3@$$CBV?$Block@$$CBV?$Matrix@N$02$02$0A@$02$02@Eigen@@$0?0$00$0A@@3@@Eigen@@V?$Map@V?$Matrix@N$00$0?0$00$00$02@Eigen@@$0A@V?$Stride@$0A@$0A@@2@@2@$0A@@Eigen@@@?$NoAlias@V?$Block@V?$Block@V?$Matrix@N$02$02$0A@$02$02@Eigen@@$0?0$0?0$0A@@Eigen@@$0?0$0?0$0A@@Eigen@@VMatrixBase@2@@Eigen@@QEAAAEAV?$Block@V?$Block@V?$Matrix@N$02$02$0A@$02$02@Eigen@@$0?0$0?0$0A@@Eigen@@$0?0$0?0$0A@@1@AEBV?$MatrixBase@V?$Product@V?$CwiseBinaryOp@U?$scalar_product_op@NN@internal@Eigen@@$$CBV?$CwiseNullaryOp@U?$scalar_constant_op@N@internal@Eigen@@$$CBV?$Matrix@N$0?0$00$0A@$02$00@3@@3@$$CBV?$Block@$$CBV?$Matrix@N$02$02$0A@$02$02@Eigen@@$0?0$00$0A@@3@@Eigen@@V?$Map@V?$Matrix@N$00$0?0$00$00$02@Eigen@@$0A@V?$Stride@$0A@$0A@@2@@2@$0A@@Eigen@@@1@@Z
	??$?ZV?$Product@V?$CwiseBinaryOp@U?$scalar_product_op@NN@internal@Eigen@@$$CBV?$CwiseNullaryOp@U?$scalar_constant_op@N@internal@Eigen@@$$CBV?$Matrix@N$0?0$00$0A@$02$00@3@@3@$$CBV?$Block@V?$Block@V?$Block@V?$Matrix@N$02$02$0A@$02$02@Eigen@@$0?0$0?0$0A@@Eigen@@$0?0$00$00@Eigen@@$0?0$00$0A@@3@@Eigen@@V?$Map@V?$Matrix@N$00$0?0$00$00$02@Eigen@@$0A@V?$Stride@$0A@$0A@@2@@2@$0A@@Eigen@@@?$NoAlias@V?$Block@V?$Block@V?$Block@V?$Matrix@N$02$02$0A@$02$02@Eigen@@$0?0$0?0$0A@@Eigen@@$0?0$0?0$0A@@Eigen@@$0?0$0?0$0A@@Eigen@@VMatrixBase@2@@Eigen@@QEAAAEAV?$Block@V?$Block@V?$Block@V?$Matrix@N$02$02$0A@$02$02@Eigen@@$0?0$0?0$0A@@Eigen@@$0?0$0?0$0A@@Eigen@@$0?0$0?0$0A@@1@AEBV?$MatrixBase@V?$Product@V?$CwiseBinaryOp@U?$scalar_product_op@NN@internal@Eigen@@$$CBV?$CwiseNullaryOp@U?$scalar_constant_op@N@internal@Eigen@@$$CBV?$Matrix@N$0?0$00$0A@$02$00@3@@3@$$CBV?$Block@V?$Block@V?$Block@V?$Matrix@N$02$02$0A@$02$02@Eigen@@$0?0$0?0$0A@@Eigen@@$0?0$00$00@Eigen@@$0?0$00$0A@@3@@Eigen@@V?$Map@V?$Matrix@N$00$0?0$00$00$02@Eigen@@$0A@V?$Stride@$0A@$0A@@2@@2@$0A@@Eigen@@@1@@Z
	??$?ZV?$Product@V?$CwiseBinaryOp@U?$scalar_product_op@NN@internal@Eigen@@$$CBV?$CwiseNullaryOp@U?$scalar_constant_op@N@internal@Eigen@@$$CBV?$Matrix@N$0?0$00$0A@$02$00@3@@3@$$CBV?$Map@V?$Matrix@N$0?0$00$0A@$02$00@Eigen@@$0A@V?$Stride@$0A@$0A@@2@@3@@Eigen@@V?$Transpose@$$CBV?$Block@$$CBV?$Matrix@N$02$02$0A@$02$02@Eigen@@$0?0$00$0A@@Eigen@@@2@$0A@@Eigen@@@?$NoAlias@V?$Block@V?$Block@V?$Matrix@N$02$02$0A@$02$02@Eigen@@$0?0$0?0$0A@@Eigen@@$0?0$0?0$0A@@Eigen@@VMatrixBase@2@@Eigen@@QEAAAEAV?$Block@V?$Block@V?$Matrix@N$02$02$0A@$02$02@Eigen@@$0?0$0?0$0A@@Eigen@@$0?0$0?0$0A@@1@AEBV?$MatrixBase@V?$Product@V?$CwiseBinaryOp@U?$scalar_product_op@NN@internal@Eigen@@$$CBV?$CwiseNullaryOp@U?$scalar_constant_op@N@internal@Eigen@@$$CBV?$Matrix@N$0?0$00$0A@$02$00@3@@3@$$CBV?$Map@V?$Matrix@N$0?0$00$0A@$02$00@Eigen@@$0A@V?$Stride@$0A@$0A@@2@@3@@Eigen@@V?$Transpose@$$CBV?$Block@$$CBV?$Matrix@N$02$02$0A@$02$02@Eigen@@$0?0$00$0A@@Eigen@@@2@$0A@@Eigen@@@1@@Z
	??$?ZV?$Product@V?$CwiseBinaryOp@U?$scalar_product_op@NN@internal@Eigen@@$$CBV?$CwiseNullaryOp@U?$scalar_constant_op@N@internal@Eigen@@$$CBV?$Matrix@N$0?0$00$0A@$0?0$00@3@@3@$$CBV?$Block@$$CBV?$Matrix@N$0?0$0?0$0A@$0?0$0?0@Eigen@@$0?0$00$0A@@3@@Eigen@@V?$Map@V?$Matrix@N$00$0?0$00$00$0?0@Eigen@@$0A@V?$Stride@$0A@$0A@@2@@2@$0A@@Eigen@@@?$NoAlias@V?$Block@V?$Block@V?$Matrix@N$0?0$0?0$0A@$0?0$0?0@Eigen@@$0?0$0?0$0A@@Eigen@@$0?0$0?0$0A@@Eigen@@VMatrixBase@2@@Eigen@@QEAAAEAV?$Block@V?$Block@V?$Matrix@N$0?0$0?0$0A@$0?0$0?0@Eigen@@$0?0$0?0$0A@@Eigen@@$0?0$0?0$0A@@1@AEBV?$MatrixBase@V?$Product@V?$CwiseBinaryOp@U?$scalar_product_op@NN@internal@Eigen@@$$CBV?$CwiseNullaryOp@U?$scalar_constant_op@N@internal@Eigen@@$$CBV?$Matrix@N$0?0$00$0A@$0?0$00@3@@3@$$CBV?$Block@$$CBV?$Matrix@N$0?0$0?0$0A@$0?0$0?0@Eigen@@$0?0$00$0A@@3@@Eigen@@V?$Map@V?$Matrix@N$00$0?0$00$00$0?0@Eigen@@$0A@V?$Stride@$0A@$0A@@2@@2@$0A@@Eigen@@@1@@Z
	??$?ZV?$Product@V?$CwiseBinaryOp@U?$scalar_product_op@NN@internal@Eigen@@$$CBV?$CwiseNullaryOp@U?$scalar_constant_op@N@internal@Eigen@@$$CBV?$Matrix@N$0?0$00$0A@$0?0$00@3@@3@$$CBV?$Block@V?$Block@V?$Matrix@N$0?0$0?0$0A@$0?0$0?0@Eigen@@$0?0$00$00@Eigen@@$0?0$00$0A@@3@@Eigen@@V?$Map@V?$Matrix@N$00$0?0$00$00$0?0@Eigen@@$0A@V?$Stride@$0A@$0A@@2@@2@$0A@@Eigen@@@?$NoAlias@V?$Block@V?$Block@V?$Matrix@N$0?0$0?0$0A@$0?0$0?0@Eigen@@$0?0$0?0$0A@@Eigen@@$0?0$0?0$0A@@Eigen@@VMatrixBase@2@@Eigen@@QEAAAEAV?$Block@V?$Block@V?$Matrix@N$0?0$0?0$0A@$0?0$0?0@Eigen@@$0?0$0?0$0A@@Eigen@@$0?0$0?0$0A@@1@AEBV?$MatrixBase@V?$Product@V?$CwiseBinaryOp@U?$scalar_product_op@NN@internal@Eigen@@$$CBV?$CwiseNullaryOp@U?$scalar_constant_op@N@internal@Eigen@@$$CBV?$Matrix@N$0?0$00$0A@$0?0$00@3@@3@$$CBV?$Block@V?$Block@V?$Matrix@N$0?0$0?0$0A@$0?0$0?0@Eigen@@$0?0$00$00@Eigen@@$0?0$00$0A@@3@@Eigen@@V?$Map@V?$Matrix@N$00$0?0$00$00$0?0@Eigen@@$0A@V?$Stride@$0A@$0A@@2@@2@$0A@@Eigen@@@1@@Z
	??$?ZV?$Product@V?$CwiseBinaryOp@U?$scalar_product_op@NN@internal@Eigen@@$$CBV?$CwiseNullaryOp@U?$scalar_constant_op@N@internal@Eigen@@$$CBV?$Matrix@N$0?0$00$0A@$0?0$00@3@@3@$$CBV?$Map@V?$Matrix@N$0?0$00$0A@$0?0$00@Eigen@@$0A@V?$Stride@$0A@$0A@@2@@3@@Eigen@@V?$Transpose@$$CBV?$Block@$$CBV?$Matrix@N$0?0$0?0$0A@$0?0$0?0@Eigen@@$0?0$00$0A@@Eigen@@@2@$0A@@Eigen@@@?$NoAlias@V?$Block@V?$Block@V?$Matrix@N$0?0$0?0$0A@$0?0$0?0@Eigen@@$0?0$0?0$0A@@Eigen@@$0?0$0?0$0A@@Eigen@@VMatrixBase@2@@Eigen@@QEAAAEAV?$Block@V?$Block@V?$Matrix@N$0?0$0?0$0A@$0?0$0?0@Eigen@@$0?0$0?0$0A@@Eigen@@$0?0$0?0$0A@@1@AEBV?$MatrixBase@V?$Product@V?$CwiseBinaryOp@U?$scalar_product_op@NN@internal@Eigen@@$$CBV?$CwiseNullaryOp@U?$scalar_constant_op@N@internal@Eigen@@$$CBV?$Matrix@N$0?0$00$0A@$0?0$00@3@@3@$$CBV?$Map@V?$Matrix@N$0?0$00$0A@$0?0$00@Eigen@@$0A@V?$Stride@$0A@$0A@@2@@3@@Eigen@@V?$Transpose@$$CBV?$Block@$$CBV?$Matrix@N$0?0$0?0$0A@$0?0$0?0@Eigen@@$0?0$00$0A@@Eigen@@@2@$0A@@Eigen@@@1@@Z
	??$?ZV?$Product@V?$Ref@V?$Matrix@N$0?0$0?0$0A@$0?0$0?0@Eigen@@$0A@V?$OuterStride@$0?0@2@@Eigen@@V12@$0A@@Eigen@@@?$NoAlias@V?$Ref@V?$Matrix@N$0?0$0?0$0A@$0?0$0?0@Eigen@@$0A@V?$OuterStride@$0?0@2@@Eigen@@VMatrixBase@2@@Eigen@@QEAAAEAV?$Ref@V?$Matrix@N$0?0$0?0$0A@$0?0$0?0@Eigen@@$0A@V?$OuterStride@$0?0@2@@1@AEBV?$MatrixBase@V?$Product@V?$Ref@V?$Matrix@N$0?0$0?0$0A@$0?0$0?0@Eigen@@$0A@V?$OuterStride@$0?0@2@@Eigen@@V12@$0A@@Eigen@@@1@@Z
	??$?ZV?$Product@V?$TriangularView@$$CBV?$Block@V?$Matrix@N$02$02$0A@$02$02@Eigen@@$0?0$0?0$0A@@Eigen@@$04@Eigen@@V?$Matrix@N$0?0$02$0A@$02$02@2@$0A@@Eigen@@@?$NoAlias@V?$Block@V?$Matrix@N$02$02$0A@$02$02@Eigen@@$0?0$02$0A@@Eigen@@VMatrixBase@2@@Eigen@@QEAAAEAV?$Block@V?$Matrix@N$02$02$0A@$02$02@Eigen@@$0?0$02$0A@@1@AEBV?$MatrixBase@V?$Product@V?$TriangularView@$$CBV?$Block@V?$Matrix@N$02$02$0A@$02$02@Eigen@@$0?0$0?0$0A@@Eigen@@$04@Eigen@@V?$Matrix@N$0?0$02$0A@$02$02@2@$0A@@Eigen@@@1@@Z
	??$?ZV?$Product@V?$TriangularView@$$CBV?$Block@V?$Matrix@N$02$02$0A@$02$02@Eigen@@$0?0$0?0$0A@@Eigen@@$04@Eigen@@V?$Matrix@N$0?0$0?0$0A@$02$02@2@$0A@@Eigen@@@?$NoAlias@V?$Block@V?$Matrix@N$02$02$0A@$02$02@Eigen@@$0?0$0?0$0A@@Eigen@@VMatrixBase@2@@Eigen@@QEAAAEAV?$Block@V?$Matrix@N$02$02$0A@$02$02@Eigen@@$0?0$0?0$0A@@1@AEBV?$MatrixBase@V?$Product@V?$TriangularView@$$CBV?$Block@V?$Matrix@N$02$02$0A@$02$02@Eigen@@$0?0$0?0$0A@@Eigen@@$04@Eigen@@V?$Matrix@N$0?0$0?0$0A@$02$02@2@$0A@@Eigen@@@1@@Z
	??$?ZV?$Product@V?$TriangularView@$$CBV?$Block@V?$Matrix@N$0?0$0?0$0A@$0?0$0?0@Eigen@@$0?0$0?0$0A@@Eigen@@$04@Eigen@@V?$Matrix@N$0?0$0?0$0A@$0?0$0?0@2@$0A@@Eigen@@@?$NoAlias@V?$Block@V?$Matrix@N$0?0$0?0$0A@$0?0$0?0@Eigen@@$0?0$0?0$0A@@Eigen@@VMatrixBase@2@@Eigen@@QEAAAEAV?$Block@V?$Matrix@N$0?0$0?0$0A@$0?0$0?0@Eigen@@$0?0$0?0$0A@@1@AEBV?$MatrixBase@V?$Product@V?$TriangularView@$$CBV?$Block@V?$Matrix@N$0?0$0?0$0A@$0?0$0?0@Eigen@@$0?0$0?0$0A@@Eigen@@$04@Eigen@@V?$Matrix@N$0?0$0?0$0A@$0?0$0?0@2@$0A@@Eigen@@@1@@Z
	??$Map@$0?0$0A@@?$PlainObjectBase@V?$Matrix@N$02$02$0A@$02$02@Eigen@@@Eigen@@SA?AV?$Map@V?$Matrix@N$02$02$0A@$02$02@Eigen@@$0A@V?$Stride@$0?0$0A@@2@@1@PEAN_J1AEBV?$Stride@$0?0$0A@@1@@Z
	??$NullaryExpr@U?$scalar_constant_op@N@internal@Eigen@@@?$DenseBase@V?$Matrix@N$02$02$0A@$02$02@Eigen@@@Eigen@@SA?BV?$CwiseNullaryOp@U?$scalar_constant_op@N@internal@Eigen@@V?$Matrix@N$02$02$0A@$02$02@3@@1@_J0AEBU?$scalar_constant_op@N@internal@1@@Z
	??$NullaryExpr@U?$scalar_constant_op@N@internal@Eigen@@@?$DenseBase@V?$Matrix@N$0?0$0?0$0A@$0?0$0?0@Eigen@@@Eigen@@SA?BV?$CwiseNullaryOp@U?$scalar_constant_op@N@internal@Eigen@@V?$Matrix@N$0?0$0?0$0A@$0?0$0?0@3@@1@_J0AEBU?$scalar_constant_op@N@internal@1@@Z
	??$NullaryExpr@U?$scalar_identity_op@N@internal@Eigen@@@?$DenseBase@V?$Matrix@N$02$02$0A@$02$02@Eigen@@@Eigen@@SA?BV?$CwiseNullaryOp@U?$scalar_identity_op@N@internal@Eigen@@V?$Matrix@N$02$02$0A@$02$02@3@@1@_J0AEBU?$scalar_identity_op@N@internal@1@@Z
	??$NullaryExpr@U?$scalar_identity_op@N@internal@Eigen@@@?$DenseBase@V?$Matrix@N$03$03$0A@$03$03@Eigen@@@Eigen@@SA?BV?$CwiseNullaryOp@U?$scalar_identity_op@N@internal@Eigen@@V?$Matrix@N$03$03$0A@$03$03@3@@1@_J0AEBU?$scalar_identity_op@N@internal@1@@Z
	??$NullaryExpr@U?$scalar_identity_op@N@internal@Eigen@@@?$DenseBase@V?$Matrix@N$0?0$0?0$0A@$0?0$0?0@Eigen@@@Eigen@@SA?BV?$CwiseNullaryOp@U?$scalar_identity_op@N@internal@Eigen@@V?$Matrix@N$0?0$0?0$0A@$0?0$0?0@3@@1@_J0AEBU?$scalar_identity_op@N@internal@1@@Z
	??$_Adl_verify_range@PEAV?$Matrix@N$02$00$0A@$02$00@Eigen@@PEAV12@@std@@YAXAEBQEAV?$Matrix@N$02$00$0A@$02$00@Eigen@@0@Z
	??$_Adl_verify_range@PEAV?$Matrix@N$03$00$0A@$03$00@Eigen@@PEAV12@@std@@YAXAEBQEAV?$Matrix@N$03$00$0A@$03$00@Eigen@@0@Z
	??$_Allocate@$0BA@U_Default_allocate_traits@std@@@std@@YAPEAX_K@Z
	??$_Allocate_at_least_helper@V?$allocator@D@std@@@std@@YAPEADAEAV?$allocator@D@0@AEA_K@Z
	??$_Allocate_at_least_helper@V?$allocator@V?$Matrix@N$02$00$0A@$02$00@Eigen@@@std@@@std@@YAPEAV?$Matrix@N$02$00$0A@$02$00@Eigen@@AEAV?$allocator@V?$Matrix@N$02$00$0A@$02$00@Eigen@@@0@AEA_K@Z
	??$_Allocate_at_least_helper@V?$allocator@V?$Matrix@N$03$00$0A@$03$00@Eigen@@@std@@@std@@YAPEAV?$Matrix@N$03$00$0A@$03$00@Eigen@@AEAV?$allocator@V?$Matrix@N$03$00$0A@$03$00@Eigen@@@0@AEA_K@Z
	??$_Allocate_for_capacity@$0A@@?$basic_string@DU?$char_traits@D@std@@V?$allocator@D@2@@std@@CAPEADAEAV?$allocator@D@1@AEA_K@Z
	??$_Allocate_manually_vector_aligned@U_Default_allocate_traits@std@@@std@@YAPEAX_K@Z
	??$_Assign@D@?$basic_string@DU?$char_traits@D@std@@V?$allocator@D@2@@std@@AEAAAEAV01@QEBD_K@Z
	??$_Atomic_address_as@HU?$_Atomic_padded@H@std@@@std@@YAPECHAEAU?$_Atomic_padded@H@0@@Z
	??$_Atomic_address_as@HU?$_Atomic_padded@H@std@@@std@@YAPEDHAEBU?$_Atomic_padded@H@0@@Z
	??$_Atomic_address_as@JU?$_Atomic_padded@H@std@@@std@@YAPECJAEAU?$_Atomic_padded@H@0@@Z
	??$_Atomic_address_as@_JU?$_Atomic_padded@_J@std@@@std@@YAPEC_JAEAU?$_Atomic_padded@_J@0@@Z
	??$_Atomic_address_as@_JU?$_Atomic_padded@_J@std@@@std@@YAPED_JAEBU?$_Atomic_padded@_J@0@@Z
	??$_Bit_cast@HH$0A@@std@@YAHAEBH@Z
	??$_Bit_cast@_J_J$0A@@std@@YA_JAEB_J@Z
	??$_Buyheadnode@V?$allocator@U?$_Tree_node@U?$pair@$$CBHH@std@@PEAX@std@@@std@@@?$_Tree_node@U?$pair@$$CBHH@std@@PEAX@std@@SAPEAU01@AEAV?$allocator@U?$_Tree_node@U?$pair@$$CBHH@std@@PEAX@std@@@1@@Z
	??$_Construct@$00PEBD@?$basic_string@DU?$char_traits@D@std@@V?$allocator@D@2@@std@@AEAAXQEBD_K@Z
	??$_Construct@$01PEBD@?$basic_string@DU?$char_traits@D@std@@V?$allocator@D@2@@std@@AEAAXQEBD_K@Z
	??$_Construct_in_place@PEADAEAPEAD@std@@YAXAEAPEAD0@Z
	??$_Construct_in_place@PEADAEBQEAD@std@@YAXAEAPEADAEBQEAD@Z
	??$_Construct_in_place@PEAU?$_Tree_node@U?$pair@$$CBHH@std@@PEAX@std@@AEAPEAU12@@std@@YAXAEAPEAU?$_Tree_node@U?$pair@$$CBHH@std@@PEAX@0@0@Z
	??$_Construct_in_place@PEAU?$_Tree_node@U?$pair@$$CBHH@std@@PEAX@std@@AEBQEAU12@@std@@YAXAEAPEAU?$_Tree_node@U?$pair@$$CBHH@std@@PEAX@0@AEBQEAU10@@Z
	??$_Construct_n@PEAV?$Matrix@N$02$00$0A@$02$00@Eigen@@PEAV12@@?$vector@V?$Matrix@N$02$00$0A@$02$00@Eigen@@V?$allocator@V?$Matrix@N$02$00$0A@$02$00@Eigen@@@std@@@std@@AEAAX_K$$QEAPEAV?$Matrix@N$02$00$0A@$02$00@Eigen@@1@Z
	??$_Construct_n@PEAV?$Matrix@N$03$00$0A@$03$00@Eigen@@PEAV12@@?$vector@V?$Matrix@N$03$00$0A@$03$00@Eigen@@V?$allocator@V?$Matrix@N$03$00$0A@$03$00@Eigen@@@std@@@std@@AEAAX_K$$QEAPEAV?$Matrix@N$03$00$0A@$03$00@Eigen@@1@Z
	??$_Contiguous_iter_verify@PEAV?$Matrix@N$02$00$0A@$02$00@Eigen@@@std@@YAXAEBQEAV?$Matrix@N$02$00$0A@$02$00@Eigen@@AEB_J@Z
	??$_Contiguous_iter_verify@PEAV?$Matrix@N$03$00$0A@$03$00@Eigen@@@std@@YAXAEBQEAV?$Matrix@N$03$00$0A@$03$00@Eigen@@AEB_J@Z
	??$_Convert_size@_K_K@std@@YA_K_K@Z
	??$_Copy_memcpy@PEAV?$Matrix@N$02$00$0A@$02$00@Eigen@@PEAV12@@std@@YAPEAV?$Matrix@N$02$00$0A@$02$00@Eigen@@PEAV12@00@Z
	??$_Copy_memcpy@PEAV?$Matrix@N$03$00$0A@$03$00@Eigen@@PEAV12@@std@@YAPEAV?$Matrix@N$03$00$0A@$03$00@Eigen@@PEAV12@00@Z
	??$_Deallocate@$0BA@@std@@YAXPEAX_K@Z
	??$_Destroy_in_place@PEAD@std@@YAXAEAPEAD@Z
	??$_Destroy_in_place@PEAU?$_Tree_node@U?$pair@$$CBHH@std@@PEAX@std@@@std@@YAXAEAPEAU?$_Tree_node@U?$pair@$$CBHH@std@@PEAX@0@@Z
	??$_Destroy_range@V?$allocator@V?$Matrix@N$02$00$0A@$02$00@Eigen@@@std@@@std@@YAXPEAV?$Matrix@N$02$00$0A@$02$00@Eigen@@QEAV12@AEAV?$allocator@V?$Matrix@N$02$00$0A@$02$00@Eigen@@@0@@Z
	??$_Destroy_range@V?$allocator@V?$Matrix@N$03$00$0A@$03$00@Eigen@@@std@@@std@@YAXPEAV?$Matrix@N$03$00$0A@$03$00@Eigen@@QEAV12@AEAV?$allocator@V?$Matrix@N$03$00$0A@$03$00@Eigen@@@0@@Z
	??$_Emplace_back@AEAV?$Matrix@N$02$00$0A@$02$00@Eigen@@@?$_Uninitialized_backout_al@V?$allocator@V?$Matrix@N$02$00$0A@$02$00@Eigen@@@std@@@std@@QEAAXAEAV?$Matrix@N$02$00$0A@$02$00@Eigen@@@Z
	??$_Emplace_back@AEAV?$Matrix@N$03$00$0A@$03$00@Eigen@@@?$_Uninitialized_backout_al@V?$allocator@V?$Matrix@N$03$00$0A@$03$00@Eigen@@@std@@@std@@QEAAXAEAV?$Matrix@N$03$00$0A@$03$00@Eigen@@@Z
	??$_Erase_head@V?$allocator@U?$_Tree_node@U?$pair@$$CBHH@std@@PEAX@std@@@std@@@?$_Tree_val@U?$_Tree_simple_types@U?$pair@$$CBHH@std@@@std@@@std@@QEAAXAEAV?$allocator@U?$_Tree_node@U?$pair@$$CBHH@std@@PEAX@std@@@1@@Z
	??$_Erase_tree@V?$allocator@U?$_Tree_node@U?$pair@$$CBHH@std@@PEAX@std@@@std@@@?$_Tree_val@U?$_Tree_simple_types@U?$pair@$$CBHH@std@@@std@@@std@@QEAAXAEAV?$allocator@U?$_Tree_node@U?$pair@$$CBHH@std@@PEAX@std@@@1@PEAU?$_Tree_node@U?$pair@$$CBHH@std@@PEAX@1@@Z
	??$_Find_lower_bound@H@?$_Tree@V?$_Tmap_traits@HHU?$less@H@std@@V?$allocator@U?$pair@$$CBHH@std@@@2@$0A@@std@@@std@@IEBA?AU?$_Tree_find_result@PEAU?$_Tree_node@U?$pair@$$CBHH@std@@PEAX@std@@@1@AEBH@Z
	??$_Freenode0@V?$allocator@U?$_Tree_node@U?$pair@$$CBHH@std@@PEAX@std@@@std@@@?$_Tree_node@U?$pair@$$CBHH@std@@PEAX@std@@SAXAEAV?$allocator@U?$_Tree_node@U?$pair@$$CBHH@std@@PEAX@std@@@1@PEAU01@@Z
	??$_Freenode@V?$allocator@U?$_Tree_node@U?$pair@$$CBHH@std@@PEAX@std@@@std@@@?$_Tree_node@U?$pair@$$CBHH@std@@PEAX@std@@SAXAEAV?$allocator@U?$_Tree_node@U?$pair@$$CBHH@std@@PEAX@std@@@1@PEAU01@@Z
	??$_Get_proxy_allocator@V?$allocator@D@std@@@std@@YA?AU_Fake_allocator@0@AEBV?$allocator@D@0@@Z
	??$_Get_proxy_allocator@V?$allocator@U?$_Tree_node@U?$pair@$$CBHH@std@@PEAX@std@@@std@@@std@@YA?AU_Fake_allocator@0@AEBV?$allocator@U?$_Tree_node@U?$pair@$$CBHH@std@@PEAX@std@@@0@@Z
	??$_Get_proxy_allocator@V?$allocator@V?$Matrix@N$02$00$0A@$02$00@Eigen@@@std@@@std@@YA?AU_Fake_allocator@0@AEBV?$allocator@V?$Matrix@N$02$00$0A@$02$00@Eigen@@@0@@Z
	??$_Get_proxy_allocator@V?$allocator@V?$Matrix@N$03$00$0A@$03$00@Eigen@@@std@@@std@@YA?AU_Fake_allocator@0@AEBV?$allocator@V?$Matrix@N$03$00$0A@$03$00@Eigen@@@0@@Z
	??$_Get_size_of_n@$00@std@@YA_K_K@Z
	??$_Get_size_of_n@$0BI@@std@@YA_K_K@Z
	??$_Get_size_of_n@$0CA@@std@@YA_K_K@Z
	??$_Get_size_of_n@$0CI@@std@@YA_K_K@Z
	??$_Get_unwrapped@AEAPEAV?$Matrix@N$02$00$0A@$02$00@Eigen@@@std@@YA?A_TAEAPEAV?$Matrix@N$02$00$0A@$02$00@Eigen@@@Z
	??$_Get_unwrapped@AEAPEAV?$Matrix@N$03$00$0A@$03$00@Eigen@@@std@@YA?A_TAEAPEAV?$Matrix@N$03$00$0A@$03$00@Eigen@@@Z
	??$_Get_unwrapped@PEAV?$Matrix@N$02$00$0A@$02$00@Eigen@@@std@@YA?A_T$$QEAPEAV?$Matrix@N$02$00$0A@$02$00@Eigen@@@Z
	??$_Get_unwrapped@PEAV?$Matrix@N$03$00$0A@$03$00@Eigen@@@std@@YA?A_T$$QEAPEAV?$Matrix@N$03$00$0A@$03$00@Eigen@@@Z
	??$_Impl_copy_memmeow@$00PEAV?$Matrix@N$02$00$0A@$02$00@Eigen@@PEAV12@@std@@YAPEAV?$Matrix@N$02$00$0A@$02$00@Eigen@@PEAV12@00@Z
	??$_Impl_copy_memmeow@$00PEAV?$Matrix@N$03$00$0A@$03$00@Eigen@@PEAV12@@std@@YAPEAV?$Matrix@N$03$00$0A@$03$00@Eigen@@PEAV12@00@Z
	??$_Impl_copy_memmeow_tail@$00PEAV?$Matrix@N$02$00$0A@$02$00@Eigen@@@std@@YAPEAV?$Matrix@N$02$00$0A@$02$00@Eigen@@QEBDQEAV12@_K2@Z
	??$_Impl_copy_memmeow_tail@$00PEAV?$Matrix@N$03$00$0A@$03$00@Eigen@@@std@@YAPEAV?$Matrix@N$03$00$0A@$03$00@Eigen@@QEBDQEAV12@_K2@Z
	??$_Insert_string@DU?$char_traits@D@std@@_K@std@@YAAEAV?$basic_ostream@DU?$char_traits@D@std@@@0@AEAV10@QEBD_K@Z
	??$_Kfn@$$CBHH@?$_Tmap_traits@HHU?$less@H@std@@V?$allocator@U?$pair@$$CBHH@std@@@2@$0A@@std@@SAAEBHAEBU?$pair@$$CBHH@1@@Z
	??$_Lower_bound_duplicate@H@?$_Tree@V?$_Tmap_traits@HHU?$less@H@std@@V?$allocator@U?$pair@$$CBHH@std@@@2@$0A@@std@@@std@@IEBA_NQEAU?$_Tree_node@U?$pair@$$CBHH@std@@PEAX@1@AEBH@Z
	??$_Max_limit@_J@std@@YA_JXZ
	??$_Reallocate_for@V<lambda_4953394ebb2f7dc62d6889dc6b041cb6>@@PEBD@?$basic_string@DU?$char_traits@D@std@@V?$allocator@D@2@@std@@AEAAAEAV01@_KV<lambda_4953394ebb2f7dc62d6889dc6b041cb6>@@PEBD@Z
	??$_Reallocate_grow_by@V<lambda_e696ef4bfc89975bc2035a0ba1f0e499>@@D@?$basic_string@DU?$char_traits@D@std@@V?$allocator@D@2@@std@@AEAAAEAV01@_KV<lambda_e696ef4bfc89975bc2035a0ba1f0e499>@@D@Z
	??$_To_address@PEAV?$Matrix@N$02$00$0A@$02$00@Eigen@@@std@@YA?A_PAEBQEAV?$Matrix@N$02$00$0A@$02$00@Eigen@@@Z
	??$_To_address@PEAV?$Matrix@N$03$00$0A@$03$00@Eigen@@@std@@YA?A_PAEBQEAV?$Matrix@N$03$00$0A@$03$00@Eigen@@@Z
	??$_Traits_copy_batch@U?$char_traits@D@std@@D@std@@YAXQEADQEBD_K@Z
	??$_Traits_move_batch@U?$char_traits@D@std@@D@std@@YAXQEADQEBD_K@Z
	??$_Try_emplace@AEBH$$V@?$map@HHU?$less@H@std@@V?$allocator@U?$pair@$$CBHH@std@@@2@@std@@AEAA?AU?$pair@PEAU?$_Tree_node@U?$pair@$$CBHH@std@@PEAX@std@@_N@1@AEBH@Z
	??$_Tuple_get@$0A@AEBH@std@@YA$$QEA_P$$QEAV?$tuple@AEBH@0@@Z
	??$_Unfancy@D@std@@YAPEADPEAD@Z
	??$_Unfancy@V?$Matrix@N$02$00$0A@$02$00@Eigen@@@std@@YAPEAV?$Matrix@N$02$00$0A@$02$00@Eigen@@PEAV12@@Z
	??$_Unfancy@V?$Matrix@N$03$00$0A@$03$00@Eigen@@@std@@YAPEAV?$Matrix@N$03$00$0A@$03$00@Eigen@@PEAV12@@Z
	??$_Uninitialized_copy@PEAV?$Matrix@N$02$00$0A@$02$00@Eigen@@PEAV12@V?$allocator@V?$Matrix@N$02$00$0A@$02$00@Eigen@@@std@@@std@@YAPEAV?$Matrix@N$02$00$0A@$02$00@Eigen@@PEAV12@00AEAV?$allocator@V?$Matrix@N$02$00$0A@$02$00@Eigen@@@0@@Z
	??$_Uninitialized_copy@PEAV?$Matrix@N$03$00$0A@$03$00@Eigen@@PEAV12@V?$allocator@V?$Matrix@N$03$00$0A@$03$00@Eigen@@@std@@@std@@YAPEAV?$Matrix@N$03$00$0A@$03$00@Eigen@@PEAV12@00AEAV?$allocator@V?$Matrix@N$03$00$0A@$03$00@Eigen@@@0@@Z
	??$_check_solve_assertion@$0A@V?$MatrixBase@V?$Block@$$CBV?$Matrix@N$02$03$0A@$02$03@Eigen@@$02$00$0A@@Eigen@@@Eigen@@@?$SolverBase@V?$PartialPivLU@V?$Matrix@N$02$02$0A@$02$02@Eigen@@H@Eigen@@@Eigen@@IEBAXAEBV?$MatrixBase@V?$Block@$$CBV?$Matrix@N$02$03$0A@$02$03@Eigen@@$02$00$0A@@Eigen@@@1@@Z
	??$_init1@PEAN@?$PlainObjectBase@V?$Matrix@N$03$02$0A@$03$02@Eigen@@@Eigen@@IEAAXPEBN@Z
	??$_init1@V?$Block@$$CBV?$Product@V?$Matrix@N$0?0$0?0$0A@$0?0$0?0@Eigen@@V12@$0A@@Eigen@@$00$0?0$0A@@Eigen@@V12@@?$PlainObjectBase@V?$Matrix@N$00$0?0$00$00$0?0@Eigen@@@Eigen@@IEAAXAEBV?$DenseBase@V?$Block@$$CBV?$Product@V?$Matrix@N$0?0$0?0$0A@$0?0$0?0@Eigen@@V12@$0A@@Eigen@@$00$0?0$0A@@Eigen@@@1@@Z
	??$_init1@V?$CwiseBinaryOp@U?$scalar_product_op@NN@internal@Eigen@@$$CBV?$CwiseNullaryOp@U?$scalar_constant_op@N@internal@Eigen@@$$CBV?$Matrix@N$0?0$00$0A@$02$00@3@@3@$$CBV?$Block@$$CBV?$Matrix@N$02$02$0A@$02$02@Eigen@@$0?0$00$0A@@3@@Eigen@@V12@@?$PlainObjectBase@V?$Matrix@N$0?0$00$0A@$02$00@Eigen@@@Eigen@@IEAAXAEBV?$DenseBase@V?$CwiseBinaryOp@U?$scalar_product_op@NN@internal@Eigen@@$$CBV?$CwiseNullaryOp@U?$scalar_constant_op@N@internal@Eigen@@$$CBV?$Matrix@N$0?0$00$0A@$02$00@3@@3@$$CBV?$Block@$$CBV?$Matrix@N$02$02$0A@$02$02@Eigen@@$0?0$00$0A@@3@@Eigen@@@1@@Z
	??$_init1@V?$CwiseBinaryOp@U?$scalar_product_op@NN@internal@Eigen@@$$CBV?$CwiseNullaryOp@U?$scalar_constant_op@N@internal@Eigen@@$$CBV?$Matrix@N$0?0$00$0A@$02$00@3@@3@$$CBV?$Block@V?$Block@V?$Block@V?$Matrix@N$02$02$0A@$02$02@Eigen@@$0?0$0?0$0A@@Eigen@@$0?0$00$00@Eigen@@$0?0$00$0A@@3@@Eigen@@V12@@?$PlainObjectBase@V?$Matrix@N$0?0$00$0A@$02$00@Eigen@@@Eigen@@IEAAXAEBV?$DenseBase@V?$CwiseBinaryOp@U?$scalar_product_op@NN@internal@Eigen@@$$CBV?$CwiseNullaryOp@U?$scalar_constant_op@N@internal@Eigen@@$$CBV?$Matrix@N$0?0$00$0A@$02$00@3@@3@$$CBV?$Block@V?$Block@V?$Block@V?$Matrix@N$02$02$0A@$02$02@Eigen@@$0?0$0?0$0A@@Eigen@@$0?0$00$00@Eigen@@$0?0$00$0A@@3@@Eigen@@@1@@Z
	??$_init1@V?$CwiseBinaryOp@U?$scalar_product_op@NN@internal@Eigen@@$$CBV?$CwiseNullaryOp@U?$scalar_constant_op@N@internal@Eigen@@$$CBV?$Matrix@N$0?0$00$0A@$02$00@3@@3@$$CBV?$Map@V?$Matrix@N$0?0$00$0A@$02$00@Eigen@@$0A@V?$Stride@$0A@$0A@@2@@3@@Eigen@@V12@@?$PlainObjectBase@V?$Matrix@N$0?0$00$0A@$02$00@Eigen@@@Eigen@@IEAAXAEBV?$DenseBase@V?$CwiseBinaryOp@U?$scalar_product_op@NN@internal@Eigen@@$$CBV?$CwiseNullaryOp@U?$scalar_constant_op@N@internal@Eigen@@$$CBV?$Matrix@N$0?0$00$0A@$02$00@3@@3@$$CBV?$Map@V?$Matrix@N$0?0$00$0A@$02$00@Eigen@@$0A@V?$Stride@$0A@$0A@@2@@3@@Eigen@@@1@@Z
	??$_init1@V?$CwiseNullaryOp@U?$scalar_zero_op@N@internal@Eigen@@V?$Matrix@N$03$00$0A@$03$00@3@@Eigen@@V12@@?$PlainObjectBase@V?$Matrix@N$03$00$0A@$03$00@Eigen@@@Eigen@@IEAAXAEBV?$DenseBase@V?$CwiseNullaryOp@U?$scalar_zero_op@N@internal@Eigen@@V?$Matrix@N$03$00$0A@$03$00@3@@Eigen@@@1@@Z
	??$_init1@V?$Inverse@V?$CwiseNullaryOp@U?$scalar_identity_op@N@internal@Eigen@@V?$Matrix@N$02$02$0A@$02$02@3@@Eigen@@@Eigen@@V12@@?$PlainObjectBase@V?$Matrix@N$02$02$0A@$02$02@Eigen@@@Eigen@@IEAAXAEBV?$DenseBase@V?$Inverse@V?$CwiseNullaryOp@U?$scalar_identity_op@N@internal@Eigen@@V?$Matrix@N$02$02$0A@$02$02@3@@Eigen@@@Eigen@@@1@@Z
	??$_init1@V?$Matrix@N$02$03$0A@$02$03@Eigen@@V12@@?$PlainObjectBase@V?$Matrix@N$0?0$0?0$0A@$0?0$0?0@Eigen@@@Eigen@@IEAAXAEBV?$DenseBase@V?$Matrix@N$02$03$0A@$02$03@Eigen@@@1@@Z
	??$_init1@V?$Product@V?$Inverse@V?$CwiseNullaryOp@U?$scalar_identity_op@N@internal@Eigen@@V?$Matrix@N$02$02$0A@$02$02@3@@Eigen@@@Eigen@@V?$Matrix@N$02$03$0A@$02$03@2@$0A@@Eigen@@V12@@?$PlainObjectBase@V?$Matrix@N$02$03$0A@$02$03@Eigen@@@Eigen@@IEAAXAEBV?$DenseBase@V?$Product@V?$Inverse@V?$CwiseNullaryOp@U?$scalar_identity_op@N@internal@Eigen@@V?$Matrix@N$02$02$0A@$02$02@3@@Eigen@@@Eigen@@V?$Matrix@N$02$03$0A@$02$03@2@$0A@@Eigen@@@1@@Z
	??$_init1@V?$Product@V?$Matrix@N$02$02$0A@$02$02@Eigen@@V12@$0A@@Eigen@@V12@@?$PlainObjectBase@V?$Matrix@N$02$02$0A@$02$02@Eigen@@@Eigen@@IEAAXAEBV?$DenseBase@V?$Product@V?$Matrix@N$02$02$0A@$02$02@Eigen@@V12@$0A@@Eigen@@@1@@Z
	??$_init1@V?$Product@V?$Matrix@N$02$02$0A@$02$02@Eigen@@V?$Matrix@N$02$00$0A@$02$00@2@$0A@@Eigen@@V12@@?$PlainObjectBase@V?$Matrix@N$02$00$0A@$02$00@Eigen@@@Eigen@@IEAAXAEBV?$DenseBase@V?$Product@V?$Matrix@N$02$02$0A@$02$02@Eigen@@V?$Matrix@N$02$00$0A@$02$00@2@$0A@@Eigen@@@1@@Z
	??$_init1@V?$Product@V?$Matrix@N$02$02$0A@$02$02@Eigen@@V?$Matrix@N$02$03$0A@$02$03@2@$0A@@Eigen@@V12@@?$PlainObjectBase@V?$Matrix@N$02$03$0A@$02$03@Eigen@@@Eigen@@IEAAXAEBV?$DenseBase@V?$Product@V?$Matrix@N$02$02$0A@$02$02@Eigen@@V?$Matrix@N$02$03$0A@$02$03@2@$0A@@Eigen@@@1@@Z
	??$_init1@V?$Product@V?$Matrix@N$03$03$0A@$03$03@Eigen@@V12@$0A@@Eigen@@V12@@?$PlainObjectBase@V?$Matrix@N$03$03$0A@$03$03@Eigen@@@Eigen@@IEAAXAEBV?$DenseBase@V?$Product@V?$Matrix@N$03$03$0A@$03$03@Eigen@@V12@$0A@@Eigen@@@1@@Z
	??$_init1@V?$Product@V?$Matrix@N$03$03$0A@$03$03@Eigen@@V?$Matrix@N$03$00$0A@$03$00@2@$0A@@Eigen@@V12@@?$PlainObjectBase@V?$Matrix@N$03$00$0A@$03$00@Eigen@@@Eigen@@IEAAXAEBV?$DenseBase@V?$Product@V?$Matrix@N$03$03$0A@$03$03@Eigen@@V?$Matrix@N$03$00$0A@$03$00@2@$0A@@Eigen@@@1@@Z
	??$_init1@V?$Product@V?$Matrix@N$0?0$0?0$0A@$0?0$0?0@Eigen@@V12@$0A@@Eigen@@V12@@?$PlainObjectBase@V?$Matrix@N$0?0$0?0$0A@$0?0$0?0@Eigen@@@Eigen@@IEAAXAEBV?$DenseBase@V?$Product@V?$Matrix@N$0?0$0?0$0A@$0?0$0?0@Eigen@@V12@$0A@@Eigen@@@1@@Z
	??$_init1@V?$Product@V?$Matrix@N$0?0$0?0$0A@$0?0$0?0@Eigen@@V?$DiagonalWrapper@$$CBV?$Matrix@N$0?0$00$0A@$0?0$00@Eigen@@@2@$00@Eigen@@V12@@?$PlainObjectBase@V?$Matrix@N$0?0$0?0$0A@$0?0$0?0@Eigen@@@Eigen@@IEAAXAEBV?$DenseBase@V?$Product@V?$Matrix@N$0?0$0?0$0A@$0?0$0?0@Eigen@@V?$DiagonalWrapper@$$CBV?$Matrix@N$0?0$00$0A@$0?0$00@Eigen@@@2@$00@Eigen@@@1@@Z
	??$_init1@V?$Product@V?$PermutationMatrix@$02$02H@Eigen@@V?$Block@$$CBV?$Matrix@N$02$03$0A@$02$03@Eigen@@$02$00$0A@@2@$0A@@Eigen@@V12@@?$PlainObjectBase@V?$Matrix@N$02$00$0A@$02$00@Eigen@@@Eigen@@IEAAXAEBV?$DenseBase@V?$Product@V?$PermutationMatrix@$02$02H@Eigen@@V?$Block@$$CBV?$Matrix@N$02$03$0A@$02$03@Eigen@@$02$00$0A@@2@$0A@@Eigen@@@1@@Z
	??$_init1@V?$Product@V?$Product@V?$Matrix@N$0?0$0?0$0A@$0?0$0?0@Eigen@@V12@$0A@@Eigen@@V?$Transpose@$$CBV?$Matrix@N$0?0$0?0$0A@$0?0$0?0@Eigen@@@2@$0A@@Eigen@@V12@@?$PlainObjectBase@V?$Matrix@N$0?0$0?0$00$0?0$0?0@Eigen@@@Eigen@@IEAAXAEBV?$DenseBase@V?$Product@V?$Product@V?$Matrix@N$0?0$0?0$0A@$0?0$0?0@Eigen@@V12@$0A@@Eigen@@V?$Transpose@$$CBV?$Matrix@N$0?0$0?0$0A@$0?0$0?0@Eigen@@@2@$0A@@Eigen@@@1@@Z
	??$_init1@V?$Product@V?$Transpose@$$CBV?$Matrix@N$02$02$0A@$02$02@Eigen@@@Eigen@@V12@$0A@@Eigen@@V12@@?$PlainObjectBase@V?$Matrix@N$02$02$0A@$02$02@Eigen@@@Eigen@@IEAAXAEBV?$DenseBase@V?$Product@V?$Transpose@$$CBV?$Matrix@N$02$02$0A@$02$02@Eigen@@@Eigen@@V12@$0A@@Eigen@@@1@@Z
	??$_init1@V?$Product@V?$TriangularView@$$CBV?$Transpose@$$CBV?$Matrix@N$0?0$0?0$00$0?0$0?0@Eigen@@@Eigen@@$00@Eigen@@V?$Matrix@N$0?0$02$0A@$02$02@2@$0A@@Eigen@@V12@@?$PlainObjectBase@V?$Matrix@N$0?0$02$0A@$0?0$02@Eigen@@@Eigen@@IEAAXAEBV?$DenseBase@V?$Product@V?$TriangularView@$$CBV?$Transpose@$$CBV?$Matrix@N$0?0$0?0$00$0?0$0?0@Eigen@@@Eigen@@$00@Eigen@@V?$Matrix@N$0?0$02$0A@$02$02@2@$0A@@Eigen@@@1@@Z
	??$_init1@V?$Product@V?$TriangularView@$$CBV?$Transpose@$$CBV?$Matrix@N$0?0$0?0$00$0?0$0?0@Eigen@@@Eigen@@$00@Eigen@@V?$Matrix@N$0?0$0?0$0A@$02$02@2@$0A@@Eigen@@V12@@?$PlainObjectBase@V?$Matrix@N$0?0$0?0$0A@$0?0$02@Eigen@@@Eigen@@IEAAXAEBV?$DenseBase@V?$Product@V?$TriangularView@$$CBV?$Transpose@$$CBV?$Matrix@N$0?0$0?0$00$0?0$0?0@Eigen@@@Eigen@@$00@Eigen@@V?$Matrix@N$0?0$0?0$0A@$02$02@2@$0A@@Eigen@@@1@@Z
	??$_init1@V?$Product@V?$TriangularView@$$CBV?$Transpose@$$CBV?$Matrix@N$0?0$0?0$00$0?0$0?0@Eigen@@@Eigen@@$00@Eigen@@V?$Matrix@N$0?0$0?0$0A@$0?0$0?0@2@$0A@@Eigen@@V12@@?$PlainObjectBase@V?$Matrix@N$0?0$0?0$0A@$0?0$0?0@Eigen@@@Eigen@@IEAAXAEBV?$DenseBase@V?$Product@V?$TriangularView@$$CBV?$Transpose@$$CBV?$Matrix@N$0?0$0?0$00$0?0$0?0@Eigen@@@Eigen@@$00@Eigen@@V?$Matrix@N$0?0$0?0$0A@$0?0$0?0@2@$0A@@Eigen@@@1@@Z
	??$_init1@V?$Product@V?$TriangularView@V?$Matrix@N$0?0$0?0$00$0?0$0?0@Eigen@@$01@Eigen@@V?$Matrix@N$0?0$02$0A@$02$02@2@$0A@@Eigen@@V12@@?$PlainObjectBase@V?$Matrix@N$0?0$02$0A@$0?0$02@Eigen@@@Eigen@@IEAAXAEBV?$DenseBase@V?$Product@V?$TriangularView@V?$Matrix@N$0?0$0?0$00$0?0$0?0@Eigen@@$01@Eigen@@V?$Matrix@N$0?0$02$0A@$02$02@2@$0A@@Eigen@@@1@@Z
	??$_init1@V?$Product@V?$TriangularView@V?$Matrix@N$0?0$0?0$00$0?0$0?0@Eigen@@$01@Eigen@@V?$Matrix@N$0?0$0?0$0A@$02$02@2@$0A@@Eigen@@V12@@?$PlainObjectBase@V?$Matrix@N$0?0$0?0$0A@$0?0$02@Eigen@@@Eigen@@IEAAXAEBV?$DenseBase@V?$Product@V?$TriangularView@V?$Matrix@N$0?0$0?0$00$0?0$0?0@Eigen@@$01@Eigen@@V?$Matrix@N$0?0$0?0$0A@$02$02@2@$0A@@Eigen@@@1@@Z
	??$_init1@V?$Product@V?$TriangularView@V?$Matrix@N$0?0$0?0$00$0?0$0?0@Eigen@@$01@Eigen@@V?$Matrix@N$0?0$0?0$0A@$0?0$0?0@2@$0A@@Eigen@@V12@@?$PlainObjectBase@V?$Matrix@N$0?0$0?0$0A@$0?0$0?0@Eigen@@@Eigen@@IEAAXAEBV?$DenseBase@V?$Product@V?$TriangularView@V?$Matrix@N$0?0$0?0$00$0?0$0?0@Eigen@@$01@Eigen@@V?$Matrix@N$0?0$0?0$0A@$0?0$0?0@2@$0A@@Eigen@@@1@@Z
	??$_init1@_J@?$PlainObjectBase@V?$Matrix@H$02$00$0A@$02$00@Eigen@@@Eigen@@IEAAX_JPEA_J@Z
	??$_init1@_J@?$PlainObjectBase@V?$Matrix@N$00$02$00$00$02@Eigen@@@Eigen@@IEAAX_JPEA_J@Z
	??$_init1@_J@?$PlainObjectBase@V?$Matrix@N$02$00$0A@$02$00@Eigen@@@Eigen@@IEAAX_JPEA_J@Z
	??$_init1@_J@?$PlainObjectBase@V?$Matrix@_N$02$00$0A@$02$00@Eigen@@@Eigen@@IEAAX_JPEA_J@Z
	??$_init2@HH@?$PlainObjectBase@V?$Matrix@N$01$00$0A@$01$00@Eigen@@@Eigen@@IEAAXAEBH0PEAH@Z
	??$_init2@HH@?$PlainObjectBase@V?$Matrix@N$0?0$0?0$0A@$0?0$0?0@Eigen@@@Eigen@@IEAAX_J0PEAH@Z
	??$_init2@_J_J@?$PlainObjectBase@V?$Matrix@N$02$00$0A@$02$00@Eigen@@@Eigen@@IEAAX_J0PEA_J@Z
	??$_init2@_J_J@?$PlainObjectBase@V?$Matrix@N$02$02$0A@$02$02@Eigen@@@Eigen@@IEAAX_J0PEA_J@Z
	??$_init2@_J_J@?$PlainObjectBase@V?$Matrix@N$0?0$0?0$00$0?0$0?0@Eigen@@@Eigen@@IEAAX_J0PEA_J@Z
	??$_init2@_J_J@?$PlainObjectBase@V?$Matrix@N$0?0$0?0$0A@$0?0$0?0@Eigen@@@Eigen@@IEAAX_J0PEA_J@Z
	??$_init2@_KH@?$PlainObjectBase@V?$Matrix@N$0?0$0?0$0A@$0?0$0?0@Eigen@@@Eigen@@IEAAX_J0PEA_K@Z
	??$_resize_to_match@V?$HouseholderSequence@V?$Matrix@N$02$02$0A@$02$02@Eigen@@V?$Matrix@N$02$00$0A@$02$00@2@$00@Eigen@@@?$PlainObjectBase@V?$Matrix@N$02$02$0A@$02$02@Eigen@@@Eigen@@IEAAXAEBU?$EigenBase@V?$HouseholderSequence@V?$Matrix@N$02$02$0A@$02$02@Eigen@@V?$Matrix@N$02$00$0A@$02$00@2@$00@Eigen@@@1@@Z
	??$_resize_to_match@V?$PermutationMatrix@$0?0$0?0H@Eigen@@@?$PlainObjectBase@V?$Matrix@N$0?0$0?0$0A@$0?0$0?0@Eigen@@@Eigen@@IEAAXAEBU?$EigenBase@V?$PermutationMatrix@$0?0$0?0H@Eigen@@@1@@Z
	??$_resize_to_match@V?$TriangularView@$$CBV?$Block@$$CBV?$Matrix@N$0?0$0?0$0A@$0?0$0?0@Eigen@@$0?0$0?0$0A@@Eigen@@$01@Eigen@@@?$PlainObjectBase@V?$Matrix@N$0?0$0?0$0A@$0?0$0?0@Eigen@@@Eigen@@IEAAXAEBU?$EigenBase@V?$TriangularView@$$CBV?$Block@$$CBV?$Matrix@N$0?0$0?0$0A@$0?0$0?0@Eigen@@$0?0$0?0$0A@@Eigen@@$01@Eigen@@@1@@Z
	??$_resize_to_match@V?$TriangularView@$$CBV?$Transpose@$$CBV?$Block@$$CBV?$Matrix@N$0?0$0?0$0A@$0?0$0?0@Eigen@@$0?0$0?0$0A@@Eigen@@@Eigen@@$00@Eigen@@@?$PlainObjectBase@V?$Matrix@N$0?0$0?0$0A@$0?0$0?0@Eigen@@@Eigen@@IEAAXAEBU?$EigenBase@V?$TriangularView@$$CBV?$Transpose@$$CBV?$Block@$$CBV?$Matrix@N$0?0$0?0$0A@$0?0$0?0@Eigen@@$0?0$0?0$0A@@Eigen@@@Eigen@@$00@Eigen@@@1@@Z
	??$_set@V?$Block@V?$Matrix@N$02$03$0A@$02$03@Eigen@@$00$03$0A@@Eigen@@@?$PlainObjectBase@V?$Matrix@N$03$00$0A@$03$00@Eigen@@@Eigen@@IEAAAEAV?$Matrix@N$03$00$0A@$03$00@1@AEBV?$DenseBase@V?$Block@V?$Matrix@N$02$03$0A@$02$03@Eigen@@$00$03$0A@@Eigen@@@1@@Z
	??$_set@V?$Block@V?$Matrix@N$0?0$0?0$0A@$0?0$0?0@Eigen@@$0?0$00$00@Eigen@@@?$PlainObjectBase@V?$Matrix@N$03$00$0A@$03$00@Eigen@@@Eigen@@IEAAAEAV?$Matrix@N$03$00$0A@$03$00@1@AEBV?$DenseBase@V?$Block@V?$Matrix@N$0?0$0?0$0A@$0?0$0?0@Eigen@@$0?0$00$00@Eigen@@@1@@Z
	??$_set@V?$CwiseBinaryOp@U?$scalar_difference_op@NN@internal@Eigen@@$$CBV?$CwiseBinaryOp@U?$scalar_difference_op@NN@internal@Eigen@@$$CBV?$Matrix@N$03$00$0A@$03$00@3@$$CBV?$CwiseBinaryOp@U?$scalar_product_op@NN@internal@Eigen@@$$CBV?$Matrix@N$03$00$0A@$03$00@3@$$CBV?$CwiseNullaryOp@U?$scalar_constant_op@N@internal@Eigen@@$$CBV?$Matrix@N$03$00$0A@$03$00@3@@3@@3@@3@$$CBV?$CwiseBinaryOp@U?$scalar_product_op@NN@internal@Eigen@@$$CBV?$Matrix@N$03$00$0A@$03$00@3@$$CBV?$CwiseNullaryOp@U?$scalar_constant_op@N@internal@Eigen@@$$CBV?$Matrix@N$03$00$0A@$03$00@3@@3@@3@@Eigen@@@?$PlainObjectBase@V?$Matrix@N$03$00$0A@$03$00@Eigen@@@Eigen@@IEAAAEAV?$Matrix@N$03$00$0A@$03$00@1@AEBV?$DenseBase@V?$CwiseBinaryOp@U?$scalar_difference_op@NN@internal@Eigen@@$$CBV?$CwiseBinaryOp@U?$scalar_difference_op@NN@internal@Eigen@@$$CBV?$Matrix@N$03$00$0A@$03$00@3@$$CBV?$CwiseBinaryOp@U?$scalar_product_op@NN@internal@Eigen@@$$CBV?$Matrix@N$03$00$0A@$03$00@3@$$CBV?$CwiseNullaryOp@U?$scalar_constant_op@N@internal@Eigen@@$$CBV?$Matrix@N$03$00$0A@$03$00@3@@3@@3@@3@$$CBV?$CwiseBinaryOp@U?$scalar_product_op@NN@internal@Eigen@@$$CBV?$Matrix@N$03$00$0A@$03$00@3@$$CBV?$CwiseNullaryOp@U?$scalar_constant_op@N@internal@Eigen@@$$CBV?$Matrix@N$03$00$0A@$03$00@3@@3@@3@@Eigen@@@1@@Z
	??$_set@V?$CwiseBinaryOp@U?$scalar_difference_op@NN@internal@Eigen@@$$CBV?$CwiseBinaryOp@U?$scalar_quotient_op@NN@internal@Eigen@@$$CBV?$Matrix@N$03$00$0A@$03$00@3@$$CBV?$CwiseNullaryOp@U?$scalar_constant_op@N@internal@Eigen@@$$CBV?$Matrix@N$03$00$0A@$03$00@3@@3@@3@$$CBV?$Matrix@N$03$00$0A@$03$00@3@@Eigen@@@?$PlainObjectBase@V?$Matrix@N$03$00$0A@$03$00@Eigen@@@Eigen@@IEAAAEAV?$Matrix@N$03$00$0A@$03$00@1@AEBV?$DenseBase@V?$CwiseBinaryOp@U?$scalar_difference_op@NN@internal@Eigen@@$$CBV?$CwiseBinaryOp@U?$scalar_quotient_op@NN@internal@Eigen@@$$CBV?$Matrix@N$03$00$0A@$03$00@3@$$CBV?$CwiseNullaryOp@U?$scalar_constant_op@N@internal@Eigen@@$$CBV?$Matrix@N$03$00$0A@$03$00@3@@3@@3@$$CBV?$Matrix@N$03$00$0A@$03$00@3@@Eigen@@@1@@Z
	??$_set@V?$CwiseBinaryOp@U?$scalar_difference_op@NN@internal@Eigen@@$$CBV?$Matrix@N$03$00$0A@$03$00@3@$$CBV?$CwiseBinaryOp@U?$scalar_product_op@NN@internal@Eigen@@$$CBV?$Matrix@N$03$00$0A@$03$00@3@$$CBV?$CwiseNullaryOp@U?$scalar_constant_op@N@internal@Eigen@@$$CBV?$Matrix@N$03$00$0A@$03$00@3@@3@@3@@Eigen@@@?$PlainObjectBase@V?$Matrix@N$03$00$0A@$03$00@Eigen@@@Eigen@@IEAAAEAV?$Matrix@N$03$00$0A@$03$00@1@AEBV?$DenseBase@V?$CwiseBinaryOp@U?$scalar_difference_op@NN@internal@Eigen@@$$CBV?$Matrix@N$03$00$0A@$03$00@3@$$CBV?$CwiseBinaryOp@U?$scalar_product_op@NN@internal@Eigen@@$$CBV?$Matrix@N$03$00$0A@$03$00@3@$$CBV?$CwiseNullaryOp@U?$scalar_constant_op@N@internal@Eigen@@$$CBV?$Matrix@N$03$00$0A@$03$00@3@@3@@3@@Eigen@@@1@@Z
	??$_set@V?$CwiseBinaryOp@U?$scalar_product_op@NN@internal@Eigen@@$$CBV?$Matrix@N$02$03$0A@$02$03@3@$$CBV?$CwiseNullaryOp@U?$scalar_constant_op@N@internal@Eigen@@$$CBV?$Matrix@N$02$03$0A@$02$03@3@@3@@Eigen@@@?$PlainObjectBase@V?$Matrix@N$02$03$0A@$02$03@Eigen@@@Eigen@@IEAAAEAV?$Matrix@N$02$03$0A@$02$03@1@AEBV?$DenseBase@V?$CwiseBinaryOp@U?$scalar_product_op@NN@internal@Eigen@@$$CBV?$Matrix@N$02$03$0A@$02$03@3@$$CBV?$CwiseNullaryOp@U?$scalar_constant_op@N@internal@Eigen@@$$CBV?$Matrix@N$02$03$0A@$02$03@3@@3@@Eigen@@@1@@Z
	??$_set@V?$CwiseBinaryOp@U?$scalar_product_op@NN@internal@Eigen@@$$CBV?$Matrix@N$03$00$0A@$03$00@3@$$CBV?$CwiseNullaryOp@U?$scalar_constant_op@N@internal@Eigen@@$$CBV?$Matrix@N$03$00$0A@$03$00@3@@3@@Eigen@@@?$PlainObjectBase@V?$Matrix@N$03$00$0A@$03$00@Eigen@@@Eigen@@IEAAAEAV?$Matrix@N$03$00$0A@$03$00@1@AEBV?$DenseBase@V?$CwiseBinaryOp@U?$scalar_product_op@NN@internal@Eigen@@$$CBV?$Matrix@N$03$00$0A@$03$00@3@$$CBV?$CwiseNullaryOp@U?$scalar_constant_op@N@internal@Eigen@@$$CBV?$Matrix@N$03$00$0A@$03$00@3@@3@@Eigen@@@1@@Z
	??$_set@V?$CwiseBinaryOp@U?$scalar_quotient_op@NN@internal@Eigen@@$$CBV?$Block@$$CBV?$Matrix@N$02$03$0A@$02$03@Eigen@@$0?0$0?0$0A@@3@$$CBV?$CwiseNullaryOp@U?$scalar_constant_op@N@internal@Eigen@@$$CBV?$Matrix@N$0?0$0?0$0A@$02$03@3@@3@@Eigen@@@?$PlainObjectBase@V?$Matrix@N$0?0$0?0$0A@$0?0$0?0@Eigen@@@Eigen@@IEAAAEAV?$Matrix@N$0?0$0?0$0A@$0?0$0?0@1@AEBV?$DenseBase@V?$CwiseBinaryOp@U?$scalar_quotient_op@NN@internal@Eigen@@$$CBV?$Block@$$CBV?$Matrix@N$02$03$0A@$02$03@Eigen@@$0?0$0?0$0A@@3@$$CBV?$CwiseNullaryOp@U?$scalar_constant_op@N@internal@Eigen@@$$CBV?$Matrix@N$0?0$0?0$0A@$02$03@3@@3@@Eigen@@@1@@Z
	??$_set@V?$CwiseBinaryOp@U?$scalar_quotient_op@NN@internal@Eigen@@$$CBV?$Block@$$CBV?$Matrix@N$0?0$0?0$0A@$0?0$0?0@Eigen@@$0?0$0?0$0A@@3@$$CBV?$CwiseNullaryOp@U?$scalar_constant_op@N@internal@Eigen@@$$CBV?$Matrix@N$0?0$0?0$0A@$0?0$0?0@3@@3@@Eigen@@@?$PlainObjectBase@V?$Matrix@N$0?0$0?0$0A@$0?0$0?0@Eigen@@@Eigen@@IEAAAEAV?$Matrix@N$0?0$0?0$0A@$0?0$0?0@1@AEBV?$DenseBase@V?$CwiseBinaryOp@U?$scalar_quotient_op@NN@internal@Eigen@@$$CBV?$Block@$$CBV?$Matrix@N$0?0$0?0$0A@$0?0$0?0@Eigen@@$0?0$0?0$0A@@3@$$CBV?$CwiseNullaryOp@U?$scalar_constant_op@N@internal@Eigen@@$$CBV?$Matrix@N$0?0$0?0$0A@$0?0$0?0@3@@3@@Eigen@@@1@@Z
	??$_set@V?$CwiseBinaryOp@U?$scalar_quotient_op@NN@internal@Eigen@@$$CBV?$Matrix@N$02$03$0A@$02$03@3@$$CBV?$CwiseNullaryOp@U?$scalar_constant_op@N@internal@Eigen@@$$CBV?$Matrix@N$02$03$0A@$02$03@3@@3@@Eigen@@@?$PlainObjectBase@V?$Matrix@N$0?0$0?0$0A@$0?0$0?0@Eigen@@@Eigen@@IEAAAEAV?$Matrix@N$0?0$0?0$0A@$0?0$0?0@1@AEBV?$DenseBase@V?$CwiseBinaryOp@U?$scalar_quotient_op@NN@internal@Eigen@@$$CBV?$Matrix@N$02$03$0A@$02$03@3@$$CBV?$CwiseNullaryOp@U?$scalar_constant_op@N@internal@Eigen@@$$CBV?$Matrix@N$02$03$0A@$02$03@3@@3@@Eigen@@@1@@Z
	??$_set@V?$CwiseBinaryOp@U?$scalar_quotient_op@NN@internal@Eigen@@$$CBV?$Matrix@N$03$00$0A@$03$00@3@$$CBV?$CwiseNullaryOp@U?$scalar_constant_op@N@internal@Eigen@@$$CBV?$Matrix@N$03$00$0A@$03$00@3@@3@@Eigen@@@?$PlainObjectBase@V?$Matrix@N$03$00$0A@$03$00@Eigen@@@Eigen@@IEAAAEAV?$Matrix@N$03$00$0A@$03$00@1@AEBV?$DenseBase@V?$CwiseBinaryOp@U?$scalar_quotient_op@NN@internal@Eigen@@$$CBV?$Matrix@N$03$00$0A@$03$00@3@$$CBV?$CwiseNullaryOp@U?$scalar_constant_op@N@internal@Eigen@@$$CBV?$Matrix@N$03$00$0A@$03$00@3@@3@@Eigen@@@1@@Z
	??$_set@V?$CwiseBinaryOp@U?$scalar_quotient_op@NN@internal@Eigen@@$$CBV?$Matrix@N$0?0$0?0$0A@$0?0$0?0@3@$$CBV?$CwiseNullaryOp@U?$scalar_constant_op@N@internal@Eigen@@$$CBV?$Matrix@N$0?0$0?0$0A@$0?0$0?0@3@@3@@Eigen@@@?$PlainObjectBase@V?$Matrix@N$0?0$0?0$0A@$0?0$0?0@Eigen@@@Eigen@@IEAAAEAV?$Matrix@N$0?0$0?0$0A@$0?0$0?0@1@AEBV?$DenseBase@V?$CwiseBinaryOp@U?$scalar_quotient_op@NN@internal@Eigen@@$$CBV?$Matrix@N$0?0$0?0$0A@$0?0$0?0@3@$$CBV?$CwiseNullaryOp@U?$scalar_constant_op@N@internal@Eigen@@$$CBV?$Matrix@N$0?0$0?0$0A@$0?0$0?0@3@@3@@Eigen@@@1@@Z
	??$_set@V?$CwiseNullaryOp@U?$scalar_identity_op@N@internal@Eigen@@V?$Matrix@N$02$02$0A@$02$02@3@@Eigen@@@?$PlainObjectBase@V?$Matrix@N$02$02$0A@$02$02@Eigen@@@Eigen@@IEAAAEAV?$Matrix@N$02$02$0A@$02$02@1@AEBV?$DenseBase@V?$CwiseNullaryOp@U?$scalar_identity_op@N@internal@Eigen@@V?$Matrix@N$02$02$0A@$02$02@3@@Eigen@@@1@@Z
	??$_set@V?$CwiseNullaryOp@U?$scalar_identity_op@N@internal@Eigen@@V?$Matrix@N$0?0$0?0$0A@$0?0$0?0@3@@Eigen@@@?$PlainObjectBase@V?$Matrix@N$0?0$0?0$0A@$0?0$0?0@Eigen@@@Eigen@@IEAAAEAV?$Matrix@N$0?0$0?0$0A@$0?0$0?0@1@AEBV?$DenseBase@V?$CwiseNullaryOp@U?$scalar_identity_op@N@internal@Eigen@@V?$Matrix@N$0?0$0?0$0A@$0?0$0?0@3@@Eigen@@@1@@Z
	??$_set@V?$Matrix@N$02$00$0A@$02$00@Eigen@@@?$PlainObjectBase@V?$Matrix@N$02$00$0A@$02$00@Eigen@@@Eigen@@IEAAAEAV?$Matrix@N$02$00$0A@$02$00@1@AEBV?$DenseBase@V?$Matrix@N$02$00$0A@$02$00@Eigen@@@1@@Z
	??$_set@V?$Matrix@N$02$02$0A@$02$02@Eigen@@@?$PlainObjectBase@V?$Matrix@N$02$02$0A@$02$02@Eigen@@@Eigen@@IEAAAEAV?$Matrix@N$02$02$0A@$02$02@1@AEBV?$DenseBase@V?$Matrix@N$02$02$0A@$02$02@Eigen@@@1@@Z
	??$_set@V?$Matrix@N$03$00$0A@$03$00@Eigen@@@?$PlainObjectBase@V?$Matrix@N$03$00$0A@$03$00@Eigen@@@Eigen@@IEAAAEAV?$Matrix@N$03$00$0A@$03$00@1@AEBV?$DenseBase@V?$Matrix@N$03$00$0A@$03$00@Eigen@@@1@@Z
	??$_set@V?$Product@V?$Matrix@N$02$02$0A@$02$02@Eigen@@V12@$0A@@Eigen@@@?$PlainObjectBase@V?$Matrix@N$02$02$0A@$02$02@Eigen@@@Eigen@@IEAAAEAV?$Matrix@N$02$02$0A@$02$02@1@AEBV?$DenseBase@V?$Product@V?$Matrix@N$02$02$0A@$02$02@Eigen@@V12@$0A@@Eigen@@@1@@Z
	??$_set@V?$Product@V?$PermutationMatrix@$02$02H@Eigen@@V?$Block@$$CBV?$Matrix@N$02$03$0A@$02$03@Eigen@@$02$00$0A@@2@$0A@@Eigen@@@?$PlainObjectBase@V?$Matrix@N$02$00$0A@$02$00@Eigen@@@Eigen@@IEAAAEAV?$Matrix@N$02$00$0A@$02$00@1@AEBV?$DenseBase@V?$Product@V?$PermutationMatrix@$02$02H@Eigen@@V?$Block@$$CBV?$Matrix@N$02$03$0A@$02$03@Eigen@@$02$00$0A@@2@$0A@@Eigen@@@1@@Z
	??$_set@V?$Product@V?$Product@V?$Matrix@N$0?0$0?0$0A@$0?0$0?0@Eigen@@V12@$0A@@Eigen@@V?$Transpose@$$CBV?$Matrix@N$0?0$0?0$0A@$0?0$0?0@Eigen@@@2@$0A@@Eigen@@@?$PlainObjectBase@V?$Matrix@N$03$02$0A@$03$02@Eigen@@@Eigen@@IEAAAEAV?$Matrix@N$03$02$0A@$03$02@1@AEBV?$DenseBase@V?$Product@V?$Product@V?$Matrix@N$0?0$0?0$0A@$0?0$0?0@Eigen@@V12@$0A@@Eigen@@V?$Transpose@$$CBV?$Matrix@N$0?0$0?0$0A@$0?0$0?0@Eigen@@@2@$0A@@Eigen@@@1@@Z
	??$_set@V?$Product@V?$Transpose@$$CBV?$Matrix@N$02$02$0A@$02$02@Eigen@@@Eigen@@V12@$0A@@Eigen@@@?$PlainObjectBase@V?$Matrix@N$02$02$0A@$02$02@Eigen@@@Eigen@@IEAAAEAV?$Matrix@N$02$02$0A@$02$02@1@AEBV?$DenseBase@V?$Product@V?$Transpose@$$CBV?$Matrix@N$02$02$0A@$02$02@Eigen@@@Eigen@@V12@$0A@@Eigen@@@1@@Z
	??$_set@V?$Product@V?$TriangularView@$$CBV?$Transpose@$$CBV?$Matrix@N$0?0$0?0$00$0?0$0?0@Eigen@@@Eigen@@$00@Eigen@@V?$Matrix@N$0?0$02$0A@$02$02@2@$0A@@Eigen@@@?$PlainObjectBase@V?$Matrix@N$0?0$02$0A@$02$02@Eigen@@@Eigen@@IEAAAEAV?$Matrix@N$0?0$02$0A@$02$02@1@AEBV?$DenseBase@V?$Product@V?$TriangularView@$$CBV?$Transpose@$$CBV?$Matrix@N$0?0$0?0$00$0?0$0?0@Eigen@@@Eigen@@$00@Eigen@@V?$Matrix@N$0?0$02$0A@$02$02@2@$0A@@Eigen@@@1@@Z
	??$_set@V?$Product@V?$TriangularView@$$CBV?$Transpose@$$CBV?$Matrix@N$0?0$0?0$00$0?0$0?0@Eigen@@@Eigen@@$00@Eigen@@V?$Matrix@N$0?0$0?0$0A@$02$02@2@$0A@@Eigen@@@?$PlainObjectBase@V?$Matrix@N$0?0$0?0$0A@$02$02@Eigen@@@Eigen@@IEAAAEAV?$Matrix@N$0?0$0?0$0A@$02$02@1@AEBV?$DenseBase@V?$Product@V?$TriangularView@$$CBV?$Transpose@$$CBV?$Matrix@N$0?0$0?0$00$0?0$0?0@Eigen@@@Eigen@@$00@Eigen@@V?$Matrix@N$0?0$0?0$0A@$02$02@2@$0A@@Eigen@@@1@@Z
	??$_set@V?$Product@V?$TriangularView@$$CBV?$Transpose@$$CBV?$Matrix@N$0?0$0?0$00$0?0$0?0@Eigen@@@Eigen@@$00@Eigen@@V?$Matrix@N$0?0$0?0$0A@$0?0$0?0@2@$0A@@Eigen@@@?$PlainObjectBase@V?$Matrix@N$0?0$0?0$0A@$0?0$0?0@Eigen@@@Eigen@@IEAAAEAV?$Matrix@N$0?0$0?0$0A@$0?0$0?0@1@AEBV?$DenseBase@V?$Product@V?$TriangularView@$$CBV?$Transpose@$$CBV?$Matrix@N$0?0$0?0$00$0?0$0?0@Eigen@@@Eigen@@$00@Eigen@@V?$Matrix@N$0?0$0?0$0A@$0?0$0?0@2@$0A@@Eigen@@@1@@Z
	??$_set@V?$Product@V?$TriangularView@V?$Matrix@N$0?0$0?0$00$0?0$0?0@Eigen@@$01@Eigen@@V?$Matrix@N$0?0$02$0A@$02$02@2@$0A@@Eigen@@@?$PlainObjectBase@V?$Matrix@N$0?0$02$0A@$02$02@Eigen@@@Eigen@@IEAAAEAV?$Matrix@N$0?0$02$0A@$02$02@1@AEBV?$DenseBase@V?$Product@V?$TriangularView@V?$Matrix@N$0?0$0?0$00$0?0$0?0@Eigen@@$01@Eigen@@V?$Matrix@N$0?0$02$0A@$02$02@2@$0A@@Eigen@@@1@@Z
	??$_set@V?$Product@V?$TriangularView@V?$Matrix@N$0?0$0?0$00$0?0$0?0@Eigen@@$01@Eigen@@V?$Matrix@N$0?0$0?0$0A@$02$02@2@$0A@@Eigen@@@?$PlainObjectBase@V?$Matrix@N$0?0$0?0$0A@$02$02@Eigen@@@Eigen@@IEAAAEAV?$Matrix@N$0?0$0?0$0A@$02$02@1@AEBV?$DenseBase@V?$Product@V?$TriangularView@V?$Matrix@N$0?0$0?0$00$0?0$0?0@Eigen@@$01@Eigen@@V?$Matrix@N$0?0$0?0$0A@$02$02@2@$0A@@Eigen@@@1@@Z
	??$_set@V?$Product@V?$TriangularView@V?$Matrix@N$0?0$0?0$00$0?0$0?0@Eigen@@$01@Eigen@@V?$Matrix@N$0?0$0?0$0A@$0?0$0?0@2@$0A@@Eigen@@@?$PlainObjectBase@V?$Matrix@N$0?0$0?0$0A@$0?0$0?0@Eigen@@@Eigen@@IEAAAEAV?$Matrix@N$0?0$0?0$0A@$0?0$0?0@1@AEBV?$DenseBase@V?$Product@V?$TriangularView@V?$Matrix@N$0?0$0?0$00$0?0$0?0@Eigen@@$01@Eigen@@V?$Matrix@N$0?0$0?0$0A@$0?0$0?0@2@$0A@@Eigen@@@1@@Z
	??$_set@V?$Solve@V?$PartialPivLU@V?$Matrix@N$02$02$0A@$02$02@Eigen@@H@Eigen@@V?$Block@$$CBV?$Matrix@N$02$03$0A@$02$03@Eigen@@$02$00$0A@@2@@Eigen@@@?$PlainObjectBase@V?$Matrix@N$02$00$0A@$02$00@Eigen@@@Eigen@@IEAAAEAV?$Matrix@N$02$00$0A@$02$00@1@AEBV?$DenseBase@V?$Solve@V?$PartialPivLU@V?$Matrix@N$02$02$0A@$02$02@Eigen@@H@Eigen@@V?$Block@$$CBV?$Matrix@N$02$03$0A@$02$03@Eigen@@$02$00$0A@@2@@Eigen@@@1@@Z
	??$_set@V?$Transpose@$$CBV?$CwiseBinaryOp@U?$scalar_quotient_op@NN@internal@Eigen@@$$CBV?$Matrix@N$02$03$0A@$02$03@3@$$CBV?$CwiseNullaryOp@U?$scalar_constant_op@N@internal@Eigen@@$$CBV?$Matrix@N$02$03$0A@$02$03@3@@3@@Eigen@@@Eigen@@@?$PlainObjectBase@V?$Matrix@N$0?0$0?0$0A@$0?0$0?0@Eigen@@@Eigen@@IEAAAEAV?$Matrix@N$0?0$0?0$0A@$0?0$0?0@1@AEBV?$DenseBase@V?$Transpose@$$CBV?$CwiseBinaryOp@U?$scalar_quotient_op@NN@internal@Eigen@@$$CBV?$Matrix@N$02$03$0A@$02$03@3@$$CBV?$CwiseNullaryOp@U?$scalar_constant_op@N@internal@Eigen@@$$CBV?$Matrix@N$02$03$0A@$02$03@3@@3@@Eigen@@@Eigen@@@1@@Z
	??$_set@V?$Transpose@$$CBV?$CwiseBinaryOp@U?$scalar_quotient_op@NN@internal@Eigen@@$$CBV?$Matrix@N$0?0$0?0$0A@$0?0$0?0@3@$$CBV?$CwiseNullaryOp@U?$scalar_constant_op@N@internal@Eigen@@$$CBV?$Matrix@N$0?0$0?0$0A@$0?0$0?0@3@@3@@Eigen@@@Eigen@@@?$PlainObjectBase@V?$Matrix@N$0?0$0?0$0A@$0?0$0?0@Eigen@@@Eigen@@IEAAAEAV?$Matrix@N$0?0$0?0$0A@$0?0$0?0@1@AEBV?$DenseBase@V?$Transpose@$$CBV?$CwiseBinaryOp@U?$scalar_quotient_op@NN@internal@Eigen@@$$CBV?$Matrix@N$0?0$0?0$0A@$0?0$0?0@3@$$CBV?$CwiseNullaryOp@U?$scalar_constant_op@N@internal@Eigen@@$$CBV?$Matrix@N$0?0$0?0$0A@$0?0$0?0@3@@3@@Eigen@@@Eigen@@@1@@Z
	??$_set_noalias@V?$Block@$$CBV?$Matrix@N$02$03$0A@$02$03@Eigen@@$00$02$0A@@Eigen@@@?$PlainObjectBase@V?$Matrix@N$02$00$0A@$02$00@Eigen@@@Eigen@@IEAAAEAV?$Matrix@N$02$00$0A@$02$00@1@AEBV?$DenseBase@V?$Block@$$CBV?$Matrix@N$02$03$0A@$02$03@Eigen@@$00$02$0A@@Eigen@@@1@@Z
	??$_set_noalias@V?$Block@$$CBV?$Matrix@N$02$03$0A@$02$03@Eigen@@$00$03$0A@@Eigen@@@?$PlainObjectBase@V?$Matrix@N$03$00$0A@$03$00@Eigen@@@Eigen@@IEAAAEAV?$Matrix@N$03$00$0A@$03$00@1@AEBV?$DenseBase@V?$Block@$$CBV?$Matrix@N$02$03$0A@$02$03@Eigen@@$00$03$0A@@Eigen@@@1@@Z
	??$_set_noalias@V?$Block@$$CBV?$Matrix@N$02$03$0A@$02$03@Eigen@@$02$02$0A@@Eigen@@@?$PlainObjectBase@V?$Matrix@N$02$02$0A@$02$02@Eigen@@@Eigen@@IEAAAEAV?$Matrix@N$02$02$0A@$02$02@1@AEBV?$DenseBase@V?$Block@$$CBV?$Matrix@N$02$03$0A@$02$03@Eigen@@$02$02$0A@@Eigen@@@1@@Z
	??$_set_noalias@V?$Block@$$CBV?$Product@V?$Matrix@N$0?0$0?0$0A@$0?0$0?0@Eigen@@V12@$0A@@Eigen@@$00$0?0$0A@@Eigen@@@?$PlainObjectBase@V?$Matrix@N$00$0?0$00$00$0?0@Eigen@@@Eigen@@IEAAAEAV?$Matrix@N$00$0?0$00$00$0?0@1@AEBV?$DenseBase@V?$Block@$$CBV?$Product@V?$Matrix@N$0?0$0?0$0A@$0?0$0?0@Eigen@@V12@$0A@@Eigen@@$00$0?0$0A@@Eigen@@@1@@Z
	??$_set_noalias@V?$Block@V?$Matrix@N$02$03$0A@$02$03@Eigen@@$00$02$0A@@Eigen@@@?$PlainObjectBase@V?$Matrix@N$02$00$0A@$02$00@Eigen@@@Eigen@@IEAAAEAV?$Matrix@N$02$00$0A@$02$00@1@AEBV?$DenseBase@V?$Block@V?$Matrix@N$02$03$0A@$02$03@Eigen@@$00$02$0A@@Eigen@@@1@@Z
	??$_set_noalias@V?$Block@V?$Matrix@N$0?0$0?0$0A@$0?0$0?0@Eigen@@$0?0$00$00@Eigen@@@?$PlainObjectBase@V?$Matrix@N$0?0$00$0A@$0?0$00@Eigen@@@Eigen@@IEAAAEAV?$Matrix@N$0?0$00$0A@$0?0$00@1@AEBV?$DenseBase@V?$Block@V?$Matrix@N$0?0$0?0$0A@$0?0$0?0@Eigen@@$0?0$00$00@Eigen@@@1@@Z
	??$_set_noalias@V?$CwiseBinaryOp@U?$scalar_product_op@NN@internal@Eigen@@$$CBV?$CwiseNullaryOp@U?$scalar_constant_op@N@internal@Eigen@@$$CBV?$Matrix@N$0?0$00$0A@$02$00@3@@3@$$CBV?$Block@$$CBV?$Matrix@N$02$02$0A@$02$02@Eigen@@$0?0$00$0A@@3@@Eigen@@@?$PlainObjectBase@V?$Matrix@N$0?0$00$0A@$02$00@Eigen@@@Eigen@@IEAAAEAV?$Matrix@N$0?0$00$0A@$02$00@1@AEBV?$DenseBase@V?$CwiseBinaryOp@U?$scalar_product_op@NN@internal@Eigen@@$$CBV?$CwiseNullaryOp@U?$scalar_constant_op@N@internal@Eigen@@$$CBV?$Matrix@N$0?0$00$0A@$02$00@3@@3@$$CBV?$Block@$$CBV?$Matrix@N$02$02$0A@$02$02@Eigen@@$0?0$00$0A@@3@@Eigen@@@1@@Z
	??$_set_noalias@V?$CwiseBinaryOp@U?$scalar_product_op@NN@internal@Eigen@@$$CBV?$CwiseNullaryOp@U?$scalar_constant_op@N@internal@Eigen@@$$CBV?$Matrix@N$0?0$00$0A@$02$00@3@@3@$$CBV?$Block@V?$Block@V?$Block@V?$Matrix@N$02$02$0A@$02$02@Eigen@@$0?0$0?0$0A@@Eigen@@$0?0$00$00@Eigen@@$0?0$00$0A@@3@@Eigen@@@?$PlainObjectBase@V?$Matrix@N$0?0$00$0A@$02$00@Eigen@@@Eigen@@IEAAAEAV?$Matrix@N$0?0$00$0A@$02$00@1@AEBV?$DenseBase@V?$CwiseBinaryOp@U?$scalar_product_op@NN@internal@Eigen@@$$CBV?$CwiseNullaryOp@U?$scalar_constant_op@N@internal@Eigen@@$$CBV?$Matrix@N$0?0$00$0A@$02$00@3@@3@$$CBV?$Block@V?$Block@V?$Block@V?$Matrix@N$02$02$0A@$02$02@Eigen@@$0?0$0?0$0A@@Eigen@@$0?0$00$00@Eigen@@$0?0$00$0A@@3@@Eigen@@@1@@Z
	??$_set_noalias@V?$CwiseBinaryOp@U?$scalar_product_op@NN@internal@Eigen@@$$CBV?$CwiseNullaryOp@U?$scalar_constant_op@N@internal@Eigen@@$$CBV?$Matrix@N$0?0$00$0A@$02$00@3@@3@$$CBV?$Map@V?$Matrix@N$0?0$00$0A@$02$00@Eigen@@$0A@V?$Stride@$0A@$0A@@2@@3@@Eigen@@@?$PlainObjectBase@V?$Matrix@N$0?0$00$0A@$02$00@Eigen@@@Eigen@@IEAAAEAV?$Matrix@N$0?0$00$0A@$02$00@1@AEBV?$DenseBase@V?$CwiseBinaryOp@U?$scalar_product_op@NN@internal@Eigen@@$$CBV?$CwiseNullaryOp@U?$scalar_constant_op@N@internal@Eigen@@$$CBV?$Matrix@N$0?0$00$0A@$02$00@3@@3@$$CBV?$Map@V?$Matrix@N$0?0$00$0A@$02$00@Eigen@@$0A@V?$Stride@$0A@$0A@@2@@3@@Eigen@@@1@@Z
	??$_set_noalias@V?$CwiseBinaryOp@U?$scalar_quotient_op@NN@internal@Eigen@@$$CBV?$Block@V?$Matrix@N$03$00$0A@$03$00@Eigen@@$0?0$00$0A@@3@$$CBV?$CwiseNullaryOp@U?$scalar_constant_op@N@internal@Eigen@@$$CBV?$Matrix@N$0?0$00$0A@$03$00@3@@3@@Eigen@@@?$PlainObjectBase@V?$Matrix@N$02$00$0A@$02$00@Eigen@@@Eigen@@IEAAAEAV?$Matrix@N$02$00$0A@$02$00@1@AEBV?$DenseBase@V?$CwiseBinaryOp@U?$scalar_quotient_op@NN@internal@Eigen@@$$CBV?$Block@V?$Matrix@N$03$00$0A@$03$00@Eigen@@$0?0$00$0A@@3@$$CBV?$CwiseNullaryOp@U?$scalar_constant_op@N@internal@Eigen@@$$CBV?$Matrix@N$0?0$00$0A@$03$00@3@@3@@Eigen@@@1@@Z
	??$_set_noalias@V?$CwiseBinaryOp@U?$scalar_quotient_op@NN@internal@Eigen@@$$CBV?$Matrix@N$02$00$0A@$02$00@3@$$CBV?$CwiseNullaryOp@U?$scalar_constant_op@N@internal@Eigen@@$$CBV?$Matrix@N$02$00$0A@$02$00@3@@3@@Eigen@@@?$PlainObjectBase@V?$Matrix@N$02$00$0A@$02$00@Eigen@@@Eigen@@IEAAAEAV?$Matrix@N$02$00$0A@$02$00@1@AEBV?$DenseBase@V?$CwiseBinaryOp@U?$scalar_quotient_op@NN@internal@Eigen@@$$CBV?$Matrix@N$02$00$0A@$02$00@3@$$CBV?$CwiseNullaryOp@U?$scalar_constant_op@N@internal@Eigen@@$$CBV?$Matrix@N$02$00$0A@$02$00@3@@3@@Eigen@@@1@@Z
	??$_set_noalias@V?$CwiseBinaryOp@U?$scalar_quotient_op@NN@internal@Eigen@@$$CBV?$Matrix@N$03$00$0A@$03$00@3@$$CBV?$CwiseNullaryOp@U?$scalar_constant_op@N@internal@Eigen@@$$CBV?$Matrix@N$03$00$0A@$03$00@3@@3@@Eigen@@@?$PlainObjectBase@V?$Matrix@N$03$00$0A@$03$00@Eigen@@@Eigen@@IEAAAEAV?$Matrix@N$03$00$0A@$03$00@1@AEBV?$DenseBase@V?$CwiseBinaryOp@U?$scalar_quotient_op@NN@internal@Eigen@@$$CBV?$Matrix@N$03$00$0A@$03$00@3@$$CBV?$CwiseNullaryOp@U?$scalar_constant_op@N@internal@Eigen@@$$CBV?$Matrix@N$03$00$0A@$03$00@3@@3@@Eigen@@@1@@Z
	??$_set_noalias@V?$CwiseBinaryOp@U?$scalar_quotient_op@NN@internal@Eigen@@$$CBV?$Product@V?$Block@$$CBV?$Matrix@N$02$03$0A@$02$03@Eigen@@$02$02$0A@@Eigen@@V?$Transpose@$$CBV?$Block@$$CBV?$Matrix@N$02$03$0A@$02$03@Eigen@@$00$02$0A@@Eigen@@@2@$0A@@3@$$CBV?$CwiseNullaryOp@U?$scalar_constant_op@N@internal@Eigen@@$$CBV?$Matrix@N$02$00$0A@$02$00@3@@3@@Eigen@@@?$PlainObjectBase@V?$Matrix@N$02$00$0A@$02$00@Eigen@@@Eigen@@IEAAAEAV?$Matrix@N$02$00$0A@$02$00@1@AEBV?$DenseBase@V?$CwiseBinaryOp@U?$scalar_quotient_op@NN@internal@Eigen@@$$CBV?$Product@V?$Block@$$CBV?$Matrix@N$02$03$0A@$02$03@Eigen@@$02$02$0A@@Eigen@@V?$Transpose@$$CBV?$Block@$$CBV?$Matrix@N$02$03$0A@$02$03@Eigen@@$00$02$0A@@Eigen@@@2@$0A@@3@$$CBV?$CwiseNullaryOp@U?$scalar_constant_op@N@internal@Eigen@@$$CBV?$Matrix@N$02$00$0A@$02$00@3@@3@@Eigen@@@1@@Z
	??$_set_noalias@V?$CwiseBinaryOp@U?$scalar_sum_op@NN@internal@Eigen@@$$CBV?$CwiseBinaryOp@U?$scalar_quotient_op@NN@internal@Eigen@@$$CBV?$CwiseBinaryOp@U?$scalar_sum_op@NN@internal@Eigen@@$$CBV?$CwiseBinaryOp@U?$scalar_product_op@NN@internal@Eigen@@$$CBV?$Matrix@N$03$00$0A@$03$00@3@$$CBV?$CwiseNullaryOp@U?$scalar_constant_op@N@internal@Eigen@@$$CBV?$Matrix@N$03$00$0A@$03$00@3@@3@@3@$$CBV43@@3@$$CBV?$CwiseNullaryOp@U?$scalar_constant_op@N@internal@Eigen@@$$CBV?$Matrix@N$03$00$0A@$03$00@3@@3@@3@$$CBV?$Matrix@N$03$00$0A@$03$00@3@@Eigen@@@?$PlainObjectBase@V?$Matrix@N$03$00$0A@$03$00@Eigen@@@Eigen@@IEAAAEAV?$Matrix@N$03$00$0A@$03$00@1@AEBV?$DenseBase@V?$CwiseBinaryOp@U?$scalar_sum_op@NN@internal@Eigen@@$$CBV?$CwiseBinaryOp@U?$scalar_quotient_op@NN@internal@Eigen@@$$CBV?$CwiseBinaryOp@U?$scalar_sum_op@NN@internal@Eigen@@$$CBV?$CwiseBinaryOp@U?$scalar_product_op@NN@internal@Eigen@@$$CBV?$Matrix@N$03$00$0A@$03$00@3@$$CBV?$CwiseNullaryOp@U?$scalar_constant_op@N@internal@Eigen@@$$CBV?$Matrix@N$03$00$0A@$03$00@3@@3@@3@$$CBV43@@3@$$CBV?$CwiseNullaryOp@U?$scalar_constant_op@N@internal@Eigen@@$$CBV?$Matrix@N$03$00$0A@$03$00@3@@3@@3@$$CBV?$Matrix@N$03$00$0A@$03$00@3@@Eigen@@@1@@Z
	??$_set_noalias@V?$CwiseBinaryOp@U?$scalar_sum_op@NN@internal@Eigen@@$$CBV?$CwiseBinaryOp@U?$scalar_sum_op@NN@internal@Eigen@@$$CBV?$CwiseBinaryOp@U?$scalar_sum_op@NN@internal@Eigen@@$$CBV?$Matrix@N$03$00$0A@$03$00@3@$$CBV43@@3@$$CBV?$Matrix@N$03$00$0A@$03$00@3@@3@$$CBV?$Matrix@N$03$00$0A@$03$00@3@@Eigen@@@?$PlainObjectBase@V?$Matrix@N$03$00$0A@$03$00@Eigen@@@Eigen@@IEAAAEAV?$Matrix@N$03$00$0A@$03$00@1@AEBV?$DenseBase@V?$CwiseBinaryOp@U?$scalar_sum_op@NN@internal@Eigen@@$$CBV?$CwiseBinaryOp@U?$scalar_sum_op@NN@internal@Eigen@@$$CBV?$CwiseBinaryOp@U?$scalar_sum_op@NN@internal@Eigen@@$$CBV?$Matrix@N$03$00$0A@$03$00@3@$$CBV43@@3@$$CBV?$Matrix@N$03$00$0A@$03$00@3@@3@$$CBV?$Matrix@N$03$00$0A@$03$00@3@@Eigen@@@1@@Z
	??$_set_noalias@V?$CwiseBinaryOp@U?$scalar_sum_op@NN@internal@Eigen@@$$CBV?$CwiseBinaryOp@U?$scalar_sum_op@NN@internal@Eigen@@$$CBV?$Matrix@N$03$00$0A@$03$00@3@$$CBV43@@3@$$CBV?$Matrix@N$03$00$0A@$03$00@3@@Eigen@@@?$PlainObjectBase@V?$Matrix@N$03$00$0A@$03$00@Eigen@@@Eigen@@IEAAAEAV?$Matrix@N$03$00$0A@$03$00@1@AEBV?$DenseBase@V?$CwiseBinaryOp@U?$scalar_sum_op@NN@internal@Eigen@@$$CBV?$CwiseBinaryOp@U?$scalar_sum_op@NN@internal@Eigen@@$$CBV?$Matrix@N$03$00$0A@$03$00@3@$$CBV43@@3@$$CBV?$Matrix@N$03$00$0A@$03$00@3@@Eigen@@@1@@Z
	??$_set_noalias@V?$CwiseBinaryOp@U?$scalar_sum_op@NN@internal@Eigen@@$$CBV?$Matrix@N$03$00$0A@$03$00@3@$$CBV43@@Eigen@@@?$PlainObjectBase@V?$Matrix@N$03$00$0A@$03$00@Eigen@@@Eigen@@IEAAAEAV?$Matrix@N$03$00$0A@$03$00@1@AEBV?$DenseBase@V?$CwiseBinaryOp@U?$scalar_sum_op@NN@internal@Eigen@@$$CBV?$Matrix@N$03$00$0A@$03$00@3@$$CBV43@@Eigen@@@1@@Z
	??$_set_noalias@V?$CwiseNullaryOp@U?$scalar_zero_op@N@internal@Eigen@@V?$Matrix@N$02$03$0A@$02$03@3@@Eigen@@@?$PlainObjectBase@V?$Matrix@N$02$03$0A@$02$03@Eigen@@@Eigen@@IEAAAEAV?$Matrix@N$02$03$0A@$02$03@1@AEBV?$DenseBase@V?$CwiseNullaryOp@U?$scalar_zero_op@N@internal@Eigen@@V?$Matrix@N$02$03$0A@$02$03@3@@Eigen@@@1@@Z
	??$_set_noalias@V?$CwiseNullaryOp@U?$scalar_zero_op@N@internal@Eigen@@V?$Matrix@N$03$00$0A@$03$00@3@@Eigen@@@?$PlainObjectBase@V?$Matrix@N$03$00$0A@$03$00@Eigen@@@Eigen@@IEAAAEAV?$Matrix@N$03$00$0A@$03$00@1@AEBV?$DenseBase@V?$CwiseNullaryOp@U?$scalar_zero_op@N@internal@Eigen@@V?$Matrix@N$03$00$0A@$03$00@3@@Eigen@@@1@@Z
	??$_set_noalias@V?$CwiseUnaryOp@U?$scalar_opposite_op@N@internal@Eigen@@$$CBV?$Matrix@N$02$00$0A@$02$00@3@@Eigen@@@?$PlainObjectBase@V?$Matrix@N$02$00$0A@$02$00@Eigen@@@Eigen@@IEAAAEAV?$Matrix@N$02$00$0A@$02$00@1@AEBV?$DenseBase@V?$CwiseUnaryOp@U?$scalar_opposite_op@N@internal@Eigen@@$$CBV?$Matrix@N$02$00$0A@$02$00@3@@Eigen@@@1@@Z
	??$_set_noalias@V?$Inverse@V?$CwiseNullaryOp@U?$scalar_identity_op@N@internal@Eigen@@V?$Matrix@N$02$02$0A@$02$02@3@@Eigen@@@Eigen@@@?$PlainObjectBase@V?$Matrix@N$02$02$0A@$02$02@Eigen@@@Eigen@@IEAAAEAV?$Matrix@N$02$02$0A@$02$02@1@AEBV?$DenseBase@V?$Inverse@V?$CwiseNullaryOp@U?$scalar_identity_op@N@internal@Eigen@@V?$Matrix@N$02$02$0A@$02$02@3@@Eigen@@@Eigen@@@1@@Z
	??$_set_noalias@V?$Map@$$CBV?$Matrix@N$03$02$0A@$03$02@Eigen@@$0A@V?$Stride@$0A@$0A@@2@@Eigen@@@?$PlainObjectBase@V?$Matrix@N$03$02$0A@$03$02@Eigen@@@Eigen@@IEAAAEAV?$Matrix@N$03$02$0A@$03$02@1@AEBV?$DenseBase@V?$Map@$$CBV?$Matrix@N$03$02$0A@$03$02@Eigen@@$0A@V?$Stride@$0A@$0A@@2@@Eigen@@@1@@Z
	??$_set_noalias@V?$Matrix@N$02$03$0A@$02$03@Eigen@@@?$PlainObjectBase@V?$Matrix@N$0?0$0?0$0A@$0?0$0?0@Eigen@@@Eigen@@IEAAAEAV?$Matrix@N$0?0$0?0$0A@$0?0$0?0@1@AEBV?$DenseBase@V?$Matrix@N$02$03$0A@$02$03@Eigen@@@1@@Z
	??$_set_noalias@V?$Matrix@N$0?0$00$0A@$0?0$00@Eigen@@@?$PlainObjectBase@V?$Matrix@N$03$00$0A@$03$00@Eigen@@@Eigen@@IEAAAEAV?$Matrix@N$03$00$0A@$03$00@1@AEBV?$DenseBase@V?$Matrix@N$0?0$00$0A@$0?0$00@Eigen@@@1@@Z
	??$_set_noalias@V?$Matrix@N$0?0$0?0$0A@$0?0$0?0@Eigen@@@?$PlainObjectBase@V?$Matrix@N$03$02$0A@$03$02@Eigen@@@Eigen@@IEAAAEAV?$Matrix@N$03$02$0A@$03$02@1@AEBV?$DenseBase@V?$Matrix@N$0?0$0?0$0A@$0?0$0?0@Eigen@@@1@@Z
	??$_set_noalias@V?$Product@V?$CwiseNullaryOp@U?$scalar_identity_op@N@internal@Eigen@@V?$Matrix@N$02$02$0A@$02$02@3@@Eigen@@V?$Matrix@N$02$00$0A@$02$00@2@$0A@@Eigen@@@?$PlainObjectBase@V?$Matrix@N$02$00$0A@$02$00@Eigen@@@Eigen@@IEAAAEAV?$Matrix@N$02$00$0A@$02$00@1@AEBV?$DenseBase@V?$Product@V?$CwiseNullaryOp@U?$scalar_identity_op@N@internal@Eigen@@V?$Matrix@N$02$02$0A@$02$02@3@@Eigen@@V?$Matrix@N$02$00$0A@$02$00@2@$0A@@Eigen@@@1@@Z
	??$_set_noalias@V?$Product@V?$CwiseNullaryOp@U?$scalar_identity_op@N@internal@Eigen@@V?$Matrix@N$03$03$0A@$03$03@3@@Eigen@@V?$Matrix@N$03$00$0A@$03$00@2@$0A@@Eigen@@@?$PlainObjectBase@V?$Matrix@N$03$00$0A@$03$00@Eigen@@@Eigen@@IEAAAEAV?$Matrix@N$03$00$0A@$03$00@1@AEBV?$DenseBase@V?$Product@V?$CwiseNullaryOp@U?$scalar_identity_op@N@internal@Eigen@@V?$Matrix@N$03$03$0A@$03$03@3@@Eigen@@V?$Matrix@N$03$00$0A@$03$00@2@$0A@@Eigen@@@1@@Z
	??$_set_noalias@V?$Product@V?$Inverse@V?$CwiseNullaryOp@U?$scalar_identity_op@N@internal@Eigen@@V?$Matrix@N$02$02$0A@$02$02@3@@Eigen@@@Eigen@@V?$Matrix@N$02$03$0A@$02$03@2@$0A@@Eigen@@@?$PlainObjectBase@V?$Matrix@N$02$03$0A@$02$03@Eigen@@@Eigen@@IEAAAEAV?$Matrix@N$02$03$0A@$02$03@1@AEBV?$DenseBase@V?$Product@V?$Inverse@V?$CwiseNullaryOp@U?$scalar_identity_op@N@internal@Eigen@@V?$Matrix@N$02$02$0A@$02$02@3@@Eigen@@@Eigen@@V?$Matrix@N$02$03$0A@$02$03@2@$0A@@Eigen@@@1@@Z
	??$_set_noalias@V?$Product@V?$Matrix@N$02$02$0A@$02$02@Eigen@@V12@$0A@@Eigen@@@?$PlainObjectBase@V?$Matrix@N$02$02$0A@$02$02@Eigen@@@Eigen@@IEAAAEAV?$Matrix@N$02$02$0A@$02$02@1@AEBV?$DenseBase@V?$Product@V?$Matrix@N$02$02$0A@$02$02@Eigen@@V12@$0A@@Eigen@@@1@@Z
	??$_set_noalias@V?$Product@V?$Matrix@N$02$02$0A@$02$02@Eigen@@V?$Matrix@N$02$00$0A@$02$00@2@$0A@@Eigen@@@?$PlainObjectBase@V?$Matrix@N$02$00$0A@$02$00@Eigen@@@Eigen@@IEAAAEAV?$Matrix@N$02$00$0A@$02$00@1@AEBV?$DenseBase@V?$Product@V?$Matrix@N$02$02$0A@$02$02@Eigen@@V?$Matrix@N$02$00$0A@$02$00@2@$0A@@Eigen@@@1@@Z
	??$_set_noalias@V?$Product@V?$Matrix@N$02$02$0A@$02$02@Eigen@@V?$Matrix@N$02$03$0A@$02$03@2@$0A@@Eigen@@@?$PlainObjectBase@V?$Matrix@N$02$03$0A@$02$03@Eigen@@@Eigen@@IEAAAEAV?$Matrix@N$02$03$0A@$02$03@1@AEBV?$DenseBase@V?$Product@V?$Matrix@N$02$02$0A@$02$02@Eigen@@V?$Matrix@N$02$03$0A@$02$03@2@$0A@@Eigen@@@1@@Z
	??$_set_noalias@V?$Product@V?$Matrix@N$02$03$0A@$02$03@Eigen@@V?$Matrix@N$03$00$0A@$03$00@2@$0A@@Eigen@@@?$PlainObjectBase@V?$Matrix@N$02$00$0A@$02$00@Eigen@@@Eigen@@IEAAAEAV?$Matrix@N$02$00$0A@$02$00@1@AEBV?$DenseBase@V?$Product@V?$Matrix@N$02$03$0A@$02$03@Eigen@@V?$Matrix@N$03$00$0A@$03$00@2@$0A@@Eigen@@@1@@Z
	??$_set_noalias@V?$Product@V?$Matrix@N$03$03$0A@$03$03@Eigen@@V12@$0A@@Eigen@@@?$PlainObjectBase@V?$Matrix@N$03$03$0A@$03$03@Eigen@@@Eigen@@IEAAAEAV?$Matrix@N$03$03$0A@$03$03@1@AEBV?$DenseBase@V?$Product@V?$Matrix@N$03$03$0A@$03$03@Eigen@@V12@$0A@@Eigen@@@1@@Z
	??$_set_noalias@V?$Product@V?$Matrix@N$03$03$0A@$03$03@Eigen@@V?$Matrix@N$03$00$0A@$03$00@2@$0A@@Eigen@@@?$PlainObjectBase@V?$Matrix@N$03$00$0A@$03$00@Eigen@@@Eigen@@IEAAAEAV?$Matrix@N$03$00$0A@$03$00@1@AEBV?$DenseBase@V?$Product@V?$Matrix@N$03$03$0A@$03$03@Eigen@@V?$Matrix@N$03$00$0A@$03$00@2@$0A@@Eigen@@@1@@Z
	??$_set_noalias@V?$Product@V?$Matrix@N$0?0$0?0$0A@$0?0$0?0@Eigen@@V12@$0A@@Eigen@@@?$PlainObjectBase@V?$Matrix@N$0?0$0?0$0A@$0?0$0?0@Eigen@@@Eigen@@IEAAAEAV?$Matrix@N$0?0$0?0$0A@$0?0$0?0@1@AEBV?$DenseBase@V?$Product@V?$Matrix@N$0?0$0?0$0A@$0?0$0?0@Eigen@@V12@$0A@@Eigen@@@1@@Z
	??$_set_noalias@V?$Product@V?$Matrix@N$0?0$0?0$0A@$0?0$0?0@Eigen@@V?$DiagonalWrapper@$$CBV?$Matrix@N$0?0$00$0A@$0?0$00@Eigen@@@2@$00@Eigen@@@?$PlainObjectBase@V?$Matrix@N$0?0$0?0$0A@$0?0$0?0@Eigen@@@Eigen@@IEAAAEAV?$Matrix@N$0?0$0?0$0A@$0?0$0?0@1@AEBV?$DenseBase@V?$Product@V?$Matrix@N$0?0$0?0$0A@$0?0$0?0@Eigen@@V?$DiagonalWrapper@$$CBV?$Matrix@N$0?0$00$0A@$0?0$00@Eigen@@@2@$00@Eigen@@@1@@Z
	??$_set_noalias@V?$Product@V?$PermutationMatrix@$02$02H@Eigen@@V?$Block@$$CBV?$Matrix@N$02$03$0A@$02$03@Eigen@@$02$00$0A@@2@$0A@@Eigen@@@?$PlainObjectBase@V?$Matrix@N$02$00$0A@$02$00@Eigen@@@Eigen@@IEAAAEAV?$Matrix@N$02$00$0A@$02$00@1@AEBV?$DenseBase@V?$Product@V?$PermutationMatrix@$02$02H@Eigen@@V?$Block@$$CBV?$Matrix@N$02$03$0A@$02$03@Eigen@@$02$00$0A@@2@$0A@@Eigen@@@1@@Z
	??$_set_noalias@V?$Product@V?$Product@V?$Inverse@V?$CwiseNullaryOp@U?$scalar_identity_op@N@internal@Eigen@@V?$Matrix@N$02$02$0A@$02$02@3@@Eigen@@@Eigen@@V?$Matrix@N$02$03$0A@$02$03@2@$0A@@Eigen@@V?$CwiseNullaryOp@U?$scalar_identity_op@N@internal@Eigen@@V?$Matrix@N$03$03$0A@$03$03@3@@2@$0A@@Eigen@@@?$PlainObjectBase@V?$Matrix@N$02$03$0A@$02$03@Eigen@@@Eigen@@IEAAAEAV?$Matrix@N$02$03$0A@$02$03@1@AEBV?$DenseBase@V?$Product@V?$Product@V?$Inverse@V?$CwiseNullaryOp@U?$scalar_identity_op@N@internal@Eigen@@V?$Matrix@N$02$02$0A@$02$02@3@@Eigen@@@Eigen@@V?$Matrix@N$02$03$0A@$02$03@2@$0A@@Eigen@@V?$CwiseNullaryOp@U?$scalar_identity_op@N@internal@Eigen@@V?$Matrix@N$03$03$0A@$03$03@3@@2@$0A@@Eigen@@@1@@Z
	??$_set_noalias@V?$Product@V?$Product@V?$Matrix@N$02$02$0A@$02$02@Eigen@@V?$Matrix@N$02$03$0A@$02$03@2@$0A@@Eigen@@V?$Matrix@N$03$02$0A@$03$02@2@$0A@@Eigen@@@?$PlainObjectBase@V?$Matrix@N$02$02$0A@$02$02@Eigen@@@Eigen@@IEAAAEAV?$Matrix@N$02$02$0A@$02$02@1@AEBV?$DenseBase@V?$Product@V?$Product@V?$Matrix@N$02$02$0A@$02$02@Eigen@@V?$Matrix@N$02$03$0A@$02$03@2@$0A@@Eigen@@V?$Matrix@N$03$02$0A@$03$02@2@$0A@@Eigen@@@1@@Z
	??$_set_noalias@V?$Product@V?$Product@V?$Matrix@N$0?0$0?0$0A@$0?0$0?0@Eigen@@V12@$0A@@Eigen@@V?$Transpose@$$CBV?$Matrix@N$0?0$0?0$0A@$0?0$0?0@Eigen@@@2@$0A@@Eigen@@@?$PlainObjectBase@V?$Matrix@N$0?0$0?0$00$0?0$0?0@Eigen@@@Eigen@@IEAAAEAV?$Matrix@N$0?0$0?0$00$0?0$0?0@1@AEBV?$DenseBase@V?$Product@V?$Product@V?$Matrix@N$0?0$0?0$0A@$0?0$0?0@Eigen@@V12@$0A@@Eigen@@V?$Transpose@$$CBV?$Matrix@N$0?0$0?0$0A@$0?0$0?0@Eigen@@@2@$0A@@Eigen@@@1@@Z
	??$_set_noalias@V?$Product@V?$Product@V?$Matrix@N$0?0$0?0$0A@$0?0$0?0@Eigen@@V12@$0A@@Eigen@@V?$Transpose@$$CBV?$Matrix@N$0?0$0?0$0A@$0?0$0?0@Eigen@@@2@$0A@@Eigen@@@?$PlainObjectBase@V?$Matrix@N$0?0$0?0$0A@$0?0$0?0@Eigen@@@Eigen@@IEAAAEAV?$Matrix@N$0?0$0?0$0A@$0?0$0?0@1@AEBV?$DenseBase@V?$Product@V?$Product@V?$Matrix@N$0?0$0?0$0A@$0?0$0?0@Eigen@@V12@$0A@@Eigen@@V?$Transpose@$$CBV?$Matrix@N$0?0$0?0$0A@$0?0$0?0@Eigen@@@2@$0A@@Eigen@@@1@@Z
	??$_set_noalias@V?$Product@V?$Product@V?$Matrix@N$0?0$0?0$0A@$0?0$0?0@Eigen@@V?$DiagonalWrapper@$$CBV?$Matrix@N$0?0$00$0A@$0?0$00@Eigen@@@2@$00@Eigen@@V?$Transpose@$$CBV?$Matrix@N$0?0$0?0$0A@$0?0$0?0@Eigen@@@2@$0A@@Eigen@@@?$PlainObjectBase@V?$Matrix@N$0?0$0?0$0A@$0?0$0?0@Eigen@@@Eigen@@IEAAAEAV?$Matrix@N$0?0$0?0$0A@$0?0$0?0@1@AEBV?$DenseBase@V?$Product@V?$Product@V?$Matrix@N$0?0$0?0$0A@$0?0$0?0@Eigen@@V?$DiagonalWrapper@$$CBV?$Matrix@N$0?0$00$0A@$0?0$00@Eigen@@@2@$00@Eigen@@V?$Transpose@$$CBV?$Matrix@N$0?0$0?0$0A@$0?0$0?0@Eigen@@@2@$0A@@Eigen@@@1@@Z
	??$_set_noalias@V?$Product@V?$Transpose@$$CBV?$Matrix@N$02$02$0A@$02$02@Eigen@@@Eigen@@V12@$0A@@Eigen@@@?$PlainObjectBase@V?$Matrix@N$02$02$0A@$02$02@Eigen@@@Eigen@@IEAAAEAV?$Matrix@N$02$02$0A@$02$02@1@AEBV?$DenseBase@V?$Product@V?$Transpose@$$CBV?$Matrix@N$02$02$0A@$02$02@Eigen@@@Eigen@@V12@$0A@@Eigen@@@1@@Z
	??$_set_noalias@V?$Product@V?$TriangularView@$$CBV?$Transpose@$$CBV?$Block@V?$Matrix@N$02$02$0A@$02$02@Eigen@@$0?0$0?0$0A@@Eigen@@@Eigen@@$05@Eigen@@V?$Block@V?$Matrix@N$02$02$0A@$02$02@Eigen@@$0?0$02$0A@@2@$0A@@Eigen@@@?$PlainObjectBase@V?$Matrix@N$0?0$02$0A@$02$02@Eigen@@@Eigen@@IEAAAEAV?$Matrix@N$0?0$02$0A@$02$02@1@AEBV?$DenseBase@V?$Product@V?$TriangularView@$$CBV?$Transpose@$$CBV?$Block@V?$Matrix@N$02$02$0A@$02$02@Eigen@@$0?0$0?0$0A@@Eigen@@@Eigen@@$05@Eigen@@V?$Block@V?$Matrix@N$02$02$0A@$02$02@Eigen@@$0?0$02$0A@@2@$0A@@Eigen@@@1@@Z
	??$_set_noalias@V?$Product@V?$TriangularView@$$CBV?$Transpose@$$CBV?$Block@V?$Matrix@N$02$02$0A@$02$02@Eigen@@$0?0$0?0$0A@@Eigen@@@Eigen@@$05@Eigen@@V?$Block@V?$Matrix@N$02$02$0A@$02$02@Eigen@@$0?0$0?0$0A@@2@$0A@@Eigen@@@?$PlainObjectBase@V?$Matrix@N$0?0$0?0$0A@$02$02@Eigen@@@Eigen@@IEAAAEAV?$Matrix@N$0?0$0?0$0A@$02$02@1@AEBV?$DenseBase@V?$Product@V?$TriangularView@$$CBV?$Transpose@$$CBV?$Block@V?$Matrix@N$02$02$0A@$02$02@Eigen@@$0?0$0?0$0A@@Eigen@@@Eigen@@$05@Eigen@@V?$Block@V?$Matrix@N$02$02$0A@$02$02@Eigen@@$0?0$0?0$0A@@2@$0A@@Eigen@@@1@@Z
	??$_set_noalias@V?$Product@V?$TriangularView@$$CBV?$Transpose@$$CBV?$Block@V?$Matrix@N$0?0$0?0$0A@$0?0$0?0@Eigen@@$0?0$0?0$0A@@Eigen@@@Eigen@@$05@Eigen@@V?$Block@V?$Matrix@N$0?0$0?0$0A@$0?0$0?0@Eigen@@$0?0$0?0$0A@@2@$0A@@Eigen@@@?$PlainObjectBase@V?$Matrix@N$0?0$0?0$0A@$0?0$0?0@Eigen@@@Eigen@@IEAAAEAV?$Matrix@N$0?0$0?0$0A@$0?0$0?0@1@AEBV?$DenseBase@V?$Product@V?$TriangularView@$$CBV?$Transpose@$$CBV?$Block@V?$Matrix@N$0?0$0?0$0A@$0?0$0?0@Eigen@@$0?0$0?0$0A@@Eigen@@@Eigen@@$05@Eigen@@V?$Block@V?$Matrix@N$0?0$0?0$0A@$0?0$0?0@Eigen@@$0?0$0?0$0A@@2@$0A@@Eigen@@@1@@Z
	??$_set_noalias@V?$Product@V?$TriangularView@$$CBV?$Transpose@$$CBV?$Matrix@N$0?0$0?0$00$0?0$0?0@Eigen@@@Eigen@@$00@Eigen@@V?$Matrix@N$0?0$02$0A@$02$02@2@$0A@@Eigen@@@?$PlainObjectBase@V?$Matrix@N$0?0$02$0A@$0?0$02@Eigen@@@Eigen@@IEAAAEAV?$Matrix@N$0?0$02$0A@$0?0$02@1@AEBV?$DenseBase@V?$Product@V?$TriangularView@$$CBV?$Transpose@$$CBV?$Matrix@N$0?0$0?0$00$0?0$0?0@Eigen@@@Eigen@@$00@Eigen@@V?$Matrix@N$0?0$02$0A@$02$02@2@$0A@@Eigen@@@1@@Z
	??$_set_noalias@V?$Product@V?$TriangularView@$$CBV?$Transpose@$$CBV?$Matrix@N$0?0$0?0$00$0?0$0?0@Eigen@@@Eigen@@$00@Eigen@@V?$Matrix@N$0?0$0?0$0A@$02$02@2@$0A@@Eigen@@@?$PlainObjectBase@V?$Matrix@N$0?0$0?0$0A@$0?0$02@Eigen@@@Eigen@@IEAAAEAV?$Matrix@N$0?0$0?0$0A@$0?0$02@1@AEBV?$DenseBase@V?$Product@V?$TriangularView@$$CBV?$Transpose@$$CBV?$Matrix@N$0?0$0?0$00$0?0$0?0@Eigen@@@Eigen@@$00@Eigen@@V?$Matrix@N$0?0$0?0$0A@$02$02@2@$0A@@Eigen@@@1@@Z
	??$_set_noalias@V?$Product@V?$TriangularView@$$CBV?$Transpose@$$CBV?$Matrix@N$0?0$0?0$00$0?0$0?0@Eigen@@@Eigen@@$00@Eigen@@V?$Matrix@N$0?0$0?0$0A@$0?0$0?0@2@$0A@@Eigen@@@?$PlainObjectBase@V?$Matrix@N$0?0$0?0$0A@$0?0$0?0@Eigen@@@Eigen@@IEAAAEAV?$Matrix@N$0?0$0?0$0A@$0?0$0?0@1@AEBV?$DenseBase@V?$Product@V?$TriangularView@$$CBV?$Transpose@$$CBV?$Matrix@N$0?0$0?0$00$0?0$0?0@Eigen@@@Eigen@@$00@Eigen@@V?$Matrix@N$0?0$0?0$0A@$0?0$0?0@2@$0A@@Eigen@@@1@@Z
	??$_set_noalias@V?$Product@V?$TriangularView@V?$Matrix@N$0?0$0?0$00$0?0$0?0@Eigen@@$01@Eigen@@V?$Matrix@N$0?0$02$0A@$02$02@2@$0A@@Eigen@@@?$PlainObjectBase@V?$Matrix@N$0?0$02$0A@$0?0$02@Eigen@@@Eigen@@IEAAAEAV?$Matrix@N$0?0$02$0A@$0?0$02@1@AEBV?$DenseBase@V?$Product@V?$TriangularView@V?$Matrix@N$0?0$0?0$00$0?0$0?0@Eigen@@$01@Eigen@@V?$Matrix@N$0?0$02$0A@$02$02@2@$0A@@Eigen@@@1@@Z
	??$_set_noalias@V?$Product@V?$TriangularView@V?$Matrix@N$0?0$0?0$00$0?0$0?0@Eigen@@$01@Eigen@@V?$Matrix@N$0?0$0?0$0A@$02$02@2@$0A@@Eigen@@@?$PlainObjectBase@V?$Matrix@N$0?0$0?0$0A@$0?0$02@Eigen@@@Eigen@@IEAAAEAV?$Matrix@N$0?0$0?0$0A@$0?0$02@1@AEBV?$DenseBase@V?$Product@V?$TriangularView@V?$Matrix@N$0?0$0?0$00$0?0$0?0@Eigen@@$01@Eigen@@V?$Matrix@N$0?0$0?0$0A@$02$02@2@$0A@@Eigen@@@1@@Z
	??$_set_noalias@V?$Product@V?$TriangularView@V?$Matrix@N$0?0$0?0$00$0?0$0?0@Eigen@@$01@Eigen@@V?$Matrix@N$0?0$0?0$0A@$0?0$0?0@2@$0A@@Eigen@@@?$PlainObjectBase@V?$Matrix@N$0?0$0?0$0A@$0?0$0?0@Eigen@@@Eigen@@IEAAAEAV?$Matrix@N$0?0$0?0$0A@$0?0$0?0@1@AEBV?$DenseBase@V?$Product@V?$TriangularView@V?$Matrix@N$0?0$0?0$00$0?0$0?0@Eigen@@$01@Eigen@@V?$Matrix@N$0?0$0?0$0A@$0?0$0?0@2@$0A@@Eigen@@@1@@Z
	??$_set_noalias@V?$Transpose@$$CBV?$Block@$$CBV?$Product@V?$Matrix@N$0?0$0?0$0A@$0?0$0?0@Eigen@@V?$DiagonalWrapper@$$CBV?$Matrix@N$0?0$00$0A@$0?0$00@Eigen@@@2@$00@Eigen@@$00$0?0$0A@@Eigen@@@Eigen@@@?$PlainObjectBase@V?$Matrix@N$0?0$00$0A@$0?0$00@Eigen@@@Eigen@@IEAAAEAV?$Matrix@N$0?0$00$0A@$0?0$00@1@AEBV?$DenseBase@V?$Transpose@$$CBV?$Block@$$CBV?$Product@V?$Matrix@N$0?0$0?0$0A@$0?0$0?0@Eigen@@V?$DiagonalWrapper@$$CBV?$Matrix@N$0?0$00$0A@$0?0$00@Eigen@@@2@$00@Eigen@@$00$0?0$0A@@Eigen@@@Eigen@@@1@@Z
	??$_set_noalias@V?$Transpose@$$CBV?$Matrix@N$0?0$0?0$0A@$0?0$0?0@Eigen@@@Eigen@@@?$PlainObjectBase@V?$Matrix@N$0?0$0?0$0A@$0?0$0?0@Eigen@@@Eigen@@IEAAAEAV?$Matrix@N$0?0$0?0$0A@$0?0$0?0@1@AEBV?$DenseBase@V?$Transpose@$$CBV?$Matrix@N$0?0$0?0$0A@$0?0$0?0@Eigen@@@Eigen@@@1@@Z
	??$_set_noalias@V?$Transpose@V?$Matrix@N$03$02$0A@$03$02@Eigen@@@Eigen@@@?$PlainObjectBase@V?$Matrix@N$02$03$0A@$02$03@Eigen@@@Eigen@@IEAAAEAV?$Matrix@N$02$03$0A@$02$03@1@AEBV?$DenseBase@V?$Transpose@V?$Matrix@N$03$02$0A@$03$02@Eigen@@@Eigen@@@1@@Z
	??$_solve_impl@V?$Block@$$CBV?$Matrix@N$02$03$0A@$02$03@Eigen@@$02$00$0A@@Eigen@@V?$Matrix@N$02$00$0A@$02$00@2@@?$PartialPivLU@V?$Matrix@N$02$02$0A@$02$02@Eigen@@H@Eigen@@QEBAXAEBV?$Block@$$CBV?$Matrix@N$02$03$0A@$02$03@Eigen@@$02$00$0A@@1@AEAV?$Matrix@N$02$00$0A@$02$00@1@@Z
	??$abs2@N@numext@Eigen@@YANAEBN@Z
	??$abs@N@numext@Eigen@@YANAEBN@Z
	??$add_to_nullable_pointer@$$CBN@?$BlockImpl_dense@$$CBV?$Block@$$CBV?$Block@V?$Matrix@N$02$02$0A@$02$02@Eigen@@$0?0$0?0$0A@@Eigen@@$0?0$00$00@Eigen@@$0?0$00$0A@$00@internal@Eigen@@CAPEBNPEBN_J@Z
	??$add_to_nullable_pointer@$$CBN@?$BlockImpl_dense@$$CBV?$Block@$$CBV?$Block@V?$Matrix@N$0?0$0?0$0A@$0?0$0?0@Eigen@@$0?0$0?0$0A@@Eigen@@$0?0$00$00@Eigen@@$0?0$00$0A@$00@internal@Eigen@@CAPEBNPEBN_J@Z
	??$add_to_nullable_pointer@$$CBN@?$BlockImpl_dense@$$CBV?$Block@$$CBV?$Map@$$CBV?$Matrix@N$0?0$0?0$00$0?0$0?0@Eigen@@$0A@V?$OuterStride@$0?0@2@@Eigen@@$00$0?0$00@Eigen@@$00$0?0$0A@$00@internal@Eigen@@CAPEBNPEBN_J@Z
	??$add_to_nullable_pointer@$$CBN@?$BlockImpl_dense@$$CBV?$Block@$$CBV?$Matrix@N$02$02$0A@$02$02@Eigen@@$00$02$0A@@Eigen@@$00$00$0A@$00@internal@Eigen@@CAPEBNPEBN_J@Z
	??$add_to_nullable_pointer@$$CBN@?$BlockImpl_dense@$$CBV?$Block@$$CBV?$Matrix@N$02$02$0A@$02$02@Eigen@@$00$02$0A@@Eigen@@$00$01$0A@$00@internal@Eigen@@CAPEBNPEBN_J@Z
	??$add_to_nullable_pointer@$$CBN@?$BlockImpl_dense@$$CBV?$Block@$$CBV?$Matrix@N$02$02$0A@$02$02@Eigen@@$00$02$0A@@Eigen@@$00$0A@$0A@$00@internal@Eigen@@CAPEBNPEBN_J@Z
	??$add_to_nullable_pointer@$$CBN@?$BlockImpl_dense@$$CBV?$Block@$$CBV?$Matrix@N$02$02$0A@$02$02@Eigen@@$0?0$00$0A@@Eigen@@$0?0$00$00$00@internal@Eigen@@CAPEBNPEBN_J@Z
	??$add_to_nullable_pointer@$$CBN@?$BlockImpl_dense@$$CBV?$Block@$$CBV?$Matrix@N$02$03$0A@$02$03@Eigen@@$02$00$0A@@Eigen@@$00$00$0A@$00@internal@Eigen@@CAPEBNPEBN_J@Z
	??$add_to_nullable_pointer@$$CBN@?$BlockImpl_dense@$$CBV?$Block@$$CBV?$Matrix@N$02$03$0A@$02$03@Eigen@@$02$02$0A@@Eigen@@$00$02$0A@$00@internal@Eigen@@CAPEBNPEBN_J@Z
	??$add_to_nullable_pointer@$$CBN@?$BlockImpl_dense@$$CBV?$Block@$$CBV?$Matrix@N$0?0$0?0$0A@$0?0$0?0@Eigen@@$00$0?0$0A@@Eigen@@$00$0?0$00$00@internal@Eigen@@CAPEBNPEBN_J@Z
	??$add_to_nullable_pointer@$$CBN@?$BlockImpl_dense@$$CBV?$Block@$$CBV?$Matrix@N$0?0$0?0$0A@$0?0$0?0@Eigen@@$0?0$00$00@Eigen@@$0?0$00$00$00@internal@Eigen@@CAPEBNPEBN_J@Z
	??$add_to_nullable_pointer@$$CBN@?$BlockImpl_dense@$$CBV?$Block@$$CBV?$Matrix@N$0?0$0?0$0A@$0?0$0?0@Eigen@@$0?0$00$0A@@Eigen@@$0?0$00$00$00@internal@Eigen@@CAPEBNPEBN_J@Z
	??$add_to_nullable_pointer@$$CBN@?$BlockImpl_dense@$$CBV?$Block@$$CBV?$Ref@V?$Matrix@N$0?0$0?0$0A@$0?0$0?0@Eigen@@$0A@V?$OuterStride@$0?0@2@@Eigen@@$00$0?0$0A@@Eigen@@$00$0?0$00$00@internal@Eigen@@CAPEBNPEBN_J@Z
	??$add_to_nullable_pointer@$$CBN@?$BlockImpl_dense@$$CBV?$Block@$$CBV?$Ref@V?$Matrix@N$0?0$0?0$0A@$0?0$0?0@Eigen@@$0A@V?$OuterStride@$0?0@2@@Eigen@@$0?0$00$00@Eigen@@$0?0$00$00$00@internal@Eigen@@CAPEBNPEBN_J@Z
	??$add_to_nullable_pointer@$$CBN@?$BlockImpl_dense@$$CBV?$Block@$$CBV?$Transpose@$$CBV?$Matrix@N$0?0$0?0$0A@$0?0$0?0@Eigen@@@Eigen@@$0?0$00$0A@@Eigen@@$0?0$00$00$00@internal@Eigen@@CAPEBNPEBN_J@Z
	??$add_to_nullable_pointer@$$CBN@?$BlockImpl_dense@$$CBV?$Block@V?$Block@V?$Block@V?$Matrix@N$02$02$0A@$02$02@Eigen@@$0?0$0?0$0A@@Eigen@@$0?0$00$00@Eigen@@$0?0$00$0A@@Eigen@@$0?0$00$0A@$00@internal@Eigen@@CAPEBNPEBN_J@Z
	??$add_to_nullable_pointer@$$CBN@?$BlockImpl_dense@$$CBV?$Block@V?$Block@V?$Block@V?$Matrix@N$02$02$0A@$02$02@Eigen@@$0?0$0?0$0A@@Eigen@@$0?0$0?0$0A@@Eigen@@$0?0$0?0$0A@@Eigen@@$0?0$00$00$00@internal@Eigen@@CAPEBNPEBN_J@Z
	??$add_to_nullable_pointer@$$CBN@?$BlockImpl_dense@$$CBV?$Block@V?$Block@V?$Matrix@N$02$02$0A@$02$02@Eigen@@$0?0$02$0A@@Eigen@@$0?0$02$0A@@Eigen@@$0?0$00$00$00@internal@Eigen@@CAPEBNPEBN_J@Z
	??$add_to_nullable_pointer@$$CBN@?$BlockImpl_dense@$$CBV?$Block@V?$Block@V?$Matrix@N$02$02$0A@$02$02@Eigen@@$0?0$0?0$0A@@Eigen@@$0?0$0?0$0A@@Eigen@@$00$0?0$0A@$00@internal@Eigen@@CAPEBNPEBN_J@Z
	??$add_to_nullable_pointer@$$CBN@?$BlockImpl_dense@$$CBV?$Block@V?$Block@V?$Matrix@N$02$02$0A@$02$02@Eigen@@$0?0$0?0$0A@@Eigen@@$0?0$0?0$0A@@Eigen@@$0?0$00$00$00@internal@Eigen@@CAPEBNPEBN_J@Z
	??$add_to_nullable_pointer@$$CBN@?$BlockImpl_dense@$$CBV?$Block@V?$Block@V?$Matrix@N$0?0$0?0$0A@$0?0$0?0@Eigen@@$0?0$00$00@Eigen@@$0?0$00$0A@@Eigen@@$0?0$00$0A@$00@internal@Eigen@@CAPEBNPEBN_J@Z
	??$add_to_nullable_pointer@$$CBN@?$BlockImpl_dense@$$CBV?$Block@V?$Block@V?$Matrix@N$0?0$0?0$0A@$0?0$0?0@Eigen@@$0?0$0?0$0A@@Eigen@@$0?0$0?0$0A@@Eigen@@$00$0?0$0A@$00@internal@Eigen@@CAPEBNPEBN_J@Z
	??$add_to_nullable_pointer@$$CBN@?$BlockImpl_dense@$$CBV?$Block@V?$Block@V?$Matrix@N$0?0$0?0$0A@$0?0$0?0@Eigen@@$0?0$0?0$0A@@Eigen@@$0?0$0?0$0A@@Eigen@@$0?0$00$00$00@internal@Eigen@@CAPEBNPEBN_J@Z
	??$add_to_nullable_pointer@$$CBN@?$BlockImpl_dense@$$CBV?$Block@V?$Block@V?$Ref@V?$Matrix@N$02$02$0A@$02$02@Eigen@@$0A@V?$OuterStride@$0?0@2@@Eigen@@$00$02$0A@@Eigen@@$00$0?0$0A@@Eigen@@$00$00$0A@$00@internal@Eigen@@CAPEBNPEBN_J@Z
	??$add_to_nullable_pointer@$$CBN@?$BlockImpl_dense@$$CBV?$Block@V?$Block@V?$Ref@V?$Matrix@N$02$02$0A@$02$02@Eigen@@$0A@V?$OuterStride@$0?0@2@@Eigen@@$02$00$00@Eigen@@$0?0$00$0A@@Eigen@@$00$00$0A@$00@internal@Eigen@@CAPEBNPEBN_J@Z
	??$add_to_nullable_pointer@$$CBN@?$BlockImpl_dense@$$CBV?$Block@V?$Matrix@N$02$02$0A@$02$02@Eigen@@$0?0$0?0$0A@@Eigen@@$0?0$00$00$00@internal@Eigen@@CAPEBNPEBN_J@Z
	??$add_to_nullable_pointer@$$CBN@?$BlockImpl_dense@$$CBV?$Block@V?$Matrix@N$02$02$0A@$02$02@Eigen@@$0?0$0?0$0A@@Eigen@@$0?0$0?0$00$00@internal@Eigen@@CAPEBNPEBN_J@Z
	??$add_to_nullable_pointer@$$CBN@?$BlockImpl_dense@$$CBV?$Block@V?$Matrix@N$02$02$0A@$02$02@Eigen@@$0?0$0?0$0A@@Eigen@@$0?0$0?0$0A@$00@internal@Eigen@@CAPEBNPEBN_J@Z
	??$add_to_nullable_pointer@$$CBN@?$BlockImpl_dense@$$CBV?$Block@V?$Matrix@N$0?0$0?0$0A@$0?0$0?0@Eigen@@$0?0$0?0$0A@@Eigen@@$0?0$00$00$00@internal@Eigen@@CAPEBNPEBN_J@Z
	??$add_to_nullable_pointer@$$CBN@?$BlockImpl_dense@$$CBV?$Block@V?$Matrix@N$0?0$0?0$0A@$0?0$0?0@Eigen@@$0?0$0?0$0A@@Eigen@@$0?0$0?0$00$00@internal@Eigen@@CAPEBNPEBN_J@Z
	??$add_to_nullable_pointer@$$CBN@?$BlockImpl_dense@$$CBV?$Block@V?$Matrix@N$0?0$0?0$0A@$0?0$0?0@Eigen@@$0?0$0?0$0A@@Eigen@@$0?0$0?0$0A@$00@internal@Eigen@@CAPEBNPEBN_J@Z
	??$add_to_nullable_pointer@$$CBN@?$BlockImpl_dense@$$CBV?$Map@$$CBV?$Matrix@N$0?0$00$0A@$0?0$00@Eigen@@$0A@V?$Stride@$0A@$0A@@2@@Eigen@@$0?0$00$0A@$00@internal@Eigen@@CAPEBNPEBN_J@Z
	??$add_to_nullable_pointer@$$CBN@?$BlockImpl_dense@$$CBV?$Map@$$CBV?$Matrix@N$0?0$0?0$00$0?0$0?0@Eigen@@$0A@V?$OuterStride@$0?0@2@@Eigen@@$00$0?0$00$00@internal@Eigen@@CAPEBNPEBN_J@Z
	??$add_to_nullable_pointer@$$CBN@?$BlockImpl_dense@$$CBV?$Map@V?$Matrix@N$00$02$00$00$02@Eigen@@$0A@V?$Stride@$0A@$0A@@2@@Eigen@@$00$00$0A@$00@internal@Eigen@@CAPEBNPEBN_J@Z
	??$add_to_nullable_pointer@$$CBN@?$BlockImpl_dense@$$CBV?$Map@V?$Matrix@N$00$0?0$00$00$02@Eigen@@$0A@V?$Stride@$0A@$0A@@2@@Eigen@@$00$00$0A@$00@internal@Eigen@@CAPEBNPEBN_J@Z
	??$add_to_nullable_pointer@$$CBN@?$BlockImpl_dense@$$CBV?$Matrix@N$02$00$0A@$02$00@Eigen@@$02$00$00$00@internal@Eigen@@CAPEBNPEBN_J@Z
	??$add_to_nullable_pointer@$$CBN@?$BlockImpl_dense@$$CBV?$Matrix@N$02$00$0A@$02$00@Eigen@@$0?0$00$0A@$00@internal@Eigen@@CAPEBNPEBN_J@Z
	??$add_to_nullable_pointer@$$CBN@?$BlockImpl_dense@$$CBV?$Matrix@N$02$02$0A@$02$02@Eigen@@$00$02$0A@$00@internal@Eigen@@CAPEBNPEBN_J@Z
	??$add_to_nullable_pointer@$$CBN@?$BlockImpl_dense@$$CBV?$Matrix@N$02$02$0A@$02$02@Eigen@@$02$00$00$00@internal@Eigen@@CAPEBNPEBN_J@Z
	??$add_to_nullable_pointer@$$CBN@?$BlockImpl_dense@$$CBV?$Matrix@N$02$02$0A@$02$02@Eigen@@$0?0$00$0A@$00@internal@Eigen@@CAPEBNPEBN_J@Z
	??$add_to_nullable_pointer@$$CBN@?$BlockImpl_dense@$$CBV?$Matrix@N$02$03$0A@$02$03@Eigen@@$00$02$0A@$00@internal@Eigen@@CAPEBNPEBN_J@Z
	??$add_to_nullable_pointer@$$CBN@?$BlockImpl_dense@$$CBV?$Matrix@N$02$03$0A@$02$03@Eigen@@$00$03$0A@$00@internal@Eigen@@CAPEBNPEBN_J@Z
	??$add_to_nullable_pointer@$$CBN@?$BlockImpl_dense@$$CBV?$Matrix@N$02$03$0A@$02$03@Eigen@@$02$00$00$00@internal@Eigen@@CAPEBNPEBN_J@Z
	??$add_to_nullable_pointer@$$CBN@?$BlockImpl_dense@$$CBV?$Matrix@N$02$03$0A@$02$03@Eigen@@$02$00$0A@$00@internal@Eigen@@CAPEBNPEBN_J@Z
	??$add_to_nullable_pointer@$$CBN@?$BlockImpl_dense@$$CBV?$Matrix@N$02$03$0A@$02$03@Eigen@@$02$02$0A@$00@internal@Eigen@@CAPEBNPEBN_J@Z
	??$add_to_nullable_pointer@$$CBN@?$BlockImpl_dense@$$CBV?$Matrix@N$02$03$0A@$02$03@Eigen@@$0?0$0?0$0A@$00@internal@Eigen@@CAPEBNPEBN_J@Z
	??$add_to_nullable_pointer@$$CBN@?$BlockImpl_dense@$$CBV?$Matrix@N$03$00$0A@$03$00@Eigen@@$03$00$00$00@internal@Eigen@@CAPEBNPEBN_J@Z
	??$add_to_nullable_pointer@$$CBN@?$BlockImpl_dense@$$CBV?$Matrix@N$03$00$0A@$03$00@Eigen@@$0?0$00$0A@$00@internal@Eigen@@CAPEBNPEBN_J@Z
	??$add_to_nullable_pointer@$$CBN@?$BlockImpl_dense@$$CBV?$Matrix@N$03$02$0A@$03$02@Eigen@@$03$00$00$00@internal@Eigen@@CAPEBNPEBN_J@Z
	??$add_to_nullable_pointer@$$CBN@?$BlockImpl_dense@$$CBV?$Matrix@N$0?0$00$0A@$02$00@Eigen@@$00$00$0A@$00@internal@Eigen@@CAPEBNPEBN_J@Z
	??$add_to_nullable_pointer@$$CBN@?$BlockImpl_dense@$$CBV?$Matrix@N$0?0$00$0A@$0?0$00@Eigen@@$0?0$00$0A@$00@internal@Eigen@@CAPEBNPEBN_J@Z
	??$add_to_nullable_pointer@$$CBN@?$BlockImpl_dense@$$CBV?$Matrix@N$0?0$0?0$00$0?0$0?0@Eigen@@$0?0$0?0$0A@$00@internal@Eigen@@CAPEBNPEBN_J@Z
	??$add_to_nullable_pointer@$$CBN@?$BlockImpl_dense@$$CBV?$Matrix@N$0?0$0?0$0A@$0?0$0?0@Eigen@@$00$0?0$0A@$00@internal@Eigen@@CAPEBNPEBN_J@Z
	??$add_to_nullable_pointer@$$CBN@?$BlockImpl_dense@$$CBV?$Matrix@N$0?0$0?0$0A@$0?0$0?0@Eigen@@$0?0$00$00$00@internal@Eigen@@CAPEBNPEBN_J@Z
	??$add_to_nullable_pointer@$$CBN@?$BlockImpl_dense@$$CBV?$Matrix@N$0?0$0?0$0A@$0?0$0?0@Eigen@@$0?0$00$0A@$00@internal@Eigen@@CAPEBNPEBN_J@Z
	??$add_to_nullable_pointer@$$CBN@?$BlockImpl_dense@$$CBV?$Matrix@N$0?0$0?0$0A@$0?0$0?0@Eigen@@$0?0$0?0$0A@$00@internal@Eigen@@CAPEBNPEBN_J@Z
	??$add_to_nullable_pointer@$$CBN@?$BlockImpl_dense@$$CBV?$Ref@V?$Matrix@N$0?0$0?0$0A@$0?0$0?0@Eigen@@$0A@V?$OuterStride@$0?0@2@@Eigen@@$00$0?0$0A@$00@internal@Eigen@@CAPEBNPEBN_J@Z
	??$add_to_nullable_pointer@$$CBN@?$BlockImpl_dense@$$CBV?$Ref@V?$Matrix@N$0?0$0?0$0A@$0?0$0?0@Eigen@@$0A@V?$OuterStride@$0?0@2@@Eigen@@$0?0$00$00$00@internal@Eigen@@CAPEBNPEBN_J@Z
	??$add_to_nullable_pointer@$$CBN@?$BlockImpl_dense@$$CBV?$Transpose@$$CBV?$Block@$$CBV?$Matrix@N$02$02$0A@$02$02@Eigen@@$0?0$00$0A@@Eigen@@@Eigen@@$00$00$0A@$00@internal@Eigen@@CAPEBNPEBN_J@Z
	??$add_to_nullable_pointer@$$CBN@?$BlockImpl_dense@$$CBV?$Transpose@$$CBV?$Block@$$CBV?$Matrix@N$02$02$0A@$02$02@Eigen@@$0?0$00$0A@@Eigen@@@Eigen@@$00$0?0$00$00@internal@Eigen@@CAPEBNPEBN_J@Z
	??$add_to_nullable_pointer@$$CBN@?$BlockImpl_dense@$$CBV?$Transpose@$$CBV?$Block@$$CBV?$Matrix@N$02$03$0A@$02$03@Eigen@@$00$02$0A@@Eigen@@@Eigen@@$02$00$00$00@internal@Eigen@@CAPEBNPEBN_J@Z
	??$add_to_nullable_pointer@$$CBN@?$BlockImpl_dense@$$CBV?$Transpose@$$CBV?$Block@$$CBV?$Matrix@N$0?0$0?0$0A@$0?0$0?0@Eigen@@$0?0$00$0A@@Eigen@@@Eigen@@$00$0?0$00$00@internal@Eigen@@CAPEBNPEBN_J@Z
	??$add_to_nullable_pointer@$$CBN@?$BlockImpl_dense@$$CBV?$Transpose@$$CBV?$Block@V?$Block@V?$Block@V?$Matrix@N$02$02$0A@$02$02@Eigen@@$0?0$0?0$0A@@Eigen@@$0?0$00$00@Eigen@@$0?0$00$0A@@Eigen@@@Eigen@@$00$0?0$00$00@internal@Eigen@@CAPEBNPEBN_J@Z
	??$add_to_nullable_pointer@$$CBN@?$BlockImpl_dense@$$CBV?$Transpose@$$CBV?$Block@V?$Block@V?$Matrix@N$0?0$0?0$0A@$0?0$0?0@Eigen@@$0?0$00$00@Eigen@@$0?0$00$0A@@Eigen@@@Eigen@@$00$0?0$00$00@internal@Eigen@@CAPEBNPEBN_J@Z
	??$add_to_nullable_pointer@$$CBN@?$BlockImpl_dense@$$CBV?$Transpose@$$CBV?$Block@V?$Matrix@N$02$02$0A@$02$02@Eigen@@$0?0$0?0$0A@@Eigen@@@Eigen@@$0?0$0?0$0A@$00@internal@Eigen@@CAPEBNPEBN_J@Z
	??$add_to_nullable_pointer@$$CBN@?$BlockImpl_dense@$$CBV?$Transpose@$$CBV?$Block@V?$Matrix@N$0?0$0?0$0A@$0?0$0?0@Eigen@@$0?0$0?0$0A@@Eigen@@@Eigen@@$0?0$0?0$0A@$00@internal@Eigen@@CAPEBNPEBN_J@Z
	??$add_to_nullable_pointer@$$CBN@?$BlockImpl_dense@$$CBV?$Transpose@$$CBV?$Matrix@N$02$02$0A@$02$02@Eigen@@@Eigen@@$00$02$00$00@internal@Eigen@@CAPEBNPEBN_J@Z
	??$add_to_nullable_pointer@$$CBN@?$BlockImpl_dense@$$CBV?$Transpose@$$CBV?$Matrix@N$02$02$0A@$02$02@Eigen@@@Eigen@@$02$00$0A@$00@internal@Eigen@@CAPEBNPEBN_J@Z
	??$add_to_nullable_pointer@$$CBN@?$BlockImpl_dense@$$CBV?$Transpose@$$CBV?$Matrix@N$0?0$0?0$00$0?0$0?0@Eigen@@@Eigen@@$0?0$0?0$00$00@internal@Eigen@@CAPEBNPEBN_J@Z
	??$add_to_nullable_pointer@$$CBN@?$BlockImpl_dense@$$CBV?$Transpose@$$CBV?$Matrix@N$0?0$0?0$0A@$0?0$0?0@Eigen@@@Eigen@@$0?0$00$0A@$00@internal@Eigen@@CAPEBNPEBN_J@Z
	??$add_to_nullable_pointer@N@?$BlockImpl_dense@V?$Block@V?$Block@V?$Block@V?$Matrix@N$02$02$0A@$02$02@Eigen@@$0?0$0?0$0A@@Eigen@@$0?0$00$00@Eigen@@$0?0$00$0A@@Eigen@@$0?0$00$0A@$00@internal@Eigen@@CAPEANPEAN_J@Z
	??$add_to_nullable_pointer@N@?$BlockImpl_dense@V?$Block@V?$Block@V?$Matrix@N$02$02$0A@$02$02@Eigen@@$0?0$0?0$0A@@Eigen@@$0?0$00$00@Eigen@@$0?0$00$0A@$00@internal@Eigen@@CAPEANPEAN_J@Z
	??$add_to_nullable_pointer@N@?$BlockImpl_dense@V?$Block@V?$Block@V?$Matrix@N$02$02$0A@$02$02@Eigen@@$0?0$0?0$0A@@Eigen@@$0?0$0?0$0A@@Eigen@@$00$0?0$0A@$00@internal@Eigen@@CAPEANPEAN_J@Z
	??$add_to_nullable_pointer@N@?$BlockImpl_dense@V?$Block@V?$Block@V?$Matrix@N$02$02$0A@$02$02@Eigen@@$0?0$0?0$0A@@Eigen@@$0?0$0?0$0A@@Eigen@@$0?0$0?0$0A@$00@internal@Eigen@@CAPEANPEAN_J@Z
	??$add_to_nullable_pointer@N@?$BlockImpl_dense@V?$Block@V?$Block@V?$Matrix@N$0?0$0?0$0A@$0?0$0?0@Eigen@@$0?0$00$00@Eigen@@$0?0$00$0A@@Eigen@@$0?0$00$0A@$00@internal@Eigen@@CAPEANPEAN_J@Z
	??$add_to_nullable_pointer@N@?$BlockImpl_dense@V?$Block@V?$Block@V?$Matrix@N$0?0$0?0$0A@$0?0$0?0@Eigen@@$0?0$0?0$0A@@Eigen@@$0?0$0?0$0A@@Eigen@@$0?0$00$00$00@internal@Eigen@@CAPEANPEAN_J@Z
	??$add_to_nullable_pointer@N@?$BlockImpl_dense@V?$Block@V?$Matrix@N$02$02$0A@$02$02@Eigen@@$02$00$00@Eigen@@$0?0$00$0A@$00@internal@Eigen@@CAPEANPEAN_J@Z
	??$add_to_nullable_pointer@N@?$BlockImpl_dense@V?$Block@V?$Matrix@N$02$02$0A@$02$02@Eigen@@$0?0$02$0A@@Eigen@@$00$02$0A@$00@internal@Eigen@@CAPEANPEAN_J@Z
	??$add_to_nullable_pointer@N@?$BlockImpl_dense@V?$Block@V?$Matrix@N$02$02$0A@$02$02@Eigen@@$0?0$02$0A@@Eigen@@$0?0$02$0A@$00@internal@Eigen@@CAPEANPEAN_J@Z
	??$add_to_nullable_pointer@N@?$BlockImpl_dense@V?$Block@V?$Matrix@N$02$02$0A@$02$02@Eigen@@$0?0$02$0A@@Eigen@@$0?0$0?0$00$00@internal@Eigen@@CAPEANPEAN_J@Z
	??$add_to_nullable_pointer@N@?$BlockImpl_dense@V?$Block@V?$Matrix@N$02$02$0A@$02$02@Eigen@@$0?0$0?0$0A@@Eigen@@$00$0?0$0A@$00@internal@Eigen@@CAPEANPEAN_J@Z
	??$add_to_nullable_pointer@N@?$BlockImpl_dense@V?$Block@V?$Matrix@N$02$02$0A@$02$02@Eigen@@$0?0$0?0$0A@@Eigen@@$0?0$00$00$00@internal@Eigen@@CAPEANPEAN_J@Z
	??$add_to_nullable_pointer@N@?$BlockImpl_dense@V?$Block@V?$Matrix@N$02$02$0A@$02$02@Eigen@@$0?0$0?0$0A@@Eigen@@$0?0$0?0$00$00@internal@Eigen@@CAPEANPEAN_J@Z
	??$add_to_nullable_pointer@N@?$BlockImpl_dense@V?$Block@V?$Matrix@N$02$02$0A@$02$02@Eigen@@$0?0$0?0$0A@@Eigen@@$0?0$0?0$0A@$00@internal@Eigen@@CAPEANPEAN_J@Z
	??$add_to_nullable_pointer@N@?$BlockImpl_dense@V?$Block@V?$Matrix@N$0?0$0?0$00$0?0$0?0@Eigen@@$00$0?0$00@Eigen@@$00$0?0$0A@$00@internal@Eigen@@CAPEANPEAN_J@Z
	??$add_to_nullable_pointer@N@?$BlockImpl_dense@V?$Block@V?$Matrix@N$0?0$0?0$0A@$0?0$0?0@Eigen@@$0?0$00$00@Eigen@@$0?0$00$0A@$00@internal@Eigen@@CAPEANPEAN_J@Z
	??$add_to_nullable_pointer@N@?$BlockImpl_dense@V?$Block@V?$Matrix@N$0?0$0?0$0A@$0?0$0?0@Eigen@@$0?0$0?0$0A@@Eigen@@$00$0?0$0A@$00@internal@Eigen@@CAPEANPEAN_J@Z
	??$add_to_nullable_pointer@N@?$BlockImpl_dense@V?$Block@V?$Matrix@N$0?0$0?0$0A@$0?0$0?0@Eigen@@$0?0$0?0$0A@@Eigen@@$0?0$00$00$00@internal@Eigen@@CAPEANPEAN_J@Z
	??$add_to_nullable_pointer@N@?$BlockImpl_dense@V?$Block@V?$Matrix@N$0?0$0?0$0A@$0?0$0?0@Eigen@@$0?0$0?0$0A@@Eigen@@$0?0$0?0$00$00@internal@Eigen@@CAPEANPEAN_J@Z
	??$add_to_nullable_pointer@N@?$BlockImpl_dense@V?$Block@V?$Matrix@N$0?0$0?0$0A@$0?0$0?0@Eigen@@$0?0$0?0$0A@@Eigen@@$0?0$0?0$0A@$00@internal@Eigen@@CAPEANPEAN_J@Z
	??$add_to_nullable_pointer@N@?$BlockImpl_dense@V?$Block@V?$Ref@V?$Matrix@N$02$02$0A@$02$02@Eigen@@$0A@V?$OuterStride@$0?0@2@@Eigen@@$00$02$0A@@Eigen@@$00$0?0$0A@$00@internal@Eigen@@CAPEANPEAN_J@Z
	??$add_to_nullable_pointer@N@?$BlockImpl_dense@V?$Block@V?$Ref@V?$Matrix@N$02$02$0A@$02$02@Eigen@@$0A@V?$OuterStride@$0?0@2@@Eigen@@$02$00$00@Eigen@@$0?0$00$0A@$00@internal@Eigen@@CAPEANPEAN_J@Z
	??$add_to_nullable_pointer@N@?$BlockImpl_dense@V?$Matrix@N$00$0?0$00$00$0?0@Eigen@@$00$0?0$0A@$00@internal@Eigen@@CAPEANPEAN_J@Z
	??$add_to_nullable_pointer@N@?$BlockImpl_dense@V?$Matrix@N$01$01$0A@$01$01@Eigen@@$00$01$0A@$00@internal@Eigen@@CAPEANPEAN_J@Z
	??$add_to_nullable_pointer@N@?$BlockImpl_dense@V?$Matrix@N$02$00$0A@$02$00@Eigen@@$00$00$0A@$00@internal@Eigen@@CAPEANPEAN_J@Z
	??$add_to_nullable_pointer@N@?$BlockImpl_dense@V?$Matrix@N$02$00$0A@$02$00@Eigen@@$01$00$0A@$00@internal@Eigen@@CAPEANPEAN_J@Z
	??$add_to_nullable_pointer@N@?$BlockImpl_dense@V?$Matrix@N$02$00$0A@$02$00@Eigen@@$0?0$00$0A@$00@internal@Eigen@@CAPEANPEAN_J@Z
	??$add_to_nullable_pointer@N@?$BlockImpl_dense@V?$Matrix@N$02$00$0A@$02$00@Eigen@@$0A@$00$0A@$00@internal@Eigen@@CAPEANPEAN_J@Z
	??$add_to_nullable_pointer@N@?$BlockImpl_dense@V?$Matrix@N$02$02$0A@$02$02@Eigen@@$00$02$0A@$00@internal@Eigen@@CAPEANPEAN_J@Z
	??$add_to_nullable_pointer@N@?$BlockImpl_dense@V?$Matrix@N$02$02$0A@$02$02@Eigen@@$02$00$00$00@internal@Eigen@@CAPEANPEAN_J@Z
	??$add_to_nullable_pointer@N@?$BlockImpl_dense@V?$Matrix@N$02$02$0A@$02$02@Eigen@@$0?0$02$0A@$00@internal@Eigen@@CAPEANPEAN_J@Z
	??$add_to_nullable_pointer@N@?$BlockImpl_dense@V?$Matrix@N$02$02$0A@$02$02@Eigen@@$0?0$0?0$0A@$00@internal@Eigen@@CAPEANPEAN_J@Z
	??$add_to_nullable_pointer@N@?$BlockImpl_dense@V?$Matrix@N$02$03$0A@$02$03@Eigen@@$00$02$0A@$00@internal@Eigen@@CAPEANPEAN_J@Z
	??$add_to_nullable_pointer@N@?$BlockImpl_dense@V?$Matrix@N$02$03$0A@$02$03@Eigen@@$00$03$0A@$00@internal@Eigen@@CAPEANPEAN_J@Z
	??$add_to_nullable_pointer@N@?$BlockImpl_dense@V?$Matrix@N$02$03$0A@$02$03@Eigen@@$02$00$0A@$00@internal@Eigen@@CAPEANPEAN_J@Z
	??$add_to_nullable_pointer@N@?$BlockImpl_dense@V?$Matrix@N$02$03$0A@$02$03@Eigen@@$02$02$0A@$00@internal@Eigen@@CAPEANPEAN_J@Z
	??$add_to_nullable_pointer@N@?$BlockImpl_dense@V?$Matrix@N$03$00$0A@$03$00@Eigen@@$0?0$00$0A@$00@internal@Eigen@@CAPEANPEAN_J@Z
	??$add_to_nullable_pointer@N@?$BlockImpl_dense@V?$Matrix@N$0?0$00$0A@$0?0$00@Eigen@@$0?0$00$0A@$00@internal@Eigen@@CAPEANPEAN_J@Z
	??$add_to_nullable_pointer@N@?$BlockImpl_dense@V?$Matrix@N$0?0$02$0A@$02$02@Eigen@@$0?0$02$0A@$00@internal@Eigen@@CAPEANPEAN_J@Z
	??$add_to_nullable_pointer@N@?$BlockImpl_dense@V?$Matrix@N$0?0$02$0A@$02$02@Eigen@@$0?0$0?0$00$00@internal@Eigen@@CAPEANPEAN_J@Z
	??$add_to_nullable_pointer@N@?$BlockImpl_dense@V?$Matrix@N$0?0$02$0A@$0?0$02@Eigen@@$0?0$02$0A@$00@internal@Eigen@@CAPEANPEAN_J@Z
	??$add_to_nullable_pointer@N@?$BlockImpl_dense@V?$Matrix@N$0?0$02$0A@$0?0$02@Eigen@@$0?0$0?0$00$00@internal@Eigen@@CAPEANPEAN_J@Z
	??$add_to_nullable_pointer@N@?$BlockImpl_dense@V?$Matrix@N$0?0$0?0$00$0?0$0?0@Eigen@@$00$0?0$00$00@internal@Eigen@@CAPEANPEAN_J@Z
	??$add_to_nullable_pointer@N@?$BlockImpl_dense@V?$Matrix@N$0?0$0?0$00$0?0$0?0@Eigen@@$0?0$00$0A@$00@internal@Eigen@@CAPEANPEAN_J@Z
	??$add_to_nullable_pointer@N@?$BlockImpl_dense@V?$Matrix@N$0?0$0?0$0A@$02$02@Eigen@@$0?0$0?0$00$00@internal@Eigen@@CAPEANPEAN_J@Z
	??$add_to_nullable_pointer@N@?$BlockImpl_dense@V?$Matrix@N$0?0$0?0$0A@$02$02@Eigen@@$0?0$0?0$0A@$00@internal@Eigen@@CAPEANPEAN_J@Z
	??$add_to_nullable_pointer@N@?$BlockImpl_dense@V?$Matrix@N$0?0$0?0$0A@$0?0$02@Eigen@@$0?0$0?0$00$00@internal@Eigen@@CAPEANPEAN_J@Z
	??$add_to_nullable_pointer@N@?$BlockImpl_dense@V?$Matrix@N$0?0$0?0$0A@$0?0$02@Eigen@@$0?0$0?0$0A@$00@internal@Eigen@@CAPEANPEAN_J@Z
	??$add_to_nullable_pointer@N@?$BlockImpl_dense@V?$Matrix@N$0?0$0?0$0A@$0?0$0?0@Eigen@@$00$03$0A@$00@internal@Eigen@@CAPEANPEAN_J@Z
	??$add_to_nullable_pointer@N@?$BlockImpl_dense@V?$Matrix@N$0?0$0?0$0A@$0?0$0?0@Eigen@@$00$0?0$0A@$00@internal@Eigen@@CAPEANPEAN_J@Z
	??$add_to_nullable_pointer@N@?$BlockImpl_dense@V?$Matrix@N$0?0$0?0$0A@$0?0$0?0@Eigen@@$0?0$00$00$00@internal@Eigen@@CAPEANPEAN_J@Z
	??$add_to_nullable_pointer@N@?$BlockImpl_dense@V?$Matrix@N$0?0$0?0$0A@$0?0$0?0@Eigen@@$0?0$0?0$00$00@internal@Eigen@@CAPEANPEAN_J@Z
	??$add_to_nullable_pointer@N@?$BlockImpl_dense@V?$Matrix@N$0?0$0?0$0A@$0?0$0?0@Eigen@@$0?0$0?0$0A@$00@internal@Eigen@@CAPEANPEAN_J@Z
	??$add_to_nullable_pointer@N@?$BlockImpl_dense@V?$Ref@V?$Matrix@N$02$02$0A@$02$02@Eigen@@$0A@V?$OuterStride@$0?0@2@@Eigen@@$00$02$0A@$00@internal@Eigen@@CAPEANPEAN_J@Z
	??$add_to_nullable_pointer@N@?$BlockImpl_dense@V?$Ref@V?$Matrix@N$02$02$0A@$02$02@Eigen@@$0A@V?$OuterStride@$0?0@2@@Eigen@@$02$00$00$00@internal@Eigen@@CAPEANPEAN_J@Z
	??$add_to_nullable_pointer@N@?$BlockImpl_dense@V?$Ref@V?$Matrix@N$02$02$0A@$02$02@Eigen@@$0A@V?$OuterStride@$0?0@2@@Eigen@@$0?0$0?0$0A@$00@internal@Eigen@@CAPEANPEAN_J@Z
	??$add_to_nullable_pointer@N@?$BlockImpl_dense@V?$Ref@V?$Matrix@N$0?0$0?0$0A@$0?0$0?0@Eigen@@$0A@V?$OuterStride@$0?0@2@@Eigen@@$00$0?0$0A@$00@internal@Eigen@@CAPEANPEAN_J@Z
	??$add_to_nullable_pointer@N@?$BlockImpl_dense@V?$Ref@V?$Matrix@N$0?0$0?0$0A@$0?0$0?0@Eigen@@$0A@V?$OuterStride@$0?0@2@@Eigen@@$0?0$00$00$00@internal@Eigen@@CAPEANPEAN_J@Z
	??$add_to_nullable_pointer@N@?$BlockImpl_dense@V?$Transpose@V?$Block@V?$Block@V?$Matrix@N$0?0$0?0$00$0?0$0?0@Eigen@@$00$0?0$00@Eigen@@$00$0?0$0A@@Eigen@@@Eigen@@$0?0$00$0A@$00@internal@Eigen@@CAPEANPEAN_J@Z
	??$add_to_nullable_pointer@N@?$BlockImpl_dense@V?$Transpose@V?$Block@V?$Matrix@N$0?0$0?0$0A@$0?0$0?0@Eigen@@$00$0?0$0A@@Eigen@@@Eigen@@$0?0$00$00$00@internal@Eigen@@CAPEANPEAN_J@Z
	??$add_to_nullable_pointer@N@?$BlockImpl_dense@V?$Transpose@V?$Block@V?$Ref@V?$Matrix@N$0?0$0?0$0A@$0?0$0?0@Eigen@@$0A@V?$OuterStride@$0?0@2@@Eigen@@$00$0?0$0A@@Eigen@@@Eigen@@$0?0$00$00$00@internal@Eigen@@CAPEANPEAN_J@Z
	??$add_to_nullable_pointer@N@?$BlockImpl_dense@V?$Transpose@V?$Map@V?$Matrix@N$00$0?0$00$00$0?0@Eigen@@$0A@V?$Stride@$0A@$0A@@2@@Eigen@@@Eigen@@$0?0$00$00$00@internal@Eigen@@CAPEANPEAN_J@Z
	??$addressof@$$CBU?$pair@$$CBHH@std@@@std@@YAPEBU?$pair@$$CBHH@0@AEBU10@@Z
	??$addressof@$$CBV?$_Tree_val@U?$_Tree_simple_types@U?$pair@$$CBHH@std@@@std@@@std@@@std@@YAPEBV?$_Tree_val@U?$_Tree_simple_types@U?$pair@$$CBHH@std@@@std@@@0@AEBV10@@Z
	??$addressof@D@std@@YAPEADAEAD@Z
	??$addressof@PEAD@std@@YAPEAPEADAEAPEAD@Z
	??$addressof@PEAU?$_Tree_node@U?$pair@$$CBHH@std@@PEAX@std@@@std@@YAPEAPEAU?$_Tree_node@U?$pair@$$CBHH@std@@PEAX@0@AEAPEAU10@@Z
	??$addressof@U?$pair@$$CBHH@std@@@std@@YAPEAU?$pair@$$CBHH@0@AEAU10@@Z
	??$addressof@V?$_String_val@U?$_Simple_types@D@std@@@std@@@std@@YAPEAV?$_String_val@U?$_Simple_types@D@std@@@0@AEAV10@@Z
	??$addressof@V?$_Tree_val@U?$_Tree_simple_types@U?$pair@$$CBHH@std@@@std@@@std@@@std@@YAPEAV?$_Tree_val@U?$_Tree_simple_types@U?$pair@$$CBHH@std@@@std@@@0@AEAV10@@Z
	??$addressof@V?$basic_ostream@DU?$char_traits@D@std@@@std@@@std@@YAPEAV?$basic_ostream@DU?$char_traits@D@std@@@0@AEAV10@@Z
	??$addressof@V?$basic_stringbuf@DU?$char_traits@D@std@@V?$allocator@D@2@@std@@@std@@YAPEAV?$basic_stringbuf@DU?$char_traits@D@std@@V?$allocator@D@2@@0@AEAV10@@Z
	??$aligned_delete@N@internal@Eigen@@YAXPEAN_K@Z
	??$aligned_new@N@internal@Eigen@@YAPEAN_K@Z
	??$applyHouseholderOnTheLeft@V?$Block@$$CBV?$Matrix@N$02$02$0A@$02$02@Eigen@@$0?0$00$0A@@Eigen@@@?$MatrixBase@V?$Block@V?$Matrix@N$02$02$0A@$02$02@Eigen@@$0?0$02$0A@@Eigen@@@Eigen@@QEAAXAEBV?$Block@$$CBV?$Matrix@N$02$02$0A@$02$02@Eigen@@$0?0$00$0A@@1@AEBNPEAN@Z
	??$applyHouseholderOnTheLeft@V?$Block@$$CBV?$Matrix@N$02$02$0A@$02$02@Eigen@@$0?0$00$0A@@Eigen@@@?$MatrixBase@V?$Block@V?$Matrix@N$02$02$0A@$02$02@Eigen@@$0?0$0?0$0A@@Eigen@@@Eigen@@QEAAXAEBV?$Block@$$CBV?$Matrix@N$02$02$0A@$02$02@Eigen@@$0?0$00$0A@@1@AEBNPEAN@Z
	??$applyHouseholderOnTheLeft@V?$Block@$$CBV?$Matrix@N$0?0$0?0$0A@$0?0$0?0@Eigen@@$0?0$00$0A@@Eigen@@@?$MatrixBase@V?$Block@V?$Matrix@N$0?0$0?0$0A@$0?0$0?0@Eigen@@$0?0$0?0$0A@@Eigen@@@Eigen@@QEAAXAEBV?$Block@$$CBV?$Matrix@N$0?0$0?0$0A@$0?0$0?0@Eigen@@$0?0$00$0A@@1@AEBNPEAN@Z
	??$applyHouseholderOnTheLeft@V?$VectorBlock@V?$Block@V?$Block@V?$Matrix@N$02$02$0A@$02$02@Eigen@@$0?0$0?0$0A@@Eigen@@$0?0$00$00@Eigen@@$0?0@Eigen@@@?$MatrixBase@V?$Block@V?$Block@V?$Matrix@N$02$02$0A@$02$02@Eigen@@$0?0$0?0$0A@@Eigen@@$0?0$0?0$0A@@Eigen@@@Eigen@@QEAAXAEBV?$VectorBlock@V?$Block@V?$Block@V?$Matrix@N$02$02$0A@$02$02@Eigen@@$0?0$0?0$0A@@Eigen@@$0?0$00$00@Eigen@@$0?0@1@AEBNPEAN@Z
	??$applyHouseholderOnTheLeft@V?$VectorBlock@V?$Block@V?$Matrix@N$0?0$0?0$0A@$0?0$0?0@Eigen@@$0?0$00$00@Eigen@@$0?0@Eigen@@@?$MatrixBase@V?$Block@V?$Matrix@N$0?0$0?0$0A@$0?0$0?0@Eigen@@$0?0$0?0$0A@@Eigen@@@Eigen@@QEAAXAEBV?$VectorBlock@V?$Block@V?$Matrix@N$0?0$0?0$0A@$0?0$0?0@Eigen@@$0?0$00$00@Eigen@@$0?0@1@AEBNPEAN@Z
	??$applyHouseholderOnTheRight@V?$Block@$$CBV?$Matrix@N$02$02$0A@$02$02@Eigen@@$0?0$00$0A@@Eigen@@@?$MatrixBase@V?$Block@V?$Matrix@N$02$02$0A@$02$02@Eigen@@$0?0$0?0$0A@@Eigen@@@Eigen@@QEAAXAEBV?$Block@$$CBV?$Matrix@N$02$02$0A@$02$02@Eigen@@$0?0$00$0A@@1@AEBNPEAN@Z
	??$applyHouseholderOnTheRight@V?$Block@$$CBV?$Matrix@N$0?0$0?0$0A@$0?0$0?0@Eigen@@$0?0$00$0A@@Eigen@@@?$MatrixBase@V?$Block@V?$Matrix@N$0?0$0?0$0A@$0?0$0?0@Eigen@@$0?0$0?0$0A@@Eigen@@@Eigen@@QEAAXAEBV?$Block@$$CBV?$Matrix@N$0?0$0?0$0A@$0?0$0?0@Eigen@@$0?0$00$0A@@1@AEBNPEAN@Z
	??$applyOnTheLeft@N@?$MatrixBase@V?$Matrix@N$01$01$0A@$01$01@Eigen@@@Eigen@@QEAAX_J0AEBV?$JacobiRotation@N@1@@Z
	??$applyOnTheLeft@N@?$MatrixBase@V?$Matrix@N$0?0$0?0$0A@$0?0$0?0@Eigen@@@Eigen@@QEAAX_J0AEBV?$JacobiRotation@N@1@@Z
	??$applyOnTheRight@N@?$MatrixBase@V?$Matrix@N$0?0$0?0$0A@$0?0$0?0@Eigen@@@Eigen@@QEAAX_J0AEBV?$JacobiRotation@N@1@@Z
	??$applyThisOnTheLeft@V?$Matrix@N$02$02$0A@$02$02@Eigen@@V?$Matrix@N$02$00$0A@$02$00@2@@?$HouseholderSequence@V?$Matrix@N$02$02$0A@$02$02@Eigen@@V?$Matrix@N$02$00$0A@$02$00@2@$00@Eigen@@QEBAXAEAV?$Matrix@N$02$02$0A@$02$02@1@AEAV?$Matrix@N$02$00$0A@$02$00@1@_N@Z
	??$applyThisOnTheLeft@V?$Matrix@N$0?0$0?0$0A@$0?0$0?0@Eigen@@V?$Matrix@N$00$0?0$00$00$0?0@2@@?$HouseholderSequence@V?$Matrix@N$0?0$0?0$0A@$0?0$0?0@Eigen@@V?$Matrix@N$0?0$00$0A@$0?0$00@2@$00@Eigen@@QEBAXAEAV?$Matrix@N$0?0$0?0$0A@$0?0$0?0@1@AEAV?$Matrix@N$00$0?0$00$00$0?0@1@_N@Z
	??$applyThisOnTheLeft@V?$Matrix@N$0?0$0?0$0A@$0?0$0?0@Eigen@@V?$Matrix@N$0?0$00$0A@$0?0$00@2@@?$HouseholderSequence@V?$Matrix@N$0?0$0?0$0A@$0?0$0?0@Eigen@@V?$Matrix@N$0?0$00$0A@$0?0$00@2@$00@Eigen@@QEBAXAEAV?$Matrix@N$0?0$0?0$0A@$0?0$0?0@1@AEAV?$Matrix@N$0?0$00$0A@$0?0$00@1@_N@Z
	??$apply_block_householder_on_the_left@V?$Block@V?$Matrix@N$02$02$0A@$02$02@Eigen@@$0?0$02$0A@@Eigen@@V?$Block@V?$Matrix@N$02$02$0A@$02$02@Eigen@@$0?0$0?0$0A@@2@V?$VectorBlock@$$CBV?$Matrix@N$02$00$0A@$02$00@Eigen@@$0?0@2@@internal@Eigen@@YAXAEAV?$Block@V?$Matrix@N$02$02$0A@$02$02@Eigen@@$0?0$02$0A@@1@AEBV?$Block@V?$Matrix@N$02$02$0A@$02$02@Eigen@@$0?0$0?0$0A@@1@AEBV?$VectorBlock@$$CBV?$Matrix@N$02$00$0A@$02$00@Eigen@@$0?0@1@_N@Z
	??$apply_block_householder_on_the_left@V?$Block@V?$Matrix@N$02$02$0A@$02$02@Eigen@@$0?0$0?0$0A@@Eigen@@V12@V?$Block@V?$Matrix@N$02$00$0A@$02$00@Eigen@@$0?0$00$0A@@2@@internal@Eigen@@YAXAEAV?$Block@V?$Matrix@N$02$02$0A@$02$02@Eigen@@$0?0$0?0$0A@@1@AEBV21@AEBV?$Block@V?$Matrix@N$02$00$0A@$02$00@Eigen@@$0?0$00$0A@@1@_N@Z
	??$apply_block_householder_on_the_left@V?$Block@V?$Matrix@N$02$02$0A@$02$02@Eigen@@$0?0$0?0$0A@@Eigen@@V12@V?$VectorBlock@$$CBV?$Matrix@N$02$00$0A@$02$00@Eigen@@$0?0@2@@internal@Eigen@@YAXAEAV?$Block@V?$Matrix@N$02$02$0A@$02$02@Eigen@@$0?0$0?0$0A@@1@AEBV21@AEBV?$VectorBlock@$$CBV?$Matrix@N$02$00$0A@$02$00@Eigen@@$0?0@1@_N@Z
	??$apply_block_householder_on_the_left@V?$Block@V?$Matrix@N$0?0$0?0$0A@$0?0$0?0@Eigen@@$0?0$0?0$0A@@Eigen@@V12@V?$VectorBlock@$$CBV?$Matrix@N$0?0$00$0A@$0?0$00@Eigen@@$0?0@2@@internal@Eigen@@YAXAEAV?$Block@V?$Matrix@N$0?0$0?0$0A@$0?0$0?0@Eigen@@$0?0$0?0$0A@@1@AEBV21@AEBV?$VectorBlock@$$CBV?$Matrix@N$0?0$00$0A@$0?0$00@Eigen@@$0?0@1@_N@Z
	??$apply_rotation_in_the_plane@V?$Block@V?$Matrix@N$01$01$0A@$01$01@Eigen@@$00$01$0A@@Eigen@@V12@N@internal@Eigen@@YAXAEAV?$DenseBase@V?$Block@V?$Matrix@N$01$01$0A@$01$01@Eigen@@$00$01$0A@@Eigen@@@1@0AEBV?$JacobiRotation@N@1@@Z
	??$apply_rotation_in_the_plane@V?$Block@V?$Matrix@N$0?0$0?0$0A@$0?0$0?0@Eigen@@$00$0?0$0A@@Eigen@@V12@N@internal@Eigen@@YAXAEAV?$DenseBase@V?$Block@V?$Matrix@N$0?0$0?0$0A@$0?0$0?0@Eigen@@$00$0?0$0A@@Eigen@@@1@0AEBV?$JacobiRotation@N@1@@Z
	??$apply_rotation_in_the_plane@V?$Block@V?$Matrix@N$0?0$0?0$0A@$0?0$0?0@Eigen@@$0?0$00$00@Eigen@@V12@N@internal@Eigen@@YAXAEAV?$DenseBase@V?$Block@V?$Matrix@N$0?0$0?0$0A@$0?0$0?0@Eigen@@$0?0$00$00@Eigen@@@1@0AEBV?$JacobiRotation@N@1@@Z
	??$assignPacket@$0A@$0A@U__m128d@@@?$generic_dense_assignment_kernel@U?$evaluator@V?$Block@V?$Matrix@N$02$02$0A@$02$02@Eigen@@$02$00$00@Eigen@@@internal@Eigen@@U123@U?$swap_assign_op@N@23@$0A@@internal@Eigen@@QEAAX_J@Z
	??$assignPacket@$0A@$0A@U__m128d@@@?$generic_dense_assignment_kernel@U?$evaluator@V?$Block@V?$Matrix@N$02$03$0A@$02$03@Eigen@@$02$00$0A@@Eigen@@@internal@Eigen@@U?$evaluator@V?$Matrix@N$02$00$0A@$02$00@Eigen@@@23@U?$assign_op@NN@23@$0A@@internal@Eigen@@QEAAX_J@Z
	??$assignPacket@$0A@$0A@U__m128d@@@?$generic_dense_assignment_kernel@U?$evaluator@V?$Block@V?$Matrix@N$02$03$0A@$02$03@Eigen@@$02$02$0A@@Eigen@@@internal@Eigen@@U?$evaluator@V?$Matrix@N$02$02$0A@$02$02@Eigen@@@23@U?$assign_op@NN@23@$0A@@internal@Eigen@@QEAAX_J0@Z
	??$assignPacket@$0A@$0A@U__m128d@@@?$generic_dense_assignment_kernel@U?$evaluator@V?$Block@V?$Matrix@N$03$00$0A@$03$00@Eigen@@$0?0$00$0A@@Eigen@@@internal@Eigen@@U?$evaluator@V?$Matrix@N$02$00$0A@$02$00@Eigen@@@23@U?$assign_op@NN@23@$0A@@internal@Eigen@@QEAAX_J@Z
	??$assignPacket@$0A@$0A@U__m128d@@@?$generic_dense_assignment_kernel@U?$evaluator@V?$Matrix@N$02$00$0A@$02$00@Eigen@@@internal@Eigen@@U123@U?$assign_op@NN@23@$0A@@internal@Eigen@@QEAAX_J@Z
	??$assignPacket@$0A@$0A@U__m128d@@@?$generic_dense_assignment_kernel@U?$evaluator@V?$Matrix@N$02$00$0A@$02$00@Eigen@@@internal@Eigen@@U?$evaluator@V?$Block@$$CBV?$Matrix@N$03$00$0A@$03$00@Eigen@@$0?0$00$0A@@Eigen@@@23@U?$add_assign_op@NN@23@$0A@@internal@Eigen@@QEAAX_J@Z
	??$assignPacket@$0A@$0A@U__m128d@@@?$generic_dense_assignment_kernel@U?$evaluator@V?$Matrix@N$02$00$0A@$02$00@Eigen@@@internal@Eigen@@U?$evaluator@V?$CwiseBinaryOp@U?$scalar_quotient_op@NN@internal@Eigen@@$$CBV?$Block@V?$Matrix@N$03$00$0A@$03$00@Eigen@@$0?0$00$0A@@3@$$CBV?$CwiseNullaryOp@U?$scalar_constant_op@N@internal@Eigen@@$$CBV?$Matrix@N$0?0$00$0A@$03$00@3@@3@@Eigen@@@23@U?$assign_op@NN@23@$0A@@internal@Eigen@@QEAAX_J@Z
	??$assignPacket@$0A@$0A@U__m128d@@@?$generic_dense_assignment_kernel@U?$evaluator@V?$Matrix@N$02$00$0A@$02$00@Eigen@@@internal@Eigen@@U?$evaluator@V?$CwiseBinaryOp@U?$scalar_quotient_op@NN@internal@Eigen@@$$CBV?$Matrix@N$02$00$0A@$02$00@3@$$CBV?$CwiseNullaryOp@U?$scalar_constant_op@N@internal@Eigen@@$$CBV?$Matrix@N$02$00$0A@$02$00@3@@3@@Eigen@@@23@U?$assign_op@NN@23@$0A@@internal@Eigen@@QEAAX_J@Z
	??$assignPacket@$0A@$0A@U__m128d@@@?$generic_dense_assignment_kernel@U?$evaluator@V?$Matrix@N$02$00$0A@$02$00@Eigen@@@internal@Eigen@@U?$evaluator@V?$CwiseBinaryOp@U?$scalar_quotient_op@NN@internal@Eigen@@$$CBV?$Product@V?$Block@$$CBV?$Matrix@N$02$03$0A@$02$03@Eigen@@$02$02$0A@@Eigen@@V?$Transpose@$$CBV?$Block@$$CBV?$Matrix@N$02$03$0A@$02$03@Eigen@@$00$02$0A@@Eigen@@@2@$0A@@3@$$CBV?$CwiseNullaryOp@U?$scalar_constant_op@N@internal@Eigen@@$$CBV?$Matrix@N$02$00$0A@$02$00@3@@3@@Eigen@@@23@U?$assign_op@NN@23@$0A@@internal@Eigen@@QEAAX_J@Z
	??$assignPacket@$0A@$0A@U__m128d@@@?$generic_dense_assignment_kernel@U?$evaluator@V?$Matrix@N$02$00$0A@$02$00@Eigen@@@internal@Eigen@@U?$evaluator@V?$CwiseUnaryOp@U?$scalar_opposite_op@N@internal@Eigen@@$$CBV?$Matrix@N$02$00$0A@$02$00@3@@Eigen@@@23@U?$assign_op@NN@23@$0A@@internal@Eigen@@QEAAX_J@Z
	??$assignPacket@$0A@$0A@U__m128d@@@?$generic_dense_assignment_kernel@U?$evaluator@V?$Matrix@N$02$00$0A@$02$00@Eigen@@@internal@Eigen@@U?$evaluator@V?$Product@V?$Block@$$CBV?$Matrix@N$02$03$0A@$02$03@Eigen@@$02$02$0A@@Eigen@@V?$Transpose@$$CBV?$Block@$$CBV?$Matrix@N$02$03$0A@$02$03@Eigen@@$00$02$0A@@Eigen@@@2@$00@Eigen@@@23@U?$assign_op@NN@23@$0A@@internal@Eigen@@QEAAX_J@Z
	??$assignPacket@$0A@$0A@U__m128d@@@?$generic_dense_assignment_kernel@U?$evaluator@V?$Matrix@N$02$00$0A@$02$00@Eigen@@@internal@Eigen@@U?$evaluator@V?$Product@V?$Matrix@N$02$02$0A@$02$02@Eigen@@V?$Matrix@N$02$00$0A@$02$00@2@$00@Eigen@@@23@U?$assign_op@NN@23@$0A@@internal@Eigen@@QEAAX_J@Z
	??$assignPacket@$0A@$0A@U__m128d@@@?$generic_dense_assignment_kernel@U?$evaluator@V?$Matrix@N$02$00$0A@$02$00@Eigen@@@internal@Eigen@@U?$evaluator@V?$Product@V?$Matrix@N$02$03$0A@$02$03@Eigen@@V?$Matrix@N$03$00$0A@$03$00@2@$00@Eigen@@@23@U?$assign_op@NN@23@$0A@@internal@Eigen@@QEAAX_J@Z
	??$assignPacket@$0A@$0A@U__m128d@@@?$generic_dense_assignment_kernel@U?$evaluator@V?$Matrix@N$02$02$0A@$02$02@Eigen@@@internal@Eigen@@U123@U?$assign_op@NN@23@$0A@@internal@Eigen@@QEAAX_J@Z
	??$assignPacket@$0A@$0A@U__m128d@@@?$generic_dense_assignment_kernel@U?$evaluator@V?$Matrix@N$02$02$0A@$02$02@Eigen@@@internal@Eigen@@U?$evaluator@V?$Block@$$CBV?$Matrix@N$02$03$0A@$02$03@Eigen@@$02$02$0A@@Eigen@@@23@U?$assign_op@NN@23@$0A@@internal@Eigen@@QEAAX_J0@Z
	??$assignPacket@$0A@$0A@U__m128d@@@?$generic_dense_assignment_kernel@U?$evaluator@V?$Matrix@N$02$02$0A@$02$02@Eigen@@@internal@Eigen@@U?$evaluator@V?$Product@V?$Matrix@N$02$02$0A@$02$02@Eigen@@V12@$00@Eigen@@@23@U?$assign_op@NN@23@$0A@@internal@Eigen@@QEAAX_J0@Z
	??$assignPacket@$0A@$0A@U__m128d@@@?$generic_dense_assignment_kernel@U?$evaluator@V?$Matrix@N$02$02$0A@$02$02@Eigen@@@internal@Eigen@@U?$evaluator@V?$Product@V?$Product@V?$Matrix@N$02$02$0A@$02$02@Eigen@@V?$Matrix@N$02$03$0A@$02$03@2@$0A@@Eigen@@V?$Matrix@N$03$02$0A@$03$02@2@$00@Eigen@@@23@U?$assign_op@NN@23@$0A@@internal@Eigen@@QEAAX_J0@Z
	??$assignPacket@$0A@$0A@U__m128d@@@?$generic_dense_assignment_kernel@U?$evaluator@V?$Matrix@N$02$03$0A@$02$03@Eigen@@@internal@Eigen@@U?$evaluator@V?$Product@V?$Inverse@V?$CwiseNullaryOp@U?$scalar_identity_op@N@internal@Eigen@@V?$Matrix@N$02$02$0A@$02$02@3@@Eigen@@@Eigen@@V?$Matrix@N$02$03$0A@$02$03@2@$00@Eigen@@@23@U?$assign_op@NN@23@$0A@@internal@Eigen@@QEAAX_J0@Z
	??$assignPacket@$0A@$0A@U__m128d@@@?$generic_dense_assignment_kernel@U?$evaluator@V?$Matrix@N$02$03$0A@$02$03@Eigen@@@internal@Eigen@@U?$evaluator@V?$Product@V?$Matrix@N$02$02$0A@$02$02@Eigen@@V?$Matrix@N$02$03$0A@$02$03@2@$00@Eigen@@@23@U?$assign_op@NN@23@$0A@@internal@Eigen@@QEAAX_J0@Z
	??$assignPacket@$0A@$0A@U__m128d@@@?$generic_dense_assignment_kernel@U?$evaluator@V?$Matrix@N$02$03$0A@$02$03@Eigen@@@internal@Eigen@@U?$evaluator@V?$Product@V?$Product@V?$Inverse@V?$CwiseNullaryOp@U?$scalar_identity_op@N@internal@Eigen@@V?$Matrix@N$02$02$0A@$02$02@3@@Eigen@@@Eigen@@V?$Matrix@N$02$03$0A@$02$03@2@$0A@@Eigen@@V?$CwiseNullaryOp@U?$scalar_identity_op@N@internal@Eigen@@V?$Matrix@N$03$03$0A@$03$03@3@@2@$00@Eigen@@@23@U?$assign_op@NN@23@$0A@@internal@Eigen@@QEAAX_J0@Z
	??$assignPacket@$0A@$0BA@U__m128d@@@?$generic_dense_assignment_kernel@U?$evaluator@V?$Matrix@N$02$00$0A@$02$00@Eigen@@@internal@Eigen@@U?$evaluator@V?$CwiseNullaryOp@U?$scalar_constant_op@N@internal@Eigen@@$$CBV?$Matrix@N$02$00$0A@$02$00@3@@Eigen@@@23@U?$div_assign_op@NN@23@$0A@@internal@Eigen@@QEAAX_J@Z
	??$assignPacket@$0A@$0BA@U__m128d@@@?$generic_dense_assignment_kernel@U?$evaluator@V?$Matrix@N$02$02$0A@$02$02@Eigen@@@internal@Eigen@@U?$evaluator@V?$CwiseNullaryOp@U?$scalar_constant_op@N@internal@Eigen@@$$CBV?$Matrix@N$02$02$0A@$02$02@3@@Eigen@@@23@U?$mul_assign_op@NN@23@$0A@@internal@Eigen@@QEAAX_J@Z
	??$assignPacket@$0A@U__m128d@@@?$assign_op@NN@internal@Eigen@@QEBAXPEANAEBU__m128d@@@Z
	??$assignPacket@$0A@U__m128d@@@?$compound_assign_op@NNU?$scalar_product_op@NN@internal@Eigen@@@internal@Eigen@@QEBAXPEANAEBU__m128d@@@Z
	??$assignPacket@$0A@U__m128d@@@?$compound_assign_op@NNU?$scalar_quotient_op@NN@internal@Eigen@@@internal@Eigen@@QEBAXPEANAEBU__m128d@@@Z
	??$assignPacket@$0A@U__m128d@@@?$compound_assign_op@NNU?$scalar_sum_op@NN@internal@Eigen@@@internal@Eigen@@QEBAXPEANAEBU__m128d@@@Z
	??$assignPacket@$0BA@$0A@U__m128d@@@?$generic_dense_assignment_kernel@U?$evaluator@V?$Block@V?$Block@V?$Block@V?$Block@V?$Matrix@N$02$02$0A@$02$02@Eigen@@$0?0$0?0$0A@@Eigen@@$0?0$00$00@Eigen@@$0?0$00$0A@@Eigen@@$0?0$00$0A@@Eigen@@@internal@Eigen@@U?$evaluator@V?$CwiseBinaryOp@U?$scalar_quotient_op@NN@internal@Eigen@@$$CBV?$Block@$$CBV?$Block@V?$Block@V?$Block@V?$Matrix@N$02$02$0A@$02$02@Eigen@@$0?0$0?0$0A@@Eigen@@$0?0$00$00@Eigen@@$0?0$00$0A@@Eigen@@$0?0$00$0A@@3@$$CBV?$CwiseNullaryOp@U?$scalar_constant_op@N@internal@Eigen@@$$CBV?$Matrix@N$0?0$00$0A@$02$00@3@@3@@Eigen@@@23@U?$assign_op@NN@23@$0A@@internal@Eigen@@QEAAX_J@Z
	??$assignPacket@$0BA@$0A@U__m128d@@@?$generic_dense_assignment_kernel@U?$evaluator@V?$Block@V?$Block@V?$Block@V?$Block@V?$Matrix@N$02$02$0A@$02$02@Eigen@@$0?0$0?0$0A@@Eigen@@$0?0$00$00@Eigen@@$0?0$00$0A@@Eigen@@$0?0$00$0A@@Eigen@@@internal@Eigen@@U?$evaluator@V?$CwiseNullaryOp@U?$scalar_zero_op@N@internal@Eigen@@V?$Matrix@N$0?0$00$0A@$02$00@3@@Eigen@@@23@U?$assign_op@NN@23@$0A@@internal@Eigen@@QEAAX_J@Z
	??$assignPacket@$0BA@$0A@U__m128d@@@?$generic_dense_assignment_kernel@U?$evaluator@V?$Block@V?$Block@V?$Block@V?$Matrix@N$02$02$0A@$02$02@Eigen@@$0?0$0?0$0A@@Eigen@@$0?0$0?0$0A@@Eigen@@$0?0$0?0$0A@@Eigen@@@internal@Eigen@@U?$evaluator@V?$Product@V?$CwiseBinaryOp@U?$scalar_product_op@NN@internal@Eigen@@$$CBV?$CwiseNullaryOp@U?$scalar_constant_op@N@internal@Eigen@@$$CBV?$Matrix@N$0?0$00$0A@$02$00@3@@3@$$CBV?$Block@V?$Block@V?$Block@V?$Matrix@N$02$02$0A@$02$02@Eigen@@$0?0$0?0$0A@@Eigen@@$0?0$00$00@Eigen@@$0?0$00$0A@@3@@Eigen@@V?$Map@V?$Matrix@N$00$0?0$00$00$02@Eigen@@$0A@V?$Stride@$0A@$0A@@2@@2@$00@Eigen@@@23@U?$sub_assign_op@NN@23@$0A@@internal@Eigen@@QEAAX_J0@Z
	??$assignPacket@$0BA@$0A@U__m128d@@@?$generic_dense_assignment_kernel@U?$evaluator@V?$Block@V?$Block@V?$Block@V?$Matrix@N$0?0$0?0$0A@$0?0$0?0@Eigen@@$0?0$00$00@Eigen@@$0?0$00$0A@@Eigen@@$0?0$00$0A@@Eigen@@@internal@Eigen@@U?$evaluator@V?$CwiseBinaryOp@U?$scalar_quotient_op@NN@internal@Eigen@@$$CBV?$Block@$$CBV?$Block@V?$Block@V?$Matrix@N$0?0$0?0$0A@$0?0$0?0@Eigen@@$0?0$00$00@Eigen@@$0?0$00$0A@@Eigen@@$0?0$00$0A@@3@$$CBV?$CwiseNullaryOp@U?$scalar_constant_op@N@internal@Eigen@@$$CBV?$Matrix@N$0?0$00$0A@$0?0$00@3@@3@@Eigen@@@23@U?$assign_op@NN@23@$0A@@internal@Eigen@@QEAAX_J@Z
	??$assignPacket@$0BA@$0A@U__m128d@@@?$generic_dense_assignment_kernel@U?$evaluator@V?$Block@V?$Block@V?$Block@V?$Matrix@N$0?0$0?0$0A@$0?0$0?0@Eigen@@$0?0$0?0$0A@@Eigen@@$0?0$0?0$0A@@Eigen@@$0?0$00$00@Eigen@@@internal@Eigen@@U?$evaluator@V?$CwiseBinaryOp@U?$scalar_product_op@NN@internal@Eigen@@$$CBV?$CwiseNullaryOp@U?$scalar_constant_op@N@internal@Eigen@@$$CBV?$Matrix@N$0?0$00$0A@$0?0$00@3@@3@$$CBV?$Map@V?$Matrix@N$0?0$00$0A@$0?0$00@Eigen@@$0BA@V?$Stride@$0A@$0A@@2@@3@@Eigen@@@23@U?$sub_assign_op@NN@23@$0A@@internal@Eigen@@QEAAX_J@Z
	??$assignPacket@$0BA@$0A@U__m128d@@@?$generic_dense_assignment_kernel@U?$evaluator@V?$Block@V?$Block@V?$Matrix@N$02$02$0A@$02$02@Eigen@@$0?0$02$0A@@Eigen@@$0?0$02$0A@@Eigen@@@internal@Eigen@@U?$evaluator@V?$Block@$$CBV?$CwiseBinaryOp@U?$scalar_product_op@NN@internal@Eigen@@$$CBV?$CwiseNullaryOp@U?$scalar_constant_op@N@internal@Eigen@@$$CBV?$Matrix@N$0?0$02$0A@$02$02@3@@3@$$CBV?$Matrix@N$0?0$02$0A@$02$02@3@@Eigen@@$0?0$02$0A@@Eigen@@@23@U?$sub_assign_op@NN@23@$0A@@internal@Eigen@@QEAAX_J0@Z
	??$assignPacket@$0BA@$0A@U__m128d@@@?$generic_dense_assignment_kernel@U?$evaluator@V?$Block@V?$Block@V?$Matrix@N$02$02$0A@$02$02@Eigen@@$0?0$02$0A@@Eigen@@$0?0$02$0A@@Eigen@@@internal@Eigen@@U?$evaluator@V?$Product@V?$CwiseBinaryOp@U?$scalar_product_op@NN@internal@Eigen@@$$CBV?$CwiseNullaryOp@U?$scalar_constant_op@N@internal@Eigen@@$$CBV?$Matrix@N$0?0$00$0A@$02$00@3@@3@$$CBV?$Block@$$CBV?$Matrix@N$02$02$0A@$02$02@Eigen@@$0?0$00$0A@@3@@Eigen@@V?$Map@V?$Matrix@N$00$02$00$00$02@Eigen@@$0A@V?$Stride@$0A@$0A@@2@@2@$00@Eigen@@@23@U?$sub_assign_op@NN@23@$0A@@internal@Eigen@@QEAAX_J0@Z
	??$assignPacket@$0BA@$0A@U__m128d@@@?$generic_dense_assignment_kernel@U?$evaluator@V?$Block@V?$Block@V?$Matrix@N$02$02$0A@$02$02@Eigen@@$0?0$02$0A@@Eigen@@$0?0$0?0$00@Eigen@@@internal@Eigen@@U?$evaluator@V?$CwiseBinaryOp@U?$scalar_product_op@NN@internal@Eigen@@$$CBV?$CwiseNullaryOp@U?$scalar_constant_op@N@internal@Eigen@@$$CBV?$Matrix@N$0?0$0?0$0A@$02$02@3@@3@$$CBV?$Block@$$CBV?$Block@V?$Matrix@N$02$02$0A@$02$02@Eigen@@$0?0$0?0$0A@@Eigen@@$0?0$0?0$00@3@@Eigen@@@23@U?$sub_assign_op@NN@23@$0A@@internal@Eigen@@QEAAX_J0@Z
	??$assignPacket@$0BA@$0A@U__m128d@@@?$generic_dense_assignment_kernel@U?$evaluator@V?$Block@V?$Block@V?$Matrix@N$02$02$0A@$02$02@Eigen@@$0?0$0?0$0A@@Eigen@@$0?0$00$00@Eigen@@@internal@Eigen@@U?$evaluator@V?$CwiseBinaryOp@U?$scalar_product_op@NN@internal@Eigen@@$$CBV?$CwiseNullaryOp@U?$scalar_constant_op@N@internal@Eigen@@$$CBV?$Matrix@N$0?0$00$0A@$02$00@3@@3@$$CBV?$Map@V?$Matrix@N$0?0$00$0A@$02$00@Eigen@@$0A@V?$Stride@$0A@$0A@@2@@3@@Eigen@@@23@U?$sub_assign_op@NN@23@$0A@@internal@Eigen@@QEAAX_J@Z
	??$assignPacket@$0BA@$0A@U__m128d@@@?$generic_dense_assignment_kernel@U?$evaluator@V?$Block@V?$Block@V?$Matrix@N$02$02$0A@$02$02@Eigen@@$0?0$0?0$0A@@Eigen@@$0?0$0?0$00@Eigen@@@internal@Eigen@@U?$evaluator@V?$CwiseBinaryOp@U?$scalar_product_op@NN@internal@Eigen@@$$CBV?$CwiseNullaryOp@U?$scalar_constant_op@N@internal@Eigen@@$$CBV?$Matrix@N$0?0$0?0$0A@$02$02@3@@3@$$CBV?$Block@$$CBV?$Block@V?$Matrix@N$02$02$0A@$02$02@Eigen@@$0?0$0?0$0A@@Eigen@@$0?0$0?0$00@3@@Eigen@@@23@U?$sub_assign_op@NN@23@$0A@@internal@Eigen@@QEAAX_J0@Z
	??$assignPacket@$0BA@$0A@U__m128d@@@?$generic_dense_assignment_kernel@U?$evaluator@V?$Block@V?$Block@V?$Matrix@N$02$02$0A@$02$02@Eigen@@$0?0$0?0$0A@@Eigen@@$0?0$0?0$0A@@Eigen@@@internal@Eigen@@U?$evaluator@V?$Block@$$CBV?$CwiseBinaryOp@U?$scalar_product_op@NN@internal@Eigen@@$$CBV?$CwiseNullaryOp@U?$scalar_constant_op@N@internal@Eigen@@$$CBV?$Matrix@N$0?0$0?0$0A@$02$02@3@@3@$$CBV?$Matrix@N$0?0$0?0$0A@$02$02@3@@Eigen@@$0?0$0?0$0A@@Eigen@@@23@U?$sub_assign_op@NN@23@$0A@@internal@Eigen@@QEAAX_J0@Z
	??$assignPacket@$0BA@$0A@U__m128d@@@?$generic_dense_assignment_kernel@U?$evaluator@V?$Block@V?$Block@V?$Matrix@N$02$02$0A@$02$02@Eigen@@$0?0$0?0$0A@@Eigen@@$0?0$0?0$0A@@Eigen@@@internal@Eigen@@U?$evaluator@V?$CwiseNullaryOp@U?$scalar_constant_op@N@internal@Eigen@@$$CBV?$Matrix@N$0?0$0?0$0A@$02$02@3@@Eigen@@@23@U?$mul_assign_op@NN@23@$0A@@internal@Eigen@@QEAAX_J0@Z
	??$assignPacket@$0BA@$0A@U__m128d@@@?$generic_dense_assignment_kernel@U?$evaluator@V?$Block@V?$Block@V?$Matrix@N$02$02$0A@$02$02@Eigen@@$0?0$0?0$0A@@Eigen@@$0?0$0?0$0A@@Eigen@@@internal@Eigen@@U?$evaluator@V?$Product@V?$CwiseBinaryOp@U?$scalar_product_op@NN@internal@Eigen@@$$CBV?$CwiseNullaryOp@U?$scalar_constant_op@N@internal@Eigen@@$$CBV?$Matrix@N$0?0$00$0A@$02$00@3@@3@$$CBV?$Block@$$CBV?$Matrix@N$02$02$0A@$02$02@Eigen@@$0?0$00$0A@@3@@Eigen@@V?$Map@V?$Matrix@N$00$0?0$00$00$02@Eigen@@$0A@V?$Stride@$0A@$0A@@2@@2@$00@Eigen@@@23@U?$sub_assign_op@NN@23@$0A@@internal@Eigen@@QEAAX_J0@Z
	??$assignPacket@$0BA@$0A@U__m128d@@@?$generic_dense_assignment_kernel@U?$evaluator@V?$Block@V?$Block@V?$Matrix@N$02$02$0A@$02$02@Eigen@@$0?0$0?0$0A@@Eigen@@$0?0$0?0$0A@@Eigen@@@internal@Eigen@@U?$evaluator@V?$Product@V?$CwiseBinaryOp@U?$scalar_product_op@NN@internal@Eigen@@$$CBV?$CwiseNullaryOp@U?$scalar_constant_op@N@internal@Eigen@@$$CBV?$Matrix@N$0?0$00$0A@$02$00@3@@3@$$CBV?$Map@V?$Matrix@N$0?0$00$0A@$02$00@Eigen@@$0A@V?$Stride@$0A@$0A@@2@@3@@Eigen@@V?$Transpose@$$CBV?$Block@$$CBV?$Matrix@N$02$02$0A@$02$02@Eigen@@$0?0$00$0A@@Eigen@@@2@$00@Eigen@@@23@U?$sub_assign_op@NN@23@$0A@@internal@Eigen@@QEAAX_J0@Z
	??$assignPacket@$0BA@$0A@U__m128d@@@?$generic_dense_assignment_kernel@U?$evaluator@V?$Block@V?$Block@V?$Matrix@N$0?0$0?0$00$0?0$0?0@Eigen@@$00$0?0$00@Eigen@@$00$0?0$0A@@Eigen@@@internal@Eigen@@U?$evaluator@V?$CwiseBinaryOp@U?$scalar_product_op@NN@internal@Eigen@@$$CBV?$CwiseNullaryOp@U?$scalar_constant_op@N@internal@Eigen@@$$CBV?$Matrix@N$00$0?0$00$00$0?0@3@@3@$$CBV?$Block@V?$Block@V?$Matrix@N$0?0$0?0$00$0?0$0?0@Eigen@@$00$0?0$00@Eigen@@$00$0?0$0A@@3@@Eigen@@@23@U?$add_assign_op@NN@23@$0A@@internal@Eigen@@QEAAX_J@Z
	??$assignPacket@$0BA@$0A@U__m128d@@@?$generic_dense_assignment_kernel@U?$evaluator@V?$Block@V?$Block@V?$Matrix@N$0?0$0?0$0A@$0?0$0?0@Eigen@@$0?0$0?0$0A@@Eigen@@$0?0$00$00@Eigen@@@internal@Eigen@@U?$evaluator@V?$CwiseBinaryOp@U?$scalar_product_op@NN@internal@Eigen@@$$CBV?$CwiseNullaryOp@U?$scalar_constant_op@N@internal@Eigen@@$$CBV?$Matrix@N$0?0$00$0A@$0?0$00@3@@3@$$CBV?$Map@V?$Matrix@N$0?0$00$0A@$0?0$00@Eigen@@$0A@V?$Stride@$0A@$0A@@2@@3@@Eigen@@@23@U?$sub_assign_op@NN@23@$0A@@internal@Eigen@@QEAAX_J@Z
	??$assignPacket@$0BA@$0A@U__m128d@@@?$generic_dense_assignment_kernel@U?$evaluator@V?$Block@V?$Block@V?$Matrix@N$0?0$0?0$0A@$0?0$0?0@Eigen@@$0?0$0?0$0A@@Eigen@@$0?0$0?0$00@Eigen@@@internal@Eigen@@U?$evaluator@V?$CwiseBinaryOp@U?$scalar_product_op@NN@internal@Eigen@@$$CBV?$CwiseNullaryOp@U?$scalar_constant_op@N@internal@Eigen@@$$CBV?$Matrix@N$0?0$0?0$0A@$0?0$0?0@3@@3@$$CBV?$Block@$$CBV?$Block@V?$Matrix@N$0?0$0?0$0A@$0?0$0?0@Eigen@@$0?0$0?0$0A@@Eigen@@$0?0$0?0$00@3@@Eigen@@@23@U?$sub_assign_op@NN@23@$0A@@internal@Eigen@@QEAAX_J0@Z
	??$assignPacket@$0BA@$0A@U__m128d@@@?$generic_dense_assignment_kernel@U?$evaluator@V?$Block@V?$Block@V?$Matrix@N$0?0$0?0$0A@$0?0$0?0@Eigen@@$0?0$0?0$0A@@Eigen@@$0?0$0?0$0A@@Eigen@@@internal@Eigen@@U?$evaluator@V?$Block@$$CBV?$CwiseBinaryOp@U?$scalar_product_op@NN@internal@Eigen@@$$CBV?$CwiseNullaryOp@U?$scalar_constant_op@N@internal@Eigen@@$$CBV?$Matrix@N$0?0$0?0$0A@$0?0$0?0@3@@3@$$CBV?$Matrix@N$0?0$0?0$0A@$0?0$0?0@3@@Eigen@@$0?0$0?0$0A@@Eigen@@@23@U?$sub_assign_op@NN@23@$0A@@internal@Eigen@@QEAAX_J0@Z
	??$assignPacket@$0BA@$0A@U__m128d@@@?$generic_dense_assignment_kernel@U?$evaluator@V?$Block@V?$Block@V?$Ref@V?$Matrix@N$02$02$0A@$02$02@Eigen@@$0A@V?$OuterStride@$0?0@2@@Eigen@@$02$00$00@Eigen@@$0?0$00$0A@@Eigen@@@internal@Eigen@@U?$evaluator@V?$CwiseNullaryOp@U?$scalar_constant_op@N@internal@Eigen@@$$CBV?$Matrix@N$0?0$00$0A@$02$00@3@@Eigen@@@23@U?$div_assign_op@NN@23@$0A@@internal@Eigen@@QEAAX_J@Z
	??$assignPacket@$0BA@$0A@U__m128d@@@?$generic_dense_assignment_kernel@U?$evaluator@V?$Block@V?$Matrix@N$02$02$0A@$02$02@Eigen@@$0?0$02$0A@@Eigen@@@internal@Eigen@@U?$evaluator@V?$CwiseNullaryOp@U?$scalar_constant_op@N@internal@Eigen@@$$CBV?$Matrix@N$0?0$02$0A@$02$02@3@@Eigen@@@23@U?$mul_assign_op@NN@23@$0A@@internal@Eigen@@QEAAX_J0@Z
	??$assignPacket@$0BA@$0A@U__m128d@@@?$generic_dense_assignment_kernel@U?$evaluator@V?$Block@V?$Matrix@N$02$02$0A@$02$02@Eigen@@$0?0$0?0$0A@@Eigen@@@internal@Eigen@@U?$evaluator@V?$CwiseNullaryOp@U?$scalar_constant_op@N@internal@Eigen@@$$CBV?$Matrix@N$0?0$0?0$0A@$02$02@3@@Eigen@@@23@U?$mul_assign_op@NN@23@$0A@@internal@Eigen@@QEAAX_J0@Z
	??$assignPacket@$0BA@$0A@U__m128d@@@?$generic_dense_assignment_kernel@U?$evaluator@V?$Block@V?$Matrix@N$0?0$02$0A@$02$02@Eigen@@$0?0$02$0A@@Eigen@@@internal@Eigen@@U?$evaluator@V?$Block@$$CBV?$CwiseBinaryOp@U?$scalar_product_op@NN@internal@Eigen@@$$CBV?$CwiseNullaryOp@U?$scalar_constant_op@N@internal@Eigen@@$$CBV?$Matrix@N$0?0$02$0A@$02$02@3@@3@$$CBV?$Block@V?$Matrix@N$02$02$0A@$02$02@Eigen@@$0?0$02$0A@@3@@Eigen@@$0?0$02$0A@@Eigen@@@23@U?$sub_assign_op@NN@23@$0A@@internal@Eigen@@QEAAX_J0@Z
	??$assignPacket@$0BA@$0A@U__m128d@@@?$generic_dense_assignment_kernel@U?$evaluator@V?$Block@V?$Matrix@N$0?0$02$0A@$0?0$02@Eigen@@$0?0$02$0A@@Eigen@@@internal@Eigen@@U?$evaluator@V?$Block@$$CBV?$CwiseBinaryOp@U?$scalar_product_op@NN@internal@Eigen@@$$CBV?$CwiseNullaryOp@U?$scalar_constant_op@N@internal@Eigen@@$$CBV?$Matrix@N$0?0$02$0A@$02$02@3@@3@$$CBV?$Matrix@N$0?0$02$0A@$02$02@3@@Eigen@@$0?0$02$0A@@Eigen@@@23@U?$sub_assign_op@NN@23@$0A@@internal@Eigen@@QEAAX_J0@Z
	??$assignPacket@$0BA@$0A@U__m128d@@@?$generic_dense_assignment_kernel@U?$evaluator@V?$Block@V?$Matrix@N$0?0$02$0A@$0?0$02@Eigen@@$0?0$0?0$00@Eigen@@@internal@Eigen@@U?$evaluator@V?$CwiseBinaryOp@U?$scalar_product_op@NN@internal@Eigen@@$$CBV?$CwiseNullaryOp@U?$scalar_constant_op@N@internal@Eigen@@$$CBV?$Matrix@N$0?0$0?0$0A@$0?0$0?0@3@@3@$$CBV?$Block@$$CBV?$Transpose@$$CBV?$Matrix@N$0?0$0?0$00$0?0$0?0@Eigen@@@Eigen@@$0?0$0?0$00@3@@Eigen@@@23@U?$sub_assign_op@NN@23@$0A@@internal@Eigen@@QEAAX_J@Z
	??$assignPacket@$0BA@$0A@U__m128d@@@?$generic_dense_assignment_kernel@U?$evaluator@V?$Block@V?$Matrix@N$0?0$0?0$0A@$02$02@Eigen@@$0?0$0?0$0A@@Eigen@@@internal@Eigen@@U?$evaluator@V?$Block@$$CBV?$CwiseBinaryOp@U?$scalar_product_op@NN@internal@Eigen@@$$CBV?$CwiseNullaryOp@U?$scalar_constant_op@N@internal@Eigen@@$$CBV?$Matrix@N$0?0$0?0$0A@$02$02@3@@3@$$CBV?$Block@V?$Matrix@N$02$02$0A@$02$02@Eigen@@$0?0$0?0$0A@@3@@Eigen@@$0?0$0?0$0A@@Eigen@@@23@U?$sub_assign_op@NN@23@$0A@@internal@Eigen@@QEAAX_J0@Z
	??$assignPacket@$0BA@$0A@U__m128d@@@?$generic_dense_assignment_kernel@U?$evaluator@V?$Block@V?$Matrix@N$0?0$0?0$0A@$0?0$02@Eigen@@$0?0$0?0$00@Eigen@@@internal@Eigen@@U?$evaluator@V?$CwiseBinaryOp@U?$scalar_product_op@NN@internal@Eigen@@$$CBV?$CwiseNullaryOp@U?$scalar_constant_op@N@internal@Eigen@@$$CBV?$Matrix@N$0?0$0?0$0A@$0?0$0?0@3@@3@$$CBV?$Block@$$CBV?$Transpose@$$CBV?$Matrix@N$0?0$0?0$00$0?0$0?0@Eigen@@@Eigen@@$0?0$0?0$00@3@@Eigen@@@23@U?$sub_assign_op@NN@23@$0A@@internal@Eigen@@QEAAX_J@Z
	??$assignPacket@$0BA@$0A@U__m128d@@@?$generic_dense_assignment_kernel@U?$evaluator@V?$Block@V?$Matrix@N$0?0$0?0$0A@$0?0$02@Eigen@@$0?0$0?0$0A@@Eigen@@@internal@Eigen@@U?$evaluator@V?$Block@$$CBV?$CwiseBinaryOp@U?$scalar_product_op@NN@internal@Eigen@@$$CBV?$CwiseNullaryOp@U?$scalar_constant_op@N@internal@Eigen@@$$CBV?$Matrix@N$0?0$0?0$0A@$02$02@3@@3@$$CBV?$Matrix@N$0?0$0?0$0A@$02$02@3@@Eigen@@$0?0$0?0$0A@@Eigen@@@23@U?$sub_assign_op@NN@23@$0A@@internal@Eigen@@QEAAX_J0@Z
	??$assignPacket@$0BA@$0A@U__m128d@@@?$generic_dense_assignment_kernel@U?$evaluator@V?$Block@V?$Matrix@N$0?0$0?0$0A@$0?0$0?0@Eigen@@$0?0$00$00@Eigen@@@internal@Eigen@@U123@U?$swap_assign_op@N@23@$0A@@internal@Eigen@@QEAAX_J@Z
	??$assignPacket@$0BA@$0A@U__m128d@@@?$generic_dense_assignment_kernel@U?$evaluator@V?$Block@V?$Matrix@N$0?0$0?0$0A@$0?0$0?0@Eigen@@$0?0$00$00@Eigen@@@internal@Eigen@@U?$evaluator@V?$CwiseBinaryOp@U?$scalar_product_op@NN@internal@Eigen@@$$CBV?$CwiseNullaryOp@U?$scalar_constant_op@N@internal@Eigen@@$$CBV?$Matrix@N$0?0$00$0A@$0?0$00@3@@3@$$CBV?$Block@$$CBV?$Product@V?$Matrix@N$0?0$0?0$0A@$0?0$0?0@Eigen@@V?$DiagonalWrapper@$$CBV?$Matrix@N$0?0$00$0A@$0?0$00@Eigen@@@2@$00@Eigen@@$0?0$00$00@3@@Eigen@@@23@U?$add_assign_op@NN@23@$0A@@internal@Eigen@@QEAAX_J@Z
	??$assignPacket@$0BA@$0A@U__m128d@@@?$generic_dense_assignment_kernel@U?$evaluator@V?$Block@V?$Matrix@N$0?0$0?0$0A@$0?0$0?0@Eigen@@$0?0$00$00@Eigen@@@internal@Eigen@@U?$evaluator@V?$CwiseBinaryOp@U?$scalar_product_op@NN@internal@Eigen@@$$CBV?$CwiseNullaryOp@U?$scalar_constant_op@N@internal@Eigen@@$$CBV?$Matrix@N$0?0$00$0A@$0?0$00@3@@3@$$CBV?$Map@V?$Matrix@N$0?0$00$0A@$0?0$00@Eigen@@$01V?$Stride@$0A@$0A@@2@@3@@Eigen@@@23@U?$add_assign_op@NN@23@$0A@@internal@Eigen@@QEAAX_J@Z
	??$assignPacket@$0BA@$0A@U__m128d@@@?$generic_dense_assignment_kernel@U?$evaluator@V?$Block@V?$Matrix@N$0?0$0?0$0A@$0?0$0?0@Eigen@@$0?0$00$00@Eigen@@@internal@Eigen@@U?$evaluator@V?$CwiseNullaryOp@U?$scalar_constant_op@N@internal@Eigen@@$$CBV?$Matrix@N$0?0$00$0A@$0?0$00@3@@Eigen@@@23@U?$mul_assign_op@NN@23@$0A@@internal@Eigen@@QEAAX_J@Z
	??$assignPacket@$0BA@$0A@U__m128d@@@?$generic_dense_assignment_kernel@U?$evaluator@V?$Block@V?$Matrix@N$0?0$0?0$0A@$0?0$0?0@Eigen@@$0?0$00$00@Eigen@@@internal@Eigen@@U?$evaluator@V?$CwiseUnaryOp@U?$scalar_opposite_op@N@internal@Eigen@@$$CBV?$Block@V?$Matrix@N$0?0$0?0$0A@$0?0$0?0@Eigen@@$0?0$00$00@3@@Eigen@@@23@U?$assign_op@NN@23@$0A@@internal@Eigen@@QEAAX_J@Z
	??$assignPacket@$0BA@$0A@U__m128d@@@?$generic_dense_assignment_kernel@U?$evaluator@V?$Block@V?$Matrix@N$0?0$0?0$0A@$0?0$0?0@Eigen@@$0?0$00$00@Eigen@@@internal@Eigen@@U?$evaluator@V?$Map@V?$Matrix@N$0?0$00$0A@$0?0$00@Eigen@@$01V?$Stride@$0A@$0A@@2@@Eigen@@@23@U?$assign_op@NN@23@$0A@@internal@Eigen@@QEAAX_J@Z
	??$assignPacket@$0BA@$0A@U__m128d@@@?$generic_dense_assignment_kernel@U?$evaluator@V?$Block@V?$Matrix@N$0?0$0?0$0A@$0?0$0?0@Eigen@@$0?0$0?0$00@Eigen@@@internal@Eigen@@U?$evaluator@V?$CwiseBinaryOp@U?$scalar_product_op@NN@internal@Eigen@@$$CBV?$CwiseNullaryOp@U?$scalar_constant_op@N@internal@Eigen@@$$CBV?$Matrix@N$0?0$0?0$0A@$0?0$0?0@3@@3@$$CBV?$Block@$$CBV?$Transpose@$$CBV?$Matrix@N$0?0$0?0$00$0?0$0?0@Eigen@@@Eigen@@$0?0$0?0$00@3@@Eigen@@@23@U?$sub_assign_op@NN@23@$0A@@internal@Eigen@@QEAAX_J@Z
	??$assignPacket@$0BA@$0A@U__m128d@@@?$generic_dense_assignment_kernel@U?$evaluator@V?$Block@V?$Matrix@N$0?0$0?0$0A@$0?0$0?0@Eigen@@$0?0$0?0$0A@@Eigen@@@internal@Eigen@@U?$evaluator@V?$Block@$$CBV?$CwiseBinaryOp@U?$scalar_product_op@NN@internal@Eigen@@$$CBV?$CwiseNullaryOp@U?$scalar_constant_op@N@internal@Eigen@@$$CBV?$Matrix@N$0?0$0?0$0A@$0?0$0?0@3@@3@$$CBV?$Block@V?$Matrix@N$0?0$0?0$0A@$0?0$0?0@Eigen@@$0?0$0?0$0A@@3@@Eigen@@$0?0$0?0$0A@@Eigen@@@23@U?$sub_assign_op@NN@23@$0A@@internal@Eigen@@QEAAX_J0@Z
	??$assignPacket@$0BA@$0A@U__m128d@@@?$generic_dense_assignment_kernel@U?$evaluator@V?$Block@V?$Matrix@N$0?0$0?0$0A@$0?0$0?0@Eigen@@$0?0$0?0$0A@@Eigen@@@internal@Eigen@@U?$evaluator@V?$Block@$$CBV?$CwiseBinaryOp@U?$scalar_product_op@NN@internal@Eigen@@$$CBV?$CwiseNullaryOp@U?$scalar_constant_op@N@internal@Eigen@@$$CBV?$Matrix@N$0?0$0?0$0A@$0?0$0?0@3@@3@$$CBV?$Matrix@N$0?0$0?0$0A@$0?0$0?0@3@@Eigen@@$0?0$0?0$0A@@Eigen@@@23@U?$sub_assign_op@NN@23@$0A@@internal@Eigen@@QEAAX_J0@Z
	??$assignPacket@$0BA@$0A@U__m128d@@@?$generic_dense_assignment_kernel@U?$evaluator@V?$Block@V?$Matrix@N$0?0$0?0$0A@$0?0$0?0@Eigen@@$0?0$0?0$0A@@Eigen@@@internal@Eigen@@U?$evaluator@V?$CwiseNullaryOp@U?$scalar_constant_op@N@internal@Eigen@@$$CBV?$Matrix@N$0?0$0?0$0A@$0?0$0?0@3@@Eigen@@@23@U?$mul_assign_op@NN@23@$0A@@internal@Eigen@@QEAAX_J0@Z
	??$assignPacket@$0BA@$0A@U__m128d@@@?$generic_dense_assignment_kernel@U?$evaluator@V?$Block@V?$Matrix@N$0?0$0?0$0A@$0?0$0?0@Eigen@@$0?0$0?0$0A@@Eigen@@@internal@Eigen@@U?$evaluator@V?$CwiseNullaryOp@U?$scalar_zero_op@N@internal@Eigen@@V?$Matrix@N$0?0$0?0$0A@$0?0$0?0@3@@Eigen@@@23@U?$assign_op@NN@23@$0A@@internal@Eigen@@QEAAX_J0@Z
	??$assignPacket@$0BA@$0A@U__m128d@@@?$generic_dense_assignment_kernel@U?$evaluator@V?$Block@V?$Ref@V?$Matrix@N$02$02$0A@$02$02@Eigen@@$0A@V?$OuterStride@$0?0@2@@Eigen@@$0?0$0?0$0A@@Eigen@@@internal@Eigen@@U?$evaluator@V?$Product@V?$Block@V?$Block@V?$Ref@V?$Matrix@N$02$02$0A@$02$02@Eigen@@$0A@V?$OuterStride@$0?0@2@@Eigen@@$02$00$00@Eigen@@$0?0$00$0A@@Eigen@@V?$Block@V?$Block@V?$Ref@V?$Matrix@N$02$02$0A@$02$02@Eigen@@$0A@V?$OuterStride@$0?0@2@@Eigen@@$00$02$0A@@Eigen@@$00$0?0$0A@@2@$00@Eigen@@@23@U?$sub_assign_op@NN@23@$0A@@internal@Eigen@@QEAAX_J0@Z
	??$assignPacket@$0BA@$0A@U__m128d@@@?$generic_dense_assignment_kernel@U?$evaluator@V?$Block@V?$Ref@V?$Matrix@N$0?0$0?0$0A@$0?0$0?0@Eigen@@$0A@V?$OuterStride@$0?0@2@@Eigen@@$0?0$00$00@Eigen@@@internal@Eigen@@U?$evaluator@V?$CwiseBinaryOp@U?$scalar_product_op@NN@internal@Eigen@@$$CBV?$CwiseNullaryOp@U?$scalar_constant_op@N@internal@Eigen@@$$CBV?$Matrix@N$0?0$00$0A@$0?0$00@3@@3@$$CBV?$Map@V?$Matrix@N$0?0$00$0A@$0?0$00@Eigen@@$01V?$Stride@$0A@$0A@@2@@3@@Eigen@@@23@U?$add_assign_op@NN@23@$0A@@internal@Eigen@@QEAAX_J@Z
	??$assignPacket@$0BA@$0A@U__m128d@@@?$generic_dense_assignment_kernel@U?$evaluator@V?$Block@V?$Ref@V?$Matrix@N$0?0$0?0$0A@$0?0$0?0@Eigen@@$0A@V?$OuterStride@$0?0@2@@Eigen@@$0?0$00$00@Eigen@@@internal@Eigen@@U?$evaluator@V?$Map@V?$Matrix@N$0?0$00$0A@$0?0$00@Eigen@@$01V?$Stride@$0A@$0A@@2@@Eigen@@@23@U?$assign_op@NN@23@$0A@@internal@Eigen@@QEAAX_J@Z
	??$assignPacket@$0BA@$0A@U__m128d@@@?$generic_dense_assignment_kernel@U?$evaluator@V?$Block@V?$Transpose@V?$Block@V?$Block@V?$Matrix@N$0?0$0?0$00$0?0$0?0@Eigen@@$00$0?0$00@Eigen@@$00$0?0$0A@@Eigen@@@Eigen@@$0?0$00$0A@@Eigen@@@internal@Eigen@@U?$evaluator@V?$CwiseBinaryOp@U?$scalar_product_op@NN@internal@Eigen@@$$CBV?$CwiseNullaryOp@U?$scalar_constant_op@N@internal@Eigen@@$$CBV?$Matrix@N$0?0$00$0A@$02$00@3@@3@$$CBV?$Block@$$CBV?$Transpose@$$CBV?$CwiseBinaryOp@U?$scalar_product_op@NN@internal@Eigen@@$$CBV?$CwiseNullaryOp@U?$scalar_constant_op@N@internal@Eigen@@$$CBV?$Matrix@N$00$0?0$00$00$02@3@@3@$$CBV?$Transpose@$$CBV?$Block@$$CBV?$Block@$$CBV?$Block@V?$Matrix@N$02$02$0A@$02$02@Eigen@@$0?0$0?0$0A@@Eigen@@$0?0$00$00@Eigen@@$0?0$00$0A@@Eigen@@@3@@Eigen@@@Eigen@@$0?0$00$0A@@3@@Eigen@@@23@U?$sub_assign_op@NN@23@$0A@@internal@Eigen@@QEAAX_J@Z
	??$assignPacket@$0BA@$0A@U__m128d@@@?$generic_dense_assignment_kernel@U?$evaluator@V?$Block@V?$Transpose@V?$Block@V?$Block@V?$Matrix@N$0?0$0?0$00$0?0$0?0@Eigen@@$00$0?0$00@Eigen@@$00$0?0$0A@@Eigen@@@Eigen@@$0?0$00$0A@@Eigen@@@internal@Eigen@@U?$evaluator@V?$CwiseBinaryOp@U?$scalar_product_op@NN@internal@Eigen@@$$CBV?$CwiseNullaryOp@U?$scalar_constant_op@N@internal@Eigen@@$$CBV?$Matrix@N$0?0$00$0A@$0?0$00@3@@3@$$CBV?$Block@$$CBV?$Transpose@$$CBV?$CwiseBinaryOp@U?$scalar_product_op@NN@internal@Eigen@@$$CBV?$CwiseNullaryOp@U?$scalar_constant_op@N@internal@Eigen@@$$CBV?$Matrix@N$00$0?0$00$00$0?0@3@@3@$$CBV?$Transpose@$$CBV?$Block@$$CBV?$Block@$$CBV?$Block@V?$Matrix@N$0?0$0?0$0A@$0?0$0?0@Eigen@@$0?0$0?0$0A@@Eigen@@$0?0$00$00@Eigen@@$0?0$00$0A@@Eigen@@@3@@Eigen@@@Eigen@@$0?0$00$0A@@3@@Eigen@@@23@U?$sub_assign_op@NN@23@$0A@@internal@Eigen@@QEAAX_J@Z
	??$assignPacket@$0BA@$0A@U__m128d@@@?$generic_dense_assignment_kernel@U?$evaluator@V?$Map@V?$Matrix@N$0?0$00$0A@$02$00@Eigen@@$0A@V?$Stride@$0A@$0A@@2@@Eigen@@@internal@Eigen@@U?$evaluator@V?$Block@V?$Block@V?$Matrix@N$02$02$0A@$02$02@Eigen@@$0?0$0?0$0A@@Eigen@@$0?0$00$00@Eigen@@@23@U?$add_assign_op@NN@23@$0A@@internal@Eigen@@QEAAX_J@Z
	??$assignPacket@$0BA@$0A@U__m128d@@@?$generic_dense_assignment_kernel@U?$evaluator@V?$Map@V?$Matrix@N$0?0$00$0A@$02$00@Eigen@@$0A@V?$Stride@$0A@$0A@@2@@Eigen@@@internal@Eigen@@U?$evaluator@V?$Product@V?$Block@V?$Block@V?$Matrix@N$02$02$0A@$02$02@Eigen@@$0?0$0?0$0A@@Eigen@@$0?0$0?0$0A@@Eigen@@V?$Block@$$CBV?$Matrix@N$02$02$0A@$02$02@Eigen@@$0?0$00$0A@@2@$00@Eigen@@@23@U?$assign_op@NN@23@$0A@@internal@Eigen@@QEAAX_J@Z
	??$assignPacket@$0BA@$0A@U__m128d@@@?$generic_dense_assignment_kernel@U?$evaluator@V?$Map@V?$Matrix@N$0?0$00$0A@$02$00@Eigen@@$0BA@V?$Stride@$0A@$0A@@2@@Eigen@@@internal@Eigen@@U?$evaluator@V?$Transpose@$$CBV?$Transpose@$$CBV?$Block@$$CBV?$Block@$$CBV?$Block@V?$Matrix@N$02$02$0A@$02$02@Eigen@@$0?0$0?0$0A@@Eigen@@$0?0$00$00@Eigen@@$0?0$00$0A@@Eigen@@@Eigen@@@Eigen@@@23@U?$assign_op@NN@23@$0A@@internal@Eigen@@QEAAX_J@Z
	??$assignPacket@$0BA@$0A@U__m128d@@@?$generic_dense_assignment_kernel@U?$evaluator@V?$Map@V?$Matrix@N$0?0$00$0A@$0?0$00@Eigen@@$01V?$Stride@$0A@$0A@@2@@Eigen@@@internal@Eigen@@U?$evaluator@V?$Block@V?$Matrix@N$0?0$0?0$0A@$0?0$0?0@Eigen@@$0?0$00$00@Eigen@@@23@U?$assign_op@NN@23@$0A@@internal@Eigen@@QEAAX_J@Z
	??$assignPacket@$0BA@$0A@U__m128d@@@?$generic_dense_assignment_kernel@U?$evaluator@V?$Map@V?$Matrix@N$0?0$00$0A@$0?0$00@Eigen@@$01V?$Stride@$0A@$0A@@2@@Eigen@@@internal@Eigen@@U?$evaluator@V?$Block@V?$Ref@V?$Matrix@N$0?0$0?0$0A@$0?0$0?0@Eigen@@$0A@V?$OuterStride@$0?0@2@@Eigen@@$0?0$00$00@Eigen@@@23@U?$assign_op@NN@23@$0A@@internal@Eigen@@QEAAX_J@Z
	??$assignPacket@$0BA@$0A@U__m128d@@@?$generic_dense_assignment_kernel@U?$evaluator@V?$Map@V?$Matrix@N$0?0$00$0A@$0?0$00@Eigen@@$01V?$Stride@$0A@$0A@@2@@Eigen@@@internal@Eigen@@U?$evaluator@V?$Map@V?$Matrix@N$0?0$00$0A@$0?0$00@Eigen@@$0A@V?$Stride@$0A@$0A@@2@@Eigen@@@23@U?$assign_op@NN@23@$0A@@internal@Eigen@@QEAAX_J@Z
	??$assignPacket@$0BA@$0A@U__m128d@@@?$generic_dense_assignment_kernel@U?$evaluator@V?$Map@V?$Matrix@N$0?0$00$0A@$0?0$00@Eigen@@$01V?$Stride@$0A@$0A@@2@@Eigen@@@internal@Eigen@@U?$evaluator@V?$Transpose@V?$Block@V?$Matrix@N$0?0$0?0$00$0?0$0?0@Eigen@@$00$0?0$00@Eigen@@@Eigen@@@23@U?$assign_op@NN@23@$0A@@internal@Eigen@@QEAAX_J@Z
	??$assignPacket@$0BA@$0A@U__m128d@@@?$generic_dense_assignment_kernel@U?$evaluator@V?$Map@V?$Matrix@N$0?0$00$0A@$0?0$00@Eigen@@$0A@V?$Stride@$0A@$0A@@2@@Eigen@@@internal@Eigen@@U?$evaluator@V?$Block@V?$Block@V?$Matrix@N$0?0$0?0$0A@$0?0$0?0@Eigen@@$0?0$0?0$0A@@Eigen@@$0?0$00$00@Eigen@@@23@U?$add_assign_op@NN@23@$0A@@internal@Eigen@@QEAAX_J@Z
	??$assignPacket@$0BA@$0A@U__m128d@@@?$generic_dense_assignment_kernel@U?$evaluator@V?$Map@V?$Matrix@N$0?0$00$0A@$0?0$00@Eigen@@$0A@V?$Stride@$0A@$0A@@2@@Eigen@@@internal@Eigen@@U?$evaluator@V?$CwiseBinaryOp@U?$scalar_product_op@NN@internal@Eigen@@$$CBV?$CwiseNullaryOp@U?$scalar_constant_op@N@internal@Eigen@@$$CBV?$Matrix@N$0?0$00$0A@$0?0$00@3@@3@$$CBV?$Map@V?$Matrix@N$0?0$00$0A@$0?0$00@Eigen@@$01V?$Stride@$0A@$0A@@2@@3@@Eigen@@@23@U?$add_assign_op@NN@23@$0A@@internal@Eigen@@QEAAX_J@Z
	??$assignPacket@$0BA@$0A@U__m128d@@@?$generic_dense_assignment_kernel@U?$evaluator@V?$Map@V?$Matrix@N$0?0$00$0A@$0?0$00@Eigen@@$0A@V?$Stride@$0A@$0A@@2@@Eigen@@@internal@Eigen@@U?$evaluator@V?$Map@V?$Matrix@N$0?0$00$0A@$0?0$00@Eigen@@$01V?$Stride@$0A@$0A@@2@@Eigen@@@23@U?$assign_op@NN@23@$0A@@internal@Eigen@@QEAAX_J@Z
	??$assignPacket@$0BA@$0A@U__m128d@@@?$generic_dense_assignment_kernel@U?$evaluator@V?$Map@V?$Matrix@N$0?0$00$0A@$0?0$00@Eigen@@$0A@V?$Stride@$0A@$0A@@2@@Eigen@@@internal@Eigen@@U?$evaluator@V?$Transpose@$$CBV?$Transpose@$$CBV?$Block@$$CBV?$Matrix@N$0?0$0?0$0A@$0?0$0?0@Eigen@@$0?0$00$0A@@Eigen@@@Eigen@@@Eigen@@@23@U?$assign_op@NN@23@$0A@@internal@Eigen@@QEAAX_J@Z
	??$assignPacket@$0BA@$0A@U__m128d@@@?$generic_dense_assignment_kernel@U?$evaluator@V?$Map@V?$Matrix@N$0?0$00$0A@$0?0$00@Eigen@@$0A@V?$Stride@$0A@$0A@@2@@Eigen@@@internal@Eigen@@U?$evaluator@V?$Transpose@$$CBV?$Transpose@$$CBV?$Block@V?$Block@V?$Matrix@N$0?0$0?0$0A@$0?0$0?0@Eigen@@$0?0$00$00@Eigen@@$0?0$00$0A@@Eigen@@@Eigen@@@Eigen@@@23@U?$assign_op@NN@23@$0A@@internal@Eigen@@QEAAX_J@Z
	??$assignPacket@$0BA@$0A@U__m128d@@@?$generic_dense_assignment_kernel@U?$evaluator@V?$Map@V?$Matrix@N$0?0$00$0A@$0?0$00@Eigen@@$0BA@V?$Stride@$0A@$0A@@2@@Eigen@@@internal@Eigen@@U?$evaluator@V?$CwiseBinaryOp@U?$scalar_product_op@NN@internal@Eigen@@$$CBV?$CwiseNullaryOp@U?$scalar_constant_op@N@internal@Eigen@@$$CBV?$Matrix@N$0?0$00$0A@$0?0$00@3@@3@$$CBV?$Block@$$CBV?$Matrix@N$0?0$0?0$0A@$0?0$0?0@Eigen@@$0?0$00$0A@@3@@Eigen@@@23@U?$assign_op@NN@23@$0A@@internal@Eigen@@QEAAX_J@Z
	??$assignPacket@$0BA@$0A@U__m128d@@@?$generic_dense_assignment_kernel@U?$evaluator@V?$Map@V?$Matrix@N$0?0$00$0A@$0?0$00@Eigen@@$0BA@V?$Stride@$0A@$0A@@2@@Eigen@@@internal@Eigen@@U?$evaluator@V?$CwiseBinaryOp@U?$scalar_product_op@NN@internal@Eigen@@$$CBV?$CwiseNullaryOp@U?$scalar_constant_op@N@internal@Eigen@@$$CBV?$Matrix@N$0?0$00$0A@$0?0$00@3@@3@$$CBV?$Block@V?$Block@V?$Matrix@N$0?0$0?0$0A@$0?0$0?0@Eigen@@$0?0$00$00@Eigen@@$0?0$00$0A@@3@@Eigen@@@23@U?$assign_op@NN@23@$0A@@internal@Eigen@@QEAAX_J@Z
	??$assignPacket@$0BA@$0A@U__m128d@@@?$generic_dense_assignment_kernel@U?$evaluator@V?$Map@V?$Matrix@N$0?0$00$0A@$0?0$00@Eigen@@$0BA@V?$Stride@$0A@$0A@@2@@Eigen@@@internal@Eigen@@U?$evaluator@V?$CwiseBinaryOp@U?$scalar_product_op@NN@internal@Eigen@@$$CBV?$CwiseNullaryOp@U?$scalar_constant_op@N@internal@Eigen@@$$CBV?$Matrix@N$0?0$00$0A@$0?0$00@3@@3@$$CBV?$Map@V?$Matrix@N$0?0$00$0A@$0?0$00@Eigen@@$0A@V?$Stride@$0A@$0A@@2@@3@@Eigen@@@23@U?$assign_op@NN@23@$0A@@internal@Eigen@@QEAAX_J@Z
	??$assignPacket@$0BA@$0A@U__m128d@@@?$generic_dense_assignment_kernel@U?$evaluator@V?$Map@V?$Matrix@N$0?0$00$0A@$0?0$00@Eigen@@$0BA@V?$Stride@$0A@$0A@@2@@Eigen@@@internal@Eigen@@U?$evaluator@V?$Transpose@$$CBV?$Transpose@$$CBV?$Block@$$CBV?$Block@$$CBV?$Block@V?$Matrix@N$0?0$0?0$0A@$0?0$0?0@Eigen@@$0?0$0?0$0A@@Eigen@@$0?0$00$00@Eigen@@$0?0$00$0A@@Eigen@@@Eigen@@@Eigen@@@23@U?$assign_op@NN@23@$0A@@internal@Eigen@@QEAAX_J@Z
	??$assignPacket@$0BA@$0A@U__m128d@@@?$generic_dense_assignment_kernel@U?$evaluator@V?$Matrix@N$01$00$0A@$01$00@Eigen@@@internal@Eigen@@U?$evaluator@V?$Block@$$CBV?$Matrix@N$02$00$0A@$02$00@Eigen@@$0?0$00$0A@@Eigen@@@23@U?$add_assign_op@NN@23@$0A@@internal@Eigen@@QEAAX_J0@Z
	??$assignPacket@$0BA@$0A@U__m128d@@@?$generic_dense_assignment_kernel@U?$evaluator@V?$Matrix@N$03$00$0A@$03$00@Eigen@@@internal@Eigen@@U?$evaluator@V?$Block@V?$Matrix@N$0?0$0?0$0A@$0?0$0?0@Eigen@@$0?0$00$00@Eigen@@@23@U?$assign_op@NN@23@$0A@@internal@Eigen@@QEAAX_J0@Z
	??$assignPacket@$0BA@$0A@U__m128d@@@?$generic_dense_assignment_kernel@U?$evaluator@V?$Matrix@N$03$02$0A@$03$02@Eigen@@@internal@Eigen@@U?$evaluator@V?$Map@$$CBV?$Matrix@N$03$02$0A@$03$02@Eigen@@$0A@V?$Stride@$0A@$0A@@2@@Eigen@@@23@U?$assign_op@NN@23@$0A@@internal@Eigen@@QEAAX_J0@Z
	??$assignPacket@$0BA@$0A@U__m128d@@@?$generic_dense_assignment_kernel@U?$evaluator@V?$Matrix@N$0?0$00$0A@$02$00@Eigen@@@internal@Eigen@@U?$evaluator@V?$CwiseBinaryOp@U?$scalar_product_op@NN@internal@Eigen@@$$CBV?$CwiseNullaryOp@U?$scalar_constant_op@N@internal@Eigen@@$$CBV?$Matrix@N$0?0$00$0A@$02$00@3@@3@$$CBV?$Block@$$CBV?$Matrix@N$02$02$0A@$02$02@Eigen@@$0?0$00$0A@@3@@Eigen@@@23@U?$assign_op@NN@23@$0A@@internal@Eigen@@QEAAX_J@Z
	??$assignPacket@$0BA@$0A@U__m128d@@@?$generic_dense_assignment_kernel@U?$evaluator@V?$Matrix@N$0?0$00$0A@$02$00@Eigen@@@internal@Eigen@@U?$evaluator@V?$CwiseBinaryOp@U?$scalar_product_op@NN@internal@Eigen@@$$CBV?$CwiseNullaryOp@U?$scalar_constant_op@N@internal@Eigen@@$$CBV?$Matrix@N$0?0$00$0A@$02$00@3@@3@$$CBV?$Block@V?$Block@V?$Block@V?$Matrix@N$02$02$0A@$02$02@Eigen@@$0?0$0?0$0A@@Eigen@@$0?0$00$00@Eigen@@$0?0$00$0A@@3@@Eigen@@@23@U?$assign_op@NN@23@$0A@@internal@Eigen@@QEAAX_J@Z
	??$assignPacket@$0BA@$0A@U__m128d@@@?$generic_dense_assignment_kernel@U?$evaluator@V?$Matrix@N$0?0$00$0A@$02$00@Eigen@@@internal@Eigen@@U?$evaluator@V?$CwiseBinaryOp@U?$scalar_product_op@NN@internal@Eigen@@$$CBV?$CwiseNullaryOp@U?$scalar_constant_op@N@internal@Eigen@@$$CBV?$Matrix@N$0?0$00$0A@$02$00@3@@3@$$CBV?$Map@V?$Matrix@N$0?0$00$0A@$02$00@Eigen@@$0A@V?$Stride@$0A@$0A@@2@@3@@Eigen@@@23@U?$assign_op@NN@23@$0A@@internal@Eigen@@QEAAX_J@Z
	??$assignPacket@$0BA@$0A@U__m128d@@@?$generic_dense_assignment_kernel@U?$evaluator@V?$Matrix@N$0?0$00$0A@$0?0$00@Eigen@@@internal@Eigen@@U?$evaluator@V?$Block@V?$Matrix@N$0?0$0?0$0A@$0?0$0?0@Eigen@@$0?0$00$00@Eigen@@@23@U?$assign_op@NN@23@$0A@@internal@Eigen@@QEAAX_J@Z
	??$assignPacket@$0BA@$0A@U__m128d@@@?$generic_dense_assignment_kernel@U?$evaluator@V?$Matrix@N$0?0$02$0A@$02$02@Eigen@@@internal@Eigen@@U?$evaluator@V?$Matrix@N$0?0$02$0A@$0?0$02@Eigen@@@23@U?$assign_op@NN@23@$0A@@internal@Eigen@@QEAAX_J@Z
	??$assignPacket@$0BA@$0A@U__m128d@@@?$generic_dense_assignment_kernel@U?$evaluator@V?$Matrix@N$0?0$0?0$0A@$02$02@Eigen@@@internal@Eigen@@U?$evaluator@V?$Matrix@N$0?0$0?0$0A@$0?0$02@Eigen@@@23@U?$assign_op@NN@23@$0A@@internal@Eigen@@QEAAX_J@Z
	??$assignPacket@$0BA@$0A@U__m128d@@@?$generic_dense_assignment_kernel@U?$evaluator@V?$Matrix@N$0?0$0?0$0A@$0?0$0?0@Eigen@@@internal@Eigen@@U?$evaluator@V?$CwiseBinaryOp@U?$scalar_quotient_op@NN@internal@Eigen@@$$CBV?$Block@$$CBV?$Matrix@N$02$03$0A@$02$03@Eigen@@$0?0$0?0$0A@@3@$$CBV?$CwiseNullaryOp@U?$scalar_constant_op@N@internal@Eigen@@$$CBV?$Matrix@N$0?0$0?0$0A@$02$03@3@@3@@Eigen@@@23@U?$assign_op@NN@23@$0A@@internal@Eigen@@QEAAX_J0@Z
	??$assignPacket@$0BA@$0A@U__m128d@@@?$generic_dense_assignment_kernel@U?$evaluator@V?$Matrix@N$0?0$0?0$0A@$0?0$0?0@Eigen@@@internal@Eigen@@U?$evaluator@V?$CwiseBinaryOp@U?$scalar_quotient_op@NN@internal@Eigen@@$$CBV?$Block@$$CBV?$Matrix@N$0?0$0?0$0A@$0?0$0?0@Eigen@@$0?0$0?0$0A@@3@$$CBV?$CwiseNullaryOp@U?$scalar_constant_op@N@internal@Eigen@@$$CBV?$Matrix@N$0?0$0?0$0A@$0?0$0?0@3@@3@@Eigen@@@23@U?$assign_op@NN@23@$0A@@internal@Eigen@@QEAAX_J0@Z
	??$assignPacket@$0BA@$0A@U__m128d@@@?$generic_dense_assignment_kernel@U?$evaluator@V?$Matrix@N$0?0$0?0$0A@$0?0$0?0@Eigen@@@internal@Eigen@@U?$evaluator@V?$Product@V?$Matrix@N$0?0$0?0$0A@$0?0$0?0@Eigen@@V12@$00@Eigen@@@23@U?$assign_op@NN@23@$00@internal@Eigen@@QEAAX_J0@Z
	??$assignPacket@$0BA@$0A@U__m128d@@@?$generic_dense_assignment_kernel@U?$evaluator@V?$Matrix@N$0?0$0?0$0A@$0?0$0?0@Eigen@@@internal@Eigen@@U?$evaluator@V?$Product@V?$Matrix@N$0?0$0?0$0A@$0?0$0?0@Eigen@@V?$DiagonalWrapper@$$CBV?$Matrix@N$0?0$00$0A@$0?0$00@Eigen@@@2@$00@Eigen@@@23@U?$assign_op@NN@23@$0A@@internal@Eigen@@QEAAX_J0@Z
	??$assignPacket@$0BA@$0A@U__m128d@@@?$generic_dense_assignment_kernel@U?$evaluator@V?$Matrix@N$0?0$0?0$0A@$0?0$0?0@Eigen@@@internal@Eigen@@U?$evaluator@V?$Product@V?$Product@V?$Matrix@N$0?0$0?0$0A@$0?0$0?0@Eigen@@V12@$0A@@Eigen@@V?$Transpose@$$CBV?$Matrix@N$0?0$0?0$0A@$0?0$0?0@Eigen@@@2@$00@Eigen@@@23@U?$assign_op@NN@23@$00@internal@Eigen@@QEAAX_J0@Z
	??$assignPacket@$0BA@$0A@U__m128d@@@?$generic_dense_assignment_kernel@U?$evaluator@V?$Matrix@N$0?0$0?0$0A@$0?0$0?0@Eigen@@@internal@Eigen@@U?$evaluator@V?$Product@V?$Product@V?$Matrix@N$0?0$0?0$0A@$0?0$0?0@Eigen@@V?$DiagonalWrapper@$$CBV?$Matrix@N$0?0$00$0A@$0?0$00@Eigen@@@2@$00@Eigen@@V?$Transpose@$$CBV?$Matrix@N$0?0$0?0$0A@$0?0$0?0@Eigen@@@2@$00@Eigen@@@23@U?$assign_op@NN@23@$00@internal@Eigen@@QEAAX_J0@Z
	??$assignPacket@$0BA@$0A@U__m128d@@@?$generic_dense_assignment_kernel@U?$evaluator@V?$Ref@V?$Matrix@N$0?0$0?0$0A@$0?0$0?0@Eigen@@$0A@V?$OuterStride@$0?0@2@@Eigen@@@internal@Eigen@@U123@U?$assign_op@NN@23@$0A@@internal@Eigen@@QEAAX_J0@Z
	??$assignPacket@$0BA@$0A@U__m128d@@@?$generic_dense_assignment_kernel@U?$evaluator@V?$Ref@V?$Matrix@N$0?0$0?0$0A@$0?0$0?0@Eigen@@$0A@V?$OuterStride@$0?0@2@@Eigen@@@internal@Eigen@@U?$evaluator@V?$Product@V?$Ref@V?$Matrix@N$0?0$0?0$0A@$0?0$0?0@Eigen@@$0A@V?$OuterStride@$0?0@2@@Eigen@@V12@$00@Eigen@@@23@U?$sub_assign_op@NN@23@$00@internal@Eigen@@QEAAX_J0@Z
	??$assignPacket@$0BA@$0A@U__m128d@@@?$generic_dense_assignment_kernel@U?$evaluator@V?$Transpose@V?$Block@V?$Matrix@N$0?0$0?0$00$0?0$0?0@Eigen@@$00$0?0$00@Eigen@@@Eigen@@@internal@Eigen@@U?$evaluator@V?$CwiseBinaryOp@U?$scalar_product_op@NN@internal@Eigen@@$$CBV?$CwiseNullaryOp@U?$scalar_constant_op@N@internal@Eigen@@$$CBV?$Matrix@N$0?0$00$0A@$0?0$00@3@@3@$$CBV?$Map@V?$Matrix@N$0?0$00$0A@$0?0$00@Eigen@@$01V?$Stride@$0A@$0A@@2@@3@@Eigen@@@23@U?$add_assign_op@NN@23@$0A@@internal@Eigen@@QEAAX_J@Z
	??$assignPacket@$0BA@$0A@U__m128d@@@?$generic_dense_assignment_kernel@U?$evaluator@V?$Transpose@V?$Block@V?$Matrix@N$0?0$0?0$00$0?0$0?0@Eigen@@$00$0?0$00@Eigen@@@Eigen@@@internal@Eigen@@U?$evaluator@V?$Map@V?$Matrix@N$0?0$00$0A@$0?0$00@Eigen@@$01V?$Stride@$0A@$0A@@2@@Eigen@@@23@U?$assign_op@NN@23@$0A@@internal@Eigen@@QEAAX_J@Z
	??$assignPacket@$0BA@$0BA@U__m128d@@@?$generic_dense_assignment_kernel@U?$evaluator@V?$Matrix@N$01$00$0A@$01$00@Eigen@@@internal@Eigen@@U?$evaluator@V?$CwiseNullaryOp@U?$scalar_constant_op@N@internal@Eigen@@$$CBV?$Matrix@N$01$00$0A@$01$00@3@@Eigen@@@23@U?$div_assign_op@NN@23@$0A@@internal@Eigen@@QEAAX_J0@Z
	??$assignPacket@$0BA@$0BA@U__m128d@@@?$generic_dense_assignment_kernel@U?$evaluator@V?$Matrix@N$02$03$0A@$02$03@Eigen@@@internal@Eigen@@U?$evaluator@V?$CwiseBinaryOp@U?$scalar_product_op@NN@internal@Eigen@@$$CBV?$Matrix@N$02$03$0A@$02$03@3@$$CBV?$CwiseNullaryOp@U?$scalar_constant_op@N@internal@Eigen@@$$CBV?$Matrix@N$02$03$0A@$02$03@3@@3@@Eigen@@@23@U?$assign_op@NN@23@$0A@@internal@Eigen@@QEAAX_J@Z
	??$assignPacket@$0BA@$0BA@U__m128d@@@?$generic_dense_assignment_kernel@U?$evaluator@V?$Matrix@N$03$00$0A@$03$00@Eigen@@@internal@Eigen@@U123@U?$assign_op@NN@23@$0A@@internal@Eigen@@QEAAX_J0@Z
	??$assignPacket@$0BA@$0BA@U__m128d@@@?$generic_dense_assignment_kernel@U?$evaluator@V?$Matrix@N$03$00$0A@$03$00@Eigen@@@internal@Eigen@@U?$evaluator@V?$CwiseBinaryOp@U?$scalar_difference_op@NN@internal@Eigen@@$$CBV?$CwiseBinaryOp@U?$scalar_difference_op@NN@internal@Eigen@@$$CBV?$Matrix@N$03$00$0A@$03$00@3@$$CBV?$CwiseBinaryOp@U?$scalar_product_op@NN@internal@Eigen@@$$CBV?$Matrix@N$03$00$0A@$03$00@3@$$CBV?$CwiseNullaryOp@U?$scalar_constant_op@N@internal@Eigen@@$$CBV?$Matrix@N$03$00$0A@$03$00@3@@3@@3@@3@$$CBV?$CwiseBinaryOp@U?$scalar_product_op@NN@internal@Eigen@@$$CBV?$Matrix@N$03$00$0A@$03$00@3@$$CBV?$CwiseNullaryOp@U?$scalar_constant_op@N@internal@Eigen@@$$CBV?$Matrix@N$03$00$0A@$03$00@3@@3@@3@@Eigen@@@23@U?$assign_op@NN@23@$0A@@internal@Eigen@@QEAAX_J0@Z
	??$assignPacket@$0BA@$0BA@U__m128d@@@?$generic_dense_assignment_kernel@U?$evaluator@V?$Matrix@N$03$00$0A@$03$00@Eigen@@@internal@Eigen@@U?$evaluator@V?$CwiseBinaryOp@U?$scalar_difference_op@NN@internal@Eigen@@$$CBV?$CwiseBinaryOp@U?$scalar_quotient_op@NN@internal@Eigen@@$$CBV?$Matrix@N$03$00$0A@$03$00@3@$$CBV?$CwiseNullaryOp@U?$scalar_constant_op@N@internal@Eigen@@$$CBV?$Matrix@N$03$00$0A@$03$00@3@@3@@3@$$CBV?$Matrix@N$03$00$0A@$03$00@3@@Eigen@@@23@U?$assign_op@NN@23@$0A@@internal@Eigen@@QEAAX_J0@Z
	??$assignPacket@$0BA@$0BA@U__m128d@@@?$generic_dense_assignment_kernel@U?$evaluator@V?$Matrix@N$03$00$0A@$03$00@Eigen@@@internal@Eigen@@U?$evaluator@V?$CwiseBinaryOp@U?$scalar_difference_op@NN@internal@Eigen@@$$CBV?$Matrix@N$03$00$0A@$03$00@3@$$CBV?$CwiseBinaryOp@U?$scalar_product_op@NN@internal@Eigen@@$$CBV?$Matrix@N$03$00$0A@$03$00@3@$$CBV?$CwiseNullaryOp@U?$scalar_constant_op@N@internal@Eigen@@$$CBV?$Matrix@N$03$00$0A@$03$00@3@@3@@3@@Eigen@@@23@U?$assign_op@NN@23@$0A@@internal@Eigen@@QEAAX_J0@Z
	??$assignPacket@$0BA@$0BA@U__m128d@@@?$generic_dense_assignment_kernel@U?$evaluator@V?$Matrix@N$03$00$0A@$03$00@Eigen@@@internal@Eigen@@U?$evaluator@V?$CwiseBinaryOp@U?$scalar_product_op@NN@internal@Eigen@@$$CBV?$Matrix@N$03$00$0A@$03$00@3@$$CBV?$CwiseNullaryOp@U?$scalar_constant_op@N@internal@Eigen@@$$CBV?$Matrix@N$03$00$0A@$03$00@3@@3@@Eigen@@@23@U?$assign_op@NN@23@$0A@@internal@Eigen@@QEAAX_J0@Z
	??$assignPacket@$0BA@$0BA@U__m128d@@@?$generic_dense_assignment_kernel@U?$evaluator@V?$Matrix@N$03$00$0A@$03$00@Eigen@@@internal@Eigen@@U?$evaluator@V?$CwiseBinaryOp@U?$scalar_quotient_op@NN@internal@Eigen@@$$CBV?$Matrix@N$03$00$0A@$03$00@3@$$CBV?$CwiseNullaryOp@U?$scalar_constant_op@N@internal@Eigen@@$$CBV?$Matrix@N$03$00$0A@$03$00@3@@3@@Eigen@@@23@U?$assign_op@NN@23@$0A@@internal@Eigen@@QEAAX_J0@Z
	??$assignPacket@$0BA@$0BA@U__m128d@@@?$generic_dense_assignment_kernel@U?$evaluator@V?$Matrix@N$03$00$0A@$03$00@Eigen@@@internal@Eigen@@U?$evaluator@V?$CwiseBinaryOp@U?$scalar_sum_op@NN@internal@Eigen@@$$CBV?$CwiseBinaryOp@U?$scalar_quotient_op@NN@internal@Eigen@@$$CBV?$CwiseBinaryOp@U?$scalar_sum_op@NN@internal@Eigen@@$$CBV?$CwiseBinaryOp@U?$scalar_product_op@NN@internal@Eigen@@$$CBV?$Matrix@N$03$00$0A@$03$00@3@$$CBV?$CwiseNullaryOp@U?$scalar_constant_op@N@internal@Eigen@@$$CBV?$Matrix@N$03$00$0A@$03$00@3@@3@@3@$$CBV43@@3@$$CBV?$CwiseNullaryOp@U?$scalar_constant_op@N@internal@Eigen@@$$CBV?$Matrix@N$03$00$0A@$03$00@3@@3@@3@$$CBV?$Matrix@N$03$00$0A@$03$00@3@@Eigen@@@23@U?$assign_op@NN@23@$0A@@internal@Eigen@@QEAAX_J0@Z
	??$assignPacket@$0BA@$0BA@U__m128d@@@?$generic_dense_assignment_kernel@U?$evaluator@V?$Matrix@N$03$00$0A@$03$00@Eigen@@@internal@Eigen@@U?$evaluator@V?$CwiseBinaryOp@U?$scalar_sum_op@NN@internal@Eigen@@$$CBV?$CwiseBinaryOp@U?$scalar_sum_op@NN@internal@Eigen@@$$CBV?$CwiseBinaryOp@U?$scalar_sum_op@NN@internal@Eigen@@$$CBV?$Matrix@N$03$00$0A@$03$00@3@$$CBV43@@3@$$CBV?$Matrix@N$03$00$0A@$03$00@3@@3@$$CBV?$Matrix@N$03$00$0A@$03$00@3@@Eigen@@@23@U?$assign_op@NN@23@$0A@@internal@Eigen@@QEAAX_J0@Z
	??$assignPacket@$0BA@$0BA@U__m128d@@@?$generic_dense_assignment_kernel@U?$evaluator@V?$Matrix@N$03$00$0A@$03$00@Eigen@@@internal@Eigen@@U?$evaluator@V?$CwiseBinaryOp@U?$scalar_sum_op@NN@internal@Eigen@@$$CBV?$CwiseBinaryOp@U?$scalar_sum_op@NN@internal@Eigen@@$$CBV?$Matrix@N$03$00$0A@$03$00@3@$$CBV43@@3@$$CBV?$Matrix@N$03$00$0A@$03$00@3@@Eigen@@@23@U?$assign_op@NN@23@$0A@@internal@Eigen@@QEAAX_J0@Z
	??$assignPacket@$0BA@$0BA@U__m128d@@@?$generic_dense_assignment_kernel@U?$evaluator@V?$Matrix@N$03$00$0A@$03$00@Eigen@@@internal@Eigen@@U?$evaluator@V?$CwiseBinaryOp@U?$scalar_sum_op@NN@internal@Eigen@@$$CBV?$Matrix@N$03$00$0A@$03$00@3@$$CBV43@@Eigen@@@23@U?$assign_op@NN@23@$0A@@internal@Eigen@@QEAAX_J0@Z
	??$assignPacket@$0BA@$0BA@U__m128d@@@?$generic_dense_assignment_kernel@U?$evaluator@V?$Matrix@N$03$00$0A@$03$00@Eigen@@@internal@Eigen@@U?$evaluator@V?$CwiseNullaryOp@U?$scalar_constant_op@N@internal@Eigen@@$$CBV?$Matrix@N$03$00$0A@$03$00@3@@Eigen@@@23@U?$mul_assign_op@NN@23@$0A@@internal@Eigen@@QEAAX_J0@Z
	??$assignPacket@$0BA@$0BA@U__m128d@@@?$generic_dense_assignment_kernel@U?$evaluator@V?$Matrix@N$03$00$0A@$03$00@Eigen@@@internal@Eigen@@U?$evaluator@V?$Matrix@N$0?0$00$0A@$0?0$00@Eigen@@@23@U?$assign_op@NN@23@$0A@@internal@Eigen@@QEAAX_J0@Z
	??$assignPacket@$0BA@$0BA@U__m128d@@@?$generic_dense_assignment_kernel@U?$evaluator@V?$Matrix@N$03$00$0A@$03$00@Eigen@@@internal@Eigen@@U?$evaluator@V?$Product@V?$Matrix@N$03$03$0A@$03$03@Eigen@@V?$Matrix@N$03$00$0A@$03$00@2@$00@Eigen@@@23@U?$assign_op@NN@23@$0A@@internal@Eigen@@QEAAX_J0@Z
	??$assignPacket@$0BA@$0BA@U__m128d@@@?$generic_dense_assignment_kernel@U?$evaluator@V?$Matrix@N$03$02$0A@$03$02@Eigen@@@internal@Eigen@@U?$evaluator@V?$Matrix@N$0?0$0?0$0A@$0?0$0?0@Eigen@@@23@U?$assign_op@NN@23@$0A@@internal@Eigen@@QEAAX_J0@Z
	??$assignPacket@$0BA@$0BA@U__m128d@@@?$generic_dense_assignment_kernel@U?$evaluator@V?$Matrix@N$03$03$0A@$03$03@Eigen@@@internal@Eigen@@U?$evaluator@V?$Product@V?$Matrix@N$03$03$0A@$03$03@Eigen@@V12@$00@Eigen@@@23@U?$assign_op@NN@23@$0A@@internal@Eigen@@QEAAX_J0@Z
	??$assignPacket@$0BA@$0BA@U__m128d@@@?$generic_dense_assignment_kernel@U?$evaluator@V?$Matrix@N$0?0$00$0A@$0?0$00@Eigen@@@internal@Eigen@@U?$evaluator@V?$CwiseNullaryOp@U?$scalar_constant_op@N@internal@Eigen@@$$CBV?$Matrix@N$0?0$00$0A@$0?0$00@3@@Eigen@@@23@U?$mul_assign_op@NN@23@$0A@@internal@Eigen@@QEAAX_J@Z
	??$assignPacket@$0BA@$0BA@U__m128d@@@?$generic_dense_assignment_kernel@U?$evaluator@V?$Matrix@N$0?0$0?0$0A@$0?0$0?0@Eigen@@@internal@Eigen@@U123@U?$assign_op@NN@23@$0A@@internal@Eigen@@QEAAX_J@Z
	??$assignPacket@$0BA@$0BA@U__m128d@@@?$generic_dense_assignment_kernel@U?$evaluator@V?$Matrix@N$0?0$0?0$0A@$0?0$0?0@Eigen@@@internal@Eigen@@U?$evaluator@V?$CwiseBinaryOp@U?$scalar_quotient_op@NN@internal@Eigen@@$$CBV?$Matrix@N$02$03$0A@$02$03@3@$$CBV?$CwiseNullaryOp@U?$scalar_constant_op@N@internal@Eigen@@$$CBV?$Matrix@N$02$03$0A@$02$03@3@@3@@Eigen@@@23@U?$assign_op@NN@23@$0A@@internal@Eigen@@QEAAX_J@Z
	??$assignPacket@$0BA@$0BA@U__m128d@@@?$generic_dense_assignment_kernel@U?$evaluator@V?$Matrix@N$0?0$0?0$0A@$0?0$0?0@Eigen@@@internal@Eigen@@U?$evaluator@V?$CwiseBinaryOp@U?$scalar_quotient_op@NN@internal@Eigen@@$$CBV?$Matrix@N$0?0$0?0$0A@$0?0$0?0@3@$$CBV?$CwiseNullaryOp@U?$scalar_constant_op@N@internal@Eigen@@$$CBV?$Matrix@N$0?0$0?0$0A@$0?0$0?0@3@@3@@Eigen@@@23@U?$assign_op@NN@23@$0A@@internal@Eigen@@QEAAX_J@Z
	??$assignPacket@$0BA@$0BA@U__m128d@@@?$generic_dense_assignment_kernel@U?$evaluator@V?$Matrix@N$0?0$0?0$0A@$0?0$0?0@Eigen@@@internal@Eigen@@U?$evaluator@V?$Matrix@N$02$03$0A@$02$03@Eigen@@@23@U?$assign_op@NN@23@$0A@@internal@Eigen@@QEAAX_J@Z
	??$assignPacket@$0BA@U__m128d@@@?$assign_op@NN@internal@Eigen@@QEBAXPEANAEBU__m128d@@@Z
	??$assignPacket@$0BA@U__m128d@@@?$compound_assign_op@NNU?$scalar_difference_op@NN@internal@Eigen@@@internal@Eigen@@QEBAXPEANAEBU__m128d@@@Z
	??$assignPacket@$0BA@U__m128d@@@?$compound_assign_op@NNU?$scalar_product_op@NN@internal@Eigen@@@internal@Eigen@@QEBAXPEANAEBU__m128d@@@Z
	??$assignPacket@$0BA@U__m128d@@@?$compound_assign_op@NNU?$scalar_quotient_op@NN@internal@Eigen@@@internal@Eigen@@QEBAXPEANAEBU__m128d@@@Z
	??$assignPacket@$0BA@U__m128d@@@?$compound_assign_op@NNU?$scalar_sum_op@NN@internal@Eigen@@@internal@Eigen@@QEBAXPEANAEBU__m128d@@@Z
	??$assignPacketByOuterInner@$0A@$0A@U__m128d@@@?$generic_dense_assignment_kernel@U?$evaluator@V?$Block@V?$Matrix@N$02$03$0A@$02$03@Eigen@@$02$02$0A@@Eigen@@@internal@Eigen@@U?$evaluator@V?$Matrix@N$02$02$0A@$02$02@Eigen@@@23@U?$assign_op@NN@23@$0A@@internal@Eigen@@QEAAX_J0@Z
	??$assignPacketByOuterInner@$0A@$0A@U__m128d@@@?$generic_dense_assignment_kernel@U?$evaluator@V?$Matrix@N$02$02$0A@$02$02@Eigen@@@internal@Eigen@@U?$evaluator@V?$Block@$$CBV?$Matrix@N$02$03$0A@$02$03@Eigen@@$02$02$0A@@Eigen@@@23@U?$assign_op@NN@23@$0A@@internal@Eigen@@QEAAX_J0@Z
	??$assignPacketByOuterInner@$0A@$0A@U__m128d@@@?$generic_dense_assignment_kernel@U?$evaluator@V?$Matrix@N$02$02$0A@$02$02@Eigen@@@internal@Eigen@@U?$evaluator@V?$Product@V?$Matrix@N$02$02$0A@$02$02@Eigen@@V12@$00@Eigen@@@23@U?$assign_op@NN@23@$0A@@internal@Eigen@@QEAAX_J0@Z
	??$assignPacketByOuterInner@$0A@$0A@U__m128d@@@?$generic_dense_assignment_kernel@U?$evaluator@V?$Matrix@N$02$02$0A@$02$02@Eigen@@@internal@Eigen@@U?$evaluator@V?$Product@V?$Product@V?$Matrix@N$02$02$0A@$02$02@Eigen@@V?$Matrix@N$02$03$0A@$02$03@2@$0A@@Eigen@@V?$Matrix@N$03$02$0A@$03$02@2@$00@Eigen@@@23@U?$assign_op@NN@23@$0A@@internal@Eigen@@QEAAX_J0@Z
	??$assignPacketByOuterInner@$0A@$0A@U__m128d@@@?$generic_dense_assignment_kernel@U?$evaluator@V?$Matrix@N$02$03$0A@$02$03@Eigen@@@internal@Eigen@@U?$evaluator@V?$Product@V?$Inverse@V?$CwiseNullaryOp@U?$scalar_identity_op@N@internal@Eigen@@V?$Matrix@N$02$02$0A@$02$02@3@@Eigen@@@Eigen@@V?$Matrix@N$02$03$0A@$02$03@2@$00@Eigen@@@23@U?$assign_op@NN@23@$0A@@internal@Eigen@@QEAAX_J0@Z
	??$assignPacketByOuterInner@$0A@$0A@U__m128d@@@?$generic_dense_assignment_kernel@U?$evaluator@V?$Matrix@N$02$03$0A@$02$03@Eigen@@@internal@Eigen@@U?$evaluator@V?$Product@V?$Matrix@N$02$02$0A@$02$02@Eigen@@V?$Matrix@N$02$03$0A@$02$03@2@$00@Eigen@@@23@U?$assign_op@NN@23@$0A@@internal@Eigen@@QEAAX_J0@Z
	??$assignPacketByOuterInner@$0A@$0A@U__m128d@@@?$generic_dense_assignment_kernel@U?$evaluator@V?$Matrix@N$02$03$0A@$02$03@Eigen@@@internal@Eigen@@U?$evaluator@V?$Product@V?$Product@V?$Inverse@V?$CwiseNullaryOp@U?$scalar_identity_op@N@internal@Eigen@@V?$Matrix@N$02$02$0A@$02$02@3@@Eigen@@@Eigen@@V?$Matrix@N$02$03$0A@$02$03@2@$0A@@Eigen@@V?$CwiseNullaryOp@U?$scalar_identity_op@N@internal@Eigen@@V?$Matrix@N$03$03$0A@$03$03@3@@2@$00@Eigen@@@23@U?$assign_op@NN@23@$0A@@internal@Eigen@@QEAAX_J0@Z
	??$assignPacketByOuterInner@$0BA@$0A@U__m128d@@@?$generic_dense_assignment_kernel@U?$evaluator@V?$Block@V?$Block@V?$Block@V?$Matrix@N$02$02$0A@$02$02@Eigen@@$0?0$0?0$0A@@Eigen@@$0?0$0?0$0A@@Eigen@@$0?0$0?0$0A@@Eigen@@@internal@Eigen@@U?$evaluator@V?$Product@V?$CwiseBinaryOp@U?$scalar_product_op@NN@internal@Eigen@@$$CBV?$CwiseNullaryOp@U?$scalar_constant_op@N@internal@Eigen@@$$CBV?$Matrix@N$0?0$00$0A@$02$00@3@@3@$$CBV?$Block@V?$Block@V?$Block@V?$Matrix@N$02$02$0A@$02$02@Eigen@@$0?0$0?0$0A@@Eigen@@$0?0$00$00@Eigen@@$0?0$00$0A@@3@@Eigen@@V?$Map@V?$Matrix@N$00$0?0$00$00$02@Eigen@@$0A@V?$Stride@$0A@$0A@@2@@2@$00@Eigen@@@23@U?$sub_assign_op@NN@23@$0A@@internal@Eigen@@QEAAX_J0@Z
	??$assignPacketByOuterInner@$0BA@$0A@U__m128d@@@?$generic_dense_assignment_kernel@U?$evaluator@V?$Block@V?$Block@V?$Matrix@N$02$02$0A@$02$02@Eigen@@$0?0$02$0A@@Eigen@@$0?0$02$0A@@Eigen@@@internal@Eigen@@U?$evaluator@V?$Block@$$CBV?$CwiseBinaryOp@U?$scalar_product_op@NN@internal@Eigen@@$$CBV?$CwiseNullaryOp@U?$scalar_constant_op@N@internal@Eigen@@$$CBV?$Matrix@N$0?0$02$0A@$02$02@3@@3@$$CBV?$Matrix@N$0?0$02$0A@$02$02@3@@Eigen@@$0?0$02$0A@@Eigen@@@23@U?$sub_assign_op@NN@23@$0A@@internal@Eigen@@QEAAX_J0@Z
	??$assignPacketByOuterInner@$0BA@$0A@U__m128d@@@?$generic_dense_assignment_kernel@U?$evaluator@V?$Block@V?$Block@V?$Matrix@N$02$02$0A@$02$02@Eigen@@$0?0$02$0A@@Eigen@@$0?0$02$0A@@Eigen@@@internal@Eigen@@U?$evaluator@V?$Product@V?$CwiseBinaryOp@U?$scalar_product_op@NN@internal@Eigen@@$$CBV?$CwiseNullaryOp@U?$scalar_constant_op@N@internal@Eigen@@$$CBV?$Matrix@N$0?0$00$0A@$02$00@3@@3@$$CBV?$Block@$$CBV?$Matrix@N$02$02$0A@$02$02@Eigen@@$0?0$00$0A@@3@@Eigen@@V?$Map@V?$Matrix@N$00$02$00$00$02@Eigen@@$0A@V?$Stride@$0A@$0A@@2@@2@$00@Eigen@@@23@U?$sub_assign_op@NN@23@$0A@@internal@Eigen@@QEAAX_J0@Z
	??$assignPacketByOuterInner@$0BA@$0A@U__m128d@@@?$generic_dense_assignment_kernel@U?$evaluator@V?$Block@V?$Block@V?$Matrix@N$02$02$0A@$02$02@Eigen@@$0?0$02$0A@@Eigen@@$0?0$0?0$00@Eigen@@@internal@Eigen@@U?$evaluator@V?$CwiseBinaryOp@U?$scalar_product_op@NN@internal@Eigen@@$$CBV?$CwiseNullaryOp@U?$scalar_constant_op@N@internal@Eigen@@$$CBV?$Matrix@N$0?0$0?0$0A@$02$02@3@@3@$$CBV?$Block@$$CBV?$Block@V?$Matrix@N$02$02$0A@$02$02@Eigen@@$0?0$0?0$0A@@Eigen@@$0?0$0?0$00@3@@Eigen@@@23@U?$sub_assign_op@NN@23@$0A@@internal@Eigen@@QEAAX_J0@Z
	??$assignPacketByOuterInner@$0BA@$0A@U__m128d@@@?$generic_dense_assignment_kernel@U?$evaluator@V?$Block@V?$Block@V?$Matrix@N$02$02$0A@$02$02@Eigen@@$0?0$0?0$0A@@Eigen@@$0?0$0?0$00@Eigen@@@internal@Eigen@@U?$evaluator@V?$CwiseBinaryOp@U?$scalar_product_op@NN@internal@Eigen@@$$CBV?$CwiseNullaryOp@U?$scalar_constant_op@N@internal@Eigen@@$$CBV?$Matrix@N$0?0$0?0$0A@$02$02@3@@3@$$CBV?$Block@$$CBV?$Block@V?$Matrix@N$02$02$0A@$02$02@Eigen@@$0?0$0?0$0A@@Eigen@@$0?0$0?0$00@3@@Eigen@@@23@U?$sub_assign_op@NN@23@$0A@@internal@Eigen@@QEAAX_J0@Z
	??$assignPacketByOuterInner@$0BA@$0A@U__m128d@@@?$generic_dense_assignment_kernel@U?$evaluator@V?$Block@V?$Block@V?$Matrix@N$02$02$0A@$02$02@Eigen@@$0?0$0?0$0A@@Eigen@@$0?0$0?0$0A@@Eigen@@@internal@Eigen@@U?$evaluator@V?$Block@$$CBV?$CwiseBinaryOp@U?$scalar_product_op@NN@internal@Eigen@@$$CBV?$CwiseNullaryOp@U?$scalar_constant_op@N@internal@Eigen@@$$CBV?$Matrix@N$0?0$0?0$0A@$02$02@3@@3@$$CBV?$Matrix@N$0?0$0?0$0A@$02$02@3@@Eigen@@$0?0$0?0$0A@@Eigen@@@23@U?$sub_assign_op@NN@23@$0A@@internal@Eigen@@QEAAX_J0@Z
	??$assignPacketByOuterInner@$0BA@$0A@U__m128d@@@?$generic_dense_assignment_kernel@U?$evaluator@V?$Block@V?$Block@V?$Matrix@N$02$02$0A@$02$02@Eigen@@$0?0$0?0$0A@@Eigen@@$0?0$0?0$0A@@Eigen@@@internal@Eigen@@U?$evaluator@V?$CwiseNullaryOp@U?$scalar_constant_op@N@internal@Eigen@@$$CBV?$Matrix@N$0?0$0?0$0A@$02$02@3@@Eigen@@@23@U?$mul_assign_op@NN@23@$0A@@internal@Eigen@@QEAAX_J0@Z
	??$assignPacketByOuterInner@$0BA@$0A@U__m128d@@@?$generic_dense_assignment_kernel@U?$evaluator@V?$Block@V?$Block@V?$Matrix@N$02$02$0A@$02$02@Eigen@@$0?0$0?0$0A@@Eigen@@$0?0$0?0$0A@@Eigen@@@internal@Eigen@@U?$evaluator@V?$Product@V?$CwiseBinaryOp@U?$scalar_product_op@NN@internal@Eigen@@$$CBV?$CwiseNullaryOp@U?$scalar_constant_op@N@internal@Eigen@@$$CBV?$Matrix@N$0?0$00$0A@$02$00@3@@3@$$CBV?$Block@$$CBV?$Matrix@N$02$02$0A@$02$02@Eigen@@$0?0$00$0A@@3@@Eigen@@V?$Map@V?$Matrix@N$00$0?0$00$00$02@Eigen@@$0A@V?$Stride@$0A@$0A@@2@@2@$00@Eigen@@@23@U?$sub_assign_op@NN@23@$0A@@internal@Eigen@@QEAAX_J0@Z
	??$assignPacketByOuterInner@$0BA@$0A@U__m128d@@@?$generic_dense_assignment_kernel@U?$evaluator@V?$Block@V?$Block@V?$Matrix@N$02$02$0A@$02$02@Eigen@@$0?0$0?0$0A@@Eigen@@$0?0$0?0$0A@@Eigen@@@internal@Eigen@@U?$evaluator@V?$Product@V?$CwiseBinaryOp@U?$scalar_product_op@NN@internal@Eigen@@$$CBV?$CwiseNullaryOp@U?$scalar_constant_op@N@internal@Eigen@@$$CBV?$Matrix@N$0?0$00$0A@$02$00@3@@3@$$CBV?$Map@V?$Matrix@N$0?0$00$0A@$02$00@Eigen@@$0A@V?$Stride@$0A@$0A@@2@@3@@Eigen@@V?$Transpose@$$CBV?$Block@$$CBV?$Matrix@N$02$02$0A@$02$02@Eigen@@$0?0$00$0A@@Eigen@@@2@$00@Eigen@@@23@U?$sub_assign_op@NN@23@$0A@@internal@Eigen@@QEAAX_J0@Z
	??$assignPacketByOuterInner@$0BA@$0A@U__m128d@@@?$generic_dense_assignment_kernel@U?$evaluator@V?$Block@V?$Block@V?$Matrix@N$0?0$0?0$0A@$0?0$0?0@Eigen@@$0?0$0?0$0A@@Eigen@@$0?0$0?0$00@Eigen@@@internal@Eigen@@U?$evaluator@V?$CwiseBinaryOp@U?$scalar_product_op@NN@internal@Eigen@@$$CBV?$CwiseNullaryOp@U?$scalar_constant_op@N@internal@Eigen@@$$CBV?$Matrix@N$0?0$0?0$0A@$0?0$0?0@3@@3@$$CBV?$Block@$$CBV?$Block@V?$Matrix@N$0?0$0?0$0A@$0?0$0?0@Eigen@@$0?0$0?0$0A@@Eigen@@$0?0$0?0$00@3@@Eigen@@@23@U?$sub_assign_op@NN@23@$0A@@internal@Eigen@@QEAAX_J0@Z
	??$assignPacketByOuterInner@$0BA@$0A@U__m128d@@@?$generic_dense_assignment_kernel@U?$evaluator@V?$Block@V?$Block@V?$Matrix@N$0?0$0?0$0A@$0?0$0?0@Eigen@@$0?0$0?0$0A@@Eigen@@$0?0$0?0$0A@@Eigen@@@internal@Eigen@@U?$evaluator@V?$Block@$$CBV?$CwiseBinaryOp@U?$scalar_product_op@NN@internal@Eigen@@$$CBV?$CwiseNullaryOp@U?$scalar_constant_op@N@internal@Eigen@@$$CBV?$Matrix@N$0?0$0?0$0A@$0?0$0?0@3@@3@$$CBV?$Matrix@N$0?0$0?0$0A@$0?0$0?0@3@@Eigen@@$0?0$0?0$0A@@Eigen@@@23@U?$sub_assign_op@NN@23@$0A@@internal@Eigen@@QEAAX_J0@Z
	??$assignPacketByOuterInner@$0BA@$0A@U__m128d@@@?$generic_dense_assignment_kernel@U?$evaluator@V?$Block@V?$Matrix@N$02$02$0A@$02$02@Eigen@@$0?0$02$0A@@Eigen@@@internal@Eigen@@U?$evaluator@V?$CwiseNullaryOp@U?$scalar_constant_op@N@internal@Eigen@@$$CBV?$Matrix@N$0?0$02$0A@$02$02@3@@Eigen@@@23@U?$mul_assign_op@NN@23@$0A@@internal@Eigen@@QEAAX_J0@Z
	??$assignPacketByOuterInner@$0BA@$0A@U__m128d@@@?$generic_dense_assignment_kernel@U?$evaluator@V?$Block@V?$Matrix@N$02$02$0A@$02$02@Eigen@@$0?0$0?0$0A@@Eigen@@@internal@Eigen@@U?$evaluator@V?$CwiseNullaryOp@U?$scalar_constant_op@N@internal@Eigen@@$$CBV?$Matrix@N$0?0$0?0$0A@$02$02@3@@Eigen@@@23@U?$mul_assign_op@NN@23@$0A@@internal@Eigen@@QEAAX_J0@Z
	??$assignPacketByOuterInner@$0BA@$0A@U__m128d@@@?$generic_dense_assignment_kernel@U?$evaluator@V?$Block@V?$Matrix@N$0?0$02$0A@$02$02@Eigen@@$0?0$02$0A@@Eigen@@@internal@Eigen@@U?$evaluator@V?$Block@$$CBV?$CwiseBinaryOp@U?$scalar_product_op@NN@internal@Eigen@@$$CBV?$CwiseNullaryOp@U?$scalar_constant_op@N@internal@Eigen@@$$CBV?$Matrix@N$0?0$02$0A@$02$02@3@@3@$$CBV?$Block@V?$Matrix@N$02$02$0A@$02$02@Eigen@@$0?0$02$0A@@3@@Eigen@@$0?0$02$0A@@Eigen@@@23@U?$sub_assign_op@NN@23@$0A@@internal@Eigen@@QEAAX_J0@Z
	??$assignPacketByOuterInner@$0BA@$0A@U__m128d@@@?$generic_dense_assignment_kernel@U?$evaluator@V?$Block@V?$Matrix@N$0?0$02$0A@$0?0$02@Eigen@@$0?0$02$0A@@Eigen@@@internal@Eigen@@U?$evaluator@V?$Block@$$CBV?$CwiseBinaryOp@U?$scalar_product_op@NN@internal@Eigen@@$$CBV?$CwiseNullaryOp@U?$scalar_constant_op@N@internal@Eigen@@$$CBV?$Matrix@N$0?0$02$0A@$02$02@3@@3@$$CBV?$Matrix@N$0?0$02$0A@$02$02@3@@Eigen@@$0?0$02$0A@@Eigen@@@23@U?$sub_assign_op@NN@23@$0A@@internal@Eigen@@QEAAX_J0@Z
	??$assignPacketByOuterInner@$0BA@$0A@U__m128d@@@?$generic_dense_assignment_kernel@U?$evaluator@V?$Block@V?$Matrix@N$0?0$0?0$0A@$02$02@Eigen@@$0?0$0?0$0A@@Eigen@@@internal@Eigen@@U?$evaluator@V?$Block@$$CBV?$CwiseBinaryOp@U?$scalar_product_op@NN@internal@Eigen@@$$CBV?$CwiseNullaryOp@U?$scalar_constant_op@N@internal@Eigen@@$$CBV?$Matrix@N$0?0$0?0$0A@$02$02@3@@3@$$CBV?$Block@V?$Matrix@N$02$02$0A@$02$02@Eigen@@$0?0$0?0$0A@@3@@Eigen@@$0?0$0?0$0A@@Eigen@@@23@U?$sub_assign_op@NN@23@$0A@@internal@Eigen@@QEAAX_J0@Z
	??$assignPacketByOuterInner@$0BA@$0A@U__m128d@@@?$generic_dense_assignment_kernel@U?$evaluator@V?$Block@V?$Matrix@N$0?0$0?0$0A@$0?0$02@Eigen@@$0?0$0?0$0A@@Eigen@@@internal@Eigen@@U?$evaluator@V?$Block@$$CBV?$CwiseBinaryOp@U?$scalar_product_op@NN@internal@Eigen@@$$CBV?$CwiseNullaryOp@U?$scalar_constant_op@N@internal@Eigen@@$$CBV?$Matrix@N$0?0$0?0$0A@$02$02@3@@3@$$CBV?$Matrix@N$0?0$0?0$0A@$02$02@3@@Eigen@@$0?0$0?0$0A@@Eigen@@@23@U?$sub_assign_op@NN@23@$0A@@internal@Eigen@@QEAAX_J0@Z
	??$assignPacketByOuterInner@$0BA@$0A@U__m128d@@@?$generic_dense_assignment_kernel@U?$evaluator@V?$Block@V?$Matrix@N$0?0$0?0$0A@$0?0$0?0@Eigen@@$0?0$0?0$0A@@Eigen@@@internal@Eigen@@U?$evaluator@V?$Block@$$CBV?$CwiseBinaryOp@U?$scalar_product_op@NN@internal@Eigen@@$$CBV?$CwiseNullaryOp@U?$scalar_constant_op@N@internal@Eigen@@$$CBV?$Matrix@N$0?0$0?0$0A@$0?0$0?0@3@@3@$$CBV?$Block@V?$Matrix@N$0?0$0?0$0A@$0?0$0?0@Eigen@@$0?0$0?0$0A@@3@@Eigen@@$0?0$0?0$0A@@Eigen@@@23@U?$sub_assign_op@NN@23@$0A@@internal@Eigen@@QEAAX_J0@Z
	??$assignPacketByOuterInner@$0BA@$0A@U__m128d@@@?$generic_dense_assignment_kernel@U?$evaluator@V?$Block@V?$Matrix@N$0?0$0?0$0A@$0?0$0?0@Eigen@@$0?0$0?0$0A@@Eigen@@@internal@Eigen@@U?$evaluator@V?$Block@$$CBV?$CwiseBinaryOp@U?$scalar_product_op@NN@internal@Eigen@@$$CBV?$CwiseNullaryOp@U?$scalar_constant_op@N@internal@Eigen@@$$CBV?$Matrix@N$0?0$0?0$0A@$0?0$0?0@3@@3@$$CBV?$Matrix@N$0?0$0?0$0A@$0?0$0?0@3@@Eigen@@$0?0$0?0$0A@@Eigen@@@23@U?$sub_assign_op@NN@23@$0A@@internal@Eigen@@QEAAX_J0@Z
	??$assignPacketByOuterInner@$0BA@$0A@U__m128d@@@?$generic_dense_assignment_kernel@U?$evaluator@V?$Block@V?$Matrix@N$0?0$0?0$0A@$0?0$0?0@Eigen@@$0?0$0?0$0A@@Eigen@@@internal@Eigen@@U?$evaluator@V?$CwiseNullaryOp@U?$scalar_constant_op@N@internal@Eigen@@$$CBV?$Matrix@N$0?0$0?0$0A@$0?0$0?0@3@@Eigen@@@23@U?$mul_assign_op@NN@23@$0A@@internal@Eigen@@QEAAX_J0@Z
	??$assignPacketByOuterInner@$0BA@$0A@U__m128d@@@?$generic_dense_assignment_kernel@U?$evaluator@V?$Block@V?$Matrix@N$0?0$0?0$0A@$0?0$0?0@Eigen@@$0?0$0?0$0A@@Eigen@@@internal@Eigen@@U?$evaluator@V?$CwiseNullaryOp@U?$scalar_zero_op@N@internal@Eigen@@V?$Matrix@N$0?0$0?0$0A@$0?0$0?0@3@@Eigen@@@23@U?$assign_op@NN@23@$0A@@internal@Eigen@@QEAAX_J0@Z
	??$assignPacketByOuterInner@$0BA@$0A@U__m128d@@@?$generic_dense_assignment_kernel@U?$evaluator@V?$Block@V?$Ref@V?$Matrix@N$02$02$0A@$02$02@Eigen@@$0A@V?$OuterStride@$0?0@2@@Eigen@@$0?0$0?0$0A@@Eigen@@@internal@Eigen@@U?$evaluator@V?$Product@V?$Block@V?$Block@V?$Ref@V?$Matrix@N$02$02$0A@$02$02@Eigen@@$0A@V?$OuterStride@$0?0@2@@Eigen@@$02$00$00@Eigen@@$0?0$00$0A@@Eigen@@V?$Block@V?$Block@V?$Ref@V?$Matrix@N$02$02$0A@$02$02@Eigen@@$0A@V?$OuterStride@$0?0@2@@Eigen@@$00$02$0A@@Eigen@@$00$0?0$0A@@2@$00@Eigen@@@23@U?$sub_assign_op@NN@23@$0A@@internal@Eigen@@QEAAX_J0@Z
	??$assignPacketByOuterInner@$0BA@$0A@U__m128d@@@?$generic_dense_assignment_kernel@U?$evaluator@V?$Matrix@N$01$00$0A@$01$00@Eigen@@@internal@Eigen@@U?$evaluator@V?$Block@$$CBV?$Matrix@N$02$00$0A@$02$00@Eigen@@$0?0$00$0A@@Eigen@@@23@U?$add_assign_op@NN@23@$0A@@internal@Eigen@@QEAAX_J0@Z
	??$assignPacketByOuterInner@$0BA@$0A@U__m128d@@@?$generic_dense_assignment_kernel@U?$evaluator@V?$Matrix@N$03$00$0A@$03$00@Eigen@@@internal@Eigen@@U?$evaluator@V?$Block@V?$Matrix@N$0?0$0?0$0A@$0?0$0?0@Eigen@@$0?0$00$00@Eigen@@@23@U?$assign_op@NN@23@$0A@@internal@Eigen@@QEAAX_J0@Z
	??$assignPacketByOuterInner@$0BA@$0A@U__m128d@@@?$generic_dense_assignment_kernel@U?$evaluator@V?$Matrix@N$03$02$0A@$03$02@Eigen@@@internal@Eigen@@U?$evaluator@V?$Map@$$CBV?$Matrix@N$03$02$0A@$03$02@Eigen@@$0A@V?$Stride@$0A@$0A@@2@@Eigen@@@23@U?$assign_op@NN@23@$0A@@internal@Eigen@@QEAAX_J0@Z
	??$assignPacketByOuterInner@$0BA@$0A@U__m128d@@@?$generic_dense_assignment_kernel@U?$evaluator@V?$Matrix@N$0?0$0?0$0A@$0?0$0?0@Eigen@@@internal@Eigen@@U?$evaluator@V?$CwiseBinaryOp@U?$scalar_quotient_op@NN@internal@Eigen@@$$CBV?$Block@$$CBV?$Matrix@N$02$03$0A@$02$03@Eigen@@$0?0$0?0$0A@@3@$$CBV?$CwiseNullaryOp@U?$scalar_constant_op@N@internal@Eigen@@$$CBV?$Matrix@N$0?0$0?0$0A@$02$03@3@@3@@Eigen@@@23@U?$assign_op@NN@23@$0A@@internal@Eigen@@QEAAX_J0@Z
	??$assignPacketByOuterInner@$0BA@$0A@U__m128d@@@?$generic_dense_assignment_kernel@U?$evaluator@V?$Matrix@N$0?0$0?0$0A@$0?0$0?0@Eigen@@@internal@Eigen@@U?$evaluator@V?$CwiseBinaryOp@U?$scalar_quotient_op@NN@internal@Eigen@@$$CBV?$Block@$$CBV?$Matrix@N$0?0$0?0$0A@$0?0$0?0@Eigen@@$0?0$0?0$0A@@3@$$CBV?$CwiseNullaryOp@U?$scalar_constant_op@N@internal@Eigen@@$$CBV?$Matrix@N$0?0$0?0$0A@$0?0$0?0@3@@3@@Eigen@@@23@U?$assign_op@NN@23@$0A@@internal@Eigen@@QEAAX_J0@Z
	??$assignPacketByOuterInner@$0BA@$0A@U__m128d@@@?$generic_dense_assignment_kernel@U?$evaluator@V?$Matrix@N$0?0$0?0$0A@$0?0$0?0@Eigen@@@internal@Eigen@@U?$evaluator@V?$Product@V?$Matrix@N$0?0$0?0$0A@$0?0$0?0@Eigen@@V12@$00@Eigen@@@23@U?$assign_op@NN@23@$00@internal@Eigen@@QEAAX_J0@Z
	??$assignPacketByOuterInner@$0BA@$0A@U__m128d@@@?$generic_dense_assignment_kernel@U?$evaluator@V?$Matrix@N$0?0$0?0$0A@$0?0$0?0@Eigen@@@internal@Eigen@@U?$evaluator@V?$Product@V?$Matrix@N$0?0$0?0$0A@$0?0$0?0@Eigen@@V?$DiagonalWrapper@$$CBV?$Matrix@N$0?0$00$0A@$0?0$00@Eigen@@@2@$00@Eigen@@@23@U?$assign_op@NN@23@$0A@@internal@Eigen@@QEAAX_J0@Z
	??$assignPacketByOuterInner@$0BA@$0A@U__m128d@@@?$generic_dense_assignment_kernel@U?$evaluator@V?$Matrix@N$0?0$0?0$0A@$0?0$0?0@Eigen@@@internal@Eigen@@U?$evaluator@V?$Product@V?$Product@V?$Matrix@N$0?0$0?0$0A@$0?0$0?0@Eigen@@V12@$0A@@Eigen@@V?$Transpose@$$CBV?$Matrix@N$0?0$0?0$0A@$0?0$0?0@Eigen@@@2@$00@Eigen@@@23@U?$assign_op@NN@23@$00@internal@Eigen@@QEAAX_J0@Z
	??$assignPacketByOuterInner@$0BA@$0A@U__m128d@@@?$generic_dense_assignment_kernel@U?$evaluator@V?$Matrix@N$0?0$0?0$0A@$0?0$0?0@Eigen@@@internal@Eigen@@U?$evaluator@V?$Product@V?$Product@V?$Matrix@N$0?0$0?0$0A@$0?0$0?0@Eigen@@V?$DiagonalWrapper@$$CBV?$Matrix@N$0?0$00$0A@$0?0$00@Eigen@@@2@$00@Eigen@@V?$Transpose@$$CBV?$Matrix@N$0?0$0?0$0A@$0?0$0?0@Eigen@@@2@$00@Eigen@@@23@U?$assign_op@NN@23@$00@internal@Eigen@@QEAAX_J0@Z
	??$assignPacketByOuterInner@$0BA@$0A@U__m128d@@@?$generic_dense_assignment_kernel@U?$evaluator@V?$Ref@V?$Matrix@N$0?0$0?0$0A@$0?0$0?0@Eigen@@$0A@V?$OuterStride@$0?0@2@@Eigen@@@internal@Eigen@@U123@U?$assign_op@NN@23@$0A@@internal@Eigen@@QEAAX_J0@Z
	??$assignPacketByOuterInner@$0BA@$0A@U__m128d@@@?$generic_dense_assignment_kernel@U?$evaluator@V?$Ref@V?$Matrix@N$0?0$0?0$0A@$0?0$0?0@Eigen@@$0A@V?$OuterStride@$0?0@2@@Eigen@@@internal@Eigen@@U?$evaluator@V?$Product@V?$Ref@V?$Matrix@N$0?0$0?0$0A@$0?0$0?0@Eigen@@$0A@V?$OuterStride@$0?0@2@@Eigen@@V12@$00@Eigen@@@23@U?$sub_assign_op@NN@23@$00@internal@Eigen@@QEAAX_J0@Z
	??$assignPacketByOuterInner@$0BA@$0BA@U__m128d@@@?$generic_dense_assignment_kernel@U?$evaluator@V?$Matrix@N$01$00$0A@$01$00@Eigen@@@internal@Eigen@@U?$evaluator@V?$CwiseNullaryOp@U?$scalar_constant_op@N@internal@Eigen@@$$CBV?$Matrix@N$01$00$0A@$01$00@3@@Eigen@@@23@U?$div_assign_op@NN@23@$0A@@internal@Eigen@@QEAAX_J0@Z
	??$assignPacketByOuterInner@$0BA@$0BA@U__m128d@@@?$generic_dense_assignment_kernel@U?$evaluator@V?$Matrix@N$03$00$0A@$03$00@Eigen@@@internal@Eigen@@U123@U?$assign_op@NN@23@$0A@@internal@Eigen@@QEAAX_J0@Z
	??$assignPacketByOuterInner@$0BA@$0BA@U__m128d@@@?$generic_dense_assignment_kernel@U?$evaluator@V?$Matrix@N$03$00$0A@$03$00@Eigen@@@internal@Eigen@@U?$evaluator@V?$CwiseBinaryOp@U?$scalar_difference_op@NN@internal@Eigen@@$$CBV?$CwiseBinaryOp@U?$scalar_difference_op@NN@internal@Eigen@@$$CBV?$Matrix@N$03$00$0A@$03$00@3@$$CBV?$CwiseBinaryOp@U?$scalar_product_op@NN@internal@Eigen@@$$CBV?$Matrix@N$03$00$0A@$03$00@3@$$CBV?$CwiseNullaryOp@U?$scalar_constant_op@N@internal@Eigen@@$$CBV?$Matrix@N$03$00$0A@$03$00@3@@3@@3@@3@$$CBV?$CwiseBinaryOp@U?$scalar_product_op@NN@internal@Eigen@@$$CBV?$Matrix@N$03$00$0A@$03$00@3@$$CBV?$CwiseNullaryOp@U?$scalar_constant_op@N@internal@Eigen@@$$CBV?$Matrix@N$03$00$0A@$03$00@3@@3@@3@@Eigen@@@23@U?$assign_op@NN@23@$0A@@internal@Eigen@@QEAAX_J0@Z
	??$assignPacketByOuterInner@$0BA@$0BA@U__m128d@@@?$generic_dense_assignment_kernel@U?$evaluator@V?$Matrix@N$03$00$0A@$03$00@Eigen@@@internal@Eigen@@U?$evaluator@V?$CwiseBinaryOp@U?$scalar_difference_op@NN@internal@Eigen@@$$CBV?$CwiseBinaryOp@U?$scalar_quotient_op@NN@internal@Eigen@@$$CBV?$Matrix@N$03$00$0A@$03$00@3@$$CBV?$CwiseNullaryOp@U?$scalar_constant_op@N@internal@Eigen@@$$CBV?$Matrix@N$03$00$0A@$03$00@3@@3@@3@$$CBV?$Matrix@N$03$00$0A@$03$00@3@@Eigen@@@23@U?$assign_op@NN@23@$0A@@internal@Eigen@@QEAAX_J0@Z
	??$assignPacketByOuterInner@$0BA@$0BA@U__m128d@@@?$generic_dense_assignment_kernel@U?$evaluator@V?$Matrix@N$03$00$0A@$03$00@Eigen@@@internal@Eigen@@U?$evaluator@V?$CwiseBinaryOp@U?$scalar_difference_op@NN@internal@Eigen@@$$CBV?$Matrix@N$03$00$0A@$03$00@3@$$CBV?$CwiseBinaryOp@U?$scalar_product_op@NN@internal@Eigen@@$$CBV?$Matrix@N$03$00$0A@$03$00@3@$$CBV?$CwiseNullaryOp@U?$scalar_constant_op@N@internal@Eigen@@$$CBV?$Matrix@N$03$00$0A@$03$00@3@@3@@3@@Eigen@@@23@U?$assign_op@NN@23@$0A@@internal@Eigen@@QEAAX_J0@Z
	??$assignPacketByOuterInner@$0BA@$0BA@U__m128d@@@?$generic_dense_assignment_kernel@U?$evaluator@V?$Matrix@N$03$00$0A@$03$00@Eigen@@@internal@Eigen@@U?$evaluator@V?$CwiseBinaryOp@U?$scalar_product_op@NN@internal@Eigen@@$$CBV?$Matrix@N$03$00$0A@$03$00@3@$$CBV?$CwiseNullaryOp@U?$scalar_constant_op@N@internal@Eigen@@$$CBV?$Matrix@N$03$00$0A@$03$00@3@@3@@Eigen@@@23@U?$assign_op@NN@23@$0A@@internal@Eigen@@QEAAX_J0@Z
	??$assignPacketByOuterInner@$0BA@$0BA@U__m128d@@@?$generic_dense_assignment_kernel@U?$evaluator@V?$Matrix@N$03$00$0A@$03$00@Eigen@@@internal@Eigen@@U?$evaluator@V?$CwiseBinaryOp@U?$scalar_quotient_op@NN@internal@Eigen@@$$CBV?$Matrix@N$03$00$0A@$03$00@3@$$CBV?$CwiseNullaryOp@U?$scalar_constant_op@N@internal@Eigen@@$$CBV?$Matrix@N$03$00$0A@$03$00@3@@3@@Eigen@@@23@U?$assign_op@NN@23@$0A@@internal@Eigen@@QEAAX_J0@Z
	??$assignPacketByOuterInner@$0BA@$0BA@U__m128d@@@?$generic_dense_assignment_kernel@U?$evaluator@V?$Matrix@N$03$00$0A@$03$00@Eigen@@@internal@Eigen@@U?$evaluator@V?$CwiseBinaryOp@U?$scalar_sum_op@NN@internal@Eigen@@$$CBV?$CwiseBinaryOp@U?$scalar_quotient_op@NN@internal@Eigen@@$$CBV?$CwiseBinaryOp@U?$scalar_sum_op@NN@internal@Eigen@@$$CBV?$CwiseBinaryOp@U?$scalar_product_op@NN@internal@Eigen@@$$CBV?$Matrix@N$03$00$0A@$03$00@3@$$CBV?$CwiseNullaryOp@U?$scalar_constant_op@N@internal@Eigen@@$$CBV?$Matrix@N$03$00$0A@$03$00@3@@3@@3@$$CBV43@@3@$$CBV?$CwiseNullaryOp@U?$scalar_constant_op@N@internal@Eigen@@$$CBV?$Matrix@N$03$00$0A@$03$00@3@@3@@3@$$CBV?$Matrix@N$03$00$0A@$03$00@3@@Eigen@@@23@U?$assign_op@NN@23@$0A@@internal@Eigen@@QEAAX_J0@Z
	??$assignPacketByOuterInner@$0BA@$0BA@U__m128d@@@?$generic_dense_assignment_kernel@U?$evaluator@V?$Matrix@N$03$00$0A@$03$00@Eigen@@@internal@Eigen@@U?$evaluator@V?$CwiseBinaryOp@U?$scalar_sum_op@NN@internal@Eigen@@$$CBV?$CwiseBinaryOp@U?$scalar_sum_op@NN@internal@Eigen@@$$CBV?$CwiseBinaryOp@U?$scalar_sum_op@NN@internal@Eigen@@$$CBV?$Matrix@N$03$00$0A@$03$00@3@$$CBV43@@3@$$CBV?$Matrix@N$03$00$0A@$03$00@3@@3@$$CBV?$Matrix@N$03$00$0A@$03$00@3@@Eigen@@@23@U?$assign_op@NN@23@$0A@@internal@Eigen@@QEAAX_J0@Z
	??$assignPacketByOuterInner@$0BA@$0BA@U__m128d@@@?$generic_dense_assignment_kernel@U?$evaluator@V?$Matrix@N$03$00$0A@$03$00@Eigen@@@internal@Eigen@@U?$evaluator@V?$CwiseBinaryOp@U?$scalar_sum_op@NN@internal@Eigen@@$$CBV?$CwiseBinaryOp@U?$scalar_sum_op@NN@internal@Eigen@@$$CBV?$Matrix@N$03$00$0A@$03$00@3@$$CBV43@@3@$$CBV?$Matrix@N$03$00$0A@$03$00@3@@Eigen@@@23@U?$assign_op@NN@23@$0A@@internal@Eigen@@QEAAX_J0@Z
	??$assignPacketByOuterInner@$0BA@$0BA@U__m128d@@@?$generic_dense_assignment_kernel@U?$evaluator@V?$Matrix@N$03$00$0A@$03$00@Eigen@@@internal@Eigen@@U?$evaluator@V?$CwiseBinaryOp@U?$scalar_sum_op@NN@internal@Eigen@@$$CBV?$Matrix@N$03$00$0A@$03$00@3@$$CBV43@@Eigen@@@23@U?$assign_op@NN@23@$0A@@internal@Eigen@@QEAAX_J0@Z
	??$assignPacketByOuterInner@$0BA@$0BA@U__m128d@@@?$generic_dense_assignment_kernel@U?$evaluator@V?$Matrix@N$03$00$0A@$03$00@Eigen@@@internal@Eigen@@U?$evaluator@V?$CwiseNullaryOp@U?$scalar_constant_op@N@internal@Eigen@@$$CBV?$Matrix@N$03$00$0A@$03$00@3@@Eigen@@@23@U?$mul_assign_op@NN@23@$0A@@internal@Eigen@@QEAAX_J0@Z
	??$assignPacketByOuterInner@$0BA@$0BA@U__m128d@@@?$generic_dense_assignment_kernel@U?$evaluator@V?$Matrix@N$03$00$0A@$03$00@Eigen@@@internal@Eigen@@U?$evaluator@V?$Matrix@N$0?0$00$0A@$0?0$00@Eigen@@@23@U?$assign_op@NN@23@$0A@@internal@Eigen@@QEAAX_J0@Z
	??$assignPacketByOuterInner@$0BA@$0BA@U__m128d@@@?$generic_dense_assignment_kernel@U?$evaluator@V?$Matrix@N$03$00$0A@$03$00@Eigen@@@internal@Eigen@@U?$evaluator@V?$Product@V?$Matrix@N$03$03$0A@$03$03@Eigen@@V?$Matrix@N$03$00$0A@$03$00@2@$00@Eigen@@@23@U?$assign_op@NN@23@$0A@@internal@Eigen@@QEAAX_J0@Z
	??$assignPacketByOuterInner@$0BA@$0BA@U__m128d@@@?$generic_dense_assignment_kernel@U?$evaluator@V?$Matrix@N$03$02$0A@$03$02@Eigen@@@internal@Eigen@@U?$evaluator@V?$Matrix@N$0?0$0?0$0A@$0?0$0?0@Eigen@@@23@U?$assign_op@NN@23@$0A@@internal@Eigen@@QEAAX_J0@Z
	??$assignPacketByOuterInner@$0BA@$0BA@U__m128d@@@?$generic_dense_assignment_kernel@U?$evaluator@V?$Matrix@N$03$03$0A@$03$03@Eigen@@@internal@Eigen@@U?$evaluator@V?$Product@V?$Matrix@N$03$03$0A@$03$03@Eigen@@V12@$00@Eigen@@@23@U?$assign_op@NN@23@$0A@@internal@Eigen@@QEAAX_J0@Z
	??$block@$00$02@?$DenseBase@V?$Matrix@N$02$03$0A@$02$03@Eigen@@@Eigen@@QEAA?AV?$Block@V?$Matrix@N$02$03$0A@$02$03@Eigen@@$00$02$0A@@1@_J0@Z
	??$block@$00$02@?$DenseBase@V?$Matrix@N$02$03$0A@$02$03@Eigen@@@Eigen@@QEBA?BV?$Block@$$CBV?$Matrix@N$02$03$0A@$02$03@Eigen@@$00$02$0A@@1@_J0@Z
	??$block@$00$03@?$DenseBase@V?$Matrix@N$02$03$0A@$02$03@Eigen@@@Eigen@@QEAA?AV?$Block@V?$Matrix@N$02$03$0A@$02$03@Eigen@@$00$03$0A@@1@_J0@Z
	??$block@$00$03@?$DenseBase@V?$Matrix@N$02$03$0A@$02$03@Eigen@@@Eigen@@QEBA?BV?$Block@$$CBV?$Matrix@N$02$03$0A@$02$03@Eigen@@$00$03$0A@@1@_J0@Z
	??$block@$00$03@?$DenseBase@V?$Matrix@N$0?0$0?0$0A@$0?0$0?0@Eigen@@@Eigen@@QEAA?AV?$Block@V?$Matrix@N$0?0$0?0$0A@$0?0$0?0@Eigen@@$00$03$0A@@1@_J0@Z
	??$block@$02$00@?$DenseBase@V?$Matrix@N$02$03$0A@$02$03@Eigen@@@Eigen@@QEAA?AV?$Block@V?$Matrix@N$02$03$0A@$02$03@Eigen@@$02$00$0A@@1@_J0@Z
	??$block@$02$00@?$DenseBase@V?$Matrix@N$02$03$0A@$02$03@Eigen@@@Eigen@@QEBA?BV?$Block@$$CBV?$Matrix@N$02$03$0A@$02$03@Eigen@@$02$00$0A@@1@_J0@Z
	??$block@$02$02@?$DenseBase@V?$Matrix@N$02$03$0A@$02$03@Eigen@@@Eigen@@QEAA?AV?$Block@V?$Matrix@N$02$03$0A@$02$03@Eigen@@$02$02$0A@@1@_J0@Z
	??$block@$02$02@?$DenseBase@V?$Matrix@N$02$03$0A@$02$03@Eigen@@@Eigen@@QEBA?BV?$Block@$$CBV?$Matrix@N$02$03$0A@$02$03@Eigen@@$02$02$0A@@1@_J0@Z
	??$block@_J_J@?$DenseBase@V?$Matrix@N$02$02$0A@$02$02@Eigen@@@Eigen@@QEAA?AV?$Block@V?$Matrix@N$02$02$0A@$02$02@Eigen@@$0?0$0?0$0A@@1@_J000@Z
	??$block@_J_J@?$DenseBase@V?$Matrix@N$0?0$0?0$0A@$0?0$0?0@Eigen@@@Eigen@@QEBA?BV?$Block@$$CBV?$Matrix@N$0?0$0?0$0A@$0?0$0?0@Eigen@@$0?0$0?0$0A@@1@_J000@Z
	??$block@_J_J@?$DenseBase@V?$Ref@V?$Matrix@N$02$02$0A@$02$02@Eigen@@$0A@V?$OuterStride@$0?0@2@@Eigen@@@Eigen@@QEAA?AV?$Block@V?$Ref@V?$Matrix@N$02$02$0A@$02$02@Eigen@@$0A@V?$OuterStride@$0?0@2@@Eigen@@$0?0$0?0$0A@@1@_J000@Z
	??$bottomRightCorner@V?$VariableAndFixedInt@$0?0@internal@Eigen@@V123@@?$DenseBase@V?$Ref@V?$Matrix@N$02$02$0A@$02$02@Eigen@@$0A@V?$OuterStride@$0?0@2@@Eigen@@@Eigen@@QEAA?AV?$Block@V?$Ref@V?$Matrix@N$02$02$0A@$02$02@Eigen@@$0A@V?$OuterStride@$0?0@2@@Eigen@@$0?0$0?0$0A@@1@V?$VariableAndFixedInt@$0?0@internal@1@0@Z
	??$bottomRightCorner@_J_J@?$DenseBase@V?$Block@V?$Matrix@N$02$02$0A@$02$02@Eigen@@$0?0$0?0$0A@@Eigen@@@Eigen@@QEAA?AV?$Block@V?$Block@V?$Matrix@N$02$02$0A@$02$02@Eigen@@$0?0$0?0$0A@@Eigen@@$0?0$0?0$0A@@1@_J0@Z
	??$bottomRightCorner@_J_J@?$DenseBase@V?$Block@V?$Matrix@N$02$02$0A@$02$02@Eigen@@$0?0$0?0$0A@@Eigen@@@Eigen@@QEBA?BV?$Block@$$CBV?$Block@V?$Matrix@N$02$02$0A@$02$02@Eigen@@$0?0$0?0$0A@@Eigen@@$0?0$0?0$0A@@1@_J0@Z
	??$bottomRightCorner@_J_J@?$DenseBase@V?$Block@V?$Matrix@N$0?0$0?0$0A@$0?0$0?0@Eigen@@$0?0$0?0$0A@@Eigen@@@Eigen@@QEBA?BV?$Block@$$CBV?$Block@V?$Matrix@N$0?0$0?0$0A@$0?0$0?0@Eigen@@$0?0$0?0$0A@@Eigen@@$0?0$0?0$0A@@1@_J0@Z
	??$bottomRightCorner@_J_J@?$DenseBase@V?$Matrix@N$02$02$0A@$02$02@Eigen@@@Eigen@@QEAA?AV?$Block@V?$Matrix@N$02$02$0A@$02$02@Eigen@@$0?0$0?0$0A@@1@_J0@Z
	??$bottomRightCorner@_J_J@?$DenseBase@V?$Matrix@N$0?0$0?0$0A@$0?0$0?0@Eigen@@@Eigen@@QEAA?AV?$Block@V?$Matrix@N$0?0$0?0$0A@$0?0$0?0@Eigen@@$0?0$0?0$0A@@1@_J0@Z
	??$bottomRows@_J@?$DenseBase@V?$Matrix@N$02$02$0A@$02$02@Eigen@@@Eigen@@QEAA?AV?$Block@V?$Matrix@N$02$02$0A@$02$02@Eigen@@$0?0$02$0A@@1@_J@Z
	??$bottomRows@_J@?$DenseBase@V?$Matrix@N$0?0$0?0$0A@$0?0$0?0@Eigen@@@Eigen@@QEAA?AV?$Block@V?$Matrix@N$0?0$0?0$0A@$0?0$0?0@Eigen@@$0?0$0?0$0A@@1@_J@Z
	??$bruteforce_det3_helper@V?$Block@V?$Matrix@N$02$03$0A@$02$03@Eigen@@$02$02$0A@@Eigen@@@internal@Eigen@@YA?BNAEBV?$MatrixBase@V?$Block@V?$Matrix@N$02$03$0A@$02$03@Eigen@@$02$02$0A@@Eigen@@@1@HHH@Z
	??$bruteforce_det3_helper@V?$Matrix@N$02$02$0A@$02$02@Eigen@@@internal@Eigen@@YA?BNAEBV?$MatrixBase@V?$Matrix@N$02$02$0A@$02$02@Eigen@@@1@HHH@Z
	??$call_assignment@V?$Block@V?$Block@V?$Block@V?$Block@V?$Matrix@N$02$02$0A@$02$02@Eigen@@$0?0$0?0$0A@@Eigen@@$0?0$00$00@Eigen@@$0?0$00$0A@@Eigen@@$0?0$00$0A@@Eigen@@V?$CwiseBinaryOp@U?$scalar_quotient_op@NN@internal@Eigen@@$$CBV?$Block@$$CBV?$Block@V?$Block@V?$Block@V?$Matrix@N$02$02$0A@$02$02@Eigen@@$0?0$0?0$0A@@Eigen@@$0?0$00$00@Eigen@@$0?0$00$0A@@Eigen@@$0?0$00$0A@@3@$$CBV?$CwiseNullaryOp@U?$scalar_constant_op@N@internal@Eigen@@$$CBV?$Matrix@N$0?0$00$0A@$02$00@3@@3@@2@@internal@Eigen@@YAXAEAV?$Block@V?$Block@V?$Block@V?$Block@V?$Matrix@N$02$02$0A@$02$02@Eigen@@$0?0$0?0$0A@@Eigen@@$0?0$00$00@Eigen@@$0?0$00$0A@@Eigen@@$0?0$00$0A@@1@AEBV?$CwiseBinaryOp@U?$scalar_quotient_op@NN@internal@Eigen@@$$CBV?$Block@$$CBV?$Block@V?$Block@V?$Block@V?$Matrix@N$02$02$0A@$02$02@Eigen@@$0?0$0?0$0A@@Eigen@@$0?0$00$00@Eigen@@$0?0$00$0A@@Eigen@@$0?0$00$0A@@3@$$CBV?$CwiseNullaryOp@U?$scalar_constant_op@N@internal@Eigen@@$$CBV?$Matrix@N$0?0$00$0A@$02$00@3@@3@@1@@Z
	??$call_assignment@V?$Block@V?$Block@V?$Block@V?$Block@V?$Matrix@N$02$02$0A@$02$02@Eigen@@$0?0$0?0$0A@@Eigen@@$0?0$00$00@Eigen@@$0?0$00$0A@@Eigen@@$0?0$00$0A@@Eigen@@V?$CwiseBinaryOp@U?$scalar_quotient_op@NN@internal@Eigen@@$$CBV?$Block@$$CBV?$Block@V?$Block@V?$Block@V?$Matrix@N$02$02$0A@$02$02@Eigen@@$0?0$0?0$0A@@Eigen@@$0?0$00$00@Eigen@@$0?0$00$0A@@Eigen@@$0?0$00$0A@@3@$$CBV?$CwiseNullaryOp@U?$scalar_constant_op@N@internal@Eigen@@$$CBV?$Matrix@N$0?0$00$0A@$02$00@3@@3@@2@U?$assign_op@NN@internal@2@@internal@Eigen@@YAXAEAV?$Block@V?$Block@V?$Block@V?$Block@V?$Matrix@N$02$02$0A@$02$02@Eigen@@$0?0$0?0$0A@@Eigen@@$0?0$00$00@Eigen@@$0?0$00$0A@@Eigen@@$0?0$00$0A@@1@AEBV?$CwiseBinaryOp@U?$scalar_quotient_op@NN@internal@Eigen@@$$CBV?$Block@$$CBV?$Block@V?$Block@V?$Block@V?$Matrix@N$02$02$0A@$02$02@Eigen@@$0?0$0?0$0A@@Eigen@@$0?0$00$00@Eigen@@$0?0$00$0A@@Eigen@@$0?0$00$0A@@3@$$CBV?$CwiseNullaryOp@U?$scalar_constant_op@N@internal@Eigen@@$$CBV?$Matrix@N$0?0$00$0A@$02$00@3@@3@@1@AEBU?$assign_op@NN@01@PEAX@Z
	??$call_assignment@V?$Block@V?$Block@V?$Block@V?$Matrix@N$02$02$0A@$02$02@Eigen@@$0?0$0?0$0A@@Eigen@@$0?0$0?0$0A@@Eigen@@$00$0?0$0A@@Eigen@@V?$CwiseBinaryOp@U?$scalar_product_op@NN@internal@Eigen@@$$CBV?$CwiseNullaryOp@U?$scalar_constant_op@N@internal@Eigen@@$$CBV?$Matrix@N$00$0?0$00$00$02@3@@3@$$CBV?$Map@V?$Matrix@N$00$0?0$00$00$02@Eigen@@$0A@V?$Stride@$0A@$0A@@2@@3@@2@U?$sub_assign_op@NN@internal@2@@internal@Eigen@@YAXAEAV?$Block@V?$Block@V?$Block@V?$Matrix@N$02$02$0A@$02$02@Eigen@@$0?0$0?0$0A@@Eigen@@$0?0$0?0$0A@@Eigen@@$00$0?0$0A@@1@AEBV?$CwiseBinaryOp@U?$scalar_product_op@NN@internal@Eigen@@$$CBV?$CwiseNullaryOp@U?$scalar_constant_op@N@internal@Eigen@@$$CBV?$Matrix@N$00$0?0$00$00$02@3@@3@$$CBV?$Map@V?$Matrix@N$00$0?0$00$00$02@Eigen@@$0A@V?$Stride@$0A@$0A@@2@@3@@1@AEBU?$sub_assign_op@NN@01@PEAX@Z
	??$call_assignment@V?$Block@V?$Block@V?$Block@V?$Matrix@N$0?0$0?0$0A@$0?0$0?0@Eigen@@$0?0$00$00@Eigen@@$0?0$00$0A@@Eigen@@$0?0$00$0A@@Eigen@@V?$CwiseBinaryOp@U?$scalar_quotient_op@NN@internal@Eigen@@$$CBV?$Block@$$CBV?$Block@V?$Block@V?$Matrix@N$0?0$0?0$0A@$0?0$0?0@Eigen@@$0?0$00$00@Eigen@@$0?0$00$0A@@Eigen@@$0?0$00$0A@@3@$$CBV?$CwiseNullaryOp@U?$scalar_constant_op@N@internal@Eigen@@$$CBV?$Matrix@N$0?0$00$0A@$0?0$00@3@@3@@2@@internal@Eigen@@YAXAEAV?$Block@V?$Block@V?$Block@V?$Matrix@N$0?0$0?0$0A@$0?0$0?0@Eigen@@$0?0$00$00@Eigen@@$0?0$00$0A@@Eigen@@$0?0$00$0A@@1@AEBV?$CwiseBinaryOp@U?$scalar_quotient_op@NN@internal@Eigen@@$$CBV?$Block@$$CBV?$Block@V?$Block@V?$Matrix@N$0?0$0?0$0A@$0?0$0?0@Eigen@@$0?0$00$00@Eigen@@$0?0$00$0A@@Eigen@@$0?0$00$0A@@3@$$CBV?$CwiseNullaryOp@U?$scalar_constant_op@N@internal@Eigen@@$$CBV?$Matrix@N$0?0$00$0A@$0?0$00@3@@3@@1@@Z
	??$call_assignment@V?$Block@V?$Block@V?$Block@V?$Matrix@N$0?0$0?0$0A@$0?0$0?0@Eigen@@$0?0$00$00@Eigen@@$0?0$00$0A@@Eigen@@$0?0$00$0A@@Eigen@@V?$CwiseBinaryOp@U?$scalar_quotient_op@NN@internal@Eigen@@$$CBV?$Block@$$CBV?$Block@V?$Block@V?$Matrix@N$0?0$0?0$0A@$0?0$0?0@Eigen@@$0?0$00$00@Eigen@@$0?0$00$0A@@Eigen@@$0?0$00$0A@@3@$$CBV?$CwiseNullaryOp@U?$scalar_constant_op@N@internal@Eigen@@$$CBV?$Matrix@N$0?0$00$0A@$0?0$00@3@@3@@2@U?$assign_op@NN@internal@2@@internal@Eigen@@YAXAEAV?$Block@V?$Block@V?$Block@V?$Matrix@N$0?0$0?0$0A@$0?0$0?0@Eigen@@$0?0$00$00@Eigen@@$0?0$00$0A@@Eigen@@$0?0$00$0A@@1@AEBV?$CwiseBinaryOp@U?$scalar_quotient_op@NN@internal@Eigen@@$$CBV?$Block@$$CBV?$Block@V?$Block@V?$Matrix@N$0?0$0?0$0A@$0?0$0?0@Eigen@@$0?0$00$00@Eigen@@$0?0$00$0A@@Eigen@@$0?0$00$0A@@3@$$CBV?$CwiseNullaryOp@U?$scalar_constant_op@N@internal@Eigen@@$$CBV?$Matrix@N$0?0$00$0A@$0?0$00@3@@3@@1@AEBU?$assign_op@NN@01@PEAX@Z
	??$call_assignment@V?$Block@V?$Block@V?$Block@V?$Matrix@N$0?0$0?0$0A@$0?0$0?0@Eigen@@$0?0$0?0$0A@@Eigen@@$0?0$0?0$0A@@Eigen@@$0?0$00$00@Eigen@@V?$CwiseBinaryOp@U?$scalar_product_op@NN@internal@Eigen@@$$CBV?$CwiseNullaryOp@U?$scalar_constant_op@N@internal@Eigen@@$$CBV?$Matrix@N$0?0$00$0A@$0?0$00@3@@3@$$CBV?$Map@V?$Matrix@N$0?0$00$0A@$0?0$00@Eigen@@$0BA@V?$Stride@$0A@$0A@@2@@3@@2@U?$sub_assign_op@NN@internal@2@@internal@Eigen@@YAXAEAV?$Block@V?$Block@V?$Block@V?$Matrix@N$0?0$0?0$0A@$0?0$0?0@Eigen@@$0?0$0?0$0A@@Eigen@@$0?0$0?0$0A@@Eigen@@$0?0$00$00@1@AEBV?$CwiseBinaryOp@U?$scalar_product_op@NN@internal@Eigen@@$$CBV?$CwiseNullaryOp@U?$scalar_constant_op@N@internal@Eigen@@$$CBV?$Matrix@N$0?0$00$0A@$0?0$00@3@@3@$$CBV?$Map@V?$Matrix@N$0?0$00$0A@$0?0$00@Eigen@@$0BA@V?$Stride@$0A@$0A@@2@@3@@1@AEBU?$sub_assign_op@NN@01@PEAX@Z
	??$call_assignment@V?$Block@V?$Block@V?$Matrix@N$02$02$0A@$02$02@Eigen@@$0?0$02$0A@@Eigen@@$00$02$0A@@Eigen@@V?$CwiseBinaryOp@U?$scalar_product_op@NN@internal@Eigen@@$$CBV?$CwiseNullaryOp@U?$scalar_constant_op@N@internal@Eigen@@$$CBV?$Matrix@N$00$02$00$00$02@3@@3@$$CBV?$Map@V?$Matrix@N$00$02$00$00$02@Eigen@@$0A@V?$Stride@$0A@$0A@@2@@3@@2@U?$sub_assign_op@NN@internal@2@@internal@Eigen@@YAXAEAV?$Block@V?$Block@V?$Matrix@N$02$02$0A@$02$02@Eigen@@$0?0$02$0A@@Eigen@@$00$02$0A@@1@AEBV?$CwiseBinaryOp@U?$scalar_product_op@NN@internal@Eigen@@$$CBV?$CwiseNullaryOp@U?$scalar_constant_op@N@internal@Eigen@@$$CBV?$Matrix@N$00$02$00$00$02@3@@3@$$CBV?$Map@V?$Matrix@N$00$02$00$00$02@Eigen@@$0A@V?$Stride@$0A@$0A@@2@@3@@1@AEBU?$sub_assign_op@NN@01@PEAX@Z
	??$call_assignment@V?$Block@V?$Block@V?$Matrix@N$02$02$0A@$02$02@Eigen@@$0?0$02$0A@@Eigen@@$0?0$02$0A@@Eigen@@V?$Block@$$CBV?$CwiseBinaryOp@U?$scalar_product_op@NN@internal@Eigen@@$$CBV?$CwiseNullaryOp@U?$scalar_constant_op@N@internal@Eigen@@$$CBV?$Matrix@N$0?0$02$0A@$02$02@3@@3@$$CBV?$Matrix@N$0?0$02$0A@$02$02@3@@Eigen@@$0?0$02$0A@@2@U?$sub_assign_op@NN@internal@2@@internal@Eigen@@YAXAEAV?$Block@V?$Block@V?$Matrix@N$02$02$0A@$02$02@Eigen@@$0?0$02$0A@@Eigen@@$0?0$02$0A@@1@AEBV?$Block@$$CBV?$CwiseBinaryOp@U?$scalar_product_op@NN@internal@Eigen@@$$CBV?$CwiseNullaryOp@U?$scalar_constant_op@N@internal@Eigen@@$$CBV?$Matrix@N$0?0$02$0A@$02$02@3@@3@$$CBV?$Matrix@N$0?0$02$0A@$02$02@3@@Eigen@@$0?0$02$0A@@1@AEBU?$sub_assign_op@NN@01@PEAX@Z
	??$call_assignment@V?$Block@V?$Block@V?$Matrix@N$02$02$0A@$02$02@Eigen@@$0?0$02$0A@@Eigen@@$0?0$0?0$00@Eigen@@V?$CwiseBinaryOp@U?$scalar_product_op@NN@internal@Eigen@@$$CBV?$CwiseNullaryOp@U?$scalar_constant_op@N@internal@Eigen@@$$CBV?$Matrix@N$0?0$0?0$0A@$02$02@3@@3@$$CBV?$Block@$$CBV?$Block@V?$Matrix@N$02$02$0A@$02$02@Eigen@@$0?0$0?0$0A@@Eigen@@$0?0$0?0$00@3@@2@U?$sub_assign_op@NN@internal@2@@internal@Eigen@@YAXAEAV?$Block@V?$Block@V?$Matrix@N$02$02$0A@$02$02@Eigen@@$0?0$02$0A@@Eigen@@$0?0$0?0$00@1@AEBV?$CwiseBinaryOp@U?$scalar_product_op@NN@internal@Eigen@@$$CBV?$CwiseNullaryOp@U?$scalar_constant_op@N@internal@Eigen@@$$CBV?$Matrix@N$0?0$0?0$0A@$02$02@3@@3@$$CBV?$Block@$$CBV?$Block@V?$Matrix@N$02$02$0A@$02$02@Eigen@@$0?0$0?0$0A@@Eigen@@$0?0$0?0$00@3@@1@AEBU?$sub_assign_op@NN@01@PEAX@Z
	??$call_assignment@V?$Block@V?$Block@V?$Matrix@N$02$02$0A@$02$02@Eigen@@$0?0$0?0$0A@@Eigen@@$00$0?0$0A@@Eigen@@V?$CwiseBinaryOp@U?$scalar_product_op@NN@internal@Eigen@@$$CBV?$CwiseNullaryOp@U?$scalar_constant_op@N@internal@Eigen@@$$CBV?$Matrix@N$00$0?0$00$00$02@3@@3@$$CBV?$Map@V?$Matrix@N$00$0?0$00$00$02@Eigen@@$0A@V?$Stride@$0A@$0A@@2@@3@@2@U?$sub_assign_op@NN@internal@2@@internal@Eigen@@YAXAEAV?$Block@V?$Block@V?$Matrix@N$02$02$0A@$02$02@Eigen@@$0?0$0?0$0A@@Eigen@@$00$0?0$0A@@1@AEBV?$CwiseBinaryOp@U?$scalar_product_op@NN@internal@Eigen@@$$CBV?$CwiseNullaryOp@U?$scalar_constant_op@N@internal@Eigen@@$$CBV?$Matrix@N$00$0?0$00$00$02@3@@3@$$CBV?$Map@V?$Matrix@N$00$0?0$00$00$02@Eigen@@$0A@V?$Stride@$0A@$0A@@2@@3@@1@AEBU?$sub_assign_op@NN@01@PEAX@Z
	??$call_assignment@V?$Block@V?$Block@V?$Matrix@N$02$02$0A@$02$02@Eigen@@$0?0$0?0$0A@@Eigen@@$0?0$00$00@Eigen@@V?$CwiseBinaryOp@U?$scalar_product_op@NN@internal@Eigen@@$$CBV?$CwiseNullaryOp@U?$scalar_constant_op@N@internal@Eigen@@$$CBV?$Matrix@N$0?0$00$0A@$02$00@3@@3@$$CBV?$Map@V?$Matrix@N$0?0$00$0A@$02$00@Eigen@@$0A@V?$Stride@$0A@$0A@@2@@3@@2@U?$sub_assign_op@NN@internal@2@@internal@Eigen@@YAXAEAV?$Block@V?$Block@V?$Matrix@N$02$02$0A@$02$02@Eigen@@$0?0$0?0$0A@@Eigen@@$0?0$00$00@1@AEBV?$CwiseBinaryOp@U?$scalar_product_op@NN@internal@Eigen@@$$CBV?$CwiseNullaryOp@U?$scalar_constant_op@N@internal@Eigen@@$$CBV?$Matrix@N$0?0$00$0A@$02$00@3@@3@$$CBV?$Map@V?$Matrix@N$0?0$00$0A@$02$00@Eigen@@$0A@V?$Stride@$0A@$0A@@2@@3@@1@AEBU?$sub_assign_op@NN@01@PEAX@Z
	??$call_assignment@V?$Block@V?$Block@V?$Matrix@N$02$02$0A@$02$02@Eigen@@$0?0$0?0$0A@@Eigen@@$0?0$0?0$00@Eigen@@V?$CwiseBinaryOp@U?$scalar_product_op@NN@internal@Eigen@@$$CBV?$CwiseNullaryOp@U?$scalar_constant_op@N@internal@Eigen@@$$CBV?$Matrix@N$0?0$0?0$0A@$02$02@3@@3@$$CBV?$Block@$$CBV?$Block@V?$Matrix@N$02$02$0A@$02$02@Eigen@@$0?0$0?0$0A@@Eigen@@$0?0$0?0$00@3@@2@U?$sub_assign_op@NN@internal@2@@internal@Eigen@@YAXAEAV?$Block@V?$Block@V?$Matrix@N$02$02$0A@$02$02@Eigen@@$0?0$0?0$0A@@Eigen@@$0?0$0?0$00@1@AEBV?$CwiseBinaryOp@U?$scalar_product_op@NN@internal@Eigen@@$$CBV?$CwiseNullaryOp@U?$scalar_constant_op@N@internal@Eigen@@$$CBV?$Matrix@N$0?0$0?0$0A@$02$02@3@@3@$$CBV?$Block@$$CBV?$Block@V?$Matrix@N$02$02$0A@$02$02@Eigen@@$0?0$0?0$0A@@Eigen@@$0?0$0?0$00@3@@1@AEBU?$sub_assign_op@NN@01@PEAX@Z
	??$call_assignment@V?$Block@V?$Block@V?$Matrix@N$02$02$0A@$02$02@Eigen@@$0?0$0?0$0A@@Eigen@@$0?0$0?0$0A@@Eigen@@V?$Block@$$CBV?$CwiseBinaryOp@U?$scalar_product_op@NN@internal@Eigen@@$$CBV?$CwiseNullaryOp@U?$scalar_constant_op@N@internal@Eigen@@$$CBV?$Matrix@N$0?0$0?0$0A@$02$02@3@@3@$$CBV?$Matrix@N$0?0$0?0$0A@$02$02@3@@Eigen@@$0?0$0?0$0A@@2@U?$sub_assign_op@NN@internal@2@@internal@Eigen@@YAXAEAV?$Block@V?$Block@V?$Matrix@N$02$02$0A@$02$02@Eigen@@$0?0$0?0$0A@@Eigen@@$0?0$0?0$0A@@1@AEBV?$Block@$$CBV?$CwiseBinaryOp@U?$scalar_product_op@NN@internal@Eigen@@$$CBV?$CwiseNullaryOp@U?$scalar_constant_op@N@internal@Eigen@@$$CBV?$Matrix@N$0?0$0?0$0A@$02$02@3@@3@$$CBV?$Matrix@N$0?0$0?0$0A@$02$02@3@@Eigen@@$0?0$0?0$0A@@1@AEBU?$sub_assign_op@NN@01@PEAX@Z
	??$call_assignment@V?$Block@V?$Block@V?$Matrix@N$02$02$0A@$02$02@Eigen@@$0?0$0?0$0A@@Eigen@@$0?0$0?0$0A@@Eigen@@V?$CwiseNullaryOp@U?$scalar_constant_op@N@internal@Eigen@@$$CBV?$Matrix@N$0?0$0?0$0A@$02$02@3@@2@U?$mul_assign_op@NN@internal@2@@internal@Eigen@@YAXAEAV?$Block@V?$Block@V?$Matrix@N$02$02$0A@$02$02@Eigen@@$0?0$0?0$0A@@Eigen@@$0?0$0?0$0A@@1@AEBV?$CwiseNullaryOp@U?$scalar_constant_op@N@internal@Eigen@@$$CBV?$Matrix@N$0?0$0?0$0A@$02$02@3@@1@AEBU?$mul_assign_op@NN@01@PEAX@Z
	??$call_assignment@V?$Block@V?$Block@V?$Matrix@N$0?0$0?0$00$0?0$0?0@Eigen@@$00$0?0$00@Eigen@@$00$0?0$0A@@Eigen@@V?$CwiseBinaryOp@U?$scalar_product_op@NN@internal@Eigen@@$$CBV?$CwiseNullaryOp@U?$scalar_constant_op@N@internal@Eigen@@$$CBV?$Matrix@N$00$0?0$00$00$0?0@3@@3@$$CBV?$Block@V?$Block@V?$Matrix@N$0?0$0?0$00$0?0$0?0@Eigen@@$00$0?0$00@Eigen@@$00$0?0$0A@@3@@2@U?$add_assign_op@NN@internal@2@@internal@Eigen@@YAXAEAV?$Block@V?$Block@V?$Matrix@N$0?0$0?0$00$0?0$0?0@Eigen@@$00$0?0$00@Eigen@@$00$0?0$0A@@1@AEBV?$CwiseBinaryOp@U?$scalar_product_op@NN@internal@Eigen@@$$CBV?$CwiseNullaryOp@U?$scalar_constant_op@N@internal@Eigen@@$$CBV?$Matrix@N$00$0?0$00$00$0?0@3@@3@$$CBV?$Block@V?$Block@V?$Matrix@N$0?0$0?0$00$0?0$0?0@Eigen@@$00$0?0$00@Eigen@@$00$0?0$0A@@3@@1@AEBU?$add_assign_op@NN@01@PEAX@Z
	??$call_assignment@V?$Block@V?$Block@V?$Matrix@N$0?0$0?0$0A@$0?0$0?0@Eigen@@$0?0$0?0$0A@@Eigen@@$00$0?0$0A@@Eigen@@V?$CwiseBinaryOp@U?$scalar_product_op@NN@internal@Eigen@@$$CBV?$CwiseNullaryOp@U?$scalar_constant_op@N@internal@Eigen@@$$CBV?$Matrix@N$00$0?0$00$00$0?0@3@@3@$$CBV?$Map@V?$Matrix@N$00$0?0$00$00$0?0@Eigen@@$0A@V?$Stride@$0A@$0A@@2@@3@@2@U?$sub_assign_op@NN@internal@2@@internal@Eigen@@YAXAEAV?$Block@V?$Block@V?$Matrix@N$0?0$0?0$0A@$0?0$0?0@Eigen@@$0?0$0?0$0A@@Eigen@@$00$0?0$0A@@1@AEBV?$CwiseBinaryOp@U?$scalar_product_op@NN@internal@Eigen@@$$CBV?$CwiseNullaryOp@U?$scalar_constant_op@N@internal@Eigen@@$$CBV?$Matrix@N$00$0?0$00$00$0?0@3@@3@$$CBV?$Map@V?$Matrix@N$00$0?0$00$00$0?0@Eigen@@$0A@V?$Stride@$0A@$0A@@2@@3@@1@AEBU?$sub_assign_op@NN@01@PEAX@Z
	??$call_assignment@V?$Block@V?$Block@V?$Matrix@N$0?0$0?0$0A@$0?0$0?0@Eigen@@$0?0$0?0$0A@@Eigen@@$0?0$00$00@Eigen@@V?$CwiseBinaryOp@U?$scalar_product_op@NN@internal@Eigen@@$$CBV?$CwiseNullaryOp@U?$scalar_constant_op@N@internal@Eigen@@$$CBV?$Matrix@N$0?0$00$0A@$0?0$00@3@@3@$$CBV?$Map@V?$Matrix@N$0?0$00$0A@$0?0$00@Eigen@@$0A@V?$Stride@$0A@$0A@@2@@3@@2@U?$sub_assign_op@NN@internal@2@@internal@Eigen@@YAXAEAV?$Block@V?$Block@V?$Matrix@N$0?0$0?0$0A@$0?0$0?0@Eigen@@$0?0$0?0$0A@@Eigen@@$0?0$00$00@1@AEBV?$CwiseBinaryOp@U?$scalar_product_op@NN@internal@Eigen@@$$CBV?$CwiseNullaryOp@U?$scalar_constant_op@N@internal@Eigen@@$$CBV?$Matrix@N$0?0$00$0A@$0?0$00@3@@3@$$CBV?$Map@V?$Matrix@N$0?0$00$0A@$0?0$00@Eigen@@$0A@V?$Stride@$0A@$0A@@2@@3@@1@AEBU?$sub_assign_op@NN@01@PEAX@Z
	??$call_assignment@V?$Block@V?$Block@V?$Matrix@N$0?0$0?0$0A@$0?0$0?0@Eigen@@$0?0$0?0$0A@@Eigen@@$0?0$0?0$00@Eigen@@V?$CwiseBinaryOp@U?$scalar_product_op@NN@internal@Eigen@@$$CBV?$CwiseNullaryOp@U?$scalar_constant_op@N@internal@Eigen@@$$CBV?$Matrix@N$0?0$0?0$0A@$0?0$0?0@3@@3@$$CBV?$Block@$$CBV?$Block@V?$Matrix@N$0?0$0?0$0A@$0?0$0?0@Eigen@@$0?0$0?0$0A@@Eigen@@$0?0$0?0$00@3@@2@U?$sub_assign_op@NN@internal@2@@internal@Eigen@@YAXAEAV?$Block@V?$Block@V?$Matrix@N$0?0$0?0$0A@$0?0$0?0@Eigen@@$0?0$0?0$0A@@Eigen@@$0?0$0?0$00@1@AEBV?$CwiseBinaryOp@U?$scalar_product_op@NN@internal@Eigen@@$$CBV?$CwiseNullaryOp@U?$scalar_constant_op@N@internal@Eigen@@$$CBV?$Matrix@N$0?0$0?0$0A@$0?0$0?0@3@@3@$$CBV?$Block@$$CBV?$Block@V?$Matrix@N$0?0$0?0$0A@$0?0$0?0@Eigen@@$0?0$0?0$0A@@Eigen@@$0?0$0?0$00@3@@1@AEBU?$sub_assign_op@NN@01@PEAX@Z
	??$call_assignment@V?$Block@V?$Block@V?$Matrix@N$0?0$0?0$0A@$0?0$0?0@Eigen@@$0?0$0?0$0A@@Eigen@@$0?0$0?0$0A@@Eigen@@V?$Block@$$CBV?$CwiseBinaryOp@U?$scalar_product_op@NN@internal@Eigen@@$$CBV?$CwiseNullaryOp@U?$scalar_constant_op@N@internal@Eigen@@$$CBV?$Matrix@N$0?0$0?0$0A@$0?0$0?0@3@@3@$$CBV?$Matrix@N$0?0$0?0$0A@$0?0$0?0@3@@Eigen@@$0?0$0?0$0A@@2@U?$sub_assign_op@NN@internal@2@@internal@Eigen@@YAXAEAV?$Block@V?$Block@V?$Matrix@N$0?0$0?0$0A@$0?0$0?0@Eigen@@$0?0$0?0$0A@@Eigen@@$0?0$0?0$0A@@1@AEBV?$Block@$$CBV?$CwiseBinaryOp@U?$scalar_product_op@NN@internal@Eigen@@$$CBV?$CwiseNullaryOp@U?$scalar_constant_op@N@internal@Eigen@@$$CBV?$Matrix@N$0?0$0?0$0A@$0?0$0?0@3@@3@$$CBV?$Matrix@N$0?0$0?0$0A@$0?0$0?0@3@@Eigen@@$0?0$0?0$0A@@1@AEBU?$sub_assign_op@NN@01@PEAX@Z
	??$call_assignment@V?$Block@V?$Block@V?$Ref@V?$Matrix@N$02$02$0A@$02$02@Eigen@@$0A@V?$OuterStride@$0?0@2@@Eigen@@$02$00$00@Eigen@@$0?0$00$0A@@Eigen@@V?$CwiseNullaryOp@U?$scalar_constant_op@N@internal@Eigen@@$$CBV?$Matrix@N$0?0$00$0A@$02$00@3@@2@U?$div_assign_op@NN@internal@2@@internal@Eigen@@YAXAEAV?$Block@V?$Block@V?$Ref@V?$Matrix@N$02$02$0A@$02$02@Eigen@@$0A@V?$OuterStride@$0?0@2@@Eigen@@$02$00$00@Eigen@@$0?0$00$0A@@1@AEBV?$CwiseNullaryOp@U?$scalar_constant_op@N@internal@Eigen@@$$CBV?$Matrix@N$0?0$00$0A@$02$00@3@@1@AEBU?$div_assign_op@NN@01@PEAX@Z
	??$call_assignment@V?$Block@V?$Matrix@N$02$00$0A@$02$00@Eigen@@$00$00$0A@@Eigen@@V12@U?$swap_assign_op@N@internal@2@@internal@Eigen@@YAXAEAV?$Block@V?$Matrix@N$02$00$0A@$02$00@Eigen@@$00$00$0A@@1@AEBV21@AEBU?$swap_assign_op@N@01@PEAX@Z
	??$call_assignment@V?$Block@V?$Matrix@N$02$00$0A@$02$00@Eigen@@$00$00$0A@@Eigen@@V?$Block@$$CBV?$Block@$$CBV?$Matrix@N$02$03$0A@$02$03@Eigen@@$02$00$0A@@Eigen@@$00$00$0A@@2@@internal@Eigen@@YAXAEAV?$Block@V?$Matrix@N$02$00$0A@$02$00@Eigen@@$00$00$0A@@1@AEBV?$Block@$$CBV?$Block@$$CBV?$Matrix@N$02$03$0A@$02$03@Eigen@@$02$00$0A@@Eigen@@$00$00$0A@@1@@Z
	??$call_assignment@V?$Block@V?$Matrix@N$02$00$0A@$02$00@Eigen@@$00$00$0A@@Eigen@@V?$Block@$$CBV?$Block@$$CBV?$Matrix@N$02$03$0A@$02$03@Eigen@@$02$00$0A@@Eigen@@$00$00$0A@@2@U?$assign_op@NN@internal@2@@internal@Eigen@@YAXAEAV?$Block@V?$Matrix@N$02$00$0A@$02$00@Eigen@@$00$00$0A@@1@AEBV?$Block@$$CBV?$Block@$$CBV?$Matrix@N$02$03$0A@$02$03@Eigen@@$02$00$0A@@Eigen@@$00$00$0A@@1@AEBU?$assign_op@NN@01@PEAX@Z
	??$call_assignment@V?$Block@V?$Matrix@N$02$02$0A@$02$02@Eigen@@$00$02$0A@@Eigen@@V12@U?$swap_assign_op@N@internal@2@@internal@Eigen@@YAXAEAV?$Block@V?$Matrix@N$02$02$0A@$02$02@Eigen@@$00$02$0A@@1@AEBV21@AEBU?$swap_assign_op@N@01@PEAX@Z
	??$call_assignment@V?$Block@V?$Matrix@N$02$02$0A@$02$02@Eigen@@$00$02$0A@@Eigen@@V?$CwiseBinaryOp@U?$scalar_product_op@NN@internal@Eigen@@$$CBV?$Matrix@N$02$00$0A@$02$00@3@$$CBV?$CwiseNullaryOp@U?$scalar_constant_op@N@internal@Eigen@@$$CBV?$Matrix@N$02$00$0A@$02$00@3@@3@@2@@internal@Eigen@@YAXAEAV?$Block@V?$Matrix@N$02$02$0A@$02$02@Eigen@@$00$02$0A@@1@AEBV?$CwiseBinaryOp@U?$scalar_product_op@NN@internal@Eigen@@$$CBV?$Matrix@N$02$00$0A@$02$00@3@$$CBV?$CwiseNullaryOp@U?$scalar_constant_op@N@internal@Eigen@@$$CBV?$Matrix@N$02$00$0A@$02$00@3@@3@@1@@Z
	??$call_assignment@V?$Block@V?$Matrix@N$02$02$0A@$02$02@Eigen@@$00$02$0A@@Eigen@@V?$CwiseBinaryOp@U?$scalar_product_op@NN@internal@Eigen@@$$CBV?$Matrix@N$02$00$0A@$02$00@3@$$CBV?$CwiseNullaryOp@U?$scalar_constant_op@N@internal@Eigen@@$$CBV?$Matrix@N$02$00$0A@$02$00@3@@3@@2@U?$assign_op@NN@internal@2@@internal@Eigen@@YAXAEAV?$Block@V?$Matrix@N$02$02$0A@$02$02@Eigen@@$00$02$0A@@1@AEBV?$CwiseBinaryOp@U?$scalar_product_op@NN@internal@Eigen@@$$CBV?$Matrix@N$02$00$0A@$02$00@3@$$CBV?$CwiseNullaryOp@U?$scalar_constant_op@N@internal@Eigen@@$$CBV?$Matrix@N$02$00$0A@$02$00@3@@3@@1@AEBU?$assign_op@NN@01@PEAX@Z
	??$call_assignment@V?$Block@V?$Matrix@N$02$02$0A@$02$02@Eigen@@$02$00$00@Eigen@@V12@U?$swap_assign_op@N@internal@2@@internal@Eigen@@YAXAEAV?$Block@V?$Matrix@N$02$02$0A@$02$02@Eigen@@$02$00$00@1@AEBV21@AEBU?$swap_assign_op@N@01@PEAX@Z
	??$call_assignment@V?$Block@V?$Matrix@N$02$02$0A@$02$02@Eigen@@$0?0$02$0A@@Eigen@@V?$CwiseNullaryOp@U?$scalar_constant_op@N@internal@Eigen@@$$CBV?$Matrix@N$0?0$02$0A@$02$02@3@@2@U?$mul_assign_op@NN@internal@2@@internal@Eigen@@YAXAEAV?$Block@V?$Matrix@N$02$02$0A@$02$02@Eigen@@$0?0$02$0A@@1@AEBV?$CwiseNullaryOp@U?$scalar_constant_op@N@internal@Eigen@@$$CBV?$Matrix@N$0?0$02$0A@$02$02@3@@1@AEBU?$mul_assign_op@NN@01@PEAX@Z
	??$call_assignment@V?$Block@V?$Matrix@N$02$02$0A@$02$02@Eigen@@$0?0$0?0$0A@@Eigen@@V?$CwiseNullaryOp@U?$scalar_constant_op@N@internal@Eigen@@$$CBV?$Matrix@N$0?0$0?0$0A@$02$02@3@@2@U?$mul_assign_op@NN@internal@2@@internal@Eigen@@YAXAEAV?$Block@V?$Matrix@N$02$02$0A@$02$02@Eigen@@$0?0$0?0$0A@@1@AEBV?$CwiseNullaryOp@U?$scalar_constant_op@N@internal@Eigen@@$$CBV?$Matrix@N$0?0$0?0$0A@$02$02@3@@1@AEBU?$mul_assign_op@NN@01@PEAX@Z
	??$call_assignment@V?$Block@V?$Matrix@N$02$03$0A@$02$03@Eigen@@$02$00$0A@@Eigen@@V?$Product@V?$Matrix@N$02$02$0A@$02$02@Eigen@@V?$Matrix@N$02$00$0A@$02$00@2@$0A@@2@@internal@Eigen@@YAXAEAV?$Block@V?$Matrix@N$02$03$0A@$02$03@Eigen@@$02$00$0A@@1@AEBV?$Product@V?$Matrix@N$02$02$0A@$02$02@Eigen@@V?$Matrix@N$02$00$0A@$02$00@2@$0A@@1@@Z
	??$call_assignment@V?$Block@V?$Matrix@N$02$03$0A@$02$03@Eigen@@$02$00$0A@@Eigen@@V?$Product@V?$Matrix@N$02$02$0A@$02$02@Eigen@@V?$Matrix@N$02$00$0A@$02$00@2@$0A@@2@U?$assign_op@NN@internal@2@@internal@Eigen@@YAXAEAV?$Block@V?$Matrix@N$02$03$0A@$02$03@Eigen@@$02$00$0A@@1@AEBV?$Product@V?$Matrix@N$02$02$0A@$02$02@Eigen@@V?$Matrix@N$02$00$0A@$02$00@2@$0A@@1@AEBU?$assign_op@NN@01@PEAX@Z
	??$call_assignment@V?$Block@V?$Matrix@N$02$03$0A@$02$03@Eigen@@$02$02$0A@@Eigen@@V?$Matrix@N$02$02$0A@$02$02@2@@internal@Eigen@@YAXAEAV?$Block@V?$Matrix@N$02$03$0A@$02$03@Eigen@@$02$02$0A@@1@AEBV?$Matrix@N$02$02$0A@$02$02@1@@Z
	??$call_assignment@V?$Block@V?$Matrix@N$02$03$0A@$02$03@Eigen@@$02$02$0A@@Eigen@@V?$Matrix@N$02$02$0A@$02$02@2@U?$assign_op@NN@internal@2@@internal@Eigen@@YAXAEAV?$Block@V?$Matrix@N$02$03$0A@$02$03@Eigen@@$02$02$0A@@1@AEBV?$Matrix@N$02$02$0A@$02$02@1@AEBU?$assign_op@NN@01@PEAX@Z
	??$call_assignment@V?$Block@V?$Matrix@N$03$00$0A@$03$00@Eigen@@$0?0$00$0A@@Eigen@@V?$Matrix@N$02$00$0A@$02$00@2@@internal@Eigen@@YAXAEAV?$Block@V?$Matrix@N$03$00$0A@$03$00@Eigen@@$0?0$00$0A@@1@AEBV?$Matrix@N$02$00$0A@$02$00@1@@Z
	??$call_assignment@V?$Block@V?$Matrix@N$03$00$0A@$03$00@Eigen@@$0?0$00$0A@@Eigen@@V?$Matrix@N$02$00$0A@$02$00@2@U?$assign_op@NN@internal@2@@internal@Eigen@@YAXAEAV?$Block@V?$Matrix@N$03$00$0A@$03$00@Eigen@@$0?0$00$0A@@1@AEBV?$Matrix@N$02$00$0A@$02$00@1@AEBU?$assign_op@NN@01@PEAX@Z
	??$call_assignment@V?$Block@V?$Matrix@N$0?0$02$0A@$02$02@Eigen@@$0?0$02$0A@@Eigen@@V?$Block@$$CBV?$CwiseBinaryOp@U?$scalar_product_op@NN@internal@Eigen@@$$CBV?$CwiseNullaryOp@U?$scalar_constant_op@N@internal@Eigen@@$$CBV?$Matrix@N$0?0$02$0A@$02$02@3@@3@$$CBV?$Block@V?$Matrix@N$02$02$0A@$02$02@Eigen@@$0?0$02$0A@@3@@Eigen@@$0?0$02$0A@@2@U?$sub_assign_op@NN@internal@2@@internal@Eigen@@YAXAEAV?$Block@V?$Matrix@N$0?0$02$0A@$02$02@Eigen@@$0?0$02$0A@@1@AEBV?$Block@$$CBV?$CwiseBinaryOp@U?$scalar_product_op@NN@internal@Eigen@@$$CBV?$CwiseNullaryOp@U?$scalar_constant_op@N@internal@Eigen@@$$CBV?$Matrix@N$0?0$02$0A@$02$02@3@@3@$$CBV?$Block@V?$Matrix@N$02$02$0A@$02$02@Eigen@@$0?0$02$0A@@3@@Eigen@@$0?0$02$0A@@1@AEBU?$sub_assign_op@NN@01@PEAX@Z
	??$call_assignment@V?$Block@V?$Matrix@N$0?0$02$0A@$02$02@Eigen@@$0?0$0?0$00@Eigen@@V?$CwiseBinaryOp@U?$scalar_product_op@NN@internal@Eigen@@$$CBV?$CwiseNullaryOp@U?$scalar_constant_op@N@internal@Eigen@@$$CBV?$Matrix@N$0?0$0?0$00$02$02@3@@3@$$CBV?$Block@$$CBV?$Transpose@$$CBV?$Block@V?$Matrix@N$02$02$0A@$02$02@Eigen@@$0?0$0?0$0A@@Eigen@@@Eigen@@$0?0$0?0$0A@@3@@2@U?$sub_assign_op@NN@internal@2@@internal@Eigen@@YAXAEAV?$Block@V?$Matrix@N$0?0$02$0A@$02$02@Eigen@@$0?0$0?0$00@1@AEBV?$CwiseBinaryOp@U?$scalar_product_op@NN@internal@Eigen@@$$CBV?$CwiseNullaryOp@U?$scalar_constant_op@N@internal@Eigen@@$$CBV?$Matrix@N$0?0$0?0$00$02$02@3@@3@$$CBV?$Block@$$CBV?$Transpose@$$CBV?$Block@V?$Matrix@N$02$02$0A@$02$02@Eigen@@$0?0$0?0$0A@@Eigen@@@Eigen@@$0?0$0?0$0A@@3@@1@AEBU?$sub_assign_op@NN@01@PEAX@Z
	??$call_assignment@V?$Block@V?$Matrix@N$0?0$02$0A@$0?0$02@Eigen@@$0?0$02$0A@@Eigen@@V?$Block@$$CBV?$CwiseBinaryOp@U?$scalar_product_op@NN@internal@Eigen@@$$CBV?$CwiseNullaryOp@U?$scalar_constant_op@N@internal@Eigen@@$$CBV?$Matrix@N$0?0$02$0A@$02$02@3@@3@$$CBV?$Matrix@N$0?0$02$0A@$02$02@3@@Eigen@@$0?0$02$0A@@2@U?$sub_assign_op@NN@internal@2@@internal@Eigen@@YAXAEAV?$Block@V?$Matrix@N$0?0$02$0A@$0?0$02@Eigen@@$0?0$02$0A@@1@AEBV?$Block@$$CBV?$CwiseBinaryOp@U?$scalar_product_op@NN@internal@Eigen@@$$CBV?$CwiseNullaryOp@U?$scalar_constant_op@N@internal@Eigen@@$$CBV?$Matrix@N$0?0$02$0A@$02$02@3@@3@$$CBV?$Matrix@N$0?0$02$0A@$02$02@3@@Eigen@@$0?0$02$0A@@1@AEBU?$sub_assign_op@NN@01@PEAX@Z
	??$call_assignment@V?$Block@V?$Matrix@N$0?0$02$0A@$0?0$02@Eigen@@$0?0$0?0$00@Eigen@@V?$CwiseBinaryOp@U?$scalar_product_op@NN@internal@Eigen@@$$CBV?$CwiseNullaryOp@U?$scalar_constant_op@N@internal@Eigen@@$$CBV?$Matrix@N$0?0$0?0$00$0?0$0?0@3@@3@$$CBV?$Block@$$CBV?$Matrix@N$0?0$0?0$00$0?0$0?0@Eigen@@$0?0$0?0$0A@@3@@2@U?$sub_assign_op@NN@internal@2@@internal@Eigen@@YAXAEAV?$Block@V?$Matrix@N$0?0$02$0A@$0?0$02@Eigen@@$0?0$0?0$00@1@AEBV?$CwiseBinaryOp@U?$scalar_product_op@NN@internal@Eigen@@$$CBV?$CwiseNullaryOp@U?$scalar_constant_op@N@internal@Eigen@@$$CBV?$Matrix@N$0?0$0?0$00$0?0$0?0@3@@3@$$CBV?$Block@$$CBV?$Matrix@N$0?0$0?0$00$0?0$0?0@Eigen@@$0?0$0?0$0A@@3@@1@AEBU?$sub_assign_op@NN@01@PEAX@Z
	??$call_assignment@V?$Block@V?$Matrix@N$0?0$02$0A@$0?0$02@Eigen@@$0?0$0?0$00@Eigen@@V?$CwiseBinaryOp@U?$scalar_product_op@NN@internal@Eigen@@$$CBV?$CwiseNullaryOp@U?$scalar_constant_op@N@internal@Eigen@@$$CBV?$Matrix@N$0?0$0?0$0A@$0?0$0?0@3@@3@$$CBV?$Block@$$CBV?$Transpose@$$CBV?$Matrix@N$0?0$0?0$00$0?0$0?0@Eigen@@@Eigen@@$0?0$0?0$00@3@@2@U?$sub_assign_op@NN@internal@2@@internal@Eigen@@YAXAEAV?$Block@V?$Matrix@N$0?0$02$0A@$0?0$02@Eigen@@$0?0$0?0$00@1@AEBV?$CwiseBinaryOp@U?$scalar_product_op@NN@internal@Eigen@@$$CBV?$CwiseNullaryOp@U?$scalar_constant_op@N@internal@Eigen@@$$CBV?$Matrix@N$0?0$0?0$0A@$0?0$0?0@3@@3@$$CBV?$Block@$$CBV?$Transpose@$$CBV?$Matrix@N$0?0$0?0$00$0?0$0?0@Eigen@@@Eigen@@$0?0$0?0$00@3@@1@AEBU?$sub_assign_op@NN@01@PEAX@Z
	??$call_assignment@V?$Block@V?$Matrix@N$0?0$0?0$00$0?0$0?0@Eigen@@$0?0$00$0A@@Eigen@@V?$CwiseBinaryOp@U?$scalar_product_op@NN@internal@Eigen@@$$CBV?$CwiseNullaryOp@U?$scalar_constant_op@N@internal@Eigen@@$$CBV?$Matrix@N$0?0$00$0A@$0?0$00@3@@3@$$CBV?$Map@V?$Matrix@N$0?0$00$0A@$0?0$00@Eigen@@$01V?$Stride@$0A@$0A@@2@@3@@2@U?$add_assign_op@NN@internal@2@@internal@Eigen@@YAXAEAV?$Block@V?$Matrix@N$0?0$0?0$00$0?0$0?0@Eigen@@$0?0$00$0A@@1@AEBV?$CwiseBinaryOp@U?$scalar_product_op@NN@internal@Eigen@@$$CBV?$CwiseNullaryOp@U?$scalar_constant_op@N@internal@Eigen@@$$CBV?$Matrix@N$0?0$00$0A@$0?0$00@3@@3@$$CBV?$Map@V?$Matrix@N$0?0$00$0A@$0?0$00@Eigen@@$01V?$Stride@$0A@$0A@@2@@3@@1@AEBU?$add_assign_op@NN@01@PEAX@Z
	??$call_assignment@V?$Block@V?$Matrix@N$0?0$0?0$00$0?0$0?0@Eigen@@$0?0$00$0A@@Eigen@@V?$Map@V?$Matrix@N$0?0$00$0A@$0?0$00@Eigen@@$01V?$Stride@$0A@$0A@@2@@2@@internal@Eigen@@YAXAEAV?$Block@V?$Matrix@N$0?0$0?0$00$0?0$0?0@Eigen@@$0?0$00$0A@@1@AEBV?$Map@V?$Matrix@N$0?0$00$0A@$0?0$00@Eigen@@$01V?$Stride@$0A@$0A@@2@@1@@Z
	??$call_assignment@V?$Block@V?$Matrix@N$0?0$0?0$00$0?0$0?0@Eigen@@$0?0$00$0A@@Eigen@@V?$Map@V?$Matrix@N$0?0$00$0A@$0?0$00@Eigen@@$01V?$Stride@$0A@$0A@@2@@2@U?$assign_op@NN@internal@2@@internal@Eigen@@YAXAEAV?$Block@V?$Matrix@N$0?0$0?0$00$0?0$0?0@Eigen@@$0?0$00$0A@@1@AEBV?$Map@V?$Matrix@N$0?0$00$0A@$0?0$00@Eigen@@$01V?$Stride@$0A@$0A@@2@@1@AEBU?$assign_op@NN@01@PEAX@Z
	??$call_assignment@V?$Block@V?$Matrix@N$0?0$0?0$0A@$02$02@Eigen@@$0?0$0?0$00@Eigen@@V?$CwiseBinaryOp@U?$scalar_product_op@NN@internal@Eigen@@$$CBV?$CwiseNullaryOp@U?$scalar_constant_op@N@internal@Eigen@@$$CBV?$Matrix@N$0?0$0?0$00$02$02@3@@3@$$CBV?$Block@$$CBV?$Transpose@$$CBV?$Block@V?$Matrix@N$02$02$0A@$02$02@Eigen@@$0?0$0?0$0A@@Eigen@@@Eigen@@$0?0$0?0$0A@@3@@2@U?$sub_assign_op@NN@internal@2@@internal@Eigen@@YAXAEAV?$Block@V?$Matrix@N$0?0$0?0$0A@$02$02@Eigen@@$0?0$0?0$00@1@AEBV?$CwiseBinaryOp@U?$scalar_product_op@NN@internal@Eigen@@$$CBV?$CwiseNullaryOp@U?$scalar_constant_op@N@internal@Eigen@@$$CBV?$Matrix@N$0?0$0?0$00$02$02@3@@3@$$CBV?$Block@$$CBV?$Transpose@$$CBV?$Block@V?$Matrix@N$02$02$0A@$02$02@Eigen@@$0?0$0?0$0A@@Eigen@@@Eigen@@$0?0$0?0$0A@@3@@1@AEBU?$sub_assign_op@NN@01@PEAX@Z
	??$call_assignment@V?$Block@V?$Matrix@N$0?0$0?0$0A@$02$02@Eigen@@$0?0$0?0$0A@@Eigen@@V?$Block@$$CBV?$CwiseBinaryOp@U?$scalar_product_op@NN@internal@Eigen@@$$CBV?$CwiseNullaryOp@U?$scalar_constant_op@N@internal@Eigen@@$$CBV?$Matrix@N$0?0$0?0$0A@$02$02@3@@3@$$CBV?$Block@V?$Matrix@N$02$02$0A@$02$02@Eigen@@$0?0$0?0$0A@@3@@Eigen@@$0?0$0?0$0A@@2@U?$sub_assign_op@NN@internal@2@@internal@Eigen@@YAXAEAV?$Block@V?$Matrix@N$0?0$0?0$0A@$02$02@Eigen@@$0?0$0?0$0A@@1@AEBV?$Block@$$CBV?$CwiseBinaryOp@U?$scalar_product_op@NN@internal@Eigen@@$$CBV?$CwiseNullaryOp@U?$scalar_constant_op@N@internal@Eigen@@$$CBV?$Matrix@N$0?0$0?0$0A@$02$02@3@@3@$$CBV?$Block@V?$Matrix@N$02$02$0A@$02$02@Eigen@@$0?0$0?0$0A@@3@@Eigen@@$0?0$0?0$0A@@1@AEBU?$sub_assign_op@NN@01@PEAX@Z
	??$call_assignment@V?$Block@V?$Matrix@N$0?0$0?0$0A@$0?0$02@Eigen@@$0?0$0?0$00@Eigen@@V?$CwiseBinaryOp@U?$scalar_product_op@NN@internal@Eigen@@$$CBV?$CwiseNullaryOp@U?$scalar_constant_op@N@internal@Eigen@@$$CBV?$Matrix@N$0?0$0?0$00$0?0$0?0@3@@3@$$CBV?$Block@$$CBV?$Matrix@N$0?0$0?0$00$0?0$0?0@Eigen@@$0?0$0?0$0A@@3@@2@U?$sub_assign_op@NN@internal@2@@internal@Eigen@@YAXAEAV?$Block@V?$Matrix@N$0?0$0?0$0A@$0?0$02@Eigen@@$0?0$0?0$00@1@AEBV?$CwiseBinaryOp@U?$scalar_product_op@NN@internal@Eigen@@$$CBV?$CwiseNullaryOp@U?$scalar_constant_op@N@internal@Eigen@@$$CBV?$Matrix@N$0?0$0?0$00$0?0$0?0@3@@3@$$CBV?$Block@$$CBV?$Matrix@N$0?0$0?0$00$0?0$0?0@Eigen@@$0?0$0?0$0A@@3@@1@AEBU?$sub_assign_op@NN@01@PEAX@Z
	??$call_assignment@V?$Block@V?$Matrix@N$0?0$0?0$0A@$0?0$02@Eigen@@$0?0$0?0$00@Eigen@@V?$CwiseBinaryOp@U?$scalar_product_op@NN@internal@Eigen@@$$CBV?$CwiseNullaryOp@U?$scalar_constant_op@N@internal@Eigen@@$$CBV?$Matrix@N$0?0$0?0$0A@$0?0$0?0@3@@3@$$CBV?$Block@$$CBV?$Transpose@$$CBV?$Matrix@N$0?0$0?0$00$0?0$0?0@Eigen@@@Eigen@@$0?0$0?0$00@3@@2@U?$sub_assign_op@NN@internal@2@@internal@Eigen@@YAXAEAV?$Block@V?$Matrix@N$0?0$0?0$0A@$0?0$02@Eigen@@$0?0$0?0$00@1@AEBV?$CwiseBinaryOp@U?$scalar_product_op@NN@internal@Eigen@@$$CBV?$CwiseNullaryOp@U?$scalar_constant_op@N@internal@Eigen@@$$CBV?$Matrix@N$0?0$0?0$0A@$0?0$0?0@3@@3@$$CBV?$Block@$$CBV?$Transpose@$$CBV?$Matrix@N$0?0$0?0$00$0?0$0?0@Eigen@@@Eigen@@$0?0$0?0$00@3@@1@AEBU?$sub_assign_op@NN@01@PEAX@Z
	??$call_assignment@V?$Block@V?$Matrix@N$0?0$0?0$0A@$0?0$02@Eigen@@$0?0$0?0$0A@@Eigen@@V?$Block@$$CBV?$CwiseBinaryOp@U?$scalar_product_op@NN@internal@Eigen@@$$CBV?$CwiseNullaryOp@U?$scalar_constant_op@N@internal@Eigen@@$$CBV?$Matrix@N$0?0$0?0$0A@$02$02@3@@3@$$CBV?$Matrix@N$0?0$0?0$0A@$02$02@3@@Eigen@@$0?0$0?0$0A@@2@U?$sub_assign_op@NN@internal@2@@internal@Eigen@@YAXAEAV?$Block@V?$Matrix@N$0?0$0?0$0A@$0?0$02@Eigen@@$0?0$0?0$0A@@1@AEBV?$Block@$$CBV?$CwiseBinaryOp@U?$scalar_product_op@NN@internal@Eigen@@$$CBV?$CwiseNullaryOp@U?$scalar_constant_op@N@internal@Eigen@@$$CBV?$Matrix@N$0?0$0?0$0A@$02$02@3@@3@$$CBV?$Matrix@N$0?0$0?0$0A@$02$02@3@@Eigen@@$0?0$0?0$0A@@1@AEBU?$sub_assign_op@NN@01@PEAX@Z
	??$call_assignment@V?$Block@V?$Matrix@N$0?0$0?0$0A@$0?0$0?0@Eigen@@$00$03$0A@@Eigen@@V?$CwiseBinaryOp@U?$scalar_product_op@NN@internal@Eigen@@$$CBV?$CwiseNullaryOp@U?$scalar_constant_op@N@internal@Eigen@@$$CBV?$Matrix@N$00$03$00$00$03@3@@3@$$CBV?$Transpose@V?$Matrix@N$03$00$0A@$03$00@Eigen@@@3@@2@@internal@Eigen@@YAXAEAV?$Block@V?$Matrix@N$0?0$0?0$0A@$0?0$0?0@Eigen@@$00$03$0A@@1@AEBV?$CwiseBinaryOp@U?$scalar_product_op@NN@internal@Eigen@@$$CBV?$CwiseNullaryOp@U?$scalar_constant_op@N@internal@Eigen@@$$CBV?$Matrix@N$00$03$00$00$03@3@@3@$$CBV?$Transpose@V?$Matrix@N$03$00$0A@$03$00@Eigen@@@3@@1@@Z
	??$call_assignment@V?$Block@V?$Matrix@N$0?0$0?0$0A@$0?0$0?0@Eigen@@$00$03$0A@@Eigen@@V?$CwiseBinaryOp@U?$scalar_product_op@NN@internal@Eigen@@$$CBV?$CwiseNullaryOp@U?$scalar_constant_op@N@internal@Eigen@@$$CBV?$Matrix@N$00$03$00$00$03@3@@3@$$CBV?$Transpose@V?$Matrix@N$03$00$0A@$03$00@Eigen@@@3@@2@U?$assign_op@NN@internal@2@@internal@Eigen@@YAXAEAV?$Block@V?$Matrix@N$0?0$0?0$0A@$0?0$0?0@Eigen@@$00$03$0A@@1@AEBV?$CwiseBinaryOp@U?$scalar_product_op@NN@internal@Eigen@@$$CBV?$CwiseNullaryOp@U?$scalar_constant_op@N@internal@Eigen@@$$CBV?$Matrix@N$00$03$00$00$03@3@@3@$$CBV?$Transpose@V?$Matrix@N$03$00$0A@$03$00@Eigen@@@3@@1@AEBU?$assign_op@NN@01@PEAX@Z
	??$call_assignment@V?$Block@V?$Matrix@N$0?0$0?0$0A@$0?0$0?0@Eigen@@$0?0$00$00@Eigen@@V12@U?$swap_assign_op@N@internal@2@@internal@Eigen@@YAXAEAV?$Block@V?$Matrix@N$0?0$0?0$0A@$0?0$0?0@Eigen@@$0?0$00$00@1@AEBV21@AEBU?$swap_assign_op@N@01@PEAX@Z
	??$call_assignment@V?$Block@V?$Matrix@N$0?0$0?0$0A@$0?0$0?0@Eigen@@$0?0$00$00@Eigen@@V?$CwiseBinaryOp@U?$scalar_product_op@NN@internal@Eigen@@$$CBV?$CwiseNullaryOp@U?$scalar_constant_op@N@internal@Eigen@@$$CBV?$Matrix@N$0?0$00$0A@$0?0$00@3@@3@$$CBV?$Block@$$CBV?$Product@V?$Matrix@N$0?0$0?0$0A@$0?0$0?0@Eigen@@V?$DiagonalWrapper@$$CBV?$Matrix@N$0?0$00$0A@$0?0$00@Eigen@@@2@$00@Eigen@@$0?0$00$00@3@@2@U?$add_assign_op@NN@internal@2@@internal@Eigen@@YAXAEAV?$Block@V?$Matrix@N$0?0$0?0$0A@$0?0$0?0@Eigen@@$0?0$00$00@1@AEBV?$CwiseBinaryOp@U?$scalar_product_op@NN@internal@Eigen@@$$CBV?$CwiseNullaryOp@U?$scalar_constant_op@N@internal@Eigen@@$$CBV?$Matrix@N$0?0$00$0A@$0?0$00@3@@3@$$CBV?$Block@$$CBV?$Product@V?$Matrix@N$0?0$0?0$0A@$0?0$0?0@Eigen@@V?$DiagonalWrapper@$$CBV?$Matrix@N$0?0$00$0A@$0?0$00@Eigen@@@2@$00@Eigen@@$0?0$00$00@3@@1@AEBU?$add_assign_op@NN@01@PEAX@Z
	??$call_assignment@V?$Block@V?$Matrix@N$0?0$0?0$0A@$0?0$0?0@Eigen@@$0?0$00$00@Eigen@@V?$CwiseBinaryOp@U?$scalar_product_op@NN@internal@Eigen@@$$CBV?$CwiseNullaryOp@U?$scalar_constant_op@N@internal@Eigen@@$$CBV?$Matrix@N$0?0$00$0A@$0?0$00@3@@3@$$CBV?$Map@V?$Matrix@N$0?0$00$0A@$0?0$00@Eigen@@$01V?$Stride@$0A@$0A@@2@@3@@2@U?$add_assign_op@NN@internal@2@@internal@Eigen@@YAXAEAV?$Block@V?$Matrix@N$0?0$0?0$0A@$0?0$0?0@Eigen@@$0?0$00$00@1@AEBV?$CwiseBinaryOp@U?$scalar_product_op@NN@internal@Eigen@@$$CBV?$CwiseNullaryOp@U?$scalar_constant_op@N@internal@Eigen@@$$CBV?$Matrix@N$0?0$00$0A@$0?0$00@3@@3@$$CBV?$Map@V?$Matrix@N$0?0$00$0A@$0?0$00@Eigen@@$01V?$Stride@$0A@$0A@@2@@3@@1@AEBU?$add_assign_op@NN@01@PEAX@Z
	??$call_assignment@V?$Block@V?$Matrix@N$0?0$0?0$0A@$0?0$0?0@Eigen@@$0?0$00$00@Eigen@@V?$CwiseNullaryOp@U?$scalar_constant_op@N@internal@Eigen@@$$CBV?$Matrix@N$0?0$00$0A@$0?0$00@3@@2@U?$mul_assign_op@NN@internal@2@@internal@Eigen@@YAXAEAV?$Block@V?$Matrix@N$0?0$0?0$0A@$0?0$0?0@Eigen@@$0?0$00$00@1@AEBV?$CwiseNullaryOp@U?$scalar_constant_op@N@internal@Eigen@@$$CBV?$Matrix@N$0?0$00$0A@$0?0$00@3@@1@AEBU?$mul_assign_op@NN@01@PEAX@Z
	??$call_assignment@V?$Block@V?$Matrix@N$0?0$0?0$0A@$0?0$0?0@Eigen@@$0?0$00$00@Eigen@@V?$CwiseUnaryOp@U?$scalar_opposite_op@N@internal@Eigen@@$$CBV?$Block@V?$Matrix@N$0?0$0?0$0A@$0?0$0?0@Eigen@@$0?0$00$00@3@@2@@internal@Eigen@@YAXAEAV?$Block@V?$Matrix@N$0?0$0?0$0A@$0?0$0?0@Eigen@@$0?0$00$00@1@AEBV?$CwiseUnaryOp@U?$scalar_opposite_op@N@internal@Eigen@@$$CBV?$Block@V?$Matrix@N$0?0$0?0$0A@$0?0$0?0@Eigen@@$0?0$00$00@3@@1@@Z
	??$call_assignment@V?$Block@V?$Matrix@N$0?0$0?0$0A@$0?0$0?0@Eigen@@$0?0$00$00@Eigen@@V?$CwiseUnaryOp@U?$scalar_opposite_op@N@internal@Eigen@@$$CBV?$Block@V?$Matrix@N$0?0$0?0$0A@$0?0$0?0@Eigen@@$0?0$00$00@3@@2@U?$assign_op@NN@internal@2@@internal@Eigen@@YAXAEAV?$Block@V?$Matrix@N$0?0$0?0$0A@$0?0$0?0@Eigen@@$0?0$00$00@1@AEBV?$CwiseUnaryOp@U?$scalar_opposite_op@N@internal@Eigen@@$$CBV?$Block@V?$Matrix@N$0?0$0?0$0A@$0?0$0?0@Eigen@@$0?0$00$00@3@@1@AEBU?$assign_op@NN@01@PEAX@Z
	??$call_assignment@V?$Block@V?$Matrix@N$0?0$0?0$0A@$0?0$0?0@Eigen@@$0?0$00$00@Eigen@@V?$Map@V?$Matrix@N$0?0$00$0A@$0?0$00@Eigen@@$01V?$Stride@$0A@$0A@@2@@2@@internal@Eigen@@YAXAEAV?$Block@V?$Matrix@N$0?0$0?0$0A@$0?0$0?0@Eigen@@$0?0$00$00@1@AEBV?$Map@V?$Matrix@N$0?0$00$0A@$0?0$00@Eigen@@$01V?$Stride@$0A@$0A@@2@@1@@Z
	??$call_assignment@V?$Block@V?$Matrix@N$0?0$0?0$0A@$0?0$0?0@Eigen@@$0?0$00$00@Eigen@@V?$Map@V?$Matrix@N$0?0$00$0A@$0?0$00@Eigen@@$01V?$Stride@$0A@$0A@@2@@2@U?$assign_op@NN@internal@2@@internal@Eigen@@YAXAEAV?$Block@V?$Matrix@N$0?0$0?0$0A@$0?0$0?0@Eigen@@$0?0$00$00@1@AEBV?$Map@V?$Matrix@N$0?0$00$0A@$0?0$00@Eigen@@$01V?$Stride@$0A@$0A@@2@@1@AEBU?$assign_op@NN@01@PEAX@Z
	??$call_assignment@V?$Block@V?$Matrix@N$0?0$0?0$0A@$0?0$0?0@Eigen@@$0?0$0?0$00@Eigen@@V?$CwiseBinaryOp@U?$scalar_product_op@NN@internal@Eigen@@$$CBV?$CwiseNullaryOp@U?$scalar_constant_op@N@internal@Eigen@@$$CBV?$Matrix@N$0?0$0?0$00$0?0$0?0@3@@3@$$CBV?$Block@$$CBV?$Matrix@N$0?0$0?0$00$0?0$0?0@Eigen@@$0?0$0?0$0A@@3@@2@U?$sub_assign_op@NN@internal@2@@internal@Eigen@@YAXAEAV?$Block@V?$Matrix@N$0?0$0?0$0A@$0?0$0?0@Eigen@@$0?0$0?0$00@1@AEBV?$CwiseBinaryOp@U?$scalar_product_op@NN@internal@Eigen@@$$CBV?$CwiseNullaryOp@U?$scalar_constant_op@N@internal@Eigen@@$$CBV?$Matrix@N$0?0$0?0$00$0?0$0?0@3@@3@$$CBV?$Block@$$CBV?$Matrix@N$0?0$0?0$00$0?0$0?0@Eigen@@$0?0$0?0$0A@@3@@1@AEBU?$sub_assign_op@NN@01@PEAX@Z
	??$call_assignment@V?$Block@V?$Matrix@N$0?0$0?0$0A@$0?0$0?0@Eigen@@$0?0$0?0$00@Eigen@@V?$CwiseBinaryOp@U?$scalar_product_op@NN@internal@Eigen@@$$CBV?$CwiseNullaryOp@U?$scalar_constant_op@N@internal@Eigen@@$$CBV?$Matrix@N$0?0$0?0$00$0?0$0?0@3@@3@$$CBV?$Block@$$CBV?$Transpose@$$CBV?$Block@V?$Matrix@N$0?0$0?0$0A@$0?0$0?0@Eigen@@$0?0$0?0$0A@@Eigen@@@Eigen@@$0?0$0?0$0A@@3@@2@U?$sub_assign_op@NN@internal@2@@internal@Eigen@@YAXAEAV?$Block@V?$Matrix@N$0?0$0?0$0A@$0?0$0?0@Eigen@@$0?0$0?0$00@1@AEBV?$CwiseBinaryOp@U?$scalar_product_op@NN@internal@Eigen@@$$CBV?$CwiseNullaryOp@U?$scalar_constant_op@N@internal@Eigen@@$$CBV?$Matrix@N$0?0$0?0$00$0?0$0?0@3@@3@$$CBV?$Block@$$CBV?$Transpose@$$CBV?$Block@V?$Matrix@N$0?0$0?0$0A@$0?0$0?0@Eigen@@$0?0$0?0$0A@@Eigen@@@Eigen@@$0?0$0?0$0A@@3@@1@AEBU?$sub_assign_op@NN@01@PEAX@Z
	??$call_assignment@V?$Block@V?$Matrix@N$0?0$0?0$0A@$0?0$0?0@Eigen@@$0?0$0?0$00@Eigen@@V?$CwiseBinaryOp@U?$scalar_product_op@NN@internal@Eigen@@$$CBV?$CwiseNullaryOp@U?$scalar_constant_op@N@internal@Eigen@@$$CBV?$Matrix@N$0?0$0?0$0A@$0?0$0?0@3@@3@$$CBV?$Block@$$CBV?$Transpose@$$CBV?$Matrix@N$0?0$0?0$00$0?0$0?0@Eigen@@@Eigen@@$0?0$0?0$00@3@@2@U?$sub_assign_op@NN@internal@2@@internal@Eigen@@YAXAEAV?$Block@V?$Matrix@N$0?0$0?0$0A@$0?0$0?0@Eigen@@$0?0$0?0$00@1@AEBV?$CwiseBinaryOp@U?$scalar_product_op@NN@internal@Eigen@@$$CBV?$CwiseNullaryOp@U?$scalar_constant_op@N@internal@Eigen@@$$CBV?$Matrix@N$0?0$0?0$0A@$0?0$0?0@3@@3@$$CBV?$Block@$$CBV?$Transpose@$$CBV?$Matrix@N$0?0$0?0$00$0?0$0?0@Eigen@@@Eigen@@$0?0$0?0$00@3@@1@AEBU?$sub_assign_op@NN@01@PEAX@Z
	??$call_assignment@V?$Block@V?$Matrix@N$0?0$0?0$0A@$0?0$0?0@Eigen@@$0?0$0?0$0A@@Eigen@@V?$Block@$$CBV?$CwiseBinaryOp@U?$scalar_product_op@NN@internal@Eigen@@$$CBV?$CwiseNullaryOp@U?$scalar_constant_op@N@internal@Eigen@@$$CBV?$Matrix@N$0?0$0?0$0A@$0?0$0?0@3@@3@$$CBV?$Block@V?$Matrix@N$0?0$0?0$0A@$0?0$0?0@Eigen@@$0?0$0?0$0A@@3@@Eigen@@$0?0$0?0$0A@@2@U?$sub_assign_op@NN@internal@2@@internal@Eigen@@YAXAEAV?$Block@V?$Matrix@N$0?0$0?0$0A@$0?0$0?0@Eigen@@$0?0$0?0$0A@@1@AEBV?$Block@$$CBV?$CwiseBinaryOp@U?$scalar_product_op@NN@internal@Eigen@@$$CBV?$CwiseNullaryOp@U?$scalar_constant_op@N@internal@Eigen@@$$CBV?$Matrix@N$0?0$0?0$0A@$0?0$0?0@3@@3@$$CBV?$Block@V?$Matrix@N$0?0$0?0$0A@$0?0$0?0@Eigen@@$0?0$0?0$0A@@3@@Eigen@@$0?0$0?0$0A@@1@AEBU?$sub_assign_op@NN@01@PEAX@Z
	??$call_assignment@V?$Block@V?$Matrix@N$0?0$0?0$0A@$0?0$0?0@Eigen@@$0?0$0?0$0A@@Eigen@@V?$Block@$$CBV?$CwiseBinaryOp@U?$scalar_product_op@NN@internal@Eigen@@$$CBV?$CwiseNullaryOp@U?$scalar_constant_op@N@internal@Eigen@@$$CBV?$Matrix@N$0?0$0?0$0A@$0?0$0?0@3@@3@$$CBV?$Matrix@N$0?0$0?0$0A@$0?0$0?0@3@@Eigen@@$0?0$0?0$0A@@2@U?$sub_assign_op@NN@internal@2@@internal@Eigen@@YAXAEAV?$Block@V?$Matrix@N$0?0$0?0$0A@$0?0$0?0@Eigen@@$0?0$0?0$0A@@1@AEBV?$Block@$$CBV?$CwiseBinaryOp@U?$scalar_product_op@NN@internal@Eigen@@$$CBV?$CwiseNullaryOp@U?$scalar_constant_op@N@internal@Eigen@@$$CBV?$Matrix@N$0?0$0?0$0A@$0?0$0?0@3@@3@$$CBV?$Matrix@N$0?0$0?0$0A@$0?0$0?0@3@@Eigen@@$0?0$0?0$0A@@1@AEBU?$sub_assign_op@NN@01@PEAX@Z
	??$call_assignment@V?$Block@V?$Matrix@N$0?0$0?0$0A@$0?0$0?0@Eigen@@$0?0$0?0$0A@@Eigen@@V?$CwiseNullaryOp@U?$scalar_constant_op@N@internal@Eigen@@$$CBV?$Matrix@N$0?0$0?0$0A@$0?0$0?0@3@@2@U?$mul_assign_op@NN@internal@2@@internal@Eigen@@YAXAEAV?$Block@V?$Matrix@N$0?0$0?0$0A@$0?0$0?0@Eigen@@$0?0$0?0$0A@@1@AEBV?$CwiseNullaryOp@U?$scalar_constant_op@N@internal@Eigen@@$$CBV?$Matrix@N$0?0$0?0$0A@$0?0$0?0@3@@1@AEBU?$mul_assign_op@NN@01@PEAX@Z
	??$call_assignment@V?$Block@V?$Matrix@N$0?0$0?0$0A@$0?0$0?0@Eigen@@$0?0$0?0$0A@@Eigen@@V?$DiagonalWrapper@$$CBV?$Matrix@N$0?0$00$0A@$0?0$00@Eigen@@@2@@internal@Eigen@@YAXAEAV?$Block@V?$Matrix@N$0?0$0?0$0A@$0?0$0?0@Eigen@@$0?0$0?0$0A@@1@AEBV?$DiagonalWrapper@$$CBV?$Matrix@N$0?0$00$0A@$0?0$00@Eigen@@@1@@Z
	??$call_assignment@V?$Block@V?$Matrix@N$0?0$0?0$0A@$0?0$0?0@Eigen@@$0?0$0?0$0A@@Eigen@@V?$DiagonalWrapper@$$CBV?$Matrix@N$0?0$00$0A@$0?0$00@Eigen@@@2@U?$assign_op@NN@internal@2@@internal@Eigen@@YAXAEAV?$Block@V?$Matrix@N$0?0$0?0$0A@$0?0$0?0@Eigen@@$0?0$0?0$0A@@1@AEBV?$DiagonalWrapper@$$CBV?$Matrix@N$0?0$00$0A@$0?0$00@Eigen@@@1@AEBU?$assign_op@NN@01@PEAX@Z
	??$call_assignment@V?$Block@V?$Ref@V?$Matrix@N$02$02$0A@$02$02@Eigen@@$0A@V?$OuterStride@$0?0@2@@Eigen@@$00$02$0A@@Eigen@@V12@U?$swap_assign_op@N@internal@2@@internal@Eigen@@YAXAEAV?$Block@V?$Ref@V?$Matrix@N$02$02$0A@$02$02@Eigen@@$0A@V?$OuterStride@$0?0@2@@Eigen@@$00$02$0A@@1@AEBV21@AEBU?$swap_assign_op@N@01@PEAX@Z
	??$call_assignment@V?$Block@V?$Ref@V?$Matrix@N$0?0$0?0$0A@$0?0$0?0@Eigen@@$0A@V?$OuterStride@$0?0@2@@Eigen@@$00$0?0$0A@@Eigen@@V12@U?$swap_assign_op@N@internal@2@@internal@Eigen@@YAXAEAV?$Block@V?$Ref@V?$Matrix@N$0?0$0?0$0A@$0?0$0?0@Eigen@@$0A@V?$OuterStride@$0?0@2@@Eigen@@$00$0?0$0A@@1@AEBV21@AEBU?$swap_assign_op@N@01@PEAX@Z
	??$call_assignment@V?$Block@V?$Ref@V?$Matrix@N$0?0$0?0$0A@$0?0$0?0@Eigen@@$0A@V?$OuterStride@$0?0@2@@Eigen@@$0?0$00$00@Eigen@@V?$CwiseBinaryOp@U?$scalar_product_op@NN@internal@Eigen@@$$CBV?$CwiseNullaryOp@U?$scalar_constant_op@N@internal@Eigen@@$$CBV?$Matrix@N$0?0$00$0A@$0?0$00@3@@3@$$CBV?$Map@V?$Matrix@N$0?0$00$0A@$0?0$00@Eigen@@$01V?$Stride@$0A@$0A@@2@@3@@2@U?$add_assign_op@NN@internal@2@@internal@Eigen@@YAXAEAV?$Block@V?$Ref@V?$Matrix@N$0?0$0?0$0A@$0?0$0?0@Eigen@@$0A@V?$OuterStride@$0?0@2@@Eigen@@$0?0$00$00@1@AEBV?$CwiseBinaryOp@U?$scalar_product_op@NN@internal@Eigen@@$$CBV?$CwiseNullaryOp@U?$scalar_constant_op@N@internal@Eigen@@$$CBV?$Matrix@N$0?0$00$0A@$0?0$00@3@@3@$$CBV?$Map@V?$Matrix@N$0?0$00$0A@$0?0$00@Eigen@@$01V?$Stride@$0A@$0A@@2@@3@@1@AEBU?$add_assign_op@NN@01@PEAX@Z
	??$call_assignment@V?$Block@V?$Ref@V?$Matrix@N$0?0$0?0$0A@$0?0$0?0@Eigen@@$0A@V?$OuterStride@$0?0@2@@Eigen@@$0?0$00$00@Eigen@@V?$Map@V?$Matrix@N$0?0$00$0A@$0?0$00@Eigen@@$01V?$Stride@$0A@$0A@@2@@2@@internal@Eigen@@YAXAEAV?$Block@V?$Ref@V?$Matrix@N$0?0$0?0$0A@$0?0$0?0@Eigen@@$0A@V?$OuterStride@$0?0@2@@Eigen@@$0?0$00$00@1@AEBV?$Map@V?$Matrix@N$0?0$00$0A@$0?0$00@Eigen@@$01V?$Stride@$0A@$0A@@2@@1@@Z
	??$call_assignment@V?$Block@V?$Ref@V?$Matrix@N$0?0$0?0$0A@$0?0$0?0@Eigen@@$0A@V?$OuterStride@$0?0@2@@Eigen@@$0?0$00$00@Eigen@@V?$Map@V?$Matrix@N$0?0$00$0A@$0?0$00@Eigen@@$01V?$Stride@$0A@$0A@@2@@2@U?$assign_op@NN@internal@2@@internal@Eigen@@YAXAEAV?$Block@V?$Ref@V?$Matrix@N$0?0$0?0$0A@$0?0$0?0@Eigen@@$0A@V?$OuterStride@$0?0@2@@Eigen@@$0?0$00$00@1@AEBV?$Map@V?$Matrix@N$0?0$00$0A@$0?0$00@Eigen@@$01V?$Stride@$0A@$0A@@2@@1@AEBU?$assign_op@NN@01@PEAX@Z
	??$call_assignment@V?$Block@V?$Transpose@V?$Block@V?$Block@V?$Matrix@N$0?0$0?0$00$0?0$0?0@Eigen@@$00$0?0$00@Eigen@@$00$0?0$0A@@Eigen@@@Eigen@@$0?0$00$0A@@Eigen@@V?$CwiseBinaryOp@U?$scalar_product_op@NN@internal@Eigen@@$$CBV?$CwiseNullaryOp@U?$scalar_constant_op@N@internal@Eigen@@$$CBV?$Matrix@N$0?0$00$0A@$02$00@3@@3@$$CBV?$Block@$$CBV?$Transpose@$$CBV?$CwiseBinaryOp@U?$scalar_product_op@NN@internal@Eigen@@$$CBV?$CwiseNullaryOp@U?$scalar_constant_op@N@internal@Eigen@@$$CBV?$Matrix@N$00$0?0$00$00$02@3@@3@$$CBV?$Transpose@$$CBV?$Block@$$CBV?$Block@$$CBV?$Block@V?$Matrix@N$02$02$0A@$02$02@Eigen@@$0?0$0?0$0A@@Eigen@@$0?0$00$00@Eigen@@$0?0$00$0A@@Eigen@@@3@@Eigen@@@Eigen@@$0?0$00$0A@@3@@2@U?$sub_assign_op@NN@internal@2@@internal@Eigen@@YAXAEAV?$Block@V?$Transpose@V?$Block@V?$Block@V?$Matrix@N$0?0$0?0$00$0?0$0?0@Eigen@@$00$0?0$00@Eigen@@$00$0?0$0A@@Eigen@@@Eigen@@$0?0$00$0A@@1@AEBV?$CwiseBinaryOp@U?$scalar_product_op@NN@internal@Eigen@@$$CBV?$CwiseNullaryOp@U?$scalar_constant_op@N@internal@Eigen@@$$CBV?$Matrix@N$0?0$00$0A@$02$00@3@@3@$$CBV?$Block@$$CBV?$Transpose@$$CBV?$CwiseBinaryOp@U?$scalar_product_op@NN@internal@Eigen@@$$CBV?$CwiseNullaryOp@U?$scalar_constant_op@N@internal@Eigen@@$$CBV?$Matrix@N$00$0?0$00$00$02@3@@3@$$CBV?$Transpose@$$CBV?$Block@$$CBV?$Block@$$CBV?$Block@V?$Matrix@N$02$02$0A@$02$02@Eigen@@$0?0$0?0$0A@@Eigen@@$0?0$00$00@Eigen@@$0?0$00$0A@@Eigen@@@3@@Eigen@@@Eigen@@$0?0$00$0A@@3@@1@AEBU?$sub_assign_op@NN@01@PEAX@Z
	??$call_assignment@V?$Block@V?$Transpose@V?$Block@V?$Block@V?$Matrix@N$0?0$0?0$00$0?0$0?0@Eigen@@$00$0?0$00@Eigen@@$00$0?0$0A@@Eigen@@@Eigen@@$0?0$00$0A@@Eigen@@V?$CwiseBinaryOp@U?$scalar_product_op@NN@internal@Eigen@@$$CBV?$CwiseNullaryOp@U?$scalar_constant_op@N@internal@Eigen@@$$CBV?$Matrix@N$0?0$00$0A@$0?0$00@3@@3@$$CBV?$Block@$$CBV?$Transpose@$$CBV?$CwiseBinaryOp@U?$scalar_product_op@NN@internal@Eigen@@$$CBV?$CwiseNullaryOp@U?$scalar_constant_op@N@internal@Eigen@@$$CBV?$Matrix@N$00$0?0$00$00$0?0@3@@3@$$CBV?$Transpose@$$CBV?$Block@$$CBV?$Block@$$CBV?$Block@V?$Matrix@N$0?0$0?0$0A@$0?0$0?0@Eigen@@$0?0$0?0$0A@@Eigen@@$0?0$00$00@Eigen@@$0?0$00$0A@@Eigen@@@3@@Eigen@@@Eigen@@$0?0$00$0A@@3@@2@U?$sub_assign_op@NN@internal@2@@internal@Eigen@@YAXAEAV?$Block@V?$Transpose@V?$Block@V?$Block@V?$Matrix@N$0?0$0?0$00$0?0$0?0@Eigen@@$00$0?0$00@Eigen@@$00$0?0$0A@@Eigen@@@Eigen@@$0?0$00$0A@@1@AEBV?$CwiseBinaryOp@U?$scalar_product_op@NN@internal@Eigen@@$$CBV?$CwiseNullaryOp@U?$scalar_constant_op@N@internal@Eigen@@$$CBV?$Matrix@N$0?0$00$0A@$0?0$00@3@@3@$$CBV?$Block@$$CBV?$Transpose@$$CBV?$CwiseBinaryOp@U?$scalar_product_op@NN@internal@Eigen@@$$CBV?$CwiseNullaryOp@U?$scalar_constant_op@N@internal@Eigen@@$$CBV?$Matrix@N$00$0?0$00$00$0?0@3@@3@$$CBV?$Transpose@$$CBV?$Block@$$CBV?$Block@$$CBV?$Block@V?$Matrix@N$0?0$0?0$0A@$0?0$0?0@Eigen@@$0?0$0?0$0A@@Eigen@@$0?0$00$00@Eigen@@$0?0$00$0A@@Eigen@@@3@@Eigen@@@Eigen@@$0?0$00$0A@@3@@1@AEBU?$sub_assign_op@NN@01@PEAX@Z
	??$call_assignment@V?$Diagonal@V?$Block@V?$Matrix@N$0?0$0?0$0A@$0?0$0?0@Eigen@@$0?0$0?0$0A@@Eigen@@$0A@@Eigen@@V?$Matrix@N$0?0$00$0A@$0?0$00@2@@internal@Eigen@@YAXAEAV?$Diagonal@V?$Block@V?$Matrix@N$0?0$0?0$0A@$0?0$0?0@Eigen@@$0?0$0?0$0A@@Eigen@@$0A@@1@AEBV?$Matrix@N$0?0$00$0A@$0?0$00@1@@Z
	??$call_assignment@V?$Diagonal@V?$Block@V?$Matrix@N$0?0$0?0$0A@$0?0$0?0@Eigen@@$0?0$0?0$0A@@Eigen@@$0A@@Eigen@@V?$Matrix@N$0?0$00$0A@$0?0$00@2@U?$assign_op@NN@internal@2@@internal@Eigen@@YAXAEAV?$Diagonal@V?$Block@V?$Matrix@N$0?0$0?0$0A@$0?0$0?0@Eigen@@$0?0$0?0$0A@@Eigen@@$0A@@1@AEBV?$Matrix@N$0?0$00$0A@$0?0$00@1@AEBU?$assign_op@NN@01@PEAX@Z
	??$call_assignment@V?$Map@V?$Matrix@N$00$02$00$00$02@Eigen@@$0A@V?$Stride@$0A@$0A@@2@@Eigen@@V?$Block@V?$Block@V?$Matrix@N$02$02$0A@$02$02@Eigen@@$0?0$02$0A@@Eigen@@$00$02$0A@@2@U?$add_assign_op@NN@internal@2@@internal@Eigen@@YAXAEAV?$Map@V?$Matrix@N$00$02$00$00$02@Eigen@@$0A@V?$Stride@$0A@$0A@@2@@1@AEBV?$Block@V?$Block@V?$Matrix@N$02$02$0A@$02$02@Eigen@@$0?0$02$0A@@Eigen@@$00$02$0A@@1@AEBU?$add_assign_op@NN@01@PEAX@Z
	??$call_assignment@V?$Map@V?$Matrix@N$00$0?0$00$00$02@Eigen@@$0A@V?$Stride@$0A@$0A@@2@@Eigen@@V?$Block@V?$Block@V?$Block@V?$Matrix@N$02$02$0A@$02$02@Eigen@@$0?0$0?0$0A@@Eigen@@$0?0$0?0$0A@@Eigen@@$00$0?0$0A@@2@U?$add_assign_op@NN@internal@2@@internal@Eigen@@YAXAEAV?$Map@V?$Matrix@N$00$0?0$00$00$02@Eigen@@$0A@V?$Stride@$0A@$0A@@2@@1@AEBV?$Block@V?$Block@V?$Block@V?$Matrix@N$02$02$0A@$02$02@Eigen@@$0?0$0?0$0A@@Eigen@@$0?0$0?0$0A@@Eigen@@$00$0?0$0A@@1@AEBU?$add_assign_op@NN@01@PEAX@Z
	??$call_assignment@V?$Map@V?$Matrix@N$00$0?0$00$00$02@Eigen@@$0A@V?$Stride@$0A@$0A@@2@@Eigen@@V?$Block@V?$Block@V?$Matrix@N$02$02$0A@$02$02@Eigen@@$0?0$0?0$0A@@Eigen@@$00$0?0$0A@@2@U?$add_assign_op@NN@internal@2@@internal@Eigen@@YAXAEAV?$Map@V?$Matrix@N$00$0?0$00$00$02@Eigen@@$0A@V?$Stride@$0A@$0A@@2@@1@AEBV?$Block@V?$Block@V?$Matrix@N$02$02$0A@$02$02@Eigen@@$0?0$0?0$0A@@Eigen@@$00$0?0$0A@@1@AEBU?$add_assign_op@NN@01@PEAX@Z
	??$call_assignment@V?$Map@V?$Matrix@N$00$0?0$00$00$0?0@Eigen@@$0A@V?$Stride@$0A@$0A@@2@@Eigen@@V?$Block@V?$Block@V?$Matrix@N$0?0$0?0$0A@$0?0$0?0@Eigen@@$0?0$0?0$0A@@Eigen@@$00$0?0$0A@@2@U?$add_assign_op@NN@internal@2@@internal@Eigen@@YAXAEAV?$Map@V?$Matrix@N$00$0?0$00$00$0?0@Eigen@@$0A@V?$Stride@$0A@$0A@@2@@1@AEBV?$Block@V?$Block@V?$Matrix@N$0?0$0?0$0A@$0?0$0?0@Eigen@@$0?0$0?0$0A@@Eigen@@$00$0?0$0A@@1@AEBU?$add_assign_op@NN@01@PEAX@Z
	??$call_assignment@V?$Map@V?$Matrix@N$0?0$00$0A@$02$00@Eigen@@$0A@V?$Stride@$0A@$0A@@2@@Eigen@@V?$Block@V?$Block@V?$Matrix@N$02$02$0A@$02$02@Eigen@@$0?0$0?0$0A@@Eigen@@$0?0$00$00@2@U?$add_assign_op@NN@internal@2@@internal@Eigen@@YAXAEAV?$Map@V?$Matrix@N$0?0$00$0A@$02$00@Eigen@@$0A@V?$Stride@$0A@$0A@@2@@1@AEBV?$Block@V?$Block@V?$Matrix@N$02$02$0A@$02$02@Eigen@@$0?0$0?0$0A@@Eigen@@$0?0$00$00@1@AEBU?$add_assign_op@NN@01@PEAX@Z
	??$call_assignment@V?$Map@V?$Matrix@N$0?0$00$0A@$02$00@Eigen@@$0BA@V?$Stride@$0A@$0A@@2@@Eigen@@V?$Transpose@$$CBV?$Transpose@$$CBV?$Block@$$CBV?$Block@$$CBV?$Block@V?$Matrix@N$02$02$0A@$02$02@Eigen@@$0?0$0?0$0A@@Eigen@@$0?0$00$00@Eigen@@$0?0$00$0A@@Eigen@@@Eigen@@@2@@internal@Eigen@@YAXAEAV?$Map@V?$Matrix@N$0?0$00$0A@$02$00@Eigen@@$0BA@V?$Stride@$0A@$0A@@2@@1@AEBV?$Transpose@$$CBV?$Transpose@$$CBV?$Block@$$CBV?$Block@$$CBV?$Block@V?$Matrix@N$02$02$0A@$02$02@Eigen@@$0?0$0?0$0A@@Eigen@@$0?0$00$00@Eigen@@$0?0$00$0A@@Eigen@@@Eigen@@@1@@Z
	??$call_assignment@V?$Map@V?$Matrix@N$0?0$00$0A@$02$00@Eigen@@$0BA@V?$Stride@$0A@$0A@@2@@Eigen@@V?$Transpose@$$CBV?$Transpose@$$CBV?$Block@$$CBV?$Block@$$CBV?$Block@V?$Matrix@N$02$02$0A@$02$02@Eigen@@$0?0$0?0$0A@@Eigen@@$0?0$00$00@Eigen@@$0?0$00$0A@@Eigen@@@Eigen@@@2@U?$assign_op@NN@internal@2@@internal@Eigen@@YAXAEAV?$Map@V?$Matrix@N$0?0$00$0A@$02$00@Eigen@@$0BA@V?$Stride@$0A@$0A@@2@@1@AEBV?$Transpose@$$CBV?$Transpose@$$CBV?$Block@$$CBV?$Block@$$CBV?$Block@V?$Matrix@N$02$02$0A@$02$02@Eigen@@$0?0$0?0$0A@@Eigen@@$0?0$00$00@Eigen@@$0?0$00$0A@@Eigen@@@Eigen@@@1@AEBU?$assign_op@NN@01@PEAX@Z
	??$call_assignment@V?$Map@V?$Matrix@N$0?0$00$0A@$0?0$00@Eigen@@$01V?$Stride@$0A@$0A@@2@@Eigen@@V?$Block@V?$Matrix@N$0?0$0?0$00$0?0$0?0@Eigen@@$0?0$00$0A@@2@@internal@Eigen@@YAXAEAV?$Map@V?$Matrix@N$0?0$00$0A@$0?0$00@Eigen@@$01V?$Stride@$0A@$0A@@2@@1@AEBV?$Block@V?$Matrix@N$0?0$0?0$00$0?0$0?0@Eigen@@$0?0$00$0A@@1@@Z
	??$call_assignment@V?$Map@V?$Matrix@N$0?0$00$0A@$0?0$00@Eigen@@$01V?$Stride@$0A@$0A@@2@@Eigen@@V?$Block@V?$Matrix@N$0?0$0?0$00$0?0$0?0@Eigen@@$0?0$00$0A@@2@U?$assign_op@NN@internal@2@@internal@Eigen@@YAXAEAV?$Map@V?$Matrix@N$0?0$00$0A@$0?0$00@Eigen@@$01V?$Stride@$0A@$0A@@2@@1@AEBV?$Block@V?$Matrix@N$0?0$0?0$00$0?0$0?0@Eigen@@$0?0$00$0A@@1@AEBU?$assign_op@NN@01@PEAX@Z
	??$call_assignment@V?$Map@V?$Matrix@N$0?0$00$0A@$0?0$00@Eigen@@$01V?$Stride@$0A@$0A@@2@@Eigen@@V?$Block@V?$Matrix@N$0?0$0?0$0A@$0?0$0?0@Eigen@@$0?0$00$00@2@@internal@Eigen@@YAXAEAV?$Map@V?$Matrix@N$0?0$00$0A@$0?0$00@Eigen@@$01V?$Stride@$0A@$0A@@2@@1@AEBV?$Block@V?$Matrix@N$0?0$0?0$0A@$0?0$0?0@Eigen@@$0?0$00$00@1@@Z
	??$call_assignment@V?$Map@V?$Matrix@N$0?0$00$0A@$0?0$00@Eigen@@$01V?$Stride@$0A@$0A@@2@@Eigen@@V?$Block@V?$Matrix@N$0?0$0?0$0A@$0?0$0?0@Eigen@@$0?0$00$00@2@U?$assign_op@NN@internal@2@@internal@Eigen@@YAXAEAV?$Map@V?$Matrix@N$0?0$00$0A@$0?0$00@Eigen@@$01V?$Stride@$0A@$0A@@2@@1@AEBV?$Block@V?$Matrix@N$0?0$0?0$0A@$0?0$0?0@Eigen@@$0?0$00$00@1@AEBU?$assign_op@NN@01@PEAX@Z
	??$call_assignment@V?$Map@V?$Matrix@N$0?0$00$0A@$0?0$00@Eigen@@$01V?$Stride@$0A@$0A@@2@@Eigen@@V?$Block@V?$Ref@V?$Matrix@N$0?0$0?0$0A@$0?0$0?0@Eigen@@$0A@V?$OuterStride@$0?0@2@@Eigen@@$0?0$00$00@2@@internal@Eigen@@YAXAEAV?$Map@V?$Matrix@N$0?0$00$0A@$0?0$00@Eigen@@$01V?$Stride@$0A@$0A@@2@@1@AEBV?$Block@V?$Ref@V?$Matrix@N$0?0$0?0$0A@$0?0$0?0@Eigen@@$0A@V?$OuterStride@$0?0@2@@Eigen@@$0?0$00$00@1@@Z
	??$call_assignment@V?$Map@V?$Matrix@N$0?0$00$0A@$0?0$00@Eigen@@$01V?$Stride@$0A@$0A@@2@@Eigen@@V?$Block@V?$Ref@V?$Matrix@N$0?0$0?0$0A@$0?0$0?0@Eigen@@$0A@V?$OuterStride@$0?0@2@@Eigen@@$0?0$00$00@2@U?$assign_op@NN@internal@2@@internal@Eigen@@YAXAEAV?$Map@V?$Matrix@N$0?0$00$0A@$0?0$00@Eigen@@$01V?$Stride@$0A@$0A@@2@@1@AEBV?$Block@V?$Ref@V?$Matrix@N$0?0$0?0$0A@$0?0$0?0@Eigen@@$0A@V?$OuterStride@$0?0@2@@Eigen@@$0?0$00$00@1@AEBU?$assign_op@NN@01@PEAX@Z
	??$call_assignment@V?$Map@V?$Matrix@N$0?0$00$0A@$0?0$00@Eigen@@$01V?$Stride@$0A@$0A@@2@@Eigen@@V?$Map@V?$Matrix@N$0?0$00$0A@$0?0$00@Eigen@@$0A@V?$Stride@$0A@$0A@@2@@2@@internal@Eigen@@YAXAEAV?$Map@V?$Matrix@N$0?0$00$0A@$0?0$00@Eigen@@$01V?$Stride@$0A@$0A@@2@@1@AEBV?$Map@V?$Matrix@N$0?0$00$0A@$0?0$00@Eigen@@$0A@V?$Stride@$0A@$0A@@2@@1@@Z
	??$call_assignment@V?$Map@V?$Matrix@N$0?0$00$0A@$0?0$00@Eigen@@$01V?$Stride@$0A@$0A@@2@@Eigen@@V?$Map@V?$Matrix@N$0?0$00$0A@$0?0$00@Eigen@@$0A@V?$Stride@$0A@$0A@@2@@2@U?$assign_op@NN@internal@2@@internal@Eigen@@YAXAEAV?$Map@V?$Matrix@N$0?0$00$0A@$0?0$00@Eigen@@$01V?$Stride@$0A@$0A@@2@@1@AEBV?$Map@V?$Matrix@N$0?0$00$0A@$0?0$00@Eigen@@$0A@V?$Stride@$0A@$0A@@2@@1@AEBU?$assign_op@NN@01@PEAX@Z
	??$call_assignment@V?$Map@V?$Matrix@N$0?0$00$0A@$0?0$00@Eigen@@$01V?$Stride@$0A@$0A@@2@@Eigen@@V?$Transpose@V?$Block@V?$Matrix@N$0?0$0?0$00$0?0$0?0@Eigen@@$00$0?0$00@Eigen@@@2@@internal@Eigen@@YAXAEAV?$Map@V?$Matrix@N$0?0$00$0A@$0?0$00@Eigen@@$01V?$Stride@$0A@$0A@@2@@1@AEBV?$Transpose@V?$Block@V?$Matrix@N$0?0$0?0$00$0?0$0?0@Eigen@@$00$0?0$00@Eigen@@@1@@Z
	??$call_assignment@V?$Map@V?$Matrix@N$0?0$00$0A@$0?0$00@Eigen@@$01V?$Stride@$0A@$0A@@2@@Eigen@@V?$Transpose@V?$Block@V?$Matrix@N$0?0$0?0$00$0?0$0?0@Eigen@@$00$0?0$00@Eigen@@@2@U?$assign_op@NN@internal@2@@internal@Eigen@@YAXAEAV?$Map@V?$Matrix@N$0?0$00$0A@$0?0$00@Eigen@@$01V?$Stride@$0A@$0A@@2@@1@AEBV?$Transpose@V?$Block@V?$Matrix@N$0?0$0?0$00$0?0$0?0@Eigen@@$00$0?0$00@Eigen@@@1@AEBU?$assign_op@NN@01@PEAX@Z
	??$call_assignment@V?$Map@V?$Matrix@N$0?0$00$0A@$0?0$00@Eigen@@$01V?$Stride@$0A@$0A@@2@@Eigen@@V?$Transpose@V?$Block@V?$Matrix@N$0?0$0?0$0A@$0?0$0?0@Eigen@@$00$0?0$0A@@Eigen@@@2@@internal@Eigen@@YAXAEAV?$Map@V?$Matrix@N$0?0$00$0A@$0?0$00@Eigen@@$01V?$Stride@$0A@$0A@@2@@1@AEBV?$Transpose@V?$Block@V?$Matrix@N$0?0$0?0$0A@$0?0$0?0@Eigen@@$00$0?0$0A@@Eigen@@@1@@Z
	??$call_assignment@V?$Map@V?$Matrix@N$0?0$00$0A@$0?0$00@Eigen@@$01V?$Stride@$0A@$0A@@2@@Eigen@@V?$Transpose@V?$Block@V?$Matrix@N$0?0$0?0$0A@$0?0$0?0@Eigen@@$00$0?0$0A@@Eigen@@@2@U?$assign_op@NN@internal@2@@internal@Eigen@@YAXAEAV?$Map@V?$Matrix@N$0?0$00$0A@$0?0$00@Eigen@@$01V?$Stride@$0A@$0A@@2@@1@AEBV?$Transpose@V?$Block@V?$Matrix@N$0?0$0?0$0A@$0?0$0?0@Eigen@@$00$0?0$0A@@Eigen@@@1@AEBU?$assign_op@NN@01@PEAX@Z
	??$call_assignment@V?$Map@V?$Matrix@N$0?0$00$0A@$0?0$00@Eigen@@$0A@V?$Stride@$0A@$0A@@2@@Eigen@@V?$Block@V?$Block@V?$Matrix@N$0?0$0?0$0A@$0?0$0?0@Eigen@@$0?0$0?0$0A@@Eigen@@$0?0$00$00@2@U?$add_assign_op@NN@internal@2@@internal@Eigen@@YAXAEAV?$Map@V?$Matrix@N$0?0$00$0A@$0?0$00@Eigen@@$0A@V?$Stride@$0A@$0A@@2@@1@AEBV?$Block@V?$Block@V?$Matrix@N$0?0$0?0$0A@$0?0$0?0@Eigen@@$0?0$0?0$0A@@Eigen@@$0?0$00$00@1@AEBU?$add_assign_op@NN@01@PEAX@Z
	??$call_assignment@V?$Map@V?$Matrix@N$0?0$00$0A@$0?0$00@Eigen@@$0A@V?$Stride@$0A@$0A@@2@@Eigen@@V?$CwiseBinaryOp@U?$scalar_product_op@NN@internal@Eigen@@$$CBV?$CwiseNullaryOp@U?$scalar_constant_op@N@internal@Eigen@@$$CBV?$Matrix@N$0?0$00$0A@$0?0$00@3@@3@$$CBV?$Map@V?$Matrix@N$0?0$00$0A@$0?0$00@Eigen@@$01V?$Stride@$0A@$0A@@2@@3@@2@U?$add_assign_op@NN@internal@2@@internal@Eigen@@YAXAEAV?$Map@V?$Matrix@N$0?0$00$0A@$0?0$00@Eigen@@$0A@V?$Stride@$0A@$0A@@2@@1@AEBV?$CwiseBinaryOp@U?$scalar_product_op@NN@internal@Eigen@@$$CBV?$CwiseNullaryOp@U?$scalar_constant_op@N@internal@Eigen@@$$CBV?$Matrix@N$0?0$00$0A@$0?0$00@3@@3@$$CBV?$Map@V?$Matrix@N$0?0$00$0A@$0?0$00@Eigen@@$01V?$Stride@$0A@$0A@@2@@3@@1@AEBU?$add_assign_op@NN@01@PEAX@Z
	??$call_assignment@V?$Map@V?$Matrix@N$0?0$00$0A@$0?0$00@Eigen@@$0A@V?$Stride@$0A@$0A@@2@@Eigen@@V?$Map@V?$Matrix@N$0?0$00$0A@$0?0$00@Eigen@@$01V?$Stride@$0A@$0A@@2@@2@@internal@Eigen@@YAXAEAV?$Map@V?$Matrix@N$0?0$00$0A@$0?0$00@Eigen@@$0A@V?$Stride@$0A@$0A@@2@@1@AEBV?$Map@V?$Matrix@N$0?0$00$0A@$0?0$00@Eigen@@$01V?$Stride@$0A@$0A@@2@@1@@Z
	??$call_assignment@V?$Map@V?$Matrix@N$0?0$00$0A@$0?0$00@Eigen@@$0A@V?$Stride@$0A@$0A@@2@@Eigen@@V?$Map@V?$Matrix@N$0?0$00$0A@$0?0$00@Eigen@@$01V?$Stride@$0A@$0A@@2@@2@U?$assign_op@NN@internal@2@@internal@Eigen@@YAXAEAV?$Map@V?$Matrix@N$0?0$00$0A@$0?0$00@Eigen@@$0A@V?$Stride@$0A@$0A@@2@@1@AEBV?$Map@V?$Matrix@N$0?0$00$0A@$0?0$00@Eigen@@$01V?$Stride@$0A@$0A@@2@@1@AEBU?$assign_op@NN@01@PEAX@Z
	??$call_assignment@V?$Map@V?$Matrix@N$0?0$00$0A@$0?0$00@Eigen@@$0A@V?$Stride@$0A@$0A@@2@@Eigen@@V?$Transpose@$$CBV?$Block@$$CBV?$Matrix@N$0?0$0?0$0A@$0?0$0?0@Eigen@@$00$0?0$0A@@Eigen@@@2@@internal@Eigen@@YAXAEAV?$Map@V?$Matrix@N$0?0$00$0A@$0?0$00@Eigen@@$0A@V?$Stride@$0A@$0A@@2@@1@AEBV?$Transpose@$$CBV?$Block@$$CBV?$Matrix@N$0?0$0?0$0A@$0?0$0?0@Eigen@@$00$0?0$0A@@Eigen@@@1@@Z
	??$call_assignment@V?$Map@V?$Matrix@N$0?0$00$0A@$0?0$00@Eigen@@$0A@V?$Stride@$0A@$0A@@2@@Eigen@@V?$Transpose@$$CBV?$Block@$$CBV?$Matrix@N$0?0$0?0$0A@$0?0$0?0@Eigen@@$00$0?0$0A@@Eigen@@@2@U?$assign_op@NN@internal@2@@internal@Eigen@@YAXAEAV?$Map@V?$Matrix@N$0?0$00$0A@$0?0$00@Eigen@@$0A@V?$Stride@$0A@$0A@@2@@1@AEBV?$Transpose@$$CBV?$Block@$$CBV?$Matrix@N$0?0$0?0$0A@$0?0$0?0@Eigen@@$00$0?0$0A@@Eigen@@@1@AEBU?$assign_op@NN@01@PEAX@Z
	??$call_assignment@V?$Map@V?$Matrix@N$0?0$00$0A@$0?0$00@Eigen@@$0A@V?$Stride@$0A@$0A@@2@@Eigen@@V?$Transpose@$$CBV?$Block@$$CBV?$Ref@V?$Matrix@N$0?0$0?0$0A@$0?0$0?0@Eigen@@$0A@V?$OuterStride@$0?0@2@@Eigen@@$00$0?0$0A@@Eigen@@@2@@internal@Eigen@@YAXAEAV?$Map@V?$Matrix@N$0?0$00$0A@$0?0$00@Eigen@@$0A@V?$Stride@$0A@$0A@@2@@1@AEBV?$Transpose@$$CBV?$Block@$$CBV?$Ref@V?$Matrix@N$0?0$0?0$0A@$0?0$0?0@Eigen@@$0A@V?$OuterStride@$0?0@2@@Eigen@@$00$0?0$0A@@Eigen@@@1@@Z
	??$call_assignment@V?$Map@V?$Matrix@N$0?0$00$0A@$0?0$00@Eigen@@$0A@V?$Stride@$0A@$0A@@2@@Eigen@@V?$Transpose@$$CBV?$Block@$$CBV?$Ref@V?$Matrix@N$0?0$0?0$0A@$0?0$0?0@Eigen@@$0A@V?$OuterStride@$0?0@2@@Eigen@@$00$0?0$0A@@Eigen@@@2@U?$assign_op@NN@internal@2@@internal@Eigen@@YAXAEAV?$Map@V?$Matrix@N$0?0$00$0A@$0?0$00@Eigen@@$0A@V?$Stride@$0A@$0A@@2@@1@AEBV?$Transpose@$$CBV?$Block@$$CBV?$Ref@V?$Matrix@N$0?0$0?0$0A@$0?0$0?0@Eigen@@$0A@V?$OuterStride@$0?0@2@@Eigen@@$00$0?0$0A@@Eigen@@@1@AEBU?$assign_op@NN@01@PEAX@Z
	??$call_assignment@V?$Map@V?$Matrix@N$0?0$00$0A@$0?0$00@Eigen@@$0A@V?$Stride@$0A@$0A@@2@@Eigen@@V?$Transpose@$$CBV?$Transpose@$$CBV?$Block@$$CBV?$Matrix@N$0?0$0?0$0A@$0?0$0?0@Eigen@@$0?0$00$0A@@Eigen@@@Eigen@@@2@@internal@Eigen@@YAXAEAV?$Map@V?$Matrix@N$0?0$00$0A@$0?0$00@Eigen@@$0A@V?$Stride@$0A@$0A@@2@@1@AEBV?$Transpose@$$CBV?$Transpose@$$CBV?$Block@$$CBV?$Matrix@N$0?0$0?0$0A@$0?0$0?0@Eigen@@$0?0$00$0A@@Eigen@@@Eigen@@@1@@Z
	??$call_assignment@V?$Map@V?$Matrix@N$0?0$00$0A@$0?0$00@Eigen@@$0A@V?$Stride@$0A@$0A@@2@@Eigen@@V?$Transpose@$$CBV?$Transpose@$$CBV?$Block@$$CBV?$Matrix@N$0?0$0?0$0A@$0?0$0?0@Eigen@@$0?0$00$0A@@Eigen@@@Eigen@@@2@U?$assign_op@NN@internal@2@@internal@Eigen@@YAXAEAV?$Map@V?$Matrix@N$0?0$00$0A@$0?0$00@Eigen@@$0A@V?$Stride@$0A@$0A@@2@@1@AEBV?$Transpose@$$CBV?$Transpose@$$CBV?$Block@$$CBV?$Matrix@N$0?0$0?0$0A@$0?0$0?0@Eigen@@$0?0$00$0A@@Eigen@@@Eigen@@@1@AEBU?$assign_op@NN@01@PEAX@Z
	??$call_assignment@V?$Map@V?$Matrix@N$0?0$00$0A@$0?0$00@Eigen@@$0A@V?$Stride@$0A@$0A@@2@@Eigen@@V?$Transpose@$$CBV?$Transpose@$$CBV?$Block@V?$Block@V?$Matrix@N$0?0$0?0$0A@$0?0$0?0@Eigen@@$0?0$00$00@Eigen@@$0?0$00$0A@@Eigen@@@Eigen@@@2@@internal@Eigen@@YAXAEAV?$Map@V?$Matrix@N$0?0$00$0A@$0?0$00@Eigen@@$0A@V?$Stride@$0A@$0A@@2@@1@AEBV?$Transpose@$$CBV?$Transpose@$$CBV?$Block@V?$Block@V?$Matrix@N$0?0$0?0$0A@$0?0$0?0@Eigen@@$0?0$00$00@Eigen@@$0?0$00$0A@@Eigen@@@Eigen@@@1@@Z
	??$call_assignment@V?$Map@V?$Matrix@N$0?0$00$0A@$0?0$00@Eigen@@$0A@V?$Stride@$0A@$0A@@2@@Eigen@@V?$Transpose@$$CBV?$Transpose@$$CBV?$Block@V?$Block@V?$Matrix@N$0?0$0?0$0A@$0?0$0?0@Eigen@@$0?0$00$00@Eigen@@$0?0$00$0A@@Eigen@@@Eigen@@@2@U?$assign_op@NN@internal@2@@internal@Eigen@@YAXAEAV?$Map@V?$Matrix@N$0?0$00$0A@$0?0$00@Eigen@@$0A@V?$Stride@$0A@$0A@@2@@1@AEBV?$Transpose@$$CBV?$Transpose@$$CBV?$Block@V?$Block@V?$Matrix@N$0?0$0?0$0A@$0?0$0?0@Eigen@@$0?0$00$00@Eigen@@$0?0$00$0A@@Eigen@@@Eigen@@@1@AEBU?$assign_op@NN@01@PEAX@Z
	??$call_assignment@V?$Map@V?$Matrix@N$0?0$00$0A@$0?0$00@Eigen@@$0BA@V?$Stride@$0A@$0A@@2@@Eigen@@V?$CwiseBinaryOp@U?$scalar_product_op@NN@internal@Eigen@@$$CBV?$CwiseNullaryOp@U?$scalar_constant_op@N@internal@Eigen@@$$CBV?$Matrix@N$0?0$00$0A@$0?0$00@3@@3@$$CBV?$Block@$$CBV?$Matrix@N$0?0$0?0$0A@$0?0$0?0@Eigen@@$0?0$00$0A@@3@@2@@internal@Eigen@@YAXAEAV?$Map@V?$Matrix@N$0?0$00$0A@$0?0$00@Eigen@@$0BA@V?$Stride@$0A@$0A@@2@@1@AEBV?$CwiseBinaryOp@U?$scalar_product_op@NN@internal@Eigen@@$$CBV?$CwiseNullaryOp@U?$scalar_constant_op@N@internal@Eigen@@$$CBV?$Matrix@N$0?0$00$0A@$0?0$00@3@@3@$$CBV?$Block@$$CBV?$Matrix@N$0?0$0?0$0A@$0?0$0?0@Eigen@@$0?0$00$0A@@3@@1@@Z
	??$call_assignment@V?$Map@V?$Matrix@N$0?0$00$0A@$0?0$00@Eigen@@$0BA@V?$Stride@$0A@$0A@@2@@Eigen@@V?$CwiseBinaryOp@U?$scalar_product_op@NN@internal@Eigen@@$$CBV?$CwiseNullaryOp@U?$scalar_constant_op@N@internal@Eigen@@$$CBV?$Matrix@N$0?0$00$0A@$0?0$00@3@@3@$$CBV?$Block@$$CBV?$Matrix@N$0?0$0?0$0A@$0?0$0?0@Eigen@@$0?0$00$0A@@3@@2@U?$assign_op@NN@internal@2@@internal@Eigen@@YAXAEAV?$Map@V?$Matrix@N$0?0$00$0A@$0?0$00@Eigen@@$0BA@V?$Stride@$0A@$0A@@2@@1@AEBV?$CwiseBinaryOp@U?$scalar_product_op@NN@internal@Eigen@@$$CBV?$CwiseNullaryOp@U?$scalar_constant_op@N@internal@Eigen@@$$CBV?$Matrix@N$0?0$00$0A@$0?0$00@3@@3@$$CBV?$Block@$$CBV?$Matrix@N$0?0$0?0$0A@$0?0$0?0@Eigen@@$0?0$00$0A@@3@@1@AEBU?$assign_op@NN@01@PEAX@Z
	??$call_assignment@V?$Map@V?$Matrix@N$0?0$00$0A@$0?0$00@Eigen@@$0BA@V?$Stride@$0A@$0A@@2@@Eigen@@V?$CwiseBinaryOp@U?$scalar_product_op@NN@internal@Eigen@@$$CBV?$CwiseNullaryOp@U?$scalar_constant_op@N@internal@Eigen@@$$CBV?$Matrix@N$0?0$00$0A@$0?0$00@3@@3@$$CBV?$Block@V?$Block@V?$Matrix@N$0?0$0?0$0A@$0?0$0?0@Eigen@@$0?0$00$00@Eigen@@$0?0$00$0A@@3@@2@@internal@Eigen@@YAXAEAV?$Map@V?$Matrix@N$0?0$00$0A@$0?0$00@Eigen@@$0BA@V?$Stride@$0A@$0A@@2@@1@AEBV?$CwiseBinaryOp@U?$scalar_product_op@NN@internal@Eigen@@$$CBV?$CwiseNullaryOp@U?$scalar_constant_op@N@internal@Eigen@@$$CBV?$Matrix@N$0?0$00$0A@$0?0$00@3@@3@$$CBV?$Block@V?$Block@V?$Matrix@N$0?0$0?0$0A@$0?0$0?0@Eigen@@$0?0$00$00@Eigen@@$0?0$00$0A@@3@@1@@Z
	??$call_assignment@V?$Map@V?$Matrix@N$0?0$00$0A@$0?0$00@Eigen@@$0BA@V?$Stride@$0A@$0A@@2@@Eigen@@V?$CwiseBinaryOp@U?$scalar_product_op@NN@internal@Eigen@@$$CBV?$CwiseNullaryOp@U?$scalar_constant_op@N@internal@Eigen@@$$CBV?$Matrix@N$0?0$00$0A@$0?0$00@3@@3@$$CBV?$Block@V?$Block@V?$Matrix@N$0?0$0?0$0A@$0?0$0?0@Eigen@@$0?0$00$00@Eigen@@$0?0$00$0A@@3@@2@U?$assign_op@NN@internal@2@@internal@Eigen@@YAXAEAV?$Map@V?$Matrix@N$0?0$00$0A@$0?0$00@Eigen@@$0BA@V?$Stride@$0A@$0A@@2@@1@AEBV?$CwiseBinaryOp@U?$scalar_product_op@NN@internal@Eigen@@$$CBV?$CwiseNullaryOp@U?$scalar_constant_op@N@internal@Eigen@@$$CBV?$Matrix@N$0?0$00$0A@$0?0$00@3@@3@$$CBV?$Block@V?$Block@V?$Matrix@N$0?0$0?0$0A@$0?0$0?0@Eigen@@$0?0$00$00@Eigen@@$0?0$00$0A@@3@@1@AEBU?$assign_op@NN@01@PEAX@Z
	??$call_assignment@V?$Map@V?$Matrix@N$0?0$00$0A@$0?0$00@Eigen@@$0BA@V?$Stride@$0A@$0A@@2@@Eigen@@V?$CwiseBinaryOp@U?$scalar_product_op@NN@internal@Eigen@@$$CBV?$CwiseNullaryOp@U?$scalar_constant_op@N@internal@Eigen@@$$CBV?$Matrix@N$0?0$00$0A@$0?0$00@3@@3@$$CBV?$Map@V?$Matrix@N$0?0$00$0A@$0?0$00@Eigen@@$0A@V?$Stride@$0A@$0A@@2@@3@@2@@internal@Eigen@@YAXAEAV?$Map@V?$Matrix@N$0?0$00$0A@$0?0$00@Eigen@@$0BA@V?$Stride@$0A@$0A@@2@@1@AEBV?$CwiseBinaryOp@U?$scalar_product_op@NN@internal@Eigen@@$$CBV?$CwiseNullaryOp@U?$scalar_constant_op@N@internal@Eigen@@$$CBV?$Matrix@N$0?0$00$0A@$0?0$00@3@@3@$$CBV?$Map@V?$Matrix@N$0?0$00$0A@$0?0$00@Eigen@@$0A@V?$Stride@$0A@$0A@@2@@3@@1@@Z
	??$call_assignment@V?$Map@V?$Matrix@N$0?0$00$0A@$0?0$00@Eigen@@$0BA@V?$Stride@$0A@$0A@@2@@Eigen@@V?$CwiseBinaryOp@U?$scalar_product_op@NN@internal@Eigen@@$$CBV?$CwiseNullaryOp@U?$scalar_constant_op@N@internal@Eigen@@$$CBV?$Matrix@N$0?0$00$0A@$0?0$00@3@@3@$$CBV?$Map@V?$Matrix@N$0?0$00$0A@$0?0$00@Eigen@@$0A@V?$Stride@$0A@$0A@@2@@3@@2@U?$assign_op@NN@internal@2@@internal@Eigen@@YAXAEAV?$Map@V?$Matrix@N$0?0$00$0A@$0?0$00@Eigen@@$0BA@V?$Stride@$0A@$0A@@2@@1@AEBV?$CwiseBinaryOp@U?$scalar_product_op@NN@internal@Eigen@@$$CBV?$CwiseNullaryOp@U?$scalar_constant_op@N@internal@Eigen@@$$CBV?$Matrix@N$0?0$00$0A@$0?0$00@3@@3@$$CBV?$Map@V?$Matrix@N$0?0$00$0A@$0?0$00@Eigen@@$0A@V?$Stride@$0A@$0A@@2@@3@@1@AEBU?$assign_op@NN@01@PEAX@Z
	??$call_assignment@V?$Map@V?$Matrix@N$0?0$00$0A@$0?0$00@Eigen@@$0BA@V?$Stride@$0A@$0A@@2@@Eigen@@V?$Transpose@$$CBV?$Transpose@$$CBV?$Block@$$CBV?$Block@$$CBV?$Block@V?$Matrix@N$0?0$0?0$0A@$0?0$0?0@Eigen@@$0?0$0?0$0A@@Eigen@@$0?0$00$00@Eigen@@$0?0$00$0A@@Eigen@@@Eigen@@@2@@internal@Eigen@@YAXAEAV?$Map@V?$Matrix@N$0?0$00$0A@$0?0$00@Eigen@@$0BA@V?$Stride@$0A@$0A@@2@@1@AEBV?$Transpose@$$CBV?$Transpose@$$CBV?$Block@$$CBV?$Block@$$CBV?$Block@V?$Matrix@N$0?0$0?0$0A@$0?0$0?0@Eigen@@$0?0$0?0$0A@@Eigen@@$0?0$00$00@Eigen@@$0?0$00$0A@@Eigen@@@Eigen@@@1@@Z
	??$call_assignment@V?$Map@V?$Matrix@N$0?0$00$0A@$0?0$00@Eigen@@$0BA@V?$Stride@$0A@$0A@@2@@Eigen@@V?$Transpose@$$CBV?$Transpose@$$CBV?$Block@$$CBV?$Block@$$CBV?$Block@V?$Matrix@N$0?0$0?0$0A@$0?0$0?0@Eigen@@$0?0$0?0$0A@@Eigen@@$0?0$00$00@Eigen@@$0?0$00$0A@@Eigen@@@Eigen@@@2@U?$assign_op@NN@internal@2@@internal@Eigen@@YAXAEAV?$Map@V?$Matrix@N$0?0$00$0A@$0?0$00@Eigen@@$0BA@V?$Stride@$0A@$0A@@2@@1@AEBV?$Transpose@$$CBV?$Transpose@$$CBV?$Block@$$CBV?$Block@$$CBV?$Block@V?$Matrix@N$0?0$0?0$0A@$0?0$0?0@Eigen@@$0?0$0?0$0A@@Eigen@@$0?0$00$00@Eigen@@$0?0$00$0A@@Eigen@@@Eigen@@@1@AEBU?$assign_op@NN@01@PEAX@Z
	??$call_assignment@V?$Matrix@N$01$00$0A@$01$00@Eigen@@V?$Block@$$CBV?$Matrix@N$02$00$0A@$02$00@Eigen@@$0?0$00$0A@@2@U?$add_assign_op@NN@internal@2@@internal@Eigen@@YAXAEAV?$Matrix@N$01$00$0A@$01$00@1@AEBV?$Block@$$CBV?$Matrix@N$02$00$0A@$02$00@Eigen@@$0?0$00$0A@@1@AEBU?$add_assign_op@NN@01@PEAX@Z
	??$call_assignment@V?$Matrix@N$01$00$0A@$01$00@Eigen@@V?$CwiseNullaryOp@U?$scalar_constant_op@N@internal@Eigen@@$$CBV?$Matrix@N$01$00$0A@$01$00@3@@2@U?$div_assign_op@NN@internal@2@@internal@Eigen@@YAXAEAV?$Matrix@N$01$00$0A@$01$00@1@AEBV?$CwiseNullaryOp@U?$scalar_constant_op@N@internal@Eigen@@$$CBV?$Matrix@N$01$00$0A@$01$00@3@@1@AEBU?$div_assign_op@NN@01@PEAX@Z
	??$call_assignment@V?$Matrix@N$02$00$0A@$02$00@Eigen@@V12@@internal@Eigen@@YAXAEAV?$Matrix@N$02$00$0A@$02$00@1@AEBV21@@Z
	??$call_assignment@V?$Matrix@N$02$00$0A@$02$00@Eigen@@V12@U?$assign_op@NN@internal@2@@internal@Eigen@@YAXAEAV?$Matrix@N$02$00$0A@$02$00@1@AEBV21@AEBU?$assign_op@NN@01@PEAX@Z
	??$call_assignment@V?$Matrix@N$02$00$0A@$02$00@Eigen@@V?$Block@$$CBV?$Matrix@N$03$00$0A@$03$00@Eigen@@$0?0$00$0A@@2@U?$add_assign_op@NN@internal@2@@internal@Eigen@@YAXAEAV?$Matrix@N$02$00$0A@$02$00@1@AEBV?$Block@$$CBV?$Matrix@N$03$00$0A@$03$00@Eigen@@$0?0$00$0A@@1@AEBU?$add_assign_op@NN@01@PEAX@Z
	??$call_assignment@V?$Matrix@N$02$00$0A@$02$00@Eigen@@V?$CwiseNullaryOp@U?$scalar_constant_op@N@internal@Eigen@@$$CBV?$Matrix@N$02$00$0A@$02$00@3@@2@U?$div_assign_op@NN@internal@2@@internal@Eigen@@YAXAEAV?$Matrix@N$02$00$0A@$02$00@1@AEBV?$CwiseNullaryOp@U?$scalar_constant_op@N@internal@Eigen@@$$CBV?$Matrix@N$02$00$0A@$02$00@3@@1@AEBU?$div_assign_op@NN@01@PEAX@Z
	??$call_assignment@V?$Matrix@N$02$00$0A@$02$00@Eigen@@V?$Product@V?$PermutationMatrix@$02$02H@Eigen@@V?$Block@$$CBV?$Matrix@N$02$03$0A@$02$03@Eigen@@$02$00$0A@@2@$0A@@2@@internal@Eigen@@YAXAEAV?$Matrix@N$02$00$0A@$02$00@1@AEBV?$Product@V?$PermutationMatrix@$02$02H@Eigen@@V?$Block@$$CBV?$Matrix@N$02$03$0A@$02$03@Eigen@@$02$00$0A@@2@$0A@@1@@Z
	??$call_assignment@V?$Matrix@N$02$00$0A@$02$00@Eigen@@V?$Product@V?$PermutationMatrix@$02$02H@Eigen@@V?$Block@$$CBV?$Matrix@N$02$03$0A@$02$03@Eigen@@$02$00$0A@@2@$0A@@2@U?$assign_op@NN@internal@2@@internal@Eigen@@YAXAEAV?$Matrix@N$02$00$0A@$02$00@1@AEBV?$Product@V?$PermutationMatrix@$02$02H@Eigen@@V?$Block@$$CBV?$Matrix@N$02$03$0A@$02$03@Eigen@@$02$00$0A@@2@$0A@@1@AEBU?$assign_op@NN@01@PEAX@Z
	??$call_assignment@V?$Matrix@N$02$00$0A@$02$00@Eigen@@V?$Solve@V?$PartialPivLU@V?$Matrix@N$02$02$0A@$02$02@Eigen@@H@Eigen@@V?$Block@$$CBV?$Matrix@N$02$03$0A@$02$03@Eigen@@$02$00$0A@@2@@2@@internal@Eigen@@YAXAEAV?$Matrix@N$02$00$0A@$02$00@1@AEBV?$Solve@V?$PartialPivLU@V?$Matrix@N$02$02$0A@$02$02@Eigen@@H@Eigen@@V?$Block@$$CBV?$Matrix@N$02$03$0A@$02$03@Eigen@@$02$00$0A@@2@@1@@Z
	??$call_assignment@V?$Matrix@N$02$00$0A@$02$00@Eigen@@V?$Solve@V?$PartialPivLU@V?$Matrix@N$02$02$0A@$02$02@Eigen@@H@Eigen@@V?$Block@$$CBV?$Matrix@N$02$03$0A@$02$03@Eigen@@$02$00$0A@@2@@2@U?$assign_op@NN@internal@2@@internal@Eigen@@YAXAEAV?$Matrix@N$02$00$0A@$02$00@1@AEBV?$Solve@V?$PartialPivLU@V?$Matrix@N$02$02$0A@$02$02@Eigen@@H@Eigen@@V?$Block@$$CBV?$Matrix@N$02$03$0A@$02$03@Eigen@@$02$00$0A@@2@@1@AEBU?$assign_op@NN@01@PEAX@Z
	??$call_assignment@V?$Matrix@N$02$02$0A@$02$02@Eigen@@V12@@internal@Eigen@@YAXAEAV?$Matrix@N$02$02$0A@$02$02@1@AEBV21@@Z
	??$call_assignment@V?$Matrix@N$02$02$0A@$02$02@Eigen@@V12@U?$assign_op@NN@internal@2@@internal@Eigen@@YAXAEAV?$Matrix@N$02$02$0A@$02$02@1@AEBV21@AEBU?$assign_op@NN@01@PEAX@Z
	??$call_assignment@V?$Matrix@N$02$02$0A@$02$02@Eigen@@V?$CwiseNullaryOp@U?$scalar_constant_op@N@internal@Eigen@@$$CBV?$Matrix@N$02$02$0A@$02$02@3@@2@U?$mul_assign_op@NN@internal@2@@internal@Eigen@@YAXAEAV?$Matrix@N$02$02$0A@$02$02@1@AEBV?$CwiseNullaryOp@U?$scalar_constant_op@N@internal@Eigen@@$$CBV?$Matrix@N$02$02$0A@$02$02@3@@1@AEBU?$mul_assign_op@NN@01@PEAX@Z
	??$call_assignment@V?$Matrix@N$02$02$0A@$02$02@Eigen@@V?$CwiseNullaryOp@U?$scalar_identity_op@N@internal@Eigen@@V?$Matrix@N$02$02$0A@$02$02@3@@2@@internal@Eigen@@YAXAEAV?$Matrix@N$02$02$0A@$02$02@1@AEBV?$CwiseNullaryOp@U?$scalar_identity_op@N@internal@Eigen@@V?$Matrix@N$02$02$0A@$02$02@3@@1@@Z
	??$call_assignment@V?$Matrix@N$02$02$0A@$02$02@Eigen@@V?$CwiseNullaryOp@U?$scalar_identity_op@N@internal@Eigen@@V?$Matrix@N$02$02$0A@$02$02@3@@2@U?$assign_op@NN@internal@2@@internal@Eigen@@YAXAEAV?$Matrix@N$02$02$0A@$02$02@1@AEBV?$CwiseNullaryOp@U?$scalar_identity_op@N@internal@Eigen@@V?$Matrix@N$02$02$0A@$02$02@3@@1@AEBU?$assign_op@NN@01@PEAX@Z
	??$call_assignment@V?$Matrix@N$02$02$0A@$02$02@Eigen@@V?$HouseholderSequence@V?$Matrix@N$02$02$0A@$02$02@Eigen@@V?$Matrix@N$02$00$0A@$02$00@2@$00@2@@internal@Eigen@@YAXAEAV?$Matrix@N$02$02$0A@$02$02@1@AEBV?$HouseholderSequence@V?$Matrix@N$02$02$0A@$02$02@Eigen@@V?$Matrix@N$02$00$0A@$02$00@2@$00@1@@Z
	??$call_assignment@V?$Matrix@N$02$02$0A@$02$02@Eigen@@V?$HouseholderSequence@V?$Matrix@N$02$02$0A@$02$02@Eigen@@V?$Matrix@N$02$00$0A@$02$00@2@$00@2@U?$assign_op@NN@internal@2@@internal@Eigen@@YAXAEAV?$Matrix@N$02$02$0A@$02$02@1@AEBV?$HouseholderSequence@V?$Matrix@N$02$02$0A@$02$02@Eigen@@V?$Matrix@N$02$00$0A@$02$00@2@$00@1@AEBU?$assign_op@NN@01@PEAX@Z
	??$call_assignment@V?$Matrix@N$02$02$0A@$02$02@Eigen@@V?$Product@V?$Matrix@N$02$02$0A@$02$02@Eigen@@V12@$0A@@2@@internal@Eigen@@YAXAEAV?$Matrix@N$02$02$0A@$02$02@1@AEBV?$Product@V?$Matrix@N$02$02$0A@$02$02@Eigen@@V12@$0A@@1@@Z
	??$call_assignment@V?$Matrix@N$02$02$0A@$02$02@Eigen@@V?$Product@V?$Matrix@N$02$02$0A@$02$02@Eigen@@V12@$0A@@2@U?$assign_op@NN@internal@2@@internal@Eigen@@YAXAEAV?$Matrix@N$02$02$0A@$02$02@1@AEBV?$Product@V?$Matrix@N$02$02$0A@$02$02@Eigen@@V12@$0A@@1@AEBU?$assign_op@NN@01@PEAX@Z
	??$call_assignment@V?$Matrix@N$02$02$0A@$02$02@Eigen@@V?$Product@V?$Transpose@$$CBV?$Matrix@N$02$02$0A@$02$02@Eigen@@@Eigen@@V12@$0A@@2@@internal@Eigen@@YAXAEAV?$Matrix@N$02$02$0A@$02$02@1@AEBV?$Product@V?$Transpose@$$CBV?$Matrix@N$02$02$0A@$02$02@Eigen@@@Eigen@@V12@$0A@@1@@Z
	??$call_assignment@V?$Matrix@N$02$02$0A@$02$02@Eigen@@V?$Product@V?$Transpose@$$CBV?$Matrix@N$02$02$0A@$02$02@Eigen@@@Eigen@@V12@$0A@@2@U?$assign_op@NN@internal@2@@internal@Eigen@@YAXAEAV?$Matrix@N$02$02$0A@$02$02@1@AEBV?$Product@V?$Transpose@$$CBV?$Matrix@N$02$02$0A@$02$02@Eigen@@@Eigen@@V12@$0A@@1@AEBU?$assign_op@NN@01@PEAX@Z
	??$call_assignment@V?$Matrix@N$02$03$0A@$02$03@Eigen@@V?$CwiseBinaryOp@U?$scalar_product_op@NN@internal@Eigen@@$$CBV?$Matrix@N$02$03$0A@$02$03@3@$$CBV?$CwiseNullaryOp@U?$scalar_constant_op@N@internal@Eigen@@$$CBV?$Matrix@N$02$03$0A@$02$03@3@@3@@2@@internal@Eigen@@YAXAEAV?$Matrix@N$02$03$0A@$02$03@1@AEBV?$CwiseBinaryOp@U?$scalar_product_op@NN@internal@Eigen@@$$CBV?$Matrix@N$02$03$0A@$02$03@3@$$CBV?$CwiseNullaryOp@U?$scalar_constant_op@N@internal@Eigen@@$$CBV?$Matrix@N$02$03$0A@$02$03@3@@3@@1@@Z
	??$call_assignment@V?$Matrix@N$02$03$0A@$02$03@Eigen@@V?$CwiseBinaryOp@U?$scalar_product_op@NN@internal@Eigen@@$$CBV?$Matrix@N$02$03$0A@$02$03@3@$$CBV?$CwiseNullaryOp@U?$scalar_constant_op@N@internal@Eigen@@$$CBV?$Matrix@N$02$03$0A@$02$03@3@@3@@2@U?$assign_op@NN@internal@2@@internal@Eigen@@YAXAEAV?$Matrix@N$02$03$0A@$02$03@1@AEBV?$CwiseBinaryOp@U?$scalar_product_op@NN@internal@Eigen@@$$CBV?$Matrix@N$02$03$0A@$02$03@3@$$CBV?$CwiseNullaryOp@U?$scalar_constant_op@N@internal@Eigen@@$$CBV?$Matrix@N$02$03$0A@$02$03@3@@3@@1@AEBU?$assign_op@NN@01@PEAX@Z
	??$call_assignment@V?$Matrix@N$03$00$0A@$03$00@Eigen@@V12@@internal@Eigen@@YAXAEAV?$Matrix@N$03$00$0A@$03$00@1@AEBV21@@Z
	??$call_assignment@V?$Matrix@N$03$00$0A@$03$00@Eigen@@V12@U?$assign_op@NN@internal@2@@internal@Eigen@@YAXAEAV?$Matrix@N$03$00$0A@$03$00@1@AEBV21@AEBU?$assign_op@NN@01@PEAX@Z
	??$call_assignment@V?$Matrix@N$03$00$0A@$03$00@Eigen@@V?$Block@V?$Matrix@N$02$03$0A@$02$03@Eigen@@$00$03$0A@@2@@internal@Eigen@@YAXAEAV?$Matrix@N$03$00$0A@$03$00@1@AEBV?$Block@V?$Matrix@N$02$03$0A@$02$03@Eigen@@$00$03$0A@@1@@Z
	??$call_assignment@V?$Matrix@N$03$00$0A@$03$00@Eigen@@V?$Block@V?$Matrix@N$02$03$0A@$02$03@Eigen@@$00$03$0A@@2@U?$assign_op@NN@internal@2@@internal@Eigen@@YAXAEAV?$Matrix@N$03$00$0A@$03$00@1@AEBV?$Block@V?$Matrix@N$02$03$0A@$02$03@Eigen@@$00$03$0A@@1@AEBU?$assign_op@NN@01@PEAX@Z
	??$call_assignment@V?$Matrix@N$03$00$0A@$03$00@Eigen@@V?$Block@V?$Matrix@N$0?0$0?0$0A@$0?0$0?0@Eigen@@$0?0$00$00@2@@internal@Eigen@@YAXAEAV?$Matrix@N$03$00$0A@$03$00@1@AEBV?$Block@V?$Matrix@N$0?0$0?0$0A@$0?0$0?0@Eigen@@$0?0$00$00@1@@Z
	??$call_assignment@V?$Matrix@N$03$00$0A@$03$00@Eigen@@V?$Block@V?$Matrix@N$0?0$0?0$0A@$0?0$0?0@Eigen@@$0?0$00$00@2@U?$assign_op@NN@internal@2@@internal@Eigen@@YAXAEAV?$Matrix@N$03$00$0A@$03$00@1@AEBV?$Block@V?$Matrix@N$0?0$0?0$0A@$0?0$0?0@Eigen@@$0?0$00$00@1@AEBU?$assign_op@NN@01@PEAX@Z
	??$call_assignment@V?$Matrix@N$03$00$0A@$03$00@Eigen@@V?$CwiseBinaryOp@U?$scalar_difference_op@NN@internal@Eigen@@$$CBV?$CwiseBinaryOp@U?$scalar_difference_op@NN@internal@Eigen@@$$CBV?$Matrix@N$03$00$0A@$03$00@3@$$CBV?$CwiseBinaryOp@U?$scalar_product_op@NN@internal@Eigen@@$$CBV?$Matrix@N$03$00$0A@$03$00@3@$$CBV?$CwiseNullaryOp@U?$scalar_constant_op@N@internal@Eigen@@$$CBV?$Matrix@N$03$00$0A@$03$00@3@@3@@3@@3@$$CBV?$CwiseBinaryOp@U?$scalar_product_op@NN@internal@Eigen@@$$CBV?$Matrix@N$03$00$0A@$03$00@3@$$CBV?$CwiseNullaryOp@U?$scalar_constant_op@N@internal@Eigen@@$$CBV?$Matrix@N$03$00$0A@$03$00@3@@3@@3@@2@@internal@Eigen@@YAXAEAV?$Matrix@N$03$00$0A@$03$00@1@AEBV?$CwiseBinaryOp@U?$scalar_difference_op@NN@internal@Eigen@@$$CBV?$CwiseBinaryOp@U?$scalar_difference_op@NN@internal@Eigen@@$$CBV?$Matrix@N$03$00$0A@$03$00@3@$$CBV?$CwiseBinaryOp@U?$scalar_product_op@NN@internal@Eigen@@$$CBV?$Matrix@N$03$00$0A@$03$00@3@$$CBV?$CwiseNullaryOp@U?$scalar_constant_op@N@internal@Eigen@@$$CBV?$Matrix@N$03$00$0A@$03$00@3@@3@@3@@3@$$CBV?$CwiseBinaryOp@U?$scalar_product_op@NN@internal@Eigen@@$$CBV?$Matrix@N$03$00$0A@$03$00@3@$$CBV?$CwiseNullaryOp@U?$scalar_constant_op@N@internal@Eigen@@$$CBV?$Matrix@N$03$00$0A@$03$00@3@@3@@3@@1@@Z
	??$call_assignment@V?$Matrix@N$03$00$0A@$03$00@Eigen@@V?$CwiseBinaryOp@U?$scalar_difference_op@NN@internal@Eigen@@$$CBV?$CwiseBinaryOp@U?$scalar_difference_op@NN@internal@Eigen@@$$CBV?$Matrix@N$03$00$0A@$03$00@3@$$CBV?$CwiseBinaryOp@U?$scalar_product_op@NN@internal@Eigen@@$$CBV?$Matrix@N$03$00$0A@$03$00@3@$$CBV?$CwiseNullaryOp@U?$scalar_constant_op@N@internal@Eigen@@$$CBV?$Matrix@N$03$00$0A@$03$00@3@@3@@3@@3@$$CBV?$CwiseBinaryOp@U?$scalar_product_op@NN@internal@Eigen@@$$CBV?$Matrix@N$03$00$0A@$03$00@3@$$CBV?$CwiseNullaryOp@U?$scalar_constant_op@N@internal@Eigen@@$$CBV?$Matrix@N$03$00$0A@$03$00@3@@3@@3@@2@U?$assign_op@NN@internal@2@@internal@Eigen@@YAXAEAV?$Matrix@N$03$00$0A@$03$00@1@AEBV?$CwiseBinaryOp@U?$scalar_difference_op@NN@internal@Eigen@@$$CBV?$CwiseBinaryOp@U?$scalar_difference_op@NN@internal@Eigen@@$$CBV?$Matrix@N$03$00$0A@$03$00@3@$$CBV?$CwiseBinaryOp@U?$scalar_product_op@NN@internal@Eigen@@$$CBV?$Matrix@N$03$00$0A@$03$00@3@$$CBV?$CwiseNullaryOp@U?$scalar_constant_op@N@internal@Eigen@@$$CBV?$Matrix@N$03$00$0A@$03$00@3@@3@@3@@3@$$CBV?$CwiseBinaryOp@U?$scalar_product_op@NN@internal@Eigen@@$$CBV?$Matrix@N$03$00$0A@$03$00@3@$$CBV?$CwiseNullaryOp@U?$scalar_constant_op@N@internal@Eigen@@$$CBV?$Matrix@N$03$00$0A@$03$00@3@@3@@3@@1@AEBU?$assign_op@NN@01@PEAX@Z
	??$call_assignment@V?$Matrix@N$03$00$0A@$03$00@Eigen@@V?$CwiseBinaryOp@U?$scalar_difference_op@NN@internal@Eigen@@$$CBV?$CwiseBinaryOp@U?$scalar_quotient_op@NN@internal@Eigen@@$$CBV?$Matrix@N$03$00$0A@$03$00@3@$$CBV?$CwiseNullaryOp@U?$scalar_constant_op@N@internal@Eigen@@$$CBV?$Matrix@N$03$00$0A@$03$00@3@@3@@3@$$CBV?$Matrix@N$03$00$0A@$03$00@3@@2@@internal@Eigen@@YAXAEAV?$Matrix@N$03$00$0A@$03$00@1@AEBV?$CwiseBinaryOp@U?$scalar_difference_op@NN@internal@Eigen@@$$CBV?$CwiseBinaryOp@U?$scalar_quotient_op@NN@internal@Eigen@@$$CBV?$Matrix@N$03$00$0A@$03$00@3@$$CBV?$CwiseNullaryOp@U?$scalar_constant_op@N@internal@Eigen@@$$CBV?$Matrix@N$03$00$0A@$03$00@3@@3@@3@$$CBV?$Matrix@N$03$00$0A@$03$00@3@@1@@Z
	??$call_assignment@V?$Matrix@N$03$00$0A@$03$00@Eigen@@V?$CwiseBinaryOp@U?$scalar_difference_op@NN@internal@Eigen@@$$CBV?$CwiseBinaryOp@U?$scalar_quotient_op@NN@internal@Eigen@@$$CBV?$Matrix@N$03$00$0A@$03$00@3@$$CBV?$CwiseNullaryOp@U?$scalar_constant_op@N@internal@Eigen@@$$CBV?$Matrix@N$03$00$0A@$03$00@3@@3@@3@$$CBV?$Matrix@N$03$00$0A@$03$00@3@@2@U?$assign_op@NN@internal@2@@internal@Eigen@@YAXAEAV?$Matrix@N$03$00$0A@$03$00@1@AEBV?$CwiseBinaryOp@U?$scalar_difference_op@NN@internal@Eigen@@$$CBV?$CwiseBinaryOp@U?$scalar_quotient_op@NN@internal@Eigen@@$$CBV?$Matrix@N$03$00$0A@$03$00@3@$$CBV?$CwiseNullaryOp@U?$scalar_constant_op@N@internal@Eigen@@$$CBV?$Matrix@N$03$00$0A@$03$00@3@@3@@3@$$CBV?$Matrix@N$03$00$0A@$03$00@3@@1@AEBU?$assign_op@NN@01@PEAX@Z
	??$call_assignment@V?$Matrix@N$03$00$0A@$03$00@Eigen@@V?$CwiseBinaryOp@U?$scalar_difference_op@NN@internal@Eigen@@$$CBV?$Matrix@N$03$00$0A@$03$00@3@$$CBV?$CwiseBinaryOp@U?$scalar_product_op@NN@internal@Eigen@@$$CBV?$Matrix@N$03$00$0A@$03$00@3@$$CBV?$CwiseNullaryOp@U?$scalar_constant_op@N@internal@Eigen@@$$CBV?$Matrix@N$03$00$0A@$03$00@3@@3@@3@@2@@internal@Eigen@@YAXAEAV?$Matrix@N$03$00$0A@$03$00@1@AEBV?$CwiseBinaryOp@U?$scalar_difference_op@NN@internal@Eigen@@$$CBV?$Matrix@N$03$00$0A@$03$00@3@$$CBV?$CwiseBinaryOp@U?$scalar_product_op@NN@internal@Eigen@@$$CBV?$Matrix@N$03$00$0A@$03$00@3@$$CBV?$CwiseNullaryOp@U?$scalar_constant_op@N@internal@Eigen@@$$CBV?$Matrix@N$03$00$0A@$03$00@3@@3@@3@@1@@Z
	??$call_assignment@V?$Matrix@N$03$00$0A@$03$00@Eigen@@V?$CwiseBinaryOp@U?$scalar_difference_op@NN@internal@Eigen@@$$CBV?$Matrix@N$03$00$0A@$03$00@3@$$CBV?$CwiseBinaryOp@U?$scalar_product_op@NN@internal@Eigen@@$$CBV?$Matrix@N$03$00$0A@$03$00@3@$$CBV?$CwiseNullaryOp@U?$scalar_constant_op@N@internal@Eigen@@$$CBV?$Matrix@N$03$00$0A@$03$00@3@@3@@3@@2@U?$assign_op@NN@internal@2@@internal@Eigen@@YAXAEAV?$Matrix@N$03$00$0A@$03$00@1@AEBV?$CwiseBinaryOp@U?$scalar_difference_op@NN@internal@Eigen@@$$CBV?$Matrix@N$03$00$0A@$03$00@3@$$CBV?$CwiseBinaryOp@U?$scalar_product_op@NN@internal@Eigen@@$$CBV?$Matrix@N$03$00$0A@$03$00@3@$$CBV?$CwiseNullaryOp@U?$scalar_constant_op@N@internal@Eigen@@$$CBV?$Matrix@N$03$00$0A@$03$00@3@@3@@3@@1@AEBU?$assign_op@NN@01@PEAX@Z
	??$call_assignment@V?$Matrix@N$03$00$0A@$03$00@Eigen@@V?$CwiseBinaryOp@U?$scalar_product_op@NN@internal@Eigen@@$$CBV?$Matrix@N$03$00$0A@$03$00@3@$$CBV?$CwiseNullaryOp@U?$scalar_constant_op@N@internal@Eigen@@$$CBV?$Matrix@N$03$00$0A@$03$00@3@@3@@2@@internal@Eigen@@YAXAEAV?$Matrix@N$03$00$0A@$03$00@1@AEBV?$CwiseBinaryOp@U?$scalar_product_op@NN@internal@Eigen@@$$CBV?$Matrix@N$03$00$0A@$03$00@3@$$CBV?$CwiseNullaryOp@U?$scalar_constant_op@N@internal@Eigen@@$$CBV?$Matrix@N$03$00$0A@$03$00@3@@3@@1@@Z
	??$call_assignment@V?$Matrix@N$03$00$0A@$03$00@Eigen@@V?$CwiseBinaryOp@U?$scalar_product_op@NN@internal@Eigen@@$$CBV?$Matrix@N$03$00$0A@$03$00@3@$$CBV?$CwiseNullaryOp@U?$scalar_constant_op@N@internal@Eigen@@$$CBV?$Matrix@N$03$00$0A@$03$00@3@@3@@2@U?$assign_op@NN@internal@2@@internal@Eigen@@YAXAEAV?$Matrix@N$03$00$0A@$03$00@1@AEBV?$CwiseBinaryOp@U?$scalar_product_op@NN@internal@Eigen@@$$CBV?$Matrix@N$03$00$0A@$03$00@3@$$CBV?$CwiseNullaryOp@U?$scalar_constant_op@N@internal@Eigen@@$$CBV?$Matrix@N$03$00$0A@$03$00@3@@3@@1@AEBU?$assign_op@NN@01@PEAX@Z
	??$call_assignment@V?$Matrix@N$03$00$0A@$03$00@Eigen@@V?$CwiseBinaryOp@U?$scalar_quotient_op@NN@internal@Eigen@@$$CBV?$Matrix@N$03$00$0A@$03$00@3@$$CBV?$CwiseNullaryOp@U?$scalar_constant_op@N@internal@Eigen@@$$CBV?$Matrix@N$03$00$0A@$03$00@3@@3@@2@@internal@Eigen@@YAXAEAV?$Matrix@N$03$00$0A@$03$00@1@AEBV?$CwiseBinaryOp@U?$scalar_quotient_op@NN@internal@Eigen@@$$CBV?$Matrix@N$03$00$0A@$03$00@3@$$CBV?$CwiseNullaryOp@U?$scalar_constant_op@N@internal@Eigen@@$$CBV?$Matrix@N$03$00$0A@$03$00@3@@3@@1@@Z
	??$call_assignment@V?$Matrix@N$03$00$0A@$03$00@Eigen@@V?$CwiseBinaryOp@U?$scalar_quotient_op@NN@internal@Eigen@@$$CBV?$Matrix@N$03$00$0A@$03$00@3@$$CBV?$CwiseNullaryOp@U?$scalar_constant_op@N@internal@Eigen@@$$CBV?$Matrix@N$03$00$0A@$03$00@3@@3@@2@U?$assign_op@NN@internal@2@@internal@Eigen@@YAXAEAV?$Matrix@N$03$00$0A@$03$00@1@AEBV?$CwiseBinaryOp@U?$scalar_quotient_op@NN@internal@Eigen@@$$CBV?$Matrix@N$03$00$0A@$03$00@3@$$CBV?$CwiseNullaryOp@U?$scalar_constant_op@N@internal@Eigen@@$$CBV?$Matrix@N$03$00$0A@$03$00@3@@3@@1@AEBU?$assign_op@NN@01@PEAX@Z
	??$call_assignment@V?$Matrix@N$03$00$0A@$03$00@Eigen@@V?$CwiseNullaryOp@U?$scalar_constant_op@N@internal@Eigen@@$$CBV?$Matrix@N$03$00$0A@$03$00@3@@2@U?$mul_assign_op@NN@internal@2@@internal@Eigen@@YAXAEAV?$Matrix@N$03$00$0A@$03$00@1@AEBV?$CwiseNullaryOp@U?$scalar_constant_op@N@internal@Eigen@@$$CBV?$Matrix@N$03$00$0A@$03$00@3@@1@AEBU?$mul_assign_op@NN@01@PEAX@Z
	??$call_assignment@V?$Matrix@N$03$02$0A@$03$02@Eigen@@V?$Product@V?$Product@V?$Matrix@N$0?0$0?0$0A@$0?0$0?0@Eigen@@V12@$0A@@Eigen@@V?$Transpose@$$CBV?$Matrix@N$0?0$0?0$0A@$0?0$0?0@Eigen@@@2@$0A@@2@@internal@Eigen@@YAXAEAV?$Matrix@N$03$02$0A@$03$02@1@AEBV?$Product@V?$Product@V?$Matrix@N$0?0$0?0$0A@$0?0$0?0@Eigen@@V12@$0A@@Eigen@@V?$Transpose@$$CBV?$Matrix@N$0?0$0?0$0A@$0?0$0?0@Eigen@@@2@$0A@@1@@Z
	??$call_assignment@V?$Matrix@N$03$02$0A@$03$02@Eigen@@V?$Product@V?$Product@V?$Matrix@N$0?0$0?0$0A@$0?0$0?0@Eigen@@V12@$0A@@Eigen@@V?$Transpose@$$CBV?$Matrix@N$0?0$0?0$0A@$0?0$0?0@Eigen@@@2@$0A@@2@U?$assign_op@NN@internal@2@@internal@Eigen@@YAXAEAV?$Matrix@N$03$02$0A@$03$02@1@AEBV?$Product@V?$Product@V?$Matrix@N$0?0$0?0$0A@$0?0$0?0@Eigen@@V12@$0A@@Eigen@@V?$Transpose@$$CBV?$Matrix@N$0?0$0?0$0A@$0?0$0?0@Eigen@@@2@$0A@@1@AEBU?$assign_op@NN@01@PEAX@Z
	??$call_assignment@V?$Matrix@N$0?0$00$0A@$0?0$00@Eigen@@V?$CwiseNullaryOp@U?$scalar_constant_op@N@internal@Eigen@@$$CBV?$Matrix@N$0?0$00$0A@$0?0$00@3@@2@U?$mul_assign_op@NN@internal@2@@internal@Eigen@@YAXAEAV?$Matrix@N$0?0$00$0A@$0?0$00@1@AEBV?$CwiseNullaryOp@U?$scalar_constant_op@N@internal@Eigen@@$$CBV?$Matrix@N$0?0$00$0A@$0?0$00@3@@1@AEBU?$mul_assign_op@NN@01@PEAX@Z
	??$call_assignment@V?$Matrix@N$0?0$02$0A@$02$02@Eigen@@V?$Product@V?$TriangularView@$$CBV?$Transpose@$$CBV?$Matrix@N$0?0$0?0$00$0?0$0?0@Eigen@@@Eigen@@$00@Eigen@@V?$Matrix@N$0?0$02$0A@$02$02@2@$0A@@2@@internal@Eigen@@YAXAEAV?$Matrix@N$0?0$02$0A@$02$02@1@AEBV?$Product@V?$TriangularView@$$CBV?$Transpose@$$CBV?$Matrix@N$0?0$0?0$00$0?0$0?0@Eigen@@@Eigen@@$00@Eigen@@V?$Matrix@N$0?0$02$0A@$02$02@2@$0A@@1@@Z
	??$call_assignment@V?$Matrix@N$0?0$02$0A@$02$02@Eigen@@V?$Product@V?$TriangularView@$$CBV?$Transpose@$$CBV?$Matrix@N$0?0$0?0$00$0?0$0?0@Eigen@@@Eigen@@$00@Eigen@@V?$Matrix@N$0?0$02$0A@$02$02@2@$0A@@2@U?$assign_op@NN@internal@2@@internal@Eigen@@YAXAEAV?$Matrix@N$0?0$02$0A@$02$02@1@AEBV?$Product@V?$TriangularView@$$CBV?$Transpose@$$CBV?$Matrix@N$0?0$0?0$00$0?0$0?0@Eigen@@@Eigen@@$00@Eigen@@V?$Matrix@N$0?0$02$0A@$02$02@2@$0A@@1@AEBU?$assign_op@NN@01@PEAX@Z
	??$call_assignment@V?$Matrix@N$0?0$02$0A@$02$02@Eigen@@V?$Product@V?$TriangularView@V?$Matrix@N$0?0$0?0$00$0?0$0?0@Eigen@@$01@Eigen@@V?$Matrix@N$0?0$02$0A@$02$02@2@$0A@@2@@internal@Eigen@@YAXAEAV?$Matrix@N$0?0$02$0A@$02$02@1@AEBV?$Product@V?$TriangularView@V?$Matrix@N$0?0$0?0$00$0?0$0?0@Eigen@@$01@Eigen@@V?$Matrix@N$0?0$02$0A@$02$02@2@$0A@@1@@Z
	??$call_assignment@V?$Matrix@N$0?0$02$0A@$02$02@Eigen@@V?$Product@V?$TriangularView@V?$Matrix@N$0?0$0?0$00$0?0$0?0@Eigen@@$01@Eigen@@V?$Matrix@N$0?0$02$0A@$02$02@2@$0A@@2@U?$assign_op@NN@internal@2@@internal@Eigen@@YAXAEAV?$Matrix@N$0?0$02$0A@$02$02@1@AEBV?$Product@V?$TriangularView@V?$Matrix@N$0?0$0?0$00$0?0$0?0@Eigen@@$01@Eigen@@V?$Matrix@N$0?0$02$0A@$02$02@2@$0A@@1@AEBU?$assign_op@NN@01@PEAX@Z
	??$call_assignment@V?$Matrix@N$0?0$0?0$0A@$02$02@Eigen@@V?$Product@V?$TriangularView@$$CBV?$Transpose@$$CBV?$Matrix@N$0?0$0?0$00$0?0$0?0@Eigen@@@Eigen@@$00@Eigen@@V?$Matrix@N$0?0$0?0$0A@$02$02@2@$0A@@2@@internal@Eigen@@YAXAEAV?$Matrix@N$0?0$0?0$0A@$02$02@1@AEBV?$Product@V?$TriangularView@$$CBV?$Transpose@$$CBV?$Matrix@N$0?0$0?0$00$0?0$0?0@Eigen@@@Eigen@@$00@Eigen@@V?$Matrix@N$0?0$0?0$0A@$02$02@2@$0A@@1@@Z
	??$call_assignment@V?$Matrix@N$0?0$0?0$0A@$02$02@Eigen@@V?$Product@V?$TriangularView@$$CBV?$Transpose@$$CBV?$Matrix@N$0?0$0?0$00$0?0$0?0@Eigen@@@Eigen@@$00@Eigen@@V?$Matrix@N$0?0$0?0$0A@$02$02@2@$0A@@2@U?$assign_op@NN@internal@2@@internal@Eigen@@YAXAEAV?$Matrix@N$0?0$0?0$0A@$02$02@1@AEBV?$Product@V?$TriangularView@$$CBV?$Transpose@$$CBV?$Matrix@N$0?0$0?0$00$0?0$0?0@Eigen@@@Eigen@@$00@Eigen@@V?$Matrix@N$0?0$0?0$0A@$02$02@2@$0A@@1@AEBU?$assign_op@NN@01@PEAX@Z
	??$call_assignment@V?$Matrix@N$0?0$0?0$0A@$02$02@Eigen@@V?$Product@V?$TriangularView@V?$Matrix@N$0?0$0?0$00$0?0$0?0@Eigen@@$01@Eigen@@V?$Matrix@N$0?0$0?0$0A@$02$02@2@$0A@@2@@internal@Eigen@@YAXAEAV?$Matrix@N$0?0$0?0$0A@$02$02@1@AEBV?$Product@V?$TriangularView@V?$Matrix@N$0?0$0?0$00$0?0$0?0@Eigen@@$01@Eigen@@V?$Matrix@N$0?0$0?0$0A@$02$02@2@$0A@@1@@Z
	??$call_assignment@V?$Matrix@N$0?0$0?0$0A@$02$02@Eigen@@V?$Product@V?$TriangularView@V?$Matrix@N$0?0$0?0$00$0?0$0?0@Eigen@@$01@Eigen@@V?$Matrix@N$0?0$0?0$0A@$02$02@2@$0A@@2@U?$assign_op@NN@internal@2@@internal@Eigen@@YAXAEAV?$Matrix@N$0?0$0?0$0A@$02$02@1@AEBV?$Product@V?$TriangularView@V?$Matrix@N$0?0$0?0$00$0?0$0?0@Eigen@@$01@Eigen@@V?$Matrix@N$0?0$0?0$0A@$02$02@2@$0A@@1@AEBU?$assign_op@NN@01@PEAX@Z
	??$call_assignment@V?$Matrix@N$0?0$0?0$0A@$0?0$0?0@Eigen@@V?$CwiseBinaryOp@U?$scalar_quotient_op@NN@internal@Eigen@@$$CBV?$Block@$$CBV?$Matrix@N$02$03$0A@$02$03@Eigen@@$0?0$0?0$0A@@3@$$CBV?$CwiseNullaryOp@U?$scalar_constant_op@N@internal@Eigen@@$$CBV?$Matrix@N$0?0$0?0$0A@$02$03@3@@3@@2@@internal@Eigen@@YAXAEAV?$Matrix@N$0?0$0?0$0A@$0?0$0?0@1@AEBV?$CwiseBinaryOp@U?$scalar_quotient_op@NN@internal@Eigen@@$$CBV?$Block@$$CBV?$Matrix@N$02$03$0A@$02$03@Eigen@@$0?0$0?0$0A@@3@$$CBV?$CwiseNullaryOp@U?$scalar_constant_op@N@internal@Eigen@@$$CBV?$Matrix@N$0?0$0?0$0A@$02$03@3@@3@@1@@Z
	??$call_assignment@V?$Matrix@N$0?0$0?0$0A@$0?0$0?0@Eigen@@V?$CwiseBinaryOp@U?$scalar_quotient_op@NN@internal@Eigen@@$$CBV?$Block@$$CBV?$Matrix@N$02$03$0A@$02$03@Eigen@@$0?0$0?0$0A@@3@$$CBV?$CwiseNullaryOp@U?$scalar_constant_op@N@internal@Eigen@@$$CBV?$Matrix@N$0?0$0?0$0A@$02$03@3@@3@@2@U?$assign_op@NN@internal@2@@internal@Eigen@@YAXAEAV?$Matrix@N$0?0$0?0$0A@$0?0$0?0@1@AEBV?$CwiseBinaryOp@U?$scalar_quotient_op@NN@internal@Eigen@@$$CBV?$Block@$$CBV?$Matrix@N$02$03$0A@$02$03@Eigen@@$0?0$0?0$0A@@3@$$CBV?$CwiseNullaryOp@U?$scalar_constant_op@N@internal@Eigen@@$$CBV?$Matrix@N$0?0$0?0$0A@$02$03@3@@3@@1@AEBU?$assign_op@NN@01@PEAX@Z
	??$call_assignment@V?$Matrix@N$0?0$0?0$0A@$0?0$0?0@Eigen@@V?$CwiseBinaryOp@U?$scalar_quotient_op@NN@internal@Eigen@@$$CBV?$Block@$$CBV?$Matrix@N$0?0$0?0$0A@$0?0$0?0@Eigen@@$0?0$0?0$0A@@3@$$CBV?$CwiseNullaryOp@U?$scalar_constant_op@N@internal@Eigen@@$$CBV?$Matrix@N$0?0$0?0$0A@$0?0$0?0@3@@3@@2@@internal@Eigen@@YAXAEAV?$Matrix@N$0?0$0?0$0A@$0?0$0?0@1@AEBV?$CwiseBinaryOp@U?$scalar_quotient_op@NN@internal@Eigen@@$$CBV?$Block@$$CBV?$Matrix@N$0?0$0?0$0A@$0?0$0?0@Eigen@@$0?0$0?0$0A@@3@$$CBV?$CwiseNullaryOp@U?$scalar_constant_op@N@internal@Eigen@@$$CBV?$Matrix@N$0?0$0?0$0A@$0?0$0?0@3@@3@@1@@Z
	??$call_assignment@V?$Matrix@N$0?0$0?0$0A@$0?0$0?0@Eigen@@V?$CwiseBinaryOp@U?$scalar_quotient_op@NN@internal@Eigen@@$$CBV?$Block@$$CBV?$Matrix@N$0?0$0?0$0A@$0?0$0?0@Eigen@@$0?0$0?0$0A@@3@$$CBV?$CwiseNullaryOp@U?$scalar_constant_op@N@internal@Eigen@@$$CBV?$Matrix@N$0?0$0?0$0A@$0?0$0?0@3@@3@@2@U?$assign_op@NN@internal@2@@internal@Eigen@@YAXAEAV?$Matrix@N$0?0$0?0$0A@$0?0$0?0@1@AEBV?$CwiseBinaryOp@U?$scalar_quotient_op@NN@internal@Eigen@@$$CBV?$Block@$$CBV?$Matrix@N$0?0$0?0$0A@$0?0$0?0@Eigen@@$0?0$0?0$0A@@3@$$CBV?$CwiseNullaryOp@U?$scalar_constant_op@N@internal@Eigen@@$$CBV?$Matrix@N$0?0$0?0$0A@$0?0$0?0@3@@3@@1@AEBU?$assign_op@NN@01@PEAX@Z
	??$call_assignment@V?$Matrix@N$0?0$0?0$0A@$0?0$0?0@Eigen@@V?$CwiseBinaryOp@U?$scalar_quotient_op@NN@internal@Eigen@@$$CBV?$Matrix@N$02$03$0A@$02$03@3@$$CBV?$CwiseNullaryOp@U?$scalar_constant_op@N@internal@Eigen@@$$CBV?$Matrix@N$02$03$0A@$02$03@3@@3@@2@@internal@Eigen@@YAXAEAV?$Matrix@N$0?0$0?0$0A@$0?0$0?0@1@AEBV?$CwiseBinaryOp@U?$scalar_quotient_op@NN@internal@Eigen@@$$CBV?$Matrix@N$02$03$0A@$02$03@3@$$CBV?$CwiseNullaryOp@U?$scalar_constant_op@N@internal@Eigen@@$$CBV?$Matrix@N$02$03$0A@$02$03@3@@3@@1@@Z
	??$call_assignment@V?$Matrix@N$0?0$0?0$0A@$0?0$0?0@Eigen@@V?$CwiseBinaryOp@U?$scalar_quotient_op@NN@internal@Eigen@@$$CBV?$Matrix@N$02$03$0A@$02$03@3@$$CBV?$CwiseNullaryOp@U?$scalar_constant_op@N@internal@Eigen@@$$CBV?$Matrix@N$02$03$0A@$02$03@3@@3@@2@U?$assign_op@NN@internal@2@@internal@Eigen@@YAXAEAV?$Matrix@N$0?0$0?0$0A@$0?0$0?0@1@AEBV?$CwiseBinaryOp@U?$scalar_quotient_op@NN@internal@Eigen@@$$CBV?$Matrix@N$02$03$0A@$02$03@3@$$CBV?$CwiseNullaryOp@U?$scalar_constant_op@N@internal@Eigen@@$$CBV?$Matrix@N$02$03$0A@$02$03@3@@3@@1@AEBU?$assign_op@NN@01@PEAX@Z
	??$call_assignment@V?$Matrix@N$0?0$0?0$0A@$0?0$0?0@Eigen@@V?$CwiseBinaryOp@U?$scalar_quotient_op@NN@internal@Eigen@@$$CBV?$Matrix@N$0?0$0?0$0A@$0?0$0?0@3@$$CBV?$CwiseNullaryOp@U?$scalar_constant_op@N@internal@Eigen@@$$CBV?$Matrix@N$0?0$0?0$0A@$0?0$0?0@3@@3@@2@@internal@Eigen@@YAXAEAV?$Matrix@N$0?0$0?0$0A@$0?0$0?0@1@AEBV?$CwiseBinaryOp@U?$scalar_quotient_op@NN@internal@Eigen@@$$CBV?$Matrix@N$0?0$0?0$0A@$0?0$0?0@3@$$CBV?$CwiseNullaryOp@U?$scalar_constant_op@N@internal@Eigen@@$$CBV?$Matrix@N$0?0$0?0$0A@$0?0$0?0@3@@3@@1@@Z
	??$call_assignment@V?$Matrix@N$0?0$0?0$0A@$0?0$0?0@Eigen@@V?$CwiseBinaryOp@U?$scalar_quotient_op@NN@internal@Eigen@@$$CBV?$Matrix@N$0?0$0?0$0A@$0?0$0?0@3@$$CBV?$CwiseNullaryOp@U?$scalar_constant_op@N@internal@Eigen@@$$CBV?$Matrix@N$0?0$0?0$0A@$0?0$0?0@3@@3@@2@U?$assign_op@NN@internal@2@@internal@Eigen@@YAXAEAV?$Matrix@N$0?0$0?0$0A@$0?0$0?0@1@AEBV?$CwiseBinaryOp@U?$scalar_quotient_op@NN@internal@Eigen@@$$CBV?$Matrix@N$0?0$0?0$0A@$0?0$0?0@3@$$CBV?$CwiseNullaryOp@U?$scalar_constant_op@N@internal@Eigen@@$$CBV?$Matrix@N$0?0$0?0$0A@$0?0$0?0@3@@3@@1@AEBU?$assign_op@NN@01@PEAX@Z
	??$call_assignment@V?$Matrix@N$0?0$0?0$0A@$0?0$0?0@Eigen@@V?$CwiseNullaryOp@U?$scalar_identity_op@N@internal@Eigen@@V?$Matrix@N$0?0$0?0$0A@$0?0$0?0@3@@2@@internal@Eigen@@YAXAEAV?$Matrix@N$0?0$0?0$0A@$0?0$0?0@1@AEBV?$CwiseNullaryOp@U?$scalar_identity_op@N@internal@Eigen@@V?$Matrix@N$0?0$0?0$0A@$0?0$0?0@3@@1@@Z
	??$call_assignment@V?$Matrix@N$0?0$0?0$0A@$0?0$0?0@Eigen@@V?$CwiseNullaryOp@U?$scalar_identity_op@N@internal@Eigen@@V?$Matrix@N$0?0$0?0$0A@$0?0$0?0@3@@2@U?$assign_op@NN@internal@2@@internal@Eigen@@YAXAEAV?$Matrix@N$0?0$0?0$0A@$0?0$0?0@1@AEBV?$CwiseNullaryOp@U?$scalar_identity_op@N@internal@Eigen@@V?$Matrix@N$0?0$0?0$0A@$0?0$0?0@3@@1@AEBU?$assign_op@NN@01@PEAX@Z
	??$call_assignment@V?$Matrix@N$0?0$0?0$0A@$0?0$0?0@Eigen@@V?$PermutationMatrix@$0?0$0?0H@2@@internal@Eigen@@YAXAEAV?$Matrix@N$0?0$0?0$0A@$0?0$0?0@1@AEBV?$PermutationMatrix@$0?0$0?0H@1@@Z
	??$call_assignment@V?$Matrix@N$0?0$0?0$0A@$0?0$0?0@Eigen@@V?$PermutationMatrix@$0?0$0?0H@2@U?$assign_op@NX@internal@2@@internal@Eigen@@YAXAEAV?$Matrix@N$0?0$0?0$0A@$0?0$0?0@1@AEBV?$PermutationMatrix@$0?0$0?0H@1@AEBU?$assign_op@NX@01@PEAX@Z
	??$call_assignment@V?$Matrix@N$0?0$0?0$0A@$0?0$0?0@Eigen@@V?$Product@V?$TriangularView@$$CBV?$Transpose@$$CBV?$Matrix@N$0?0$0?0$00$0?0$0?0@Eigen@@@Eigen@@$00@Eigen@@V?$Matrix@N$0?0$0?0$0A@$0?0$0?0@2@$0A@@2@@internal@Eigen@@YAXAEAV?$Matrix@N$0?0$0?0$0A@$0?0$0?0@1@AEBV?$Product@V?$TriangularView@$$CBV?$Transpose@$$CBV?$Matrix@N$0?0$0?0$00$0?0$0?0@Eigen@@@Eigen@@$00@Eigen@@V?$Matrix@N$0?0$0?0$0A@$0?0$0?0@2@$0A@@1@@Z
	??$call_assignment@V?$Matrix@N$0?0$0?0$0A@$0?0$0?0@Eigen@@V?$Product@V?$TriangularView@$$CBV?$Transpose@$$CBV?$Matrix@N$0?0$0?0$00$0?0$0?0@Eigen@@@Eigen@@$00@Eigen@@V?$Matrix@N$0?0$0?0$0A@$0?0$0?0@2@$0A@@2@U?$assign_op@NN@internal@2@@internal@Eigen@@YAXAEAV?$Matrix@N$0?0$0?0$0A@$0?0$0?0@1@AEBV?$Product@V?$TriangularView@$$CBV?$Transpose@$$CBV?$Matrix@N$0?0$0?0$00$0?0$0?0@Eigen@@@Eigen@@$00@Eigen@@V?$Matrix@N$0?0$0?0$0A@$0?0$0?0@2@$0A@@1@AEBU?$assign_op@NN@01@PEAX@Z
	??$call_assignment@V?$Matrix@N$0?0$0?0$0A@$0?0$0?0@Eigen@@V?$Product@V?$TriangularView@V?$Matrix@N$0?0$0?0$00$0?0$0?0@Eigen@@$01@Eigen@@V?$Matrix@N$0?0$0?0$0A@$0?0$0?0@2@$0A@@2@@internal@Eigen@@YAXAEAV?$Matrix@N$0?0$0?0$0A@$0?0$0?0@1@AEBV?$Product@V?$TriangularView@V?$Matrix@N$0?0$0?0$00$0?0$0?0@Eigen@@$01@Eigen@@V?$Matrix@N$0?0$0?0$0A@$0?0$0?0@2@$0A@@1@@Z
	??$call_assignment@V?$Matrix@N$0?0$0?0$0A@$0?0$0?0@Eigen@@V?$Product@V?$TriangularView@V?$Matrix@N$0?0$0?0$00$0?0$0?0@Eigen@@$01@Eigen@@V?$Matrix@N$0?0$0?0$0A@$0?0$0?0@2@$0A@@2@U?$assign_op@NN@internal@2@@internal@Eigen@@YAXAEAV?$Matrix@N$0?0$0?0$0A@$0?0$0?0@1@AEBV?$Product@V?$TriangularView@V?$Matrix@N$0?0$0?0$00$0?0$0?0@Eigen@@$01@Eigen@@V?$Matrix@N$0?0$0?0$0A@$0?0$0?0@2@$0A@@1@AEBU?$assign_op@NN@01@PEAX@Z
	??$call_assignment@V?$Matrix@N$0?0$0?0$0A@$0?0$0?0@Eigen@@V?$Transpose@$$CBV?$CwiseBinaryOp@U?$scalar_quotient_op@NN@internal@Eigen@@$$CBV?$Matrix@N$02$03$0A@$02$03@3@$$CBV?$CwiseNullaryOp@U?$scalar_constant_op@N@internal@Eigen@@$$CBV?$Matrix@N$02$03$0A@$02$03@3@@3@@Eigen@@@2@@internal@Eigen@@YAXAEAV?$Matrix@N$0?0$0?0$0A@$0?0$0?0@1@AEBV?$Transpose@$$CBV?$CwiseBinaryOp@U?$scalar_quotient_op@NN@internal@Eigen@@$$CBV?$Matrix@N$02$03$0A@$02$03@3@$$CBV?$CwiseNullaryOp@U?$scalar_constant_op@N@internal@Eigen@@$$CBV?$Matrix@N$02$03$0A@$02$03@3@@3@@Eigen@@@1@@Z
	??$call_assignment@V?$Matrix@N$0?0$0?0$0A@$0?0$0?0@Eigen@@V?$Transpose@$$CBV?$CwiseBinaryOp@U?$scalar_quotient_op@NN@internal@Eigen@@$$CBV?$Matrix@N$02$03$0A@$02$03@3@$$CBV?$CwiseNullaryOp@U?$scalar_constant_op@N@internal@Eigen@@$$CBV?$Matrix@N$02$03$0A@$02$03@3@@3@@Eigen@@@2@U?$assign_op@NN@internal@2@@internal@Eigen@@YAXAEAV?$Matrix@N$0?0$0?0$0A@$0?0$0?0@1@AEBV?$Transpose@$$CBV?$CwiseBinaryOp@U?$scalar_quotient_op@NN@internal@Eigen@@$$CBV?$Matrix@N$02$03$0A@$02$03@3@$$CBV?$CwiseNullaryOp@U?$scalar_constant_op@N@internal@Eigen@@$$CBV?$Matrix@N$02$03$0A@$02$03@3@@3@@Eigen@@@1@AEBU?$assign_op@NN@01@PEAX@Z
	??$call_assignment@V?$Matrix@N$0?0$0?0$0A@$0?0$0?0@Eigen@@V?$Transpose@$$CBV?$CwiseBinaryOp@U?$scalar_quotient_op@NN@internal@Eigen@@$$CBV?$Matrix@N$0?0$0?0$0A@$0?0$0?0@3@$$CBV?$CwiseNullaryOp@U?$scalar_constant_op@N@internal@Eigen@@$$CBV?$Matrix@N$0?0$0?0$0A@$0?0$0?0@3@@3@@Eigen@@@2@@internal@Eigen@@YAXAEAV?$Matrix@N$0?0$0?0$0A@$0?0$0?0@1@AEBV?$Transpose@$$CBV?$CwiseBinaryOp@U?$scalar_quotient_op@NN@internal@Eigen@@$$CBV?$Matrix@N$0?0$0?0$0A@$0?0$0?0@3@$$CBV?$CwiseNullaryOp@U?$scalar_constant_op@N@internal@Eigen@@$$CBV?$Matrix@N$0?0$0?0$0A@$0?0$0?0@3@@3@@Eigen@@@1@@Z
	??$call_assignment@V?$Matrix@N$0?0$0?0$0A@$0?0$0?0@Eigen@@V?$Transpose@$$CBV?$CwiseBinaryOp@U?$scalar_quotient_op@NN@internal@Eigen@@$$CBV?$Matrix@N$0?0$0?0$0A@$0?0$0?0@3@$$CBV?$CwiseNullaryOp@U?$scalar_constant_op@N@internal@Eigen@@$$CBV?$Matrix@N$0?0$0?0$0A@$0?0$0?0@3@@3@@Eigen@@@2@U?$assign_op@NN@internal@2@@internal@Eigen@@YAXAEAV?$Matrix@N$0?0$0?0$0A@$0?0$0?0@1@AEBV?$Transpose@$$CBV?$CwiseBinaryOp@U?$scalar_quotient_op@NN@internal@Eigen@@$$CBV?$Matrix@N$0?0$0?0$0A@$0?0$0?0@3@$$CBV?$CwiseNullaryOp@U?$scalar_constant_op@N@internal@Eigen@@$$CBV?$Matrix@N$0?0$0?0$0A@$0?0$0?0@3@@3@@Eigen@@@1@AEBU?$assign_op@NN@01@PEAX@Z
	??$call_assignment@V?$Matrix@N$0?0$0?0$0A@$0?0$0?0@Eigen@@V?$TriangularView@$$CBV?$Block@$$CBV?$Matrix@N$0?0$0?0$0A@$0?0$0?0@Eigen@@$0?0$0?0$0A@@Eigen@@$01@2@@internal@Eigen@@YAXAEAV?$Matrix@N$0?0$0?0$0A@$0?0$0?0@1@AEBV?$TriangularView@$$CBV?$Block@$$CBV?$Matrix@N$0?0$0?0$0A@$0?0$0?0@Eigen@@$0?0$0?0$0A@@Eigen@@$01@1@@Z
	??$call_assignment@V?$Matrix@N$0?0$0?0$0A@$0?0$0?0@Eigen@@V?$TriangularView@$$CBV?$Block@$$CBV?$Matrix@N$0?0$0?0$0A@$0?0$0?0@Eigen@@$0?0$0?0$0A@@Eigen@@$01@2@U?$assign_op@NN@internal@2@@internal@Eigen@@YAXAEAV?$Matrix@N$0?0$0?0$0A@$0?0$0?0@1@AEBV?$TriangularView@$$CBV?$Block@$$CBV?$Matrix@N$0?0$0?0$0A@$0?0$0?0@Eigen@@$0?0$0?0$0A@@Eigen@@$01@1@AEBU?$assign_op@NN@01@PEAX@Z
	??$call_assignment@V?$Matrix@N$0?0$0?0$0A@$0?0$0?0@Eigen@@V?$TriangularView@$$CBV?$Transpose@$$CBV?$Block@$$CBV?$Matrix@N$0?0$0?0$0A@$0?0$0?0@Eigen@@$0?0$0?0$0A@@Eigen@@@Eigen@@$00@2@@internal@Eigen@@YAXAEAV?$Matrix@N$0?0$0?0$0A@$0?0$0?0@1@AEBV?$TriangularView@$$CBV?$Transpose@$$CBV?$Block@$$CBV?$Matrix@N$0?0$0?0$0A@$0?0$0?0@Eigen@@$0?0$0?0$0A@@Eigen@@@Eigen@@$00@1@@Z
	??$call_assignment@V?$Matrix@N$0?0$0?0$0A@$0?0$0?0@Eigen@@V?$TriangularView@$$CBV?$Transpose@$$CBV?$Block@$$CBV?$Matrix@N$0?0$0?0$0A@$0?0$0?0@Eigen@@$0?0$0?0$0A@@Eigen@@@Eigen@@$00@2@U?$assign_op@NN@internal@2@@internal@Eigen@@YAXAEAV?$Matrix@N$0?0$0?0$0A@$0?0$0?0@1@AEBV?$TriangularView@$$CBV?$Transpose@$$CBV?$Block@$$CBV?$Matrix@N$0?0$0?0$0A@$0?0$0?0@Eigen@@$0?0$0?0$0A@@Eigen@@@Eigen@@$00@1@AEBU?$assign_op@NN@01@PEAX@Z
	??$call_assignment@V?$Ref@V?$Matrix@N$0?0$0?0$0A@$0?0$0?0@Eigen@@$0A@V?$OuterStride@$0?0@2@@Eigen@@V12@@internal@Eigen@@YAXAEAV?$Ref@V?$Matrix@N$0?0$0?0$0A@$0?0$0?0@Eigen@@$0A@V?$OuterStride@$0?0@2@@1@AEBV21@@Z
	??$call_assignment@V?$Ref@V?$Matrix@N$0?0$0?0$0A@$0?0$0?0@Eigen@@$0A@V?$OuterStride@$0?0@2@@Eigen@@V12@U?$assign_op@NN@internal@2@@internal@Eigen@@YAXAEAV?$Ref@V?$Matrix@N$0?0$0?0$0A@$0?0$0?0@Eigen@@$0A@V?$OuterStride@$0?0@2@@1@AEBV21@AEBU?$assign_op@NN@01@PEAX@Z
	??$call_assignment@V?$Transpose@V?$Block@V?$Matrix@N$0?0$0?0$00$0?0$0?0@Eigen@@$00$0?0$00@Eigen@@@Eigen@@V?$CwiseBinaryOp@U?$scalar_product_op@NN@internal@Eigen@@$$CBV?$CwiseNullaryOp@U?$scalar_constant_op@N@internal@Eigen@@$$CBV?$Matrix@N$0?0$00$0A@$0?0$00@3@@3@$$CBV?$Map@V?$Matrix@N$0?0$00$0A@$0?0$00@Eigen@@$01V?$Stride@$0A@$0A@@2@@3@@2@U?$add_assign_op@NN@internal@2@@internal@Eigen@@YAXAEAV?$Transpose@V?$Block@V?$Matrix@N$0?0$0?0$00$0?0$0?0@Eigen@@$00$0?0$00@Eigen@@@1@AEBV?$CwiseBinaryOp@U?$scalar_product_op@NN@internal@Eigen@@$$CBV?$CwiseNullaryOp@U?$scalar_constant_op@N@internal@Eigen@@$$CBV?$Matrix@N$0?0$00$0A@$0?0$00@3@@3@$$CBV?$Map@V?$Matrix@N$0?0$00$0A@$0?0$00@Eigen@@$01V?$Stride@$0A@$0A@@2@@3@@1@AEBU?$add_assign_op@NN@01@PEAX@Z
	??$call_assignment@V?$Transpose@V?$Block@V?$Matrix@N$0?0$0?0$00$0?0$0?0@Eigen@@$00$0?0$00@Eigen@@@Eigen@@V?$Map@V?$Matrix@N$0?0$00$0A@$0?0$00@Eigen@@$01V?$Stride@$0A@$0A@@2@@2@@internal@Eigen@@YAXAEAV?$Transpose@V?$Block@V?$Matrix@N$0?0$0?0$00$0?0$0?0@Eigen@@$00$0?0$00@Eigen@@@1@AEBV?$Map@V?$Matrix@N$0?0$00$0A@$0?0$00@Eigen@@$01V?$Stride@$0A@$0A@@2@@1@@Z
	??$call_assignment@V?$Transpose@V?$Block@V?$Matrix@N$0?0$0?0$00$0?0$0?0@Eigen@@$00$0?0$00@Eigen@@@Eigen@@V?$Map@V?$Matrix@N$0?0$00$0A@$0?0$00@Eigen@@$01V?$Stride@$0A@$0A@@2@@2@U?$assign_op@NN@internal@2@@internal@Eigen@@YAXAEAV?$Transpose@V?$Block@V?$Matrix@N$0?0$0?0$00$0?0$0?0@Eigen@@$00$0?0$00@Eigen@@@1@AEBV?$Map@V?$Matrix@N$0?0$00$0A@$0?0$00@Eigen@@$01V?$Stride@$0A@$0A@@2@@1@AEBU?$assign_op@NN@01@PEAX@Z
	??$call_assignment@V?$Transpose@V?$Block@V?$Matrix@N$0?0$0?0$0A@$0?0$0?0@Eigen@@$00$0?0$0A@@Eigen@@@Eigen@@V?$CwiseBinaryOp@U?$scalar_product_op@NN@internal@Eigen@@$$CBV?$CwiseNullaryOp@U?$scalar_constant_op@N@internal@Eigen@@$$CBV?$Matrix@N$0?0$00$0A@$0?0$00@3@@3@$$CBV?$Map@V?$Matrix@N$0?0$00$0A@$0?0$00@Eigen@@$01V?$Stride@$0A@$0A@@2@@3@@2@U?$add_assign_op@NN@internal@2@@internal@Eigen@@YAXAEAV?$Transpose@V?$Block@V?$Matrix@N$0?0$0?0$0A@$0?0$0?0@Eigen@@$00$0?0$0A@@Eigen@@@1@AEBV?$CwiseBinaryOp@U?$scalar_product_op@NN@internal@Eigen@@$$CBV?$CwiseNullaryOp@U?$scalar_constant_op@N@internal@Eigen@@$$CBV?$Matrix@N$0?0$00$0A@$0?0$00@3@@3@$$CBV?$Map@V?$Matrix@N$0?0$00$0A@$0?0$00@Eigen@@$01V?$Stride@$0A@$0A@@2@@3@@1@AEBU?$add_assign_op@NN@01@PEAX@Z
	??$call_assignment@V?$Transpose@V?$Block@V?$Matrix@N$0?0$0?0$0A@$0?0$0?0@Eigen@@$00$0?0$0A@@Eigen@@@Eigen@@V?$Map@V?$Matrix@N$0?0$00$0A@$0?0$00@Eigen@@$01V?$Stride@$0A@$0A@@2@@2@@internal@Eigen@@YAXAEAV?$Transpose@V?$Block@V?$Matrix@N$0?0$0?0$0A@$0?0$0?0@Eigen@@$00$0?0$0A@@Eigen@@@1@AEBV?$Map@V?$Matrix@N$0?0$00$0A@$0?0$00@Eigen@@$01V?$Stride@$0A@$0A@@2@@1@@Z
	??$call_assignment@V?$Transpose@V?$Block@V?$Matrix@N$0?0$0?0$0A@$0?0$0?0@Eigen@@$00$0?0$0A@@Eigen@@@Eigen@@V?$Map@V?$Matrix@N$0?0$00$0A@$0?0$00@Eigen@@$01V?$Stride@$0A@$0A@@2@@2@U?$assign_op@NN@internal@2@@internal@Eigen@@YAXAEAV?$Transpose@V?$Block@V?$Matrix@N$0?0$0?0$0A@$0?0$0?0@Eigen@@$00$0?0$0A@@Eigen@@@1@AEBV?$Map@V?$Matrix@N$0?0$00$0A@$0?0$00@Eigen@@$01V?$Stride@$0A@$0A@@2@@1@AEBU?$assign_op@NN@01@PEAX@Z
	??$call_assignment@V?$TriangularView@V?$Matrix@N$02$02$0A@$02$02@Eigen@@$09@Eigen@@V?$TriangularView@V?$Transpose@V?$Matrix@N$02$02$0A@$02$02@Eigen@@@Eigen@@$09@2@U?$swap_assign_op@N@internal@2@@internal@Eigen@@YAXAEAV?$TriangularView@V?$Matrix@N$02$02$0A@$02$02@Eigen@@$09@1@AEBV?$TriangularView@V?$Transpose@V?$Matrix@N$02$02$0A@$02$02@Eigen@@@Eigen@@$09@1@AEBU?$swap_assign_op@N@01@PEAX@Z
	??$call_assignment_no_alias@V?$Block@V?$Block@V?$Block@V?$Block@V?$Matrix@N$02$02$0A@$02$02@Eigen@@$0?0$0?0$0A@@Eigen@@$0?0$00$00@Eigen@@$0?0$00$0A@@Eigen@@$0?0$00$0A@@Eigen@@V?$CwiseBinaryOp@U?$scalar_quotient_op@NN@internal@Eigen@@$$CBV?$Block@$$CBV?$Block@V?$Block@V?$Block@V?$Matrix@N$02$02$0A@$02$02@Eigen@@$0?0$0?0$0A@@Eigen@@$0?0$00$00@Eigen@@$0?0$00$0A@@Eigen@@$0?0$00$0A@@3@$$CBV?$CwiseNullaryOp@U?$scalar_constant_op@N@internal@Eigen@@$$CBV?$Matrix@N$0?0$00$0A@$02$00@3@@3@@2@U?$assign_op@NN@internal@2@@internal@Eigen@@YAXAEAV?$Block@V?$Block@V?$Block@V?$Block@V?$Matrix@N$02$02$0A@$02$02@Eigen@@$0?0$0?0$0A@@Eigen@@$0?0$00$00@Eigen@@$0?0$00$0A@@Eigen@@$0?0$00$0A@@1@AEBV?$CwiseBinaryOp@U?$scalar_quotient_op@NN@internal@Eigen@@$$CBV?$Block@$$CBV?$Block@V?$Block@V?$Block@V?$Matrix@N$02$02$0A@$02$02@Eigen@@$0?0$0?0$0A@@Eigen@@$0?0$00$00@Eigen@@$0?0$00$0A@@Eigen@@$0?0$00$0A@@3@$$CBV?$CwiseNullaryOp@U?$scalar_constant_op@N@internal@Eigen@@$$CBV?$Matrix@N$0?0$00$0A@$02$00@3@@3@@1@AEBU?$assign_op@NN@01@@Z
	??$call_assignment_no_alias@V?$Block@V?$Block@V?$Block@V?$Matrix@N$02$02$0A@$02$02@Eigen@@$0?0$0?0$0A@@Eigen@@$0?0$0?0$0A@@Eigen@@$00$0?0$0A@@Eigen@@V?$CwiseBinaryOp@U?$scalar_product_op@NN@internal@Eigen@@$$CBV?$CwiseNullaryOp@U?$scalar_constant_op@N@internal@Eigen@@$$CBV?$Matrix@N$00$0?0$00$00$02@3@@3@$$CBV?$Map@V?$Matrix@N$00$0?0$00$00$02@Eigen@@$0A@V?$Stride@$0A@$0A@@2@@3@@2@U?$sub_assign_op@NN@internal@2@@internal@Eigen@@YAXAEAV?$Block@V?$Block@V?$Block@V?$Matrix@N$02$02$0A@$02$02@Eigen@@$0?0$0?0$0A@@Eigen@@$0?0$0?0$0A@@Eigen@@$00$0?0$0A@@1@AEBV?$CwiseBinaryOp@U?$scalar_product_op@NN@internal@Eigen@@$$CBV?$CwiseNullaryOp@U?$scalar_constant_op@N@internal@Eigen@@$$CBV?$Matrix@N$00$0?0$00$00$02@3@@3@$$CBV?$Map@V?$Matrix@N$00$0?0$00$00$02@Eigen@@$0A@V?$Stride@$0A@$0A@@2@@3@@1@AEBU?$sub_assign_op@NN@01@@Z
	??$call_assignment_no_alias@V?$Block@V?$Block@V?$Block@V?$Matrix@N$02$02$0A@$02$02@Eigen@@$0?0$0?0$0A@@Eigen@@$0?0$0?0$0A@@Eigen@@$0?0$0?0$0A@@Eigen@@V?$Product@V?$CwiseBinaryOp@U?$scalar_product_op@NN@internal@Eigen@@$$CBV?$CwiseNullaryOp@U?$scalar_constant_op@N@internal@Eigen@@$$CBV?$Matrix@N$0?0$00$0A@$02$00@3@@3@$$CBV?$Block@V?$Block@V?$Block@V?$Matrix@N$02$02$0A@$02$02@Eigen@@$0?0$0?0$0A@@Eigen@@$0?0$00$00@Eigen@@$0?0$00$0A@@3@@Eigen@@V?$Map@V?$Matrix@N$00$0?0$00$00$02@Eigen@@$0A@V?$Stride@$0A@$0A@@2@@2@$00@2@U?$sub_assign_op@NN@internal@2@@internal@Eigen@@YAXAEAV?$Block@V?$Block@V?$Block@V?$Matrix@N$02$02$0A@$02$02@Eigen@@$0?0$0?0$0A@@Eigen@@$0?0$0?0$0A@@Eigen@@$0?0$0?0$0A@@1@AEBV?$Product@V?$CwiseBinaryOp@U?$scalar_product_op@NN@internal@Eigen@@$$CBV?$CwiseNullaryOp@U?$scalar_constant_op@N@internal@Eigen@@$$CBV?$Matrix@N$0?0$00$0A@$02$00@3@@3@$$CBV?$Block@V?$Block@V?$Block@V?$Matrix@N$02$02$0A@$02$02@Eigen@@$0?0$0?0$0A@@Eigen@@$0?0$00$00@Eigen@@$0?0$00$0A@@3@@Eigen@@V?$Map@V?$Matrix@N$00$0?0$00$00$02@Eigen@@$0A@V?$Stride@$0A@$0A@@2@@2@$00@1@AEBU?$sub_assign_op@NN@01@@Z
	??$call_assignment_no_alias@V?$Block@V?$Block@V?$Block@V?$Matrix@N$02$02$0A@$02$02@Eigen@@$0?0$0?0$0A@@Eigen@@$0?0$0?0$0A@@Eigen@@$0?0$0?0$0A@@Eigen@@V?$Product@V?$CwiseBinaryOp@U?$scalar_product_op@NN@internal@Eigen@@$$CBV?$CwiseNullaryOp@U?$scalar_constant_op@N@internal@Eigen@@$$CBV?$Matrix@N$0?0$00$0A@$02$00@3@@3@$$CBV?$Block@V?$Block@V?$Block@V?$Matrix@N$02$02$0A@$02$02@Eigen@@$0?0$0?0$0A@@Eigen@@$0?0$00$00@Eigen@@$0?0$00$0A@@3@@Eigen@@V?$Map@V?$Matrix@N$00$0?0$00$00$02@Eigen@@$0A@V?$Stride@$0A@$0A@@2@@2@$0A@@2@U?$sub_assign_op@NN@internal@2@@internal@Eigen@@YAXAEAV?$Block@V?$Block@V?$Block@V?$Matrix@N$02$02$0A@$02$02@Eigen@@$0?0$0?0$0A@@Eigen@@$0?0$0?0$0A@@Eigen@@$0?0$0?0$0A@@1@AEBV?$Product@V?$CwiseBinaryOp@U?$scalar_product_op@NN@internal@Eigen@@$$CBV?$CwiseNullaryOp@U?$scalar_constant_op@N@internal@Eigen@@$$CBV?$Matrix@N$0?0$00$0A@$02$00@3@@3@$$CBV?$Block@V?$Block@V?$Block@V?$Matrix@N$02$02$0A@$02$02@Eigen@@$0?0$0?0$0A@@Eigen@@$0?0$00$00@Eigen@@$0?0$00$0A@@3@@Eigen@@V?$Map@V?$Matrix@N$00$0?0$00$00$02@Eigen@@$0A@V?$Stride@$0A@$0A@@2@@2@$0A@@1@AEBU?$sub_assign_op@NN@01@@Z
	??$call_assignment_no_alias@V?$Block@V?$Block@V?$Block@V?$Matrix@N$0?0$0?0$0A@$0?0$0?0@Eigen@@$0?0$00$00@Eigen@@$0?0$00$0A@@Eigen@@$0?0$00$0A@@Eigen@@V?$CwiseBinaryOp@U?$scalar_quotient_op@NN@internal@Eigen@@$$CBV?$Block@$$CBV?$Block@V?$Block@V?$Matrix@N$0?0$0?0$0A@$0?0$0?0@Eigen@@$0?0$00$00@Eigen@@$0?0$00$0A@@Eigen@@$0?0$00$0A@@3@$$CBV?$CwiseNullaryOp@U?$scalar_constant_op@N@internal@Eigen@@$$CBV?$Matrix@N$0?0$00$0A@$0?0$00@3@@3@@2@U?$assign_op@NN@internal@2@@internal@Eigen@@YAXAEAV?$Block@V?$Block@V?$Block@V?$Matrix@N$0?0$0?0$0A@$0?0$0?0@Eigen@@$0?0$00$00@Eigen@@$0?0$00$0A@@Eigen@@$0?0$00$0A@@1@AEBV?$CwiseBinaryOp@U?$scalar_quotient_op@NN@internal@Eigen@@$$CBV?$Block@$$CBV?$Block@V?$Block@V?$Matrix@N$0?0$0?0$0A@$0?0$0?0@Eigen@@$0?0$00$00@Eigen@@$0?0$00$0A@@Eigen@@$0?0$00$0A@@3@$$CBV?$CwiseNullaryOp@U?$scalar_constant_op@N@internal@Eigen@@$$CBV?$Matrix@N$0?0$00$0A@$0?0$00@3@@3@@1@AEBU?$assign_op@NN@01@@Z
	??$call_assignment_no_alias@V?$Block@V?$Block@V?$Block@V?$Matrix@N$0?0$0?0$0A@$0?0$0?0@Eigen@@$0?0$0?0$0A@@Eigen@@$0?0$0?0$0A@@Eigen@@$0?0$00$00@Eigen@@V?$CwiseBinaryOp@U?$scalar_product_op@NN@internal@Eigen@@$$CBV?$CwiseNullaryOp@U?$scalar_constant_op@N@internal@Eigen@@$$CBV?$Matrix@N$0?0$00$0A@$0?0$00@3@@3@$$CBV?$Map@V?$Matrix@N$0?0$00$0A@$0?0$00@Eigen@@$0BA@V?$Stride@$0A@$0A@@2@@3@@2@U?$sub_assign_op@NN@internal@2@@internal@Eigen@@YAXAEAV?$Block@V?$Block@V?$Block@V?$Matrix@N$0?0$0?0$0A@$0?0$0?0@Eigen@@$0?0$0?0$0A@@Eigen@@$0?0$0?0$0A@@Eigen@@$0?0$00$00@1@AEBV?$CwiseBinaryOp@U?$scalar_product_op@NN@internal@Eigen@@$$CBV?$CwiseNullaryOp@U?$scalar_constant_op@N@internal@Eigen@@$$CBV?$Matrix@N$0?0$00$0A@$0?0$00@3@@3@$$CBV?$Map@V?$Matrix@N$0?0$00$0A@$0?0$00@Eigen@@$0BA@V?$Stride@$0A@$0A@@2@@3@@1@AEBU?$sub_assign_op@NN@01@@Z
	??$call_assignment_no_alias@V?$Block@V?$Block@V?$Matrix@N$02$02$0A@$02$02@Eigen@@$0?0$02$0A@@Eigen@@$00$02$0A@@Eigen@@V?$CwiseBinaryOp@U?$scalar_product_op@NN@internal@Eigen@@$$CBV?$CwiseNullaryOp@U?$scalar_constant_op@N@internal@Eigen@@$$CBV?$Matrix@N$00$02$00$00$02@3@@3@$$CBV?$Map@V?$Matrix@N$00$02$00$00$02@Eigen@@$0A@V?$Stride@$0A@$0A@@2@@3@@2@U?$sub_assign_op@NN@internal@2@@internal@Eigen@@YAXAEAV?$Block@V?$Block@V?$Matrix@N$02$02$0A@$02$02@Eigen@@$0?0$02$0A@@Eigen@@$00$02$0A@@1@AEBV?$CwiseBinaryOp@U?$scalar_product_op@NN@internal@Eigen@@$$CBV?$CwiseNullaryOp@U?$scalar_constant_op@N@internal@Eigen@@$$CBV?$Matrix@N$00$02$00$00$02@3@@3@$$CBV?$Map@V?$Matrix@N$00$02$00$00$02@Eigen@@$0A@V?$Stride@$0A@$0A@@2@@3@@1@AEBU?$sub_assign_op@NN@01@@Z
	??$call_assignment_no_alias@V?$Block@V?$Block@V?$Matrix@N$02$02$0A@$02$02@Eigen@@$0?0$02$0A@@Eigen@@$0?0$02$0A@@Eigen@@V?$Block@$$CBV?$CwiseBinaryOp@U?$scalar_product_op@NN@internal@Eigen@@$$CBV?$CwiseNullaryOp@U?$scalar_constant_op@N@internal@Eigen@@$$CBV?$Matrix@N$0?0$02$0A@$02$02@3@@3@$$CBV?$Matrix@N$0?0$02$0A@$02$02@3@@Eigen@@$0?0$02$0A@@2@U?$sub_assign_op@NN@internal@2@@internal@Eigen@@YAXAEAV?$Block@V?$Block@V?$Matrix@N$02$02$0A@$02$02@Eigen@@$0?0$02$0A@@Eigen@@$0?0$02$0A@@1@AEBV?$Block@$$CBV?$CwiseBinaryOp@U?$scalar_product_op@NN@internal@Eigen@@$$CBV?$CwiseNullaryOp@U?$scalar_constant_op@N@internal@Eigen@@$$CBV?$Matrix@N$0?0$02$0A@$02$02@3@@3@$$CBV?$Matrix@N$0?0$02$0A@$02$02@3@@Eigen@@$0?0$02$0A@@1@AEBU?$sub_assign_op@NN@01@@Z
	??$call_assignment_no_alias@V?$Block@V?$Block@V?$Matrix@N$02$02$0A@$02$02@Eigen@@$0?0$02$0A@@Eigen@@$0?0$02$0A@@Eigen@@V?$Product@V?$CwiseBinaryOp@U?$scalar_product_op@NN@internal@Eigen@@$$CBV?$CwiseNullaryOp@U?$scalar_constant_op@N@internal@Eigen@@$$CBV?$Matrix@N$0?0$00$0A@$02$00@3@@3@$$CBV?$Block@$$CBV?$Matrix@N$02$02$0A@$02$02@Eigen@@$0?0$00$0A@@3@@Eigen@@V?$Map@V?$Matrix@N$00$02$00$00$02@Eigen@@$0A@V?$Stride@$0A@$0A@@2@@2@$00@2@U?$sub_assign_op@NN@internal@2@@internal@Eigen@@YAXAEAV?$Block@V?$Block@V?$Matrix@N$02$02$0A@$02$02@Eigen@@$0?0$02$0A@@Eigen@@$0?0$02$0A@@1@AEBV?$Product@V?$CwiseBinaryOp@U?$scalar_product_op@NN@internal@Eigen@@$$CBV?$CwiseNullaryOp@U?$scalar_constant_op@N@internal@Eigen@@$$CBV?$Matrix@N$0?0$00$0A@$02$00@3@@3@$$CBV?$Block@$$CBV?$Matrix@N$02$02$0A@$02$02@Eigen@@$0?0$00$0A@@3@@Eigen@@V?$Map@V?$Matrix@N$00$02$00$00$02@Eigen@@$0A@V?$Stride@$0A@$0A@@2@@2@$00@1@AEBU?$sub_assign_op@NN@01@@Z
	??$call_assignment_no_alias@V?$Block@V?$Block@V?$Matrix@N$02$02$0A@$02$02@Eigen@@$0?0$02$0A@@Eigen@@$0?0$02$0A@@Eigen@@V?$Product@V?$CwiseBinaryOp@U?$scalar_product_op@NN@internal@Eigen@@$$CBV?$CwiseNullaryOp@U?$scalar_constant_op@N@internal@Eigen@@$$CBV?$Matrix@N$0?0$00$0A@$02$00@3@@3@$$CBV?$Block@$$CBV?$Matrix@N$02$02$0A@$02$02@Eigen@@$0?0$00$0A@@3@@Eigen@@V?$Map@V?$Matrix@N$00$02$00$00$02@Eigen@@$0A@V?$Stride@$0A@$0A@@2@@2@$0A@@2@U?$sub_assign_op@NN@internal@2@@internal@Eigen@@YAXAEAV?$Block@V?$Block@V?$Matrix@N$02$02$0A@$02$02@Eigen@@$0?0$02$0A@@Eigen@@$0?0$02$0A@@1@AEBV?$Product@V?$CwiseBinaryOp@U?$scalar_product_op@NN@internal@Eigen@@$$CBV?$CwiseNullaryOp@U?$scalar_constant_op@N@internal@Eigen@@$$CBV?$Matrix@N$0?0$00$0A@$02$00@3@@3@$$CBV?$Block@$$CBV?$Matrix@N$02$02$0A@$02$02@Eigen@@$0?0$00$0A@@3@@Eigen@@V?$Map@V?$Matrix@N$00$02$00$00$02@Eigen@@$0A@V?$Stride@$0A@$0A@@2@@2@$0A@@1@AEBU?$sub_assign_op@NN@01@@Z
	??$call_assignment_no_alias@V?$Block@V?$Block@V?$Matrix@N$02$02$0A@$02$02@Eigen@@$0?0$02$0A@@Eigen@@$0?0$0?0$00@Eigen@@V?$CwiseBinaryOp@U?$scalar_product_op@NN@internal@Eigen@@$$CBV?$CwiseNullaryOp@U?$scalar_constant_op@N@internal@Eigen@@$$CBV?$Matrix@N$0?0$0?0$0A@$02$02@3@@3@$$CBV?$Block@$$CBV?$Block@V?$Matrix@N$02$02$0A@$02$02@Eigen@@$0?0$0?0$0A@@Eigen@@$0?0$0?0$00@3@@2@U?$sub_assign_op@NN@internal@2@@internal@Eigen@@YAXAEAV?$Block@V?$Block@V?$Matrix@N$02$02$0A@$02$02@Eigen@@$0?0$02$0A@@Eigen@@$0?0$0?0$00@1@AEBV?$CwiseBinaryOp@U?$scalar_product_op@NN@internal@Eigen@@$$CBV?$CwiseNullaryOp@U?$scalar_constant_op@N@internal@Eigen@@$$CBV?$Matrix@N$0?0$0?0$0A@$02$02@3@@3@$$CBV?$Block@$$CBV?$Block@V?$Matrix@N$02$02$0A@$02$02@Eigen@@$0?0$0?0$0A@@Eigen@@$0?0$0?0$00@3@@1@AEBU?$sub_assign_op@NN@01@@Z
	??$call_assignment_no_alias@V?$Block@V?$Block@V?$Matrix@N$02$02$0A@$02$02@Eigen@@$0?0$0?0$0A@@Eigen@@$00$0?0$0A@@Eigen@@V?$CwiseBinaryOp@U?$scalar_product_op@NN@internal@Eigen@@$$CBV?$CwiseNullaryOp@U?$scalar_constant_op@N@internal@Eigen@@$$CBV?$Matrix@N$00$0?0$00$00$02@3@@3@$$CBV?$Map@V?$Matrix@N$00$0?0$00$00$02@Eigen@@$0A@V?$Stride@$0A@$0A@@2@@3@@2@U?$sub_assign_op@NN@internal@2@@internal@Eigen@@YAXAEAV?$Block@V?$Block@V?$Matrix@N$02$02$0A@$02$02@Eigen@@$0?0$0?0$0A@@Eigen@@$00$0?0$0A@@1@AEBV?$CwiseBinaryOp@U?$scalar_product_op@NN@internal@Eigen@@$$CBV?$CwiseNullaryOp@U?$scalar_constant_op@N@internal@Eigen@@$$CBV?$Matrix@N$00$0?0$00$00$02@3@@3@$$CBV?$Map@V?$Matrix@N$00$0?0$00$00$02@Eigen@@$0A@V?$Stride@$0A@$0A@@2@@3@@1@AEBU?$sub_assign_op@NN@01@@Z
	??$call_assignment_no_alias@V?$Block@V?$Block@V?$Matrix@N$02$02$0A@$02$02@Eigen@@$0?0$0?0$0A@@Eigen@@$0?0$00$00@Eigen@@V?$CwiseBinaryOp@U?$scalar_product_op@NN@internal@Eigen@@$$CBV?$CwiseNullaryOp@U?$scalar_constant_op@N@internal@Eigen@@$$CBV?$Matrix@N$0?0$00$0A@$02$00@3@@3@$$CBV?$Map@V?$Matrix@N$0?0$00$0A@$02$00@Eigen@@$0A@V?$Stride@$0A@$0A@@2@@3@@2@U?$sub_assign_op@NN@internal@2@@internal@Eigen@@YAXAEAV?$Block@V?$Block@V?$Matrix@N$02$02$0A@$02$02@Eigen@@$0?0$0?0$0A@@Eigen@@$0?0$00$00@1@AEBV?$CwiseBinaryOp@U?$scalar_product_op@NN@internal@Eigen@@$$CBV?$CwiseNullaryOp@U?$scalar_constant_op@N@internal@Eigen@@$$CBV?$Matrix@N$0?0$00$0A@$02$00@3@@3@$$CBV?$Map@V?$Matrix@N$0?0$00$0A@$02$00@Eigen@@$0A@V?$Stride@$0A@$0A@@2@@3@@1@AEBU?$sub_assign_op@NN@01@@Z
	??$call_assignment_no_alias@V?$Block@V?$Block@V?$Matrix@N$02$02$0A@$02$02@Eigen@@$0?0$0?0$0A@@Eigen@@$0?0$0?0$00@Eigen@@V?$CwiseBinaryOp@U?$scalar_product_op@NN@internal@Eigen@@$$CBV?$CwiseNullaryOp@U?$scalar_constant_op@N@internal@Eigen@@$$CBV?$Matrix@N$0?0$0?0$0A@$02$02@3@@3@$$CBV?$Block@$$CBV?$Block@V?$Matrix@N$02$02$0A@$02$02@Eigen@@$0?0$0?0$0A@@Eigen@@$0?0$0?0$00@3@@2@U?$sub_assign_op@NN@internal@2@@internal@Eigen@@YAXAEAV?$Block@V?$Block@V?$Matrix@N$02$02$0A@$02$02@Eigen@@$0?0$0?0$0A@@Eigen@@$0?0$0?0$00@1@AEBV?$CwiseBinaryOp@U?$scalar_product_op@NN@internal@Eigen@@$$CBV?$CwiseNullaryOp@U?$scalar_constant_op@N@internal@Eigen@@$$CBV?$Matrix@N$0?0$0?0$0A@$02$02@3@@3@$$CBV?$Block@$$CBV?$Block@V?$Matrix@N$02$02$0A@$02$02@Eigen@@$0?0$0?0$0A@@Eigen@@$0?0$0?0$00@3@@1@AEBU?$sub_assign_op@NN@01@@Z
	??$call_assignment_no_alias@V?$Block@V?$Block@V?$Matrix@N$02$02$0A@$02$02@Eigen@@$0?0$0?0$0A@@Eigen@@$0?0$0?0$0A@@Eigen@@V?$Block@$$CBV?$CwiseBinaryOp@U?$scalar_product_op@NN@internal@Eigen@@$$CBV?$CwiseNullaryOp@U?$scalar_constant_op@N@internal@Eigen@@$$CBV?$Matrix@N$0?0$0?0$0A@$02$02@3@@3@$$CBV?$Matrix@N$0?0$0?0$0A@$02$02@3@@Eigen@@$0?0$0?0$0A@@2@U?$sub_assign_op@NN@internal@2@@internal@Eigen@@YAXAEAV?$Block@V?$Block@V?$Matrix@N$02$02$0A@$02$02@Eigen@@$0?0$0?0$0A@@Eigen@@$0?0$0?0$0A@@1@AEBV?$Block@$$CBV?$CwiseBinaryOp@U?$scalar_product_op@NN@internal@Eigen@@$$CBV?$CwiseNullaryOp@U?$scalar_constant_op@N@internal@Eigen@@$$CBV?$Matrix@N$0?0$0?0$0A@$02$02@3@@3@$$CBV?$Matrix@N$0?0$0?0$0A@$02$02@3@@Eigen@@$0?0$0?0$0A@@1@AEBU?$sub_assign_op@NN@01@@Z
	??$call_assignment_no_alias@V?$Block@V?$Block@V?$Matrix@N$02$02$0A@$02$02@Eigen@@$0?0$0?0$0A@@Eigen@@$0?0$0?0$0A@@Eigen@@V?$CwiseNullaryOp@U?$scalar_constant_op@N@internal@Eigen@@$$CBV?$Matrix@N$0?0$0?0$0A@$02$02@3@@2@U?$mul_assign_op@NN@internal@2@@internal@Eigen@@YAXAEAV?$Block@V?$Block@V?$Matrix@N$02$02$0A@$02$02@Eigen@@$0?0$0?0$0A@@Eigen@@$0?0$0?0$0A@@1@AEBV?$CwiseNullaryOp@U?$scalar_constant_op@N@internal@Eigen@@$$CBV?$Matrix@N$0?0$0?0$0A@$02$02@3@@1@AEBU?$mul_assign_op@NN@01@@Z
	??$call_assignment_no_alias@V?$Block@V?$Block@V?$Matrix@N$02$02$0A@$02$02@Eigen@@$0?0$0?0$0A@@Eigen@@$0?0$0?0$0A@@Eigen@@V?$Product@V?$CwiseBinaryOp@U?$scalar_product_op@NN@internal@Eigen@@$$CBV?$CwiseNullaryOp@U?$scalar_constant_op@N@internal@Eigen@@$$CBV?$Matrix@N$0?0$00$0A@$02$00@3@@3@$$CBV?$Block@$$CBV?$Matrix@N$02$02$0A@$02$02@Eigen@@$0?0$00$0A@@3@@Eigen@@V?$Map@V?$Matrix@N$00$0?0$00$00$02@Eigen@@$0A@V?$Stride@$0A@$0A@@2@@2@$00@2@U?$sub_assign_op@NN@internal@2@@internal@Eigen@@YAXAEAV?$Block@V?$Block@V?$Matrix@N$02$02$0A@$02$02@Eigen@@$0?0$0?0$0A@@Eigen@@$0?0$0?0$0A@@1@AEBV?$Product@V?$CwiseBinaryOp@U?$scalar_product_op@NN@internal@Eigen@@$$CBV?$CwiseNullaryOp@U?$scalar_constant_op@N@internal@Eigen@@$$CBV?$Matrix@N$0?0$00$0A@$02$00@3@@3@$$CBV?$Block@$$CBV?$Matrix@N$02$02$0A@$02$02@Eigen@@$0?0$00$0A@@3@@Eigen@@V?$Map@V?$Matrix@N$00$0?0$00$00$02@Eigen@@$0A@V?$Stride@$0A@$0A@@2@@2@$00@1@AEBU?$sub_assign_op@NN@01@@Z
	??$call_assignment_no_alias@V?$Block@V?$Block@V?$Matrix@N$02$02$0A@$02$02@Eigen@@$0?0$0?0$0A@@Eigen@@$0?0$0?0$0A@@Eigen@@V?$Product@V?$CwiseBinaryOp@U?$scalar_product_op@NN@internal@Eigen@@$$CBV?$CwiseNullaryOp@U?$scalar_constant_op@N@internal@Eigen@@$$CBV?$Matrix@N$0?0$00$0A@$02$00@3@@3@$$CBV?$Block@$$CBV?$Matrix@N$02$02$0A@$02$02@Eigen@@$0?0$00$0A@@3@@Eigen@@V?$Map@V?$Matrix@N$00$0?0$00$00$02@Eigen@@$0A@V?$Stride@$0A@$0A@@2@@2@$0A@@2@U?$sub_assign_op@NN@internal@2@@internal@Eigen@@YAXAEAV?$Block@V?$Block@V?$Matrix@N$02$02$0A@$02$02@Eigen@@$0?0$0?0$0A@@Eigen@@$0?0$0?0$0A@@1@AEBV?$Product@V?$CwiseBinaryOp@U?$scalar_product_op@NN@internal@Eigen@@$$CBV?$CwiseNullaryOp@U?$scalar_constant_op@N@internal@Eigen@@$$CBV?$Matrix@N$0?0$00$0A@$02$00@3@@3@$$CBV?$Block@$$CBV?$Matrix@N$02$02$0A@$02$02@Eigen@@$0?0$00$0A@@3@@Eigen@@V?$Map@V?$Matrix@N$00$0?0$00$00$02@Eigen@@$0A@V?$Stride@$0A@$0A@@2@@2@$0A@@1@AEBU?$sub_assign_op@NN@01@@Z
	??$call_assignment_no_alias@V?$Block@V?$Block@V?$Matrix@N$02$02$0A@$02$02@Eigen@@$0?0$0?0$0A@@Eigen@@$0?0$0?0$0A@@Eigen@@V?$Product@V?$CwiseBinaryOp@U?$scalar_product_op@NN@internal@Eigen@@$$CBV?$CwiseNullaryOp@U?$scalar_constant_op@N@internal@Eigen@@$$CBV?$Matrix@N$0?0$00$0A@$02$00@3@@3@$$CBV?$Map@V?$Matrix@N$0?0$00$0A@$02$00@Eigen@@$0A@V?$Stride@$0A@$0A@@2@@3@@Eigen@@V?$Transpose@$$CBV?$Block@$$CBV?$Matrix@N$02$02$0A@$02$02@Eigen@@$0?0$00$0A@@Eigen@@@2@$00@2@U?$sub_assign_op@NN@internal@2@@internal@Eigen@@YAXAEAV?$Block@V?$Block@V?$Matrix@N$02$02$0A@$02$02@Eigen@@$0?0$0?0$0A@@Eigen@@$0?0$0?0$0A@@1@AEBV?$Product@V?$CwiseBinaryOp@U?$scalar_product_op@NN@internal@Eigen@@$$CBV?$CwiseNullaryOp@U?$scalar_constant_op@N@internal@Eigen@@$$CBV?$Matrix@N$0?0$00$0A@$02$00@3@@3@$$CBV?$Map@V?$Matrix@N$0?0$00$0A@$02$00@Eigen@@$0A@V?$Stride@$0A@$0A@@2@@3@@Eigen@@V?$Transpose@$$CBV?$Block@$$CBV?$Matrix@N$02$02$0A@$02$02@Eigen@@$0?0$00$0A@@Eigen@@@2@$00@1@AEBU?$sub_assign_op@NN@01@@Z
	??$call_assignment_no_alias@V?$Block@V?$Block@V?$Matrix@N$02$02$0A@$02$02@Eigen@@$0?0$0?0$0A@@Eigen@@$0?0$0?0$0A@@Eigen@@V?$Product@V?$CwiseBinaryOp@U?$scalar_product_op@NN@internal@Eigen@@$$CBV?$CwiseNullaryOp@U?$scalar_constant_op@N@internal@Eigen@@$$CBV?$Matrix@N$0?0$00$0A@$02$00@3@@3@$$CBV?$Map@V?$Matrix@N$0?0$00$0A@$02$00@Eigen@@$0A@V?$Stride@$0A@$0A@@2@@3@@Eigen@@V?$Transpose@$$CBV?$Block@$$CBV?$Matrix@N$02$02$0A@$02$02@Eigen@@$0?0$00$0A@@Eigen@@@2@$0A@@2@U?$sub_assign_op@NN@internal@2@@internal@Eigen@@YAXAEAV?$Block@V?$Block@V?$Matrix@N$02$02$0A@$02$02@Eigen@@$0?0$0?0$0A@@Eigen@@$0?0$0?0$0A@@1@AEBV?$Product@V?$CwiseBinaryOp@U?$scalar_product_op@NN@internal@Eigen@@$$CBV?$CwiseNullaryOp@U?$scalar_constant_op@N@internal@Eigen@@$$CBV?$Matrix@N$0?0$00$0A@$02$00@3@@3@$$CBV?$Map@V?$Matrix@N$0?0$00$0A@$02$00@Eigen@@$0A@V?$Stride@$0A@$0A@@2@@3@@Eigen@@V?$Transpose@$$CBV?$Block@$$CBV?$Matrix@N$02$02$0A@$02$02@Eigen@@$0?0$00$0A@@Eigen@@@2@$0A@@1@AEBU?$sub_assign_op@NN@01@@Z
	??$call_assignment_no_alias@V?$Block@V?$Block@V?$Matrix@N$0?0$0?0$00$0?0$0?0@Eigen@@$00$0?0$00@Eigen@@$00$0?0$0A@@Eigen@@V?$CwiseBinaryOp@U?$scalar_product_op@NN@internal@Eigen@@$$CBV?$CwiseNullaryOp@U?$scalar_constant_op@N@internal@Eigen@@$$CBV?$Matrix@N$00$0?0$00$00$0?0@3@@3@$$CBV?$Block@V?$Block@V?$Matrix@N$0?0$0?0$00$0?0$0?0@Eigen@@$00$0?0$00@Eigen@@$00$0?0$0A@@3@@2@U?$add_assign_op@NN@internal@2@@internal@Eigen@@YAXAEAV?$Block@V?$Block@V?$Matrix@N$0?0$0?0$00$0?0$0?0@Eigen@@$00$0?0$00@Eigen@@$00$0?0$0A@@1@AEBV?$CwiseBinaryOp@U?$scalar_product_op@NN@internal@Eigen@@$$CBV?$CwiseNullaryOp@U?$scalar_constant_op@N@internal@Eigen@@$$CBV?$Matrix@N$00$0?0$00$00$0?0@3@@3@$$CBV?$Block@V?$Block@V?$Matrix@N$0?0$0?0$00$0?0$0?0@Eigen@@$00$0?0$00@Eigen@@$00$0?0$0A@@3@@1@AEBU?$add_assign_op@NN@01@@Z
	??$call_assignment_no_alias@V?$Block@V?$Block@V?$Matrix@N$0?0$0?0$00$0?0$0?0@Eigen@@$00$0?0$00@Eigen@@$00$0?0$0A@@Eigen@@V?$Product@V?$CwiseBinaryOp@U?$scalar_product_op@NN@internal@Eigen@@$$CBV?$CwiseNullaryOp@U?$scalar_constant_op@N@internal@Eigen@@$$CBV?$Matrix@N$00$0?0$00$00$02@3@@3@$$CBV?$Transpose@$$CBV?$Block@$$CBV?$Block@$$CBV?$Block@V?$Matrix@N$02$02$0A@$02$02@Eigen@@$0?0$0?0$0A@@Eigen@@$0?0$00$00@Eigen@@$0?0$00$0A@@Eigen@@@3@@Eigen@@V?$TriangularView@$$CBV?$Block@$$CBV?$Block@V?$Matrix@N$02$02$0A@$02$02@Eigen@@$0?0$0?0$0A@@Eigen@@$0?0$0?0$0A@@Eigen@@$04@2@$0A@@2@U?$assign_op@NN@internal@2@@internal@Eigen@@YAXAEAV?$Block@V?$Block@V?$Matrix@N$0?0$0?0$00$0?0$0?0@Eigen@@$00$0?0$00@Eigen@@$00$0?0$0A@@1@AEBV?$Product@V?$CwiseBinaryOp@U?$scalar_product_op@NN@internal@Eigen@@$$CBV?$CwiseNullaryOp@U?$scalar_constant_op@N@internal@Eigen@@$$CBV?$Matrix@N$00$0?0$00$00$02@3@@3@$$CBV?$Transpose@$$CBV?$Block@$$CBV?$Block@$$CBV?$Block@V?$Matrix@N$02$02$0A@$02$02@Eigen@@$0?0$0?0$0A@@Eigen@@$0?0$00$00@Eigen@@$0?0$00$0A@@Eigen@@@3@@Eigen@@V?$TriangularView@$$CBV?$Block@$$CBV?$Block@V?$Matrix@N$02$02$0A@$02$02@Eigen@@$0?0$0?0$0A@@Eigen@@$0?0$0?0$0A@@Eigen@@$04@2@$0A@@1@AEBU?$assign_op@NN@01@@Z
	??$call_assignment_no_alias@V?$Block@V?$Block@V?$Matrix@N$0?0$0?0$00$0?0$0?0@Eigen@@$00$0?0$00@Eigen@@$00$0?0$0A@@Eigen@@V?$Product@V?$CwiseBinaryOp@U?$scalar_product_op@NN@internal@Eigen@@$$CBV?$CwiseNullaryOp@U?$scalar_constant_op@N@internal@Eigen@@$$CBV?$Matrix@N$00$0?0$00$00$0?0@3@@3@$$CBV?$Transpose@$$CBV?$Block@$$CBV?$Block@$$CBV?$Block@V?$Matrix@N$0?0$0?0$0A@$0?0$0?0@Eigen@@$0?0$0?0$0A@@Eigen@@$0?0$00$00@Eigen@@$0?0$00$0A@@Eigen@@@3@@Eigen@@V?$TriangularView@$$CBV?$Block@$$CBV?$Block@V?$Matrix@N$0?0$0?0$0A@$0?0$0?0@Eigen@@$0?0$0?0$0A@@Eigen@@$0?0$0?0$0A@@Eigen@@$04@2@$0A@@2@U?$assign_op@NN@internal@2@@internal@Eigen@@YAXAEAV?$Block@V?$Block@V?$Matrix@N$0?0$0?0$00$0?0$0?0@Eigen@@$00$0?0$00@Eigen@@$00$0?0$0A@@1@AEBV?$Product@V?$CwiseBinaryOp@U?$scalar_product_op@NN@internal@Eigen@@$$CBV?$CwiseNullaryOp@U?$scalar_constant_op@N@internal@Eigen@@$$CBV?$Matrix@N$00$0?0$00$00$0?0@3@@3@$$CBV?$Transpose@$$CBV?$Block@$$CBV?$Block@$$CBV?$Block@V?$Matrix@N$0?0$0?0$0A@$0?0$0?0@Eigen@@$0?0$0?0$0A@@Eigen@@$0?0$00$00@Eigen@@$0?0$00$0A@@Eigen@@@3@@Eigen@@V?$TriangularView@$$CBV?$Block@$$CBV?$Block@V?$Matrix@N$0?0$0?0$0A@$0?0$0?0@Eigen@@$0?0$0?0$0A@@Eigen@@$0?0$0?0$0A@@Eigen@@$04@2@$0A@@1@AEBU?$assign_op@NN@01@@Z
	??$call_assignment_no_alias@V?$Block@V?$Block@V?$Matrix@N$0?0$0?0$0A@$0?0$0?0@Eigen@@$0?0$0?0$0A@@Eigen@@$00$0?0$0A@@Eigen@@V?$CwiseBinaryOp@U?$scalar_product_op@NN@internal@Eigen@@$$CBV?$CwiseNullaryOp@U?$scalar_constant_op@N@internal@Eigen@@$$CBV?$Matrix@N$00$0?0$00$00$0?0@3@@3@$$CBV?$Map@V?$Matrix@N$00$0?0$00$00$0?0@Eigen@@$0A@V?$Stride@$0A@$0A@@2@@3@@2@U?$sub_assign_op@NN@internal@2@@internal@Eigen@@YAXAEAV?$Block@V?$Block@V?$Matrix@N$0?0$0?0$0A@$0?0$0?0@Eigen@@$0?0$0?0$0A@@Eigen@@$00$0?0$0A@@1@AEBV?$CwiseBinaryOp@U?$scalar_product_op@NN@internal@Eigen@@$$CBV?$CwiseNullaryOp@U?$scalar_constant_op@N@internal@Eigen@@$$CBV?$Matrix@N$00$0?0$00$00$0?0@3@@3@$$CBV?$Map@V?$Matrix@N$00$0?0$00$00$0?0@Eigen@@$0A@V?$Stride@$0A@$0A@@2@@3@@1@AEBU?$sub_assign_op@NN@01@@Z
	??$call_assignment_no_alias@V?$Block@V?$Block@V?$Matrix@N$0?0$0?0$0A@$0?0$0?0@Eigen@@$0?0$0?0$0A@@Eigen@@$0?0$00$00@Eigen@@V?$CwiseBinaryOp@U?$scalar_product_op@NN@internal@Eigen@@$$CBV?$CwiseNullaryOp@U?$scalar_constant_op@N@internal@Eigen@@$$CBV?$Matrix@N$0?0$00$0A@$0?0$00@3@@3@$$CBV?$Map@V?$Matrix@N$0?0$00$0A@$0?0$00@Eigen@@$0A@V?$Stride@$0A@$0A@@2@@3@@2@U?$sub_assign_op@NN@internal@2@@internal@Eigen@@YAXAEAV?$Block@V?$Block@V?$Matrix@N$0?0$0?0$0A@$0?0$0?0@Eigen@@$0?0$0?0$0A@@Eigen@@$0?0$00$00@1@AEBV?$CwiseBinaryOp@U?$scalar_product_op@NN@internal@Eigen@@$$CBV?$CwiseNullaryOp@U?$scalar_constant_op@N@internal@Eigen@@$$CBV?$Matrix@N$0?0$00$0A@$0?0$00@3@@3@$$CBV?$Map@V?$Matrix@N$0?0$00$0A@$0?0$00@Eigen@@$0A@V?$Stride@$0A@$0A@@2@@3@@1@AEBU?$sub_assign_op@NN@01@@Z
	??$call_assignment_no_alias@V?$Block@V?$Block@V?$Matrix@N$0?0$0?0$0A@$0?0$0?0@Eigen@@$0?0$0?0$0A@@Eigen@@$0?0$0?0$00@Eigen@@V?$CwiseBinaryOp@U?$scalar_product_op@NN@internal@Eigen@@$$CBV?$CwiseNullaryOp@U?$scalar_constant_op@N@internal@Eigen@@$$CBV?$Matrix@N$0?0$0?0$0A@$0?0$0?0@3@@3@$$CBV?$Block@$$CBV?$Block@V?$Matrix@N$0?0$0?0$0A@$0?0$0?0@Eigen@@$0?0$0?0$0A@@Eigen@@$0?0$0?0$00@3@@2@U?$sub_assign_op@NN@internal@2@@internal@Eigen@@YAXAEAV?$Block@V?$Block@V?$Matrix@N$0?0$0?0$0A@$0?0$0?0@Eigen@@$0?0$0?0$0A@@Eigen@@$0?0$0?0$00@1@AEBV?$CwiseBinaryOp@U?$scalar_product_op@NN@internal@Eigen@@$$CBV?$CwiseNullaryOp@U?$scalar_constant_op@N@internal@Eigen@@$$CBV?$Matrix@N$0?0$0?0$0A@$0?0$0?0@3@@3@$$CBV?$Block@$$CBV?$Block@V?$Matrix@N$0?0$0?0$0A@$0?0$0?0@Eigen@@$0?0$0?0$0A@@Eigen@@$0?0$0?0$00@3@@1@AEBU?$sub_assign_op@NN@01@@Z
	??$call_assignment_no_alias@V?$Block@V?$Block@V?$Matrix@N$0?0$0?0$0A@$0?0$0?0@Eigen@@$0?0$0?0$0A@@Eigen@@$0?0$0?0$0A@@Eigen@@V?$Block@$$CBV?$CwiseBinaryOp@U?$scalar_product_op@NN@internal@Eigen@@$$CBV?$CwiseNullaryOp@U?$scalar_constant_op@N@internal@Eigen@@$$CBV?$Matrix@N$0?0$0?0$0A@$0?0$0?0@3@@3@$$CBV?$Matrix@N$0?0$0?0$0A@$0?0$0?0@3@@Eigen@@$0?0$0?0$0A@@2@U?$sub_assign_op@NN@internal@2@@internal@Eigen@@YAXAEAV?$Block@V?$Block@V?$Matrix@N$0?0$0?0$0A@$0?0$0?0@Eigen@@$0?0$0?0$0A@@Eigen@@$0?0$0?0$0A@@1@AEBV?$Block@$$CBV?$CwiseBinaryOp@U?$scalar_product_op@NN@internal@Eigen@@$$CBV?$CwiseNullaryOp@U?$scalar_constant_op@N@internal@Eigen@@$$CBV?$Matrix@N$0?0$0?0$0A@$0?0$0?0@3@@3@$$CBV?$Matrix@N$0?0$0?0$0A@$0?0$0?0@3@@Eigen@@$0?0$0?0$0A@@1@AEBU?$sub_assign_op@NN@01@@Z
	??$call_assignment_no_alias@V?$Block@V?$Block@V?$Matrix@N$0?0$0?0$0A@$0?0$0?0@Eigen@@$0?0$0?0$0A@@Eigen@@$0?0$0?0$0A@@Eigen@@V?$Product@V?$CwiseBinaryOp@U?$scalar_product_op@NN@internal@Eigen@@$$CBV?$CwiseNullaryOp@U?$scalar_constant_op@N@internal@Eigen@@$$CBV?$Matrix@N$0?0$00$0A@$0?0$00@3@@3@$$CBV?$Block@$$CBV?$Matrix@N$0?0$0?0$0A@$0?0$0?0@Eigen@@$0?0$00$0A@@3@@Eigen@@V?$Map@V?$Matrix@N$00$0?0$00$00$0?0@Eigen@@$0A@V?$Stride@$0A@$0A@@2@@2@$0A@@2@U?$sub_assign_op@NN@internal@2@@internal@Eigen@@YAXAEAV?$Block@V?$Block@V?$Matrix@N$0?0$0?0$0A@$0?0$0?0@Eigen@@$0?0$0?0$0A@@Eigen@@$0?0$0?0$0A@@1@AEBV?$Product@V?$CwiseBinaryOp@U?$scalar_product_op@NN@internal@Eigen@@$$CBV?$CwiseNullaryOp@U?$scalar_constant_op@N@internal@Eigen@@$$CBV?$Matrix@N$0?0$00$0A@$0?0$00@3@@3@$$CBV?$Block@$$CBV?$Matrix@N$0?0$0?0$0A@$0?0$0?0@Eigen@@$0?0$00$0A@@3@@Eigen@@V?$Map@V?$Matrix@N$00$0?0$00$00$0?0@Eigen@@$0A@V?$Stride@$0A@$0A@@2@@2@$0A@@1@AEBU?$sub_assign_op@NN@01@@Z
	??$call_assignment_no_alias@V?$Block@V?$Block@V?$Matrix@N$0?0$0?0$0A@$0?0$0?0@Eigen@@$0?0$0?0$0A@@Eigen@@$0?0$0?0$0A@@Eigen@@V?$Product@V?$CwiseBinaryOp@U?$scalar_product_op@NN@internal@Eigen@@$$CBV?$CwiseNullaryOp@U?$scalar_constant_op@N@internal@Eigen@@$$CBV?$Matrix@N$0?0$00$0A@$0?0$00@3@@3@$$CBV?$Block@V?$Block@V?$Matrix@N$0?0$0?0$0A@$0?0$0?0@Eigen@@$0?0$00$00@Eigen@@$0?0$00$0A@@3@@Eigen@@V?$Map@V?$Matrix@N$00$0?0$00$00$0?0@Eigen@@$0A@V?$Stride@$0A@$0A@@2@@2@$0A@@2@U?$sub_assign_op@NN@internal@2@@internal@Eigen@@YAXAEAV?$Block@V?$Block@V?$Matrix@N$0?0$0?0$0A@$0?0$0?0@Eigen@@$0?0$0?0$0A@@Eigen@@$0?0$0?0$0A@@1@AEBV?$Product@V?$CwiseBinaryOp@U?$scalar_product_op@NN@internal@Eigen@@$$CBV?$CwiseNullaryOp@U?$scalar_constant_op@N@internal@Eigen@@$$CBV?$Matrix@N$0?0$00$0A@$0?0$00@3@@3@$$CBV?$Block@V?$Block@V?$Matrix@N$0?0$0?0$0A@$0?0$0?0@Eigen@@$0?0$00$00@Eigen@@$0?0$00$0A@@3@@Eigen@@V?$Map@V?$Matrix@N$00$0?0$00$00$0?0@Eigen@@$0A@V?$Stride@$0A@$0A@@2@@2@$0A@@1@AEBU?$sub_assign_op@NN@01@@Z
	??$call_assignment_no_alias@V?$Block@V?$Block@V?$Matrix@N$0?0$0?0$0A@$0?0$0?0@Eigen@@$0?0$0?0$0A@@Eigen@@$0?0$0?0$0A@@Eigen@@V?$Product@V?$CwiseBinaryOp@U?$scalar_product_op@NN@internal@Eigen@@$$CBV?$CwiseNullaryOp@U?$scalar_constant_op@N@internal@Eigen@@$$CBV?$Matrix@N$0?0$00$0A@$0?0$00@3@@3@$$CBV?$Map@V?$Matrix@N$0?0$00$0A@$0?0$00@Eigen@@$0A@V?$Stride@$0A@$0A@@2@@3@@Eigen@@V?$Transpose@$$CBV?$Block@$$CBV?$Matrix@N$0?0$0?0$0A@$0?0$0?0@Eigen@@$0?0$00$0A@@Eigen@@@2@$0A@@2@U?$sub_assign_op@NN@internal@2@@internal@Eigen@@YAXAEAV?$Block@V?$Block@V?$Matrix@N$0?0$0?0$0A@$0?0$0?0@Eigen@@$0?0$0?0$0A@@Eigen@@$0?0$0?0$0A@@1@AEBV?$Product@V?$CwiseBinaryOp@U?$scalar_product_op@NN@internal@Eigen@@$$CBV?$CwiseNullaryOp@U?$scalar_constant_op@N@internal@Eigen@@$$CBV?$Matrix@N$0?0$00$0A@$0?0$00@3@@3@$$CBV?$Map@V?$Matrix@N$0?0$00$0A@$0?0$00@Eigen@@$0A@V?$Stride@$0A@$0A@@2@@3@@Eigen@@V?$Transpose@$$CBV?$Block@$$CBV?$Matrix@N$0?0$0?0$0A@$0?0$0?0@Eigen@@$0?0$00$0A@@Eigen@@@2@$0A@@1@AEBU?$sub_assign_op@NN@01@@Z
	??$call_assignment_no_alias@V?$Block@V?$Block@V?$Ref@V?$Matrix@N$02$02$0A@$02$02@Eigen@@$0A@V?$OuterStride@$0?0@2@@Eigen@@$02$00$00@Eigen@@$0?0$00$0A@@Eigen@@V?$CwiseNullaryOp@U?$scalar_constant_op@N@internal@Eigen@@$$CBV?$Matrix@N$0?0$00$0A@$02$00@3@@2@U?$div_assign_op@NN@internal@2@@internal@Eigen@@YAXAEAV?$Block@V?$Block@V?$Ref@V?$Matrix@N$02$02$0A@$02$02@Eigen@@$0A@V?$OuterStride@$0?0@2@@Eigen@@$02$00$00@Eigen@@$0?0$00$0A@@1@AEBV?$CwiseNullaryOp@U?$scalar_constant_op@N@internal@Eigen@@$$CBV?$Matrix@N$0?0$00$0A@$02$00@3@@1@AEBU?$div_assign_op@NN@01@@Z
	??$call_assignment_no_alias@V?$Block@V?$Matrix@N$02$00$0A@$02$00@Eigen@@$00$00$0A@@Eigen@@V12@U?$swap_assign_op@N@internal@2@@internal@Eigen@@YAXAEAV?$Block@V?$Matrix@N$02$00$0A@$02$00@Eigen@@$00$00$0A@@1@AEBV21@AEBU?$swap_assign_op@N@01@@Z
	??$call_assignment_no_alias@V?$Block@V?$Matrix@N$02$00$0A@$02$00@Eigen@@$00$00$0A@@Eigen@@V?$Block@$$CBV?$Block@$$CBV?$Matrix@N$02$03$0A@$02$03@Eigen@@$02$00$0A@@Eigen@@$00$00$0A@@2@U?$assign_op@NN@internal@2@@internal@Eigen@@YAXAEAV?$Block@V?$Matrix@N$02$00$0A@$02$00@Eigen@@$00$00$0A@@1@AEBV?$Block@$$CBV?$Block@$$CBV?$Matrix@N$02$03$0A@$02$03@Eigen@@$02$00$0A@@Eigen@@$00$00$0A@@1@AEBU?$assign_op@NN@01@@Z
	??$call_assignment_no_alias@V?$Block@V?$Matrix@N$02$02$0A@$02$02@Eigen@@$00$02$0A@@Eigen@@V12@U?$swap_assign_op@N@internal@2@@internal@Eigen@@YAXAEAV?$Block@V?$Matrix@N$02$02$0A@$02$02@Eigen@@$00$02$0A@@1@AEBV21@AEBU?$swap_assign_op@N@01@@Z
	??$call_assignment_no_alias@V?$Block@V?$Matrix@N$02$02$0A@$02$02@Eigen@@$00$02$0A@@Eigen@@V?$CwiseBinaryOp@U?$scalar_product_op@NN@internal@Eigen@@$$CBV?$Matrix@N$02$00$0A@$02$00@3@$$CBV?$CwiseNullaryOp@U?$scalar_constant_op@N@internal@Eigen@@$$CBV?$Matrix@N$02$00$0A@$02$00@3@@3@@2@U?$assign_op@NN@internal@2@@internal@Eigen@@YAXAEAV?$Block@V?$Matrix@N$02$02$0A@$02$02@Eigen@@$00$02$0A@@1@AEBV?$CwiseBinaryOp@U?$scalar_product_op@NN@internal@Eigen@@$$CBV?$Matrix@N$02$00$0A@$02$00@3@$$CBV?$CwiseNullaryOp@U?$scalar_constant_op@N@internal@Eigen@@$$CBV?$Matrix@N$02$00$0A@$02$00@3@@3@@1@AEBU?$assign_op@NN@01@@Z
	??$call_assignment_no_alias@V?$Block@V?$Matrix@N$02$02$0A@$02$02@Eigen@@$02$00$00@Eigen@@V12@U?$swap_assign_op@N@internal@2@@internal@Eigen@@YAXAEAV?$Block@V?$Matrix@N$02$02$0A@$02$02@Eigen@@$02$00$00@1@AEBV21@AEBU?$swap_assign_op@N@01@@Z
	??$call_assignment_no_alias@V?$Block@V?$Matrix@N$02$02$0A@$02$02@Eigen@@$0?0$02$0A@@Eigen@@V?$CwiseNullaryOp@U?$scalar_constant_op@N@internal@Eigen@@$$CBV?$Matrix@N$0?0$02$0A@$02$02@3@@2@U?$mul_assign_op@NN@internal@2@@internal@Eigen@@YAXAEAV?$Block@V?$Matrix@N$02$02$0A@$02$02@Eigen@@$0?0$02$0A@@1@AEBV?$CwiseNullaryOp@U?$scalar_constant_op@N@internal@Eigen@@$$CBV?$Matrix@N$0?0$02$0A@$02$02@3@@1@AEBU?$mul_assign_op@NN@01@@Z
	??$call_assignment_no_alias@V?$Block@V?$Matrix@N$02$02$0A@$02$02@Eigen@@$0?0$02$0A@@Eigen@@V?$Product@V?$TriangularView@$$CBV?$Block@V?$Matrix@N$02$02$0A@$02$02@Eigen@@$0?0$0?0$0A@@Eigen@@$04@Eigen@@V?$Matrix@N$0?0$02$0A@$02$02@2@$0A@@2@U?$sub_assign_op@NN@internal@2@@internal@Eigen@@YAXAEAV?$Block@V?$Matrix@N$02$02$0A@$02$02@Eigen@@$0?0$02$0A@@1@AEBV?$Product@V?$TriangularView@$$CBV?$Block@V?$Matrix@N$02$02$0A@$02$02@Eigen@@$0?0$0?0$0A@@Eigen@@$04@Eigen@@V?$Matrix@N$0?0$02$0A@$02$02@2@$0A@@1@AEBU?$sub_assign_op@NN@01@@Z
	??$call_assignment_no_alias@V?$Block@V?$Matrix@N$02$02$0A@$02$02@Eigen@@$0?0$0?0$0A@@Eigen@@V?$CwiseNullaryOp@U?$scalar_constant_op@N@internal@Eigen@@$$CBV?$Matrix@N$0?0$0?0$0A@$02$02@3@@2@U?$mul_assign_op@NN@internal@2@@internal@Eigen@@YAXAEAV?$Block@V?$Matrix@N$02$02$0A@$02$02@Eigen@@$0?0$0?0$0A@@1@AEBV?$CwiseNullaryOp@U?$scalar_constant_op@N@internal@Eigen@@$$CBV?$Matrix@N$0?0$0?0$0A@$02$02@3@@1@AEBU?$mul_assign_op@NN@01@@Z
	??$call_assignment_no_alias@V?$Block@V?$Matrix@N$02$02$0A@$02$02@Eigen@@$0?0$0?0$0A@@Eigen@@V?$Product@V?$TriangularView@$$CBV?$Block@V?$Matrix@N$02$02$0A@$02$02@Eigen@@$0?0$0?0$0A@@Eigen@@$04@Eigen@@V?$Matrix@N$0?0$0?0$0A@$02$02@2@$0A@@2@U?$sub_assign_op@NN@internal@2@@internal@Eigen@@YAXAEAV?$Block@V?$Matrix@N$02$02$0A@$02$02@Eigen@@$0?0$0?0$0A@@1@AEBV?$Product@V?$TriangularView@$$CBV?$Block@V?$Matrix@N$02$02$0A@$02$02@Eigen@@$0?0$0?0$0A@@Eigen@@$04@Eigen@@V?$Matrix@N$0?0$0?0$0A@$02$02@2@$0A@@1@AEBU?$sub_assign_op@NN@01@@Z
	??$call_assignment_no_alias@V?$Block@V?$Matrix@N$02$03$0A@$02$03@Eigen@@$02$00$0A@@Eigen@@V?$Matrix@N$02$00$0A@$02$00@2@U?$assign_op@NN@internal@2@@internal@Eigen@@YAXAEAV?$Block@V?$Matrix@N$02$03$0A@$02$03@Eigen@@$02$00$0A@@1@AEBV?$Matrix@N$02$00$0A@$02$00@1@AEBU?$assign_op@NN@01@@Z
	??$call_assignment_no_alias@V?$Block@V?$Matrix@N$02$03$0A@$02$03@Eigen@@$02$02$0A@@Eigen@@V?$Matrix@N$02$02$0A@$02$02@2@U?$assign_op@NN@internal@2@@internal@Eigen@@YAXAEAV?$Block@V?$Matrix@N$02$03$0A@$02$03@Eigen@@$02$02$0A@@1@AEBV?$Matrix@N$02$02$0A@$02$02@1@AEBU?$assign_op@NN@01@@Z
	??$call_assignment_no_alias@V?$Block@V?$Matrix@N$03$00$0A@$03$00@Eigen@@$0?0$00$0A@@Eigen@@V?$Matrix@N$02$00$0A@$02$00@2@U?$assign_op@NN@internal@2@@internal@Eigen@@YAXAEAV?$Block@V?$Matrix@N$03$00$0A@$03$00@Eigen@@$0?0$00$0A@@1@AEBV?$Matrix@N$02$00$0A@$02$00@1@AEBU?$assign_op@NN@01@@Z
	??$call_assignment_no_alias@V?$Block@V?$Matrix@N$0?0$02$0A@$02$02@Eigen@@$0?0$02$0A@@Eigen@@V?$Block@$$CBV?$CwiseBinaryOp@U?$scalar_product_op@NN@internal@Eigen@@$$CBV?$CwiseNullaryOp@U?$scalar_constant_op@N@internal@Eigen@@$$CBV?$Matrix@N$0?0$02$0A@$02$02@3@@3@$$CBV?$Block@V?$Matrix@N$02$02$0A@$02$02@Eigen@@$0?0$02$0A@@3@@Eigen@@$0?0$02$0A@@2@U?$sub_assign_op@NN@internal@2@@internal@Eigen@@YAXAEAV?$Block@V?$Matrix@N$0?0$02$0A@$02$02@Eigen@@$0?0$02$0A@@1@AEBV?$Block@$$CBV?$CwiseBinaryOp@U?$scalar_product_op@NN@internal@Eigen@@$$CBV?$CwiseNullaryOp@U?$scalar_constant_op@N@internal@Eigen@@$$CBV?$Matrix@N$0?0$02$0A@$02$02@3@@3@$$CBV?$Block@V?$Matrix@N$02$02$0A@$02$02@Eigen@@$0?0$02$0A@@3@@Eigen@@$0?0$02$0A@@1@AEBU?$sub_assign_op@NN@01@@Z
	??$call_assignment_no_alias@V?$Block@V?$Matrix@N$0?0$02$0A@$02$02@Eigen@@$0?0$0?0$00@Eigen@@V?$CwiseBinaryOp@U?$scalar_product_op@NN@internal@Eigen@@$$CBV?$CwiseNullaryOp@U?$scalar_constant_op@N@internal@Eigen@@$$CBV?$Matrix@N$0?0$0?0$00$02$02@3@@3@$$CBV?$Block@$$CBV?$Transpose@$$CBV?$Block@V?$Matrix@N$02$02$0A@$02$02@Eigen@@$0?0$0?0$0A@@Eigen@@@Eigen@@$0?0$0?0$0A@@3@@2@U?$sub_assign_op@NN@internal@2@@internal@Eigen@@YAXAEAV?$Block@V?$Matrix@N$0?0$02$0A@$02$02@Eigen@@$0?0$0?0$00@1@AEBV?$CwiseBinaryOp@U?$scalar_product_op@NN@internal@Eigen@@$$CBV?$CwiseNullaryOp@U?$scalar_constant_op@N@internal@Eigen@@$$CBV?$Matrix@N$0?0$0?0$00$02$02@3@@3@$$CBV?$Block@$$CBV?$Transpose@$$CBV?$Block@V?$Matrix@N$02$02$0A@$02$02@Eigen@@$0?0$0?0$0A@@Eigen@@@Eigen@@$0?0$0?0$0A@@3@@1@AEBU?$sub_assign_op@NN@01@@Z
	??$call_assignment_no_alias@V?$Block@V?$Matrix@N$0?0$02$0A@$0?0$02@Eigen@@$0?0$02$0A@@Eigen@@V?$Block@$$CBV?$CwiseBinaryOp@U?$scalar_product_op@NN@internal@Eigen@@$$CBV?$CwiseNullaryOp@U?$scalar_constant_op@N@internal@Eigen@@$$CBV?$Matrix@N$0?0$02$0A@$02$02@3@@3@$$CBV?$Matrix@N$0?0$02$0A@$02$02@3@@Eigen@@$0?0$02$0A@@2@U?$sub_assign_op@NN@internal@2@@internal@Eigen@@YAXAEAV?$Block@V?$Matrix@N$0?0$02$0A@$0?0$02@Eigen@@$0?0$02$0A@@1@AEBV?$Block@$$CBV?$CwiseBinaryOp@U?$scalar_product_op@NN@internal@Eigen@@$$CBV?$CwiseNullaryOp@U?$scalar_constant_op@N@internal@Eigen@@$$CBV?$Matrix@N$0?0$02$0A@$02$02@3@@3@$$CBV?$Matrix@N$0?0$02$0A@$02$02@3@@Eigen@@$0?0$02$0A@@1@AEBU?$sub_assign_op@NN@01@@Z
	??$call_assignment_no_alias@V?$Block@V?$Matrix@N$0?0$02$0A@$0?0$02@Eigen@@$0?0$0?0$00@Eigen@@V?$CwiseBinaryOp@U?$scalar_product_op@NN@internal@Eigen@@$$CBV?$CwiseNullaryOp@U?$scalar_constant_op@N@internal@Eigen@@$$CBV?$Matrix@N$0?0$0?0$00$0?0$0?0@3@@3@$$CBV?$Block@$$CBV?$Matrix@N$0?0$0?0$00$0?0$0?0@Eigen@@$0?0$0?0$0A@@3@@2@U?$sub_assign_op@NN@internal@2@@internal@Eigen@@YAXAEAV?$Block@V?$Matrix@N$0?0$02$0A@$0?0$02@Eigen@@$0?0$0?0$00@1@AEBV?$CwiseBinaryOp@U?$scalar_product_op@NN@internal@Eigen@@$$CBV?$CwiseNullaryOp@U?$scalar_constant_op@N@internal@Eigen@@$$CBV?$Matrix@N$0?0$0?0$00$0?0$0?0@3@@3@$$CBV?$Block@$$CBV?$Matrix@N$0?0$0?0$00$0?0$0?0@Eigen@@$0?0$0?0$0A@@3@@1@AEBU?$sub_assign_op@NN@01@@Z
	??$call_assignment_no_alias@V?$Block@V?$Matrix@N$0?0$02$0A@$0?0$02@Eigen@@$0?0$0?0$00@Eigen@@V?$CwiseBinaryOp@U?$scalar_product_op@NN@internal@Eigen@@$$CBV?$CwiseNullaryOp@U?$scalar_constant_op@N@internal@Eigen@@$$CBV?$Matrix@N$0?0$0?0$0A@$0?0$0?0@3@@3@$$CBV?$Block@$$CBV?$Transpose@$$CBV?$Matrix@N$0?0$0?0$00$0?0$0?0@Eigen@@@Eigen@@$0?0$0?0$00@3@@2@U?$sub_assign_op@NN@internal@2@@internal@Eigen@@YAXAEAV?$Block@V?$Matrix@N$0?0$02$0A@$0?0$02@Eigen@@$0?0$0?0$00@1@AEBV?$CwiseBinaryOp@U?$scalar_product_op@NN@internal@Eigen@@$$CBV?$CwiseNullaryOp@U?$scalar_constant_op@N@internal@Eigen@@$$CBV?$Matrix@N$0?0$0?0$0A@$0?0$0?0@3@@3@$$CBV?$Block@$$CBV?$Transpose@$$CBV?$Matrix@N$0?0$0?0$00$0?0$0?0@Eigen@@@Eigen@@$0?0$0?0$00@3@@1@AEBU?$sub_assign_op@NN@01@@Z
	??$call_assignment_no_alias@V?$Block@V?$Matrix@N$0?0$0?0$00$0?0$0?0@Eigen@@$0?0$00$0A@@Eigen@@V?$CwiseBinaryOp@U?$scalar_product_op@NN@internal@Eigen@@$$CBV?$CwiseNullaryOp@U?$scalar_constant_op@N@internal@Eigen@@$$CBV?$Matrix@N$0?0$00$0A@$0?0$00@3@@3@$$CBV?$Map@V?$Matrix@N$0?0$00$0A@$0?0$00@Eigen@@$01V?$Stride@$0A@$0A@@2@@3@@2@U?$add_assign_op@NN@internal@2@@internal@Eigen@@YAXAEAV?$Block@V?$Matrix@N$0?0$0?0$00$0?0$0?0@Eigen@@$0?0$00$0A@@1@AEBV?$CwiseBinaryOp@U?$scalar_product_op@NN@internal@Eigen@@$$CBV?$CwiseNullaryOp@U?$scalar_constant_op@N@internal@Eigen@@$$CBV?$Matrix@N$0?0$00$0A@$0?0$00@3@@3@$$CBV?$Map@V?$Matrix@N$0?0$00$0A@$0?0$00@Eigen@@$01V?$Stride@$0A@$0A@@2@@3@@1@AEBU?$add_assign_op@NN@01@@Z
	??$call_assignment_no_alias@V?$Block@V?$Matrix@N$0?0$0?0$00$0?0$0?0@Eigen@@$0?0$00$0A@@Eigen@@V?$Map@V?$Matrix@N$0?0$00$0A@$0?0$00@Eigen@@$01V?$Stride@$0A@$0A@@2@@2@U?$assign_op@NN@internal@2@@internal@Eigen@@YAXAEAV?$Block@V?$Matrix@N$0?0$0?0$00$0?0$0?0@Eigen@@$0?0$00$0A@@1@AEBV?$Map@V?$Matrix@N$0?0$00$0A@$0?0$00@Eigen@@$01V?$Stride@$0A@$0A@@2@@1@AEBU?$assign_op@NN@01@@Z
	??$call_assignment_no_alias@V?$Block@V?$Matrix@N$0?0$0?0$0A@$02$02@Eigen@@$0?0$0?0$00@Eigen@@V?$CwiseBinaryOp@U?$scalar_product_op@NN@internal@Eigen@@$$CBV?$CwiseNullaryOp@U?$scalar_constant_op@N@internal@Eigen@@$$CBV?$Matrix@N$0?0$0?0$00$02$02@3@@3@$$CBV?$Block@$$CBV?$Transpose@$$CBV?$Block@V?$Matrix@N$02$02$0A@$02$02@Eigen@@$0?0$0?0$0A@@Eigen@@@Eigen@@$0?0$0?0$0A@@3@@2@U?$sub_assign_op@NN@internal@2@@internal@Eigen@@YAXAEAV?$Block@V?$Matrix@N$0?0$0?0$0A@$02$02@Eigen@@$0?0$0?0$00@1@AEBV?$CwiseBinaryOp@U?$scalar_product_op@NN@internal@Eigen@@$$CBV?$CwiseNullaryOp@U?$scalar_constant_op@N@internal@Eigen@@$$CBV?$Matrix@N$0?0$0?0$00$02$02@3@@3@$$CBV?$Block@$$CBV?$Transpose@$$CBV?$Block@V?$Matrix@N$02$02$0A@$02$02@Eigen@@$0?0$0?0$0A@@Eigen@@@Eigen@@$0?0$0?0$0A@@3@@1@AEBU?$sub_assign_op@NN@01@@Z
	??$call_assignment_no_alias@V?$Block@V?$Matrix@N$0?0$0?0$0A@$02$02@Eigen@@$0?0$0?0$0A@@Eigen@@V?$Block@$$CBV?$CwiseBinaryOp@U?$scalar_product_op@NN@internal@Eigen@@$$CBV?$CwiseNullaryOp@U?$scalar_constant_op@N@internal@Eigen@@$$CBV?$Matrix@N$0?0$0?0$0A@$02$02@3@@3@$$CBV?$Block@V?$Matrix@N$02$02$0A@$02$02@Eigen@@$0?0$0?0$0A@@3@@Eigen@@$0?0$0?0$0A@@2@U?$sub_assign_op@NN@internal@2@@internal@Eigen@@YAXAEAV?$Block@V?$Matrix@N$0?0$0?0$0A@$02$02@Eigen@@$0?0$0?0$0A@@1@AEBV?$Block@$$CBV?$CwiseBinaryOp@U?$scalar_product_op@NN@internal@Eigen@@$$CBV?$CwiseNullaryOp@U?$scalar_constant_op@N@internal@Eigen@@$$CBV?$Matrix@N$0?0$0?0$0A@$02$02@3@@3@$$CBV?$Block@V?$Matrix@N$02$02$0A@$02$02@Eigen@@$0?0$0?0$0A@@3@@Eigen@@$0?0$0?0$0A@@1@AEBU?$sub_assign_op@NN@01@@Z
	??$call_assignment_no_alias@V?$Block@V?$Matrix@N$0?0$0?0$0A@$0?0$02@Eigen@@$0?0$0?0$00@Eigen@@V?$CwiseBinaryOp@U?$scalar_product_op@NN@internal@Eigen@@$$CBV?$CwiseNullaryOp@U?$scalar_constant_op@N@internal@Eigen@@$$CBV?$Matrix@N$0?0$0?0$00$0?0$0?0@3@@3@$$CBV?$Block@$$CBV?$Matrix@N$0?0$0?0$00$0?0$0?0@Eigen@@$0?0$0?0$0A@@3@@2@U?$sub_assign_op@NN@internal@2@@internal@Eigen@@YAXAEAV?$Block@V?$Matrix@N$0?0$0?0$0A@$0?0$02@Eigen@@$0?0$0?0$00@1@AEBV?$CwiseBinaryOp@U?$scalar_product_op@NN@internal@Eigen@@$$CBV?$CwiseNullaryOp@U?$scalar_constant_op@N@internal@Eigen@@$$CBV?$Matrix@N$0?0$0?0$00$0?0$0?0@3@@3@$$CBV?$Block@$$CBV?$Matrix@N$0?0$0?0$00$0?0$0?0@Eigen@@$0?0$0?0$0A@@3@@1@AEBU?$sub_assign_op@NN@01@@Z
	??$call_assignment_no_alias@V?$Block@V?$Matrix@N$0?0$0?0$0A@$0?0$02@Eigen@@$0?0$0?0$00@Eigen@@V?$CwiseBinaryOp@U?$scalar_product_op@NN@internal@Eigen@@$$CBV?$CwiseNullaryOp@U?$scalar_constant_op@N@internal@Eigen@@$$CBV?$Matrix@N$0?0$0?0$0A@$0?0$0?0@3@@3@$$CBV?$Block@$$CBV?$Transpose@$$CBV?$Matrix@N$0?0$0?0$00$0?0$0?0@Eigen@@@Eigen@@$0?0$0?0$00@3@@2@U?$sub_assign_op@NN@internal@2@@internal@Eigen@@YAXAEAV?$Block@V?$Matrix@N$0?0$0?0$0A@$0?0$02@Eigen@@$0?0$0?0$00@1@AEBV?$CwiseBinaryOp@U?$scalar_product_op@NN@internal@Eigen@@$$CBV?$CwiseNullaryOp@U?$scalar_constant_op@N@internal@Eigen@@$$CBV?$Matrix@N$0?0$0?0$0A@$0?0$0?0@3@@3@$$CBV?$Block@$$CBV?$Transpose@$$CBV?$Matrix@N$0?0$0?0$00$0?0$0?0@Eigen@@@Eigen@@$0?0$0?0$00@3@@1@AEBU?$sub_assign_op@NN@01@@Z
	??$call_assignment_no_alias@V?$Block@V?$Matrix@N$0?0$0?0$0A@$0?0$02@Eigen@@$0?0$0?0$0A@@Eigen@@V?$Block@$$CBV?$CwiseBinaryOp@U?$scalar_product_op@NN@internal@Eigen@@$$CBV?$CwiseNullaryOp@U?$scalar_constant_op@N@internal@Eigen@@$$CBV?$Matrix@N$0?0$0?0$0A@$02$02@3@@3@$$CBV?$Matrix@N$0?0$0?0$0A@$02$02@3@@Eigen@@$0?0$0?0$0A@@2@U?$sub_assign_op@NN@internal@2@@internal@Eigen@@YAXAEAV?$Block@V?$Matrix@N$0?0$0?0$0A@$0?0$02@Eigen@@$0?0$0?0$0A@@1@AEBV?$Block@$$CBV?$CwiseBinaryOp@U?$scalar_product_op@NN@internal@Eigen@@$$CBV?$CwiseNullaryOp@U?$scalar_constant_op@N@internal@Eigen@@$$CBV?$Matrix@N$0?0$0?0$0A@$02$02@3@@3@$$CBV?$Matrix@N$0?0$0?0$0A@$02$02@3@@Eigen@@$0?0$0?0$0A@@1@AEBU?$sub_assign_op@NN@01@@Z
	??$call_assignment_no_alias@V?$Block@V?$Matrix@N$0?0$0?0$0A@$0?0$0?0@Eigen@@$00$03$0A@@Eigen@@V?$CwiseBinaryOp@U?$scalar_product_op@NN@internal@Eigen@@$$CBV?$CwiseNullaryOp@U?$scalar_constant_op@N@internal@Eigen@@$$CBV?$Matrix@N$00$03$00$00$03@3@@3@$$CBV?$Transpose@V?$Matrix@N$03$00$0A@$03$00@Eigen@@@3@@2@U?$assign_op@NN@internal@2@@internal@Eigen@@YAXAEAV?$Block@V?$Matrix@N$0?0$0?0$0A@$0?0$0?0@Eigen@@$00$03$0A@@1@AEBV?$CwiseBinaryOp@U?$scalar_product_op@NN@internal@Eigen@@$$CBV?$CwiseNullaryOp@U?$scalar_constant_op@N@internal@Eigen@@$$CBV?$Matrix@N$00$03$00$00$03@3@@3@$$CBV?$Transpose@V?$Matrix@N$03$00$0A@$03$00@Eigen@@@3@@1@AEBU?$assign_op@NN@01@@Z
	??$call_assignment_no_alias@V?$Block@V?$Matrix@N$0?0$0?0$0A@$0?0$0?0@Eigen@@$0?0$00$00@Eigen@@V12@U?$swap_assign_op@N@internal@2@@internal@Eigen@@YAXAEAV?$Block@V?$Matrix@N$0?0$0?0$0A@$0?0$0?0@Eigen@@$0?0$00$00@1@AEBV21@AEBU?$swap_assign_op@N@01@@Z
	??$call_assignment_no_alias@V?$Block@V?$Matrix@N$0?0$0?0$0A@$0?0$0?0@Eigen@@$0?0$00$00@Eigen@@V?$CwiseBinaryOp@U?$scalar_product_op@NN@internal@Eigen@@$$CBV?$CwiseNullaryOp@U?$scalar_constant_op@N@internal@Eigen@@$$CBV?$Matrix@N$0?0$00$0A@$0?0$00@3@@3@$$CBV?$Block@$$CBV?$Product@V?$Matrix@N$0?0$0?0$0A@$0?0$0?0@Eigen@@V?$DiagonalWrapper@$$CBV?$Matrix@N$0?0$00$0A@$0?0$00@Eigen@@@2@$00@Eigen@@$0?0$00$00@3@@2@U?$add_assign_op@NN@internal@2@@internal@Eigen@@YAXAEAV?$Block@V?$Matrix@N$0?0$0?0$0A@$0?0$0?0@Eigen@@$0?0$00$00@1@AEBV?$CwiseBinaryOp@U?$scalar_product_op@NN@internal@Eigen@@$$CBV?$CwiseNullaryOp@U?$scalar_constant_op@N@internal@Eigen@@$$CBV?$Matrix@N$0?0$00$0A@$0?0$00@3@@3@$$CBV?$Block@$$CBV?$Product@V?$Matrix@N$0?0$0?0$0A@$0?0$0?0@Eigen@@V?$DiagonalWrapper@$$CBV?$Matrix@N$0?0$00$0A@$0?0$00@Eigen@@@2@$00@Eigen@@$0?0$00$00@3@@1@AEBU?$add_assign_op@NN@01@@Z
	??$call_assignment_no_alias@V?$Block@V?$Matrix@N$0?0$0?0$0A@$0?0$0?0@Eigen@@$0?0$00$00@Eigen@@V?$CwiseBinaryOp@U?$scalar_product_op@NN@internal@Eigen@@$$CBV?$CwiseNullaryOp@U?$scalar_constant_op@N@internal@Eigen@@$$CBV?$Matrix@N$0?0$00$0A@$0?0$00@3@@3@$$CBV?$Map@V?$Matrix@N$0?0$00$0A@$0?0$00@Eigen@@$01V?$Stride@$0A@$0A@@2@@3@@2@U?$add_assign_op@NN@internal@2@@internal@Eigen@@YAXAEAV?$Block@V?$Matrix@N$0?0$0?0$0A@$0?0$0?0@Eigen@@$0?0$00$00@1@AEBV?$CwiseBinaryOp@U?$scalar_product_op@NN@internal@Eigen@@$$CBV?$CwiseNullaryOp@U?$scalar_constant_op@N@internal@Eigen@@$$CBV?$Matrix@N$0?0$00$0A@$0?0$00@3@@3@$$CBV?$Map@V?$Matrix@N$0?0$00$0A@$0?0$00@Eigen@@$01V?$Stride@$0A@$0A@@2@@3@@1@AEBU?$add_assign_op@NN@01@@Z
	??$call_assignment_no_alias@V?$Block@V?$Matrix@N$0?0$0?0$0A@$0?0$0?0@Eigen@@$0?0$00$00@Eigen@@V?$CwiseNullaryOp@U?$scalar_constant_op@N@internal@Eigen@@$$CBV?$Matrix@N$0?0$00$0A@$0?0$00@3@@2@U?$mul_assign_op@NN@internal@2@@internal@Eigen@@YAXAEAV?$Block@V?$Matrix@N$0?0$0?0$0A@$0?0$0?0@Eigen@@$0?0$00$00@1@AEBV?$CwiseNullaryOp@U?$scalar_constant_op@N@internal@Eigen@@$$CBV?$Matrix@N$0?0$00$0A@$0?0$00@3@@1@AEBU?$mul_assign_op@NN@01@@Z
	??$call_assignment_no_alias@V?$Block@V?$Matrix@N$0?0$0?0$0A@$0?0$0?0@Eigen@@$0?0$00$00@Eigen@@V?$CwiseUnaryOp@U?$scalar_opposite_op@N@internal@Eigen@@$$CBV?$Block@V?$Matrix@N$0?0$0?0$0A@$0?0$0?0@Eigen@@$0?0$00$00@3@@2@U?$assign_op@NN@internal@2@@internal@Eigen@@YAXAEAV?$Block@V?$Matrix@N$0?0$0?0$0A@$0?0$0?0@Eigen@@$0?0$00$00@1@AEBV?$CwiseUnaryOp@U?$scalar_opposite_op@N@internal@Eigen@@$$CBV?$Block@V?$Matrix@N$0?0$0?0$0A@$0?0$0?0@Eigen@@$0?0$00$00@3@@1@AEBU?$assign_op@NN@01@@Z
	??$call_assignment_no_alias@V?$Block@V?$Matrix@N$0?0$0?0$0A@$0?0$0?0@Eigen@@$0?0$00$00@Eigen@@V?$Map@V?$Matrix@N$0?0$00$0A@$0?0$00@Eigen@@$01V?$Stride@$0A@$0A@@2@@2@U?$assign_op@NN@internal@2@@internal@Eigen@@YAXAEAV?$Block@V?$Matrix@N$0?0$0?0$0A@$0?0$0?0@Eigen@@$0?0$00$00@1@AEBV?$Map@V?$Matrix@N$0?0$00$0A@$0?0$00@Eigen@@$01V?$Stride@$0A@$0A@@2@@1@AEBU?$assign_op@NN@01@@Z
	??$call_assignment_no_alias@V?$Block@V?$Matrix@N$0?0$0?0$0A@$0?0$0?0@Eigen@@$0?0$0?0$00@Eigen@@V?$CwiseBinaryOp@U?$scalar_product_op@NN@internal@Eigen@@$$CBV?$CwiseNullaryOp@U?$scalar_constant_op@N@internal@Eigen@@$$CBV?$Matrix@N$0?0$0?0$00$0?0$0?0@3@@3@$$CBV?$Block@$$CBV?$Matrix@N$0?0$0?0$00$0?0$0?0@Eigen@@$0?0$0?0$0A@@3@@2@U?$sub_assign_op@NN@internal@2@@internal@Eigen@@YAXAEAV?$Block@V?$Matrix@N$0?0$0?0$0A@$0?0$0?0@Eigen@@$0?0$0?0$00@1@AEBV?$CwiseBinaryOp@U?$scalar_product_op@NN@internal@Eigen@@$$CBV?$CwiseNullaryOp@U?$scalar_constant_op@N@internal@Eigen@@$$CBV?$Matrix@N$0?0$0?0$00$0?0$0?0@3@@3@$$CBV?$Block@$$CBV?$Matrix@N$0?0$0?0$00$0?0$0?0@Eigen@@$0?0$0?0$0A@@3@@1@AEBU?$sub_assign_op@NN@01@@Z
	??$call_assignment_no_alias@V?$Block@V?$Matrix@N$0?0$0?0$0A@$0?0$0?0@Eigen@@$0?0$0?0$00@Eigen@@V?$CwiseBinaryOp@U?$scalar_product_op@NN@internal@Eigen@@$$CBV?$CwiseNullaryOp@U?$scalar_constant_op@N@internal@Eigen@@$$CBV?$Matrix@N$0?0$0?0$00$0?0$0?0@3@@3@$$CBV?$Block@$$CBV?$Transpose@$$CBV?$Block@V?$Matrix@N$0?0$0?0$0A@$0?0$0?0@Eigen@@$0?0$0?0$0A@@Eigen@@@Eigen@@$0?0$0?0$0A@@3@@2@U?$sub_assign_op@NN@internal@2@@internal@Eigen@@YAXAEAV?$Block@V?$Matrix@N$0?0$0?0$0A@$0?0$0?0@Eigen@@$0?0$0?0$00@1@AEBV?$CwiseBinaryOp@U?$scalar_product_op@NN@internal@Eigen@@$$CBV?$CwiseNullaryOp@U?$scalar_constant_op@N@internal@Eigen@@$$CBV?$Matrix@N$0?0$0?0$00$0?0$0?0@3@@3@$$CBV?$Block@$$CBV?$Transpose@$$CBV?$Block@V?$Matrix@N$0?0$0?0$0A@$0?0$0?0@Eigen@@$0?0$0?0$0A@@Eigen@@@Eigen@@$0?0$0?0$0A@@3@@1@AEBU?$sub_assign_op@NN@01@@Z
	??$call_assignment_no_alias@V?$Block@V?$Matrix@N$0?0$0?0$0A@$0?0$0?0@Eigen@@$0?0$0?0$00@Eigen@@V?$CwiseBinaryOp@U?$scalar_product_op@NN@internal@Eigen@@$$CBV?$CwiseNullaryOp@U?$scalar_constant_op@N@internal@Eigen@@$$CBV?$Matrix@N$0?0$0?0$0A@$0?0$0?0@3@@3@$$CBV?$Block@$$CBV?$Transpose@$$CBV?$Matrix@N$0?0$0?0$00$0?0$0?0@Eigen@@@Eigen@@$0?0$0?0$00@3@@2@U?$sub_assign_op@NN@internal@2@@internal@Eigen@@YAXAEAV?$Block@V?$Matrix@N$0?0$0?0$0A@$0?0$0?0@Eigen@@$0?0$0?0$00@1@AEBV?$CwiseBinaryOp@U?$scalar_product_op@NN@internal@Eigen@@$$CBV?$CwiseNullaryOp@U?$scalar_constant_op@N@internal@Eigen@@$$CBV?$Matrix@N$0?0$0?0$0A@$0?0$0?0@3@@3@$$CBV?$Block@$$CBV?$Transpose@$$CBV?$Matrix@N$0?0$0?0$00$0?0$0?0@Eigen@@@Eigen@@$0?0$0?0$00@3@@1@AEBU?$sub_assign_op@NN@01@@Z
	??$call_assignment_no_alias@V?$Block@V?$Matrix@N$0?0$0?0$0A@$0?0$0?0@Eigen@@$0?0$0?0$0A@@Eigen@@V?$Block@$$CBV?$CwiseBinaryOp@U?$scalar_product_op@NN@internal@Eigen@@$$CBV?$CwiseNullaryOp@U?$scalar_constant_op@N@internal@Eigen@@$$CBV?$Matrix@N$0?0$0?0$0A@$0?0$0?0@3@@3@$$CBV?$Block@V?$Matrix@N$0?0$0?0$0A@$0?0$0?0@Eigen@@$0?0$0?0$0A@@3@@Eigen@@$0?0$0?0$0A@@2@U?$sub_assign_op@NN@internal@2@@internal@Eigen@@YAXAEAV?$Block@V?$Matrix@N$0?0$0?0$0A@$0?0$0?0@Eigen@@$0?0$0?0$0A@@1@AEBV?$Block@$$CBV?$CwiseBinaryOp@U?$scalar_product_op@NN@internal@Eigen@@$$CBV?$CwiseNullaryOp@U?$scalar_constant_op@N@internal@Eigen@@$$CBV?$Matrix@N$0?0$0?0$0A@$0?0$0?0@3@@3@$$CBV?$Block@V?$Matrix@N$0?0$0?0$0A@$0?0$0?0@Eigen@@$0?0$0?0$0A@@3@@Eigen@@$0?0$0?0$0A@@1@AEBU?$sub_assign_op@NN@01@@Z
	??$call_assignment_no_alias@V?$Block@V?$Matrix@N$0?0$0?0$0A@$0?0$0?0@Eigen@@$0?0$0?0$0A@@Eigen@@V?$Block@$$CBV?$CwiseBinaryOp@U?$scalar_product_op@NN@internal@Eigen@@$$CBV?$CwiseNullaryOp@U?$scalar_constant_op@N@internal@Eigen@@$$CBV?$Matrix@N$0?0$0?0$0A@$0?0$0?0@3@@3@$$CBV?$Matrix@N$0?0$0?0$0A@$0?0$0?0@3@@Eigen@@$0?0$0?0$0A@@2@U?$sub_assign_op@NN@internal@2@@internal@Eigen@@YAXAEAV?$Block@V?$Matrix@N$0?0$0?0$0A@$0?0$0?0@Eigen@@$0?0$0?0$0A@@1@AEBV?$Block@$$CBV?$CwiseBinaryOp@U?$scalar_product_op@NN@internal@Eigen@@$$CBV?$CwiseNullaryOp@U?$scalar_constant_op@N@internal@Eigen@@$$CBV?$Matrix@N$0?0$0?0$0A@$0?0$0?0@3@@3@$$CBV?$Matrix@N$0?0$0?0$0A@$0?0$0?0@3@@Eigen@@$0?0$0?0$0A@@1@AEBU?$sub_assign_op@NN@01@@Z
	??$call_assignment_no_alias@V?$Block@V?$Matrix@N$0?0$0?0$0A@$0?0$0?0@Eigen@@$0?0$0?0$0A@@Eigen@@V?$CwiseNullaryOp@U?$scalar_constant_op@N@internal@Eigen@@$$CBV?$Matrix@N$0?0$0?0$0A@$0?0$0?0@3@@2@U?$mul_assign_op@NN@internal@2@@internal@Eigen@@YAXAEAV?$Block@V?$Matrix@N$0?0$0?0$0A@$0?0$0?0@Eigen@@$0?0$0?0$0A@@1@AEBV?$CwiseNullaryOp@U?$scalar_constant_op@N@internal@Eigen@@$$CBV?$Matrix@N$0?0$0?0$0A@$0?0$0?0@3@@1@AEBU?$mul_assign_op@NN@01@@Z
	??$call_assignment_no_alias@V?$Block@V?$Matrix@N$0?0$0?0$0A@$0?0$0?0@Eigen@@$0?0$0?0$0A@@Eigen@@V?$DiagonalWrapper@$$CBV?$Matrix@N$0?0$00$0A@$0?0$00@Eigen@@@2@U?$assign_op@NN@internal@2@@internal@Eigen@@YAXAEAV?$Block@V?$Matrix@N$0?0$0?0$0A@$0?0$0?0@Eigen@@$0?0$0?0$0A@@1@AEBV?$DiagonalWrapper@$$CBV?$Matrix@N$0?0$00$0A@$0?0$00@Eigen@@@1@AEBU?$assign_op@NN@01@@Z
	??$call_assignment_no_alias@V?$Block@V?$Matrix@N$0?0$0?0$0A@$0?0$0?0@Eigen@@$0?0$0?0$0A@@Eigen@@V?$Product@V?$TriangularView@$$CBV?$Block@V?$Matrix@N$0?0$0?0$0A@$0?0$0?0@Eigen@@$0?0$0?0$0A@@Eigen@@$04@Eigen@@V?$Matrix@N$0?0$0?0$0A@$0?0$0?0@2@$0A@@2@U?$sub_assign_op@NN@internal@2@@internal@Eigen@@YAXAEAV?$Block@V?$Matrix@N$0?0$0?0$0A@$0?0$0?0@Eigen@@$0?0$0?0$0A@@1@AEBV?$Product@V?$TriangularView@$$CBV?$Block@V?$Matrix@N$0?0$0?0$0A@$0?0$0?0@Eigen@@$0?0$0?0$0A@@Eigen@@$04@Eigen@@V?$Matrix@N$0?0$0?0$0A@$0?0$0?0@2@$0A@@1@AEBU?$sub_assign_op@NN@01@@Z
	??$call_assignment_no_alias@V?$Block@V?$Ref@V?$Matrix@N$02$02$0A@$02$02@Eigen@@$0A@V?$OuterStride@$0?0@2@@Eigen@@$00$02$0A@@Eigen@@V12@U?$swap_assign_op@N@internal@2@@internal@Eigen@@YAXAEAV?$Block@V?$Ref@V?$Matrix@N$02$02$0A@$02$02@Eigen@@$0A@V?$OuterStride@$0?0@2@@Eigen@@$00$02$0A@@1@AEBV21@AEBU?$swap_assign_op@N@01@@Z
	??$call_assignment_no_alias@V?$Block@V?$Ref@V?$Matrix@N$02$02$0A@$02$02@Eigen@@$0A@V?$OuterStride@$0?0@2@@Eigen@@$0?0$0?0$0A@@Eigen@@V?$Product@V?$Block@V?$Block@V?$Ref@V?$Matrix@N$02$02$0A@$02$02@Eigen@@$0A@V?$OuterStride@$0?0@2@@Eigen@@$02$00$00@Eigen@@$0?0$00$0A@@Eigen@@V?$Block@V?$Block@V?$Ref@V?$Matrix@N$02$02$0A@$02$02@Eigen@@$0A@V?$OuterStride@$0?0@2@@Eigen@@$00$02$0A@@Eigen@@$00$0?0$0A@@2@$00@2@U?$sub_assign_op@NN@internal@2@@internal@Eigen@@YAXAEAV?$Block@V?$Ref@V?$Matrix@N$02$02$0A@$02$02@Eigen@@$0A@V?$OuterStride@$0?0@2@@Eigen@@$0?0$0?0$0A@@1@AEBV?$Product@V?$Block@V?$Block@V?$Ref@V?$Matrix@N$02$02$0A@$02$02@Eigen@@$0A@V?$OuterStride@$0?0@2@@Eigen@@$02$00$00@Eigen@@$0?0$00$0A@@Eigen@@V?$Block@V?$Block@V?$Ref@V?$Matrix@N$02$02$0A@$02$02@Eigen@@$0A@V?$OuterStride@$0?0@2@@Eigen@@$00$02$0A@@Eigen@@$00$0?0$0A@@2@$00@1@AEBU?$sub_assign_op@NN@01@@Z
	??$call_assignment_no_alias@V?$Block@V?$Ref@V?$Matrix@N$02$02$0A@$02$02@Eigen@@$0A@V?$OuterStride@$0?0@2@@Eigen@@$0?0$0?0$0A@@Eigen@@V?$Product@V?$Block@V?$Block@V?$Ref@V?$Matrix@N$02$02$0A@$02$02@Eigen@@$0A@V?$OuterStride@$0?0@2@@Eigen@@$02$00$00@Eigen@@$0?0$00$0A@@Eigen@@V?$Block@V?$Block@V?$Ref@V?$Matrix@N$02$02$0A@$02$02@Eigen@@$0A@V?$OuterStride@$0?0@2@@Eigen@@$00$02$0A@@Eigen@@$00$0?0$0A@@2@$0A@@2@U?$sub_assign_op@NN@internal@2@@internal@Eigen@@YAXAEAV?$Block@V?$Ref@V?$Matrix@N$02$02$0A@$02$02@Eigen@@$0A@V?$OuterStride@$0?0@2@@Eigen@@$0?0$0?0$0A@@1@AEBV?$Product@V?$Block@V?$Block@V?$Ref@V?$Matrix@N$02$02$0A@$02$02@Eigen@@$0A@V?$OuterStride@$0?0@2@@Eigen@@$02$00$00@Eigen@@$0?0$00$0A@@Eigen@@V?$Block@V?$Block@V?$Ref@V?$Matrix@N$02$02$0A@$02$02@Eigen@@$0A@V?$OuterStride@$0?0@2@@Eigen@@$00$02$0A@@Eigen@@$00$0?0$0A@@2@$0A@@1@AEBU?$sub_assign_op@NN@01@@Z
	??$call_assignment_no_alias@V?$Block@V?$Ref@V?$Matrix@N$0?0$0?0$0A@$0?0$0?0@Eigen@@$0A@V?$OuterStride@$0?0@2@@Eigen@@$00$0?0$0A@@Eigen@@V12@U?$swap_assign_op@N@internal@2@@internal@Eigen@@YAXAEAV?$Block@V?$Ref@V?$Matrix@N$0?0$0?0$0A@$0?0$0?0@Eigen@@$0A@V?$OuterStride@$0?0@2@@Eigen@@$00$0?0$0A@@1@AEBV21@AEBU?$swap_assign_op@N@01@@Z
	??$call_assignment_no_alias@V?$Block@V?$Ref@V?$Matrix@N$0?0$0?0$0A@$0?0$0?0@Eigen@@$0A@V?$OuterStride@$0?0@2@@Eigen@@$0?0$00$00@Eigen@@V?$CwiseBinaryOp@U?$scalar_product_op@NN@internal@Eigen@@$$CBV?$CwiseNullaryOp@U?$scalar_constant_op@N@internal@Eigen@@$$CBV?$Matrix@N$0?0$00$0A@$0?0$00@3@@3@$$CBV?$Map@V?$Matrix@N$0?0$00$0A@$0?0$00@Eigen@@$01V?$Stride@$0A@$0A@@2@@3@@2@U?$add_assign_op@NN@internal@2@@internal@Eigen@@YAXAEAV?$Block@V?$Ref@V?$Matrix@N$0?0$0?0$0A@$0?0$0?0@Eigen@@$0A@V?$OuterStride@$0?0@2@@Eigen@@$0?0$00$00@1@AEBV?$CwiseBinaryOp@U?$scalar_product_op@NN@internal@Eigen@@$$CBV?$CwiseNullaryOp@U?$scalar_constant_op@N@internal@Eigen@@$$CBV?$Matrix@N$0?0$00$0A@$0?0$00@3@@3@$$CBV?$Map@V?$Matrix@N$0?0$00$0A@$0?0$00@Eigen@@$01V?$Stride@$0A@$0A@@2@@3@@1@AEBU?$add_assign_op@NN@01@@Z
	??$call_assignment_no_alias@V?$Block@V?$Ref@V?$Matrix@N$0?0$0?0$0A@$0?0$0?0@Eigen@@$0A@V?$OuterStride@$0?0@2@@Eigen@@$0?0$00$00@Eigen@@V?$Map@V?$Matrix@N$0?0$00$0A@$0?0$00@Eigen@@$01V?$Stride@$0A@$0A@@2@@2@U?$assign_op@NN@internal@2@@internal@Eigen@@YAXAEAV?$Block@V?$Ref@V?$Matrix@N$0?0$0?0$0A@$0?0$0?0@Eigen@@$0A@V?$OuterStride@$0?0@2@@Eigen@@$0?0$00$00@1@AEBV?$Map@V?$Matrix@N$0?0$00$0A@$0?0$00@Eigen@@$01V?$Stride@$0A@$0A@@2@@1@AEBU?$assign_op@NN@01@@Z
	??$call_assignment_no_alias@V?$Block@V?$Transpose@V?$Block@V?$Block@V?$Matrix@N$0?0$0?0$00$0?0$0?0@Eigen@@$00$0?0$00@Eigen@@$00$0?0$0A@@Eigen@@@Eigen@@$0?0$00$0A@@Eigen@@V?$CwiseBinaryOp@U?$scalar_product_op@NN@internal@Eigen@@$$CBV?$CwiseNullaryOp@U?$scalar_constant_op@N@internal@Eigen@@$$CBV?$Matrix@N$0?0$00$0A@$02$00@3@@3@$$CBV?$Block@$$CBV?$Transpose@$$CBV?$CwiseBinaryOp@U?$scalar_product_op@NN@internal@Eigen@@$$CBV?$CwiseNullaryOp@U?$scalar_constant_op@N@internal@Eigen@@$$CBV?$Matrix@N$00$0?0$00$00$02@3@@3@$$CBV?$Transpose@$$CBV?$Block@$$CBV?$Block@$$CBV?$Block@V?$Matrix@N$02$02$0A@$02$02@Eigen@@$0?0$0?0$0A@@Eigen@@$0?0$00$00@Eigen@@$0?0$00$0A@@Eigen@@@3@@Eigen@@@Eigen@@$0?0$00$0A@@3@@2@U?$sub_assign_op@NN@internal@2@@internal@Eigen@@YAXAEAV?$Block@V?$Transpose@V?$Block@V?$Block@V?$Matrix@N$0?0$0?0$00$0?0$0?0@Eigen@@$00$0?0$00@Eigen@@$00$0?0$0A@@Eigen@@@Eigen@@$0?0$00$0A@@1@AEBV?$CwiseBinaryOp@U?$scalar_product_op@NN@internal@Eigen@@$$CBV?$CwiseNullaryOp@U?$scalar_constant_op@N@internal@Eigen@@$$CBV?$Matrix@N$0?0$00$0A@$02$00@3@@3@$$CBV?$Block@$$CBV?$Transpose@$$CBV?$CwiseBinaryOp@U?$scalar_product_op@NN@internal@Eigen@@$$CBV?$CwiseNullaryOp@U?$scalar_constant_op@N@internal@Eigen@@$$CBV?$Matrix@N$00$0?0$00$00$02@3@@3@$$CBV?$Transpose@$$CBV?$Block@$$CBV?$Block@$$CBV?$Block@V?$Matrix@N$02$02$0A@$02$02@Eigen@@$0?0$0?0$0A@@Eigen@@$0?0$00$00@Eigen@@$0?0$00$0A@@Eigen@@@3@@Eigen@@@Eigen@@$0?0$00$0A@@3@@1@AEBU?$sub_assign_op@NN@01@@Z
	??$call_assignment_no_alias@V?$Block@V?$Transpose@V?$Block@V?$Block@V?$Matrix@N$0?0$0?0$00$0?0$0?0@Eigen@@$00$0?0$00@Eigen@@$00$0?0$0A@@Eigen@@@Eigen@@$0?0$00$0A@@Eigen@@V?$CwiseBinaryOp@U?$scalar_product_op@NN@internal@Eigen@@$$CBV?$CwiseNullaryOp@U?$scalar_constant_op@N@internal@Eigen@@$$CBV?$Matrix@N$0?0$00$0A@$0?0$00@3@@3@$$CBV?$Block@$$CBV?$Transpose@$$CBV?$CwiseBinaryOp@U?$scalar_product_op@NN@internal@Eigen@@$$CBV?$CwiseNullaryOp@U?$scalar_constant_op@N@internal@Eigen@@$$CBV?$Matrix@N$00$0?0$00$00$0?0@3@@3@$$CBV?$Transpose@$$CBV?$Block@$$CBV?$Block@$$CBV?$Block@V?$Matrix@N$0?0$0?0$0A@$0?0$0?0@Eigen@@$0?0$0?0$0A@@Eigen@@$0?0$00$00@Eigen@@$0?0$00$0A@@Eigen@@@3@@Eigen@@@Eigen@@$0?0$00$0A@@3@@2@U?$sub_assign_op@NN@internal@2@@internal@Eigen@@YAXAEAV?$Block@V?$Transpose@V?$Block@V?$Block@V?$Matrix@N$0?0$0?0$00$0?0$0?0@Eigen@@$00$0?0$00@Eigen@@$00$0?0$0A@@Eigen@@@Eigen@@$0?0$00$0A@@1@AEBV?$CwiseBinaryOp@U?$scalar_product_op@NN@internal@Eigen@@$$CBV?$CwiseNullaryOp@U?$scalar_constant_op@N@internal@Eigen@@$$CBV?$Matrix@N$0?0$00$0A@$0?0$00@3@@3@$$CBV?$Block@$$CBV?$Transpose@$$CBV?$CwiseBinaryOp@U?$scalar_product_op@NN@internal@Eigen@@$$CBV?$CwiseNullaryOp@U?$scalar_constant_op@N@internal@Eigen@@$$CBV?$Matrix@N$00$0?0$00$00$0?0@3@@3@$$CBV?$Transpose@$$CBV?$Block@$$CBV?$Block@$$CBV?$Block@V?$Matrix@N$0?0$0?0$0A@$0?0$0?0@Eigen@@$0?0$0?0$0A@@Eigen@@$0?0$00$00@Eigen@@$0?0$00$0A@@Eigen@@@3@@Eigen@@@Eigen@@$0?0$00$0A@@3@@1@AEBU?$sub_assign_op@NN@01@@Z
	??$call_assignment_no_alias@V?$Diagonal@V?$Block@V?$Matrix@N$0?0$0?0$0A@$0?0$0?0@Eigen@@$0?0$0?0$0A@@Eigen@@$0A@@Eigen@@V?$Matrix@N$0?0$00$0A@$0?0$00@2@U?$assign_op@NN@internal@2@@internal@Eigen@@YAXAEAV?$Diagonal@V?$Block@V?$Matrix@N$0?0$0?0$0A@$0?0$0?0@Eigen@@$0?0$0?0$0A@@Eigen@@$0A@@1@AEBV?$Matrix@N$0?0$00$0A@$0?0$00@1@AEBU?$assign_op@NN@01@@Z
	??$call_assignment_no_alias@V?$Map@V?$Matrix@N$00$02$00$00$02@Eigen@@$0A@V?$Stride@$0A@$0A@@2@@Eigen@@V?$Block@V?$Block@V?$Matrix@N$02$02$0A@$02$02@Eigen@@$0?0$02$0A@@Eigen@@$00$02$0A@@2@U?$add_assign_op@NN@internal@2@@internal@Eigen@@YAXAEAV?$Map@V?$Matrix@N$00$02$00$00$02@Eigen@@$0A@V?$Stride@$0A@$0A@@2@@1@AEBV?$Block@V?$Block@V?$Matrix@N$02$02$0A@$02$02@Eigen@@$0?0$02$0A@@Eigen@@$00$02$0A@@1@AEBU?$add_assign_op@NN@01@@Z
	??$call_assignment_no_alias@V?$Map@V?$Matrix@N$00$02$00$00$02@Eigen@@$0A@V?$Stride@$0A@$0A@@2@@Eigen@@V?$Product@V?$Transpose@$$CBV?$Block@$$CBV?$Matrix@N$02$02$0A@$02$02@Eigen@@$0?0$00$0A@@Eigen@@@Eigen@@V?$Block@V?$Block@V?$Matrix@N$02$02$0A@$02$02@Eigen@@$0?0$02$0A@@Eigen@@$0?0$02$0A@@2@$00@2@U?$assign_op@NN@internal@2@@internal@Eigen@@YAXAEAV?$Map@V?$Matrix@N$00$02$00$00$02@Eigen@@$0A@V?$Stride@$0A@$0A@@2@@1@AEBV?$Product@V?$Transpose@$$CBV?$Block@$$CBV?$Matrix@N$02$02$0A@$02$02@Eigen@@$0?0$00$0A@@Eigen@@@Eigen@@V?$Block@V?$Block@V?$Matrix@N$02$02$0A@$02$02@Eigen@@$0?0$02$0A@@Eigen@@$0?0$02$0A@@2@$00@1@AEBU?$assign_op@NN@01@@Z
	??$call_assignment_no_alias@V?$Map@V?$Matrix@N$00$02$00$00$02@Eigen@@$0A@V?$Stride@$0A@$0A@@2@@Eigen@@V?$Product@V?$Transpose@$$CBV?$Block@$$CBV?$Matrix@N$02$02$0A@$02$02@Eigen@@$0?0$00$0A@@Eigen@@@Eigen@@V?$Block@V?$Block@V?$Matrix@N$02$02$0A@$02$02@Eigen@@$0?0$02$0A@@Eigen@@$0?0$02$0A@@2@$0A@@2@U?$assign_op@NN@internal@2@@internal@Eigen@@YAXAEAV?$Map@V?$Matrix@N$00$02$00$00$02@Eigen@@$0A@V?$Stride@$0A@$0A@@2@@1@AEBV?$Product@V?$Transpose@$$CBV?$Block@$$CBV?$Matrix@N$02$02$0A@$02$02@Eigen@@$0?0$00$0A@@Eigen@@@Eigen@@V?$Block@V?$Block@V?$Matrix@N$02$02$0A@$02$02@Eigen@@$0?0$02$0A@@Eigen@@$0?0$02$0A@@2@$0A@@1@AEBU?$assign_op@NN@01@@Z
	??$call_assignment_no_alias@V?$Map@V?$Matrix@N$00$0?0$00$00$02@Eigen@@$0A@V?$Stride@$0A@$0A@@2@@Eigen@@V?$Block@V?$Block@V?$Block@V?$Matrix@N$02$02$0A@$02$02@Eigen@@$0?0$0?0$0A@@Eigen@@$0?0$0?0$0A@@Eigen@@$00$0?0$0A@@2@U?$add_assign_op@NN@internal@2@@internal@Eigen@@YAXAEAV?$Map@V?$Matrix@N$00$0?0$00$00$02@Eigen@@$0A@V?$Stride@$0A@$0A@@2@@1@AEBV?$Block@V?$Block@V?$Block@V?$Matrix@N$02$02$0A@$02$02@Eigen@@$0?0$0?0$0A@@Eigen@@$0?0$0?0$0A@@Eigen@@$00$0?0$0A@@1@AEBU?$add_assign_op@NN@01@@Z
	??$call_assignment_no_alias@V?$Map@V?$Matrix@N$00$0?0$00$00$02@Eigen@@$0A@V?$Stride@$0A@$0A@@2@@Eigen@@V?$Block@V?$Block@V?$Matrix@N$02$02$0A@$02$02@Eigen@@$0?0$0?0$0A@@Eigen@@$00$0?0$0A@@2@U?$add_assign_op@NN@internal@2@@internal@Eigen@@YAXAEAV?$Map@V?$Matrix@N$00$0?0$00$00$02@Eigen@@$0A@V?$Stride@$0A@$0A@@2@@1@AEBV?$Block@V?$Block@V?$Matrix@N$02$02$0A@$02$02@Eigen@@$0?0$0?0$0A@@Eigen@@$00$0?0$0A@@1@AEBU?$add_assign_op@NN@01@@Z
	??$call_assignment_no_alias@V?$Map@V?$Matrix@N$00$0?0$00$00$02@Eigen@@$0A@V?$Stride@$0A@$0A@@2@@Eigen@@V?$Product@V?$Transpose@$$CBV?$Block@$$CBV?$Matrix@N$02$02$0A@$02$02@Eigen@@$0?0$00$0A@@Eigen@@@Eigen@@V?$Block@V?$Block@V?$Matrix@N$02$02$0A@$02$02@Eigen@@$0?0$0?0$0A@@Eigen@@$0?0$0?0$0A@@2@$00@2@U?$assign_op@NN@internal@2@@internal@Eigen@@YAXAEAV?$Map@V?$Matrix@N$00$0?0$00$00$02@Eigen@@$0A@V?$Stride@$0A@$0A@@2@@1@AEBV?$Product@V?$Transpose@$$CBV?$Block@$$CBV?$Matrix@N$02$02$0A@$02$02@Eigen@@$0?0$00$0A@@Eigen@@@Eigen@@V?$Block@V?$Block@V?$Matrix@N$02$02$0A@$02$02@Eigen@@$0?0$0?0$0A@@Eigen@@$0?0$0?0$0A@@2@$00@1@AEBU?$assign_op@NN@01@@Z
	??$call_assignment_no_alias@V?$Map@V?$Matrix@N$00$0?0$00$00$02@Eigen@@$0A@V?$Stride@$0A@$0A@@2@@Eigen@@V?$Product@V?$Transpose@$$CBV?$Block@$$CBV?$Matrix@N$02$02$0A@$02$02@Eigen@@$0?0$00$0A@@Eigen@@@Eigen@@V?$Block@V?$Block@V?$Matrix@N$02$02$0A@$02$02@Eigen@@$0?0$0?0$0A@@Eigen@@$0?0$0?0$0A@@2@$0A@@2@U?$assign_op@NN@internal@2@@internal@Eigen@@YAXAEAV?$Map@V?$Matrix@N$00$0?0$00$00$02@Eigen@@$0A@V?$Stride@$0A@$0A@@2@@1@AEBV?$Product@V?$Transpose@$$CBV?$Block@$$CBV?$Matrix@N$02$02$0A@$02$02@Eigen@@$0?0$00$0A@@Eigen@@@Eigen@@V?$Block@V?$Block@V?$Matrix@N$02$02$0A@$02$02@Eigen@@$0?0$0?0$0A@@Eigen@@$0?0$0?0$0A@@2@$0A@@1@AEBU?$assign_op@NN@01@@Z
	??$call_assignment_no_alias@V?$Map@V?$Matrix@N$00$0?0$00$00$02@Eigen@@$0A@V?$Stride@$0A@$0A@@2@@Eigen@@V?$Product@V?$Transpose@$$CBV?$Block@V?$Block@V?$Block@V?$Matrix@N$02$02$0A@$02$02@Eigen@@$0?0$0?0$0A@@Eigen@@$0?0$00$00@Eigen@@$0?0$00$0A@@Eigen@@@Eigen@@V?$Block@V?$Block@V?$Block@V?$Matrix@N$02$02$0A@$02$02@Eigen@@$0?0$0?0$0A@@Eigen@@$0?0$0?0$0A@@Eigen@@$0?0$0?0$0A@@2@$00@2@U?$assign_op@NN@internal@2@@internal@Eigen@@YAXAEAV?$Map@V?$Matrix@N$00$0?0$00$00$02@Eigen@@$0A@V?$Stride@$0A@$0A@@2@@1@AEBV?$Product@V?$Transpose@$$CBV?$Block@V?$Block@V?$Block@V?$Matrix@N$02$02$0A@$02$02@Eigen@@$0?0$0?0$0A@@Eigen@@$0?0$00$00@Eigen@@$0?0$00$0A@@Eigen@@@Eigen@@V?$Block@V?$Block@V?$Block@V?$Matrix@N$02$02$0A@$02$02@Eigen@@$0?0$0?0$0A@@Eigen@@$0?0$0?0$0A@@Eigen@@$0?0$0?0$0A@@2@$00@1@AEBU?$assign_op@NN@01@@Z
