EXPORTS 
	??_R0?AUConfigurable@GetSetGui@@@8 	 DATA
	??_R0?AUIniFile@GetSetIO@@@8 	 DATA
	??_R0?AUInputOutput@GetSetIO@@@8 	 DATA
	??_R0?AUObserver@Dictionary@GetSetInternal@@@8 	 DATA
	??_R0?AUStringRepresentation@GetSetInternal@@@8 	 DATA
	??_R0?AUTxtKeyValue@GetSetIO@@@8 	 DATA
	??_R0?AV?$GetSet@V?$basic_string@DU?$char_traits@D@std@@V?$allocator@D@2@@std@@@@@8 	 DATA
	??_R0?AV?$GetSet@_N@@@8 	 DATA
	??_R0?AV?$Key@D@GetSetInternal@@@8 	 DATA
	??_R0?AV?$Key@E@GetSetInternal@@@8 	 DATA
	??_R0?AV?$Key@F@GetSetInternal@@@8 	 DATA
	??_R0?AV?$Key@G@GetSetInternal@@@8 	 DATA
	??_R0?AV?$Key@H@GetSetInternal@@@8 	 DATA
	??_R0?AV?$Key@I@GetSetInternal@@@8 	 DATA
	??_R0?AV?$Key@J@GetSetInternal@@@8 	 DATA
	??_R0?AV?$Key@K@GetSetInternal@@@8 	 DATA
	??_R0?AV?$Key@M@GetSetInternal@@@8 	 DATA
	??_R0?AV?$Key@N@GetSetInternal@@@8 	 DATA
	??_R0?AV?$Key@V?$basic_string@DU?$char_traits@D@std@@V?$allocator@D@2@@std@@@GetSetInternal@@@8 	 DATA
	??_R0?AV?$Key@V?$vector@DV?$allocator@D@std@@@std@@@GetSetInternal@@@8 	 DATA
	??_R0?AV?$Key@V?$vector@EV?$allocator@E@std@@@std@@@GetSetInternal@@@8 	 DATA
	??_R0?AV?$Key@V?$vector@FV?$allocator@F@std@@@std@@@GetSetInternal@@@8 	 DATA
	??_R0?AV?$Key@V?$vector@GV?$allocator@G@std@@@std@@@GetSetInternal@@@8 	 DATA
	??_R0?AV?$Key@V?$vector@HV?$allocator@H@std@@@std@@@GetSetInternal@@@8 	 DATA
	??_R0?AV?$Key@V?$vector@IV?$allocator@I@std@@@std@@@GetSetInternal@@@8 	 DATA
	??_R0?AV?$Key@V?$vector@JV?$allocator@J@std@@@std@@@GetSetInternal@@@8 	 DATA
	??_R0?AV?$Key@V?$vector@KV?$allocator@K@std@@@std@@@GetSetInternal@@@8 	 DATA
	??_R0?AV?$Key@V?$vector@MV?$allocator@M@std@@@std@@@GetSetInternal@@@8 	 DATA
	??_R0?AV?$Key@V?$vector@NV?$allocator@N@std@@@std@@@GetSetInternal@@@8 	 DATA
	??_R0?AV?$Key@V?$vector@V?$basic_string@DU?$char_traits@D@std@@V?$allocator@D@2@@std@@V?$allocator@V?$basic_string@DU?$char_traits@D@std@@V?$allocator@D@2@@std@@@2@@std@@@GetSetInternal@@@8 	 DATA
	??_R0?AV?$Key@V?$vector@_NV?$allocator@_N@std@@@std@@@GetSetInternal@@@8 	 DATA
	??_R0?AV?$Key@_N@GetSetInternal@@@8 	 DATA
	??_R0?AV?$_Iosb@H@std@@@8 	 DATA
	??_R0?AV?$basic_filebuf@DU?$char_traits@D@std@@@std@@@8 	 DATA
	??_R0?AV?$basic_ifstream@DU?$char_traits@D@std@@@std@@@8 	 DATA
	??_R0?AV?$basic_ios@DU?$char_traits@D@std@@@std@@@8 	 DATA
	??_R0?AV?$basic_iostream@DU?$char_traits@D@std@@@std@@@8 	 DATA
	??_R0?AV?$basic_istream@DU?$char_traits@D@std@@@std@@@8 	 DATA
	??_R0?AV?$basic_istringstream@DU?$char_traits@D@std@@V?$allocator@D@2@@std@@@8 	 DATA
	??_R0?AV?$basic_ofstream@DU?$char_traits@D@std@@@std@@@8 	 DATA
	??_R0?AV?$basic_ostream@DU?$char_traits@D@std@@@std@@@8 	 DATA
	??_R0?AV?$basic_ostringstream@DU?$char_traits@D@std@@V?$allocator@D@2@@std@@@8 	 DATA
	??_R0?AV?$basic_streambuf@DU?$char_traits@D@std@@@std@@@8 	 DATA
	??_R0?AV?$basic_stringbuf@DU?$char_traits@D@std@@V?$allocator@D@2@@std@@@8 	 DATA
	??_R0?AV?$basic_stringstream@DU?$char_traits@D@std@@V?$allocator@D@2@@std@@@8 	 DATA
	??_R0?AVButton@GetSetGui@@@8 	 DATA
	??_R0?AVDictionary@GetSetInternal@@@8 	 DATA
	??_R0?AVGetSetHandler@@@8 	 DATA
	??_R0?AVGetSetScriptParser@@@8 	 DATA
	??_R0?AVKeyButton@GetSetInternal@@@8 	 DATA
	??_R0?AVKeyDirectory@GetSetInternal@@@8 	 DATA
	??_R0?AVKeyEnum@GetSetInternal@@@8 	 DATA
	??_R0?AVKeyFile@GetSetInternal@@@8 	 DATA
	??_R0?AVKeyRangedDouble@GetSetInternal@@@8 	 DATA
	??_R0?AVKeyReadOnlyText@GetSetInternal@@@8 	 DATA
	??_R0?AVKeySlider@GetSetInternal@@@8 	 DATA
	??_R0?AVKeyStaticText@GetSetInternal@@@8 	 DATA
	??_R0?AVNode@GetSetInternal@@@8 	 DATA
	??_R0?AVObject@GetSetGui@@@8 	 DATA
	??_R0?AVProgressInterface@GetSetGui@@@8 	 DATA
	??_R0?AVSection@GetSetGui@@@8 	 DATA
	??_R0?AVSection@GetSetInternal@@@8 	 DATA
	??_R0?AVbad_alloc@std@@@8 	 DATA
	??_R0?AVbad_array_new_length@std@@@8 	 DATA
	??_R0?AVbad_cast@std@@@8 	 DATA
	??_R0?AVexception@std@@@8 	 DATA
	??_R0?AVios_base@std@@@8 	 DATA
	??_R0?AVruntime_error@std@@@8 	 DATA
	?_Psave@?$_Facetptr@V?$codecvt@DDU_Mbstatet@@@std@@@std@@2PEBVfacet@locale@2@EB 	 DATA
	?_Psave@?$_Facetptr@V?$ctype@D@std@@@std@@2PEBVfacet@locale@2@EB 	 DATA
	?_Stinit@?1??_Init@?$basic_filebuf@DU?$char_traits@D@std@@@std@@IEAAXPEAU_iobuf@@W4_Initfl@23@@Z@4U_Mbstatet@@A 	 DATA
	?default_interface@GetSetGui@@3VProgressInterface@1@A 	 DATA
	?default_interface_ptr@GetSetGui@@3PEAVProgressInterface@1@EA 	 DATA
	?factory_registration@GetSetInternal@@3V?$map@V?$basic_string@DU?$char_traits@D@std@@V?$allocator@D@2@@std@@P6APEAVObject@GetSetGui@@AEBVSection@4@AEAVProgressInterface@4@@ZU?$less@V?$basic_string@DU?$char_traits@D@std@@V?$allocator@D@2@@std@@@2@V?$allocator@U?$pair@$$CBV?$basic_string@DU?$char_traits@D@std@@V?$allocator@D@2@@std@@P6APEAVObject@GetSetGui@@AEBVSection@4@AEAVProgressInterface@4@@Z@std@@@2@@std@@A 	 DATA
	_Avx2WmemEnabledWeakValue 	 DATA
	??$?0$$QEAE$$Z$$V@?$pair@$$CBEE@std@@QEAA@Upiecewise_construct_t@1@V?$tuple@$$QEAE@1@V?$tuple@$$V@1@@Z
	??$?0$$QEAV?$basic_string@DU?$char_traits@D@std@@V?$allocator@D@2@@std@@$$Z$$V@?$pair@$$CBV?$basic_string@DU?$char_traits@D@std@@V?$allocator@D@2@@std@@V12@@std@@QEAA@Upiecewise_construct_t@1@V?$tuple@$$QEAV?$basic_string@DU?$char_traits@D@std@@V?$allocator@D@2@@std@@@1@V?$tuple@$$V@1@@Z
	??$?0$$V@?$_Compressed_pair@V?$allocator@D@std@@V?$_String_val@U?$_Simple_types@D@std@@@2@$00@std@@QEAA@U_Zero_then_variadic_args_t@1@@Z
	??$?0$$V@?$_Compressed_pair@V?$allocator@D@std@@V?$_Vector_val@U?$_Simple_types@D@std@@@2@$00@std@@QEAA@U_Zero_then_variadic_args_t@1@@Z
	??$?0$$V@?$_Compressed_pair@V?$allocator@E@std@@V?$_Vector_val@U?$_Simple_types@E@std@@@2@$00@std@@QEAA@U_Zero_then_variadic_args_t@1@@Z
	??$?0$$V@?$_Compressed_pair@V?$allocator@F@std@@V?$_Vector_val@U?$_Simple_types@F@std@@@2@$00@std@@QEAA@U_Zero_then_variadic_args_t@1@@Z
	??$?0$$V@?$_Compressed_pair@V?$allocator@G@std@@V?$_Vector_val@U?$_Simple_types@G@std@@@2@$00@std@@QEAA@U_Zero_then_variadic_args_t@1@@Z
	??$?0$$V@?$_Compressed_pair@V?$allocator@H@std@@V?$_Vector_val@U?$_Simple_types@H@std@@@2@$00@std@@QEAA@U_Zero_then_variadic_args_t@1@@Z
	??$?0$$V@?$_Compressed_pair@V?$allocator@I@std@@V?$_Vector_val@U?$_Simple_types@I@std@@@2@$00@std@@QEAA@U_Zero_then_variadic_args_t@1@@Z
	??$?0$$V@?$_Compressed_pair@V?$allocator@J@std@@V?$_Vector_val@U?$_Simple_types@J@std@@@2@$00@std@@QEAA@U_Zero_then_variadic_args_t@1@@Z
	??$?0$$V@?$_Compressed_pair@V?$allocator@K@std@@V?$_Vector_val@U?$_Simple_types@K@std@@@2@$00@std@@QEAA@U_Zero_then_variadic_args_t@1@@Z
	??$?0$$V@?$_Compressed_pair@V?$allocator@M@std@@V?$_Vector_val@U?$_Simple_types@M@std@@@2@$00@std@@QEAA@U_Zero_then_variadic_args_t@1@@Z
	??$?0$$V@?$_Compressed_pair@V?$allocator@N@std@@V?$_Vector_val@U?$_Simple_types@N@std@@@2@$00@std@@QEAA@U_Zero_then_variadic_args_t@1@@Z
	??$?0$$V@?$_Compressed_pair@V?$allocator@U?$_Tree_node@PEAUObserver@Dictionary@GetSetInternal@@PEAX@std@@@std@@V?$_Tree_val@U?$_Tree_simple_types@PEAUObserver@Dictionary@GetSetInternal@@@std@@@2@$00@std@@QEAA@U_Zero_then_variadic_args_t@1@@Z
	??$?0$$V@?$_Compressed_pair@V?$allocator@U?$_Tree_node@U?$pair@$$CBEE@std@@PEAX@std@@@std@@V?$_Tree_val@U?$_Tree_simple_types@U?$pair@$$CBEE@std@@@std@@@2@$00@std@@QEAA@U_Zero_then_variadic_args_t@1@@Z
	??$?0$$V@?$_Compressed_pair@V?$allocator@U?$_Tree_node@U?$pair@$$CBV?$basic_string@DU?$char_traits@D@std@@V?$allocator@D@2@@std@@P6APEAVObject@GetSetGui@@AEBVSection@4@AEAVProgressInterface@4@@Z@std@@PEAX@std@@@std@@V?$_Tree_val@U?$_Tree_simple_types@U?$pair@$$CBV?$basic_string@DU?$char_traits@D@std@@V?$allocator@D@2@@std@@P6APEAVObject@GetSetGui@@AEBVSection@4@AEAVProgressInterface@4@@Z@std@@@std@@@2@$00@std@@QEAA@U_Zero_then_variadic_args_t@1@@Z
	??$?0$$V@?$_Compressed_pair@V?$allocator@U?$_Tree_node@U?$pair@$$CBV?$basic_string@DU?$char_traits@D@std@@V?$allocator@D@2@@std@@PEAVNode@GetSetInternal@@@std@@PEAX@std@@@std@@V?$_Tree_val@U?$_Tree_simple_types@U?$pair@$$CBV?$basic_string@DU?$char_traits@D@std@@V?$allocator@D@2@@std@@PEAVNode@GetSetInternal@@@std@@@std@@@2@$00@std@@QEAA@U_Zero_then_variadic_args_t@1@@Z
	??$?0$$V@?$_Compressed_pair@V?$allocator@U?$_Tree_node@U?$pair@$$CBV?$basic_string@DU?$char_traits@D@std@@V?$allocator@D@2@@std@@V12@@std@@PEAX@std@@@std@@V?$_Tree_val@U?$_Tree_simple_types@U?$pair@$$CBV?$basic_string@DU?$char_traits@D@std@@V?$allocator@D@2@@std@@V12@@std@@@std@@@2@$00@std@@QEAA@U_Zero_then_variadic_args_t@1@@Z
	??$?0$$V@?$_Compressed_pair@V?$allocator@U?$_Tree_node@U?$pair@$$CBV?$basic_string@DU?$char_traits@D@std@@V?$allocator@D@2@@std@@V?$map@V?$basic_string@DU?$char_traits@D@std@@V?$allocator@D@2@@std@@V12@U?$less@V?$basic_string@DU?$char_traits@D@std@@V?$allocator@D@2@@std@@@2@V?$allocator@U?$pair@$$CBV?$basic_string@DU?$char_traits@D@std@@V?$allocator@D@2@@std@@V12@@std@@@2@@2@@std@@PEAX@std@@@std@@V?$_Tree_val@U?$_Tree_simple_types@U?$pair@$$CBV?$basic_string@DU?$char_traits@D@std@@V?$allocator@D@2@@std@@V?$map@V?$basic_string@DU?$char_traits@D@std@@V?$allocator@D@2@@std@@V12@U?$less@V?$basic_string@DU?$char_traits@D@std@@V?$allocator@D@2@@std@@@2@V?$allocator@U?$pair@$$CBV?$basic_string@DU?$char_traits@D@std@@V?$allocator@D@2@@std@@V12@@std@@@2@@2@@std@@@std@@@2@$00@std@@QEAA@U_Zero_then_variadic_args_t@1@@Z
	??$?0$$V@?$_Compressed_pair@V?$allocator@U?$_Tree_node@U?$pair@QEAXP6AXAEBV?$basic_string@DU?$char_traits@D@std@@V?$allocator@D@2@@std@@PEAX@Z@std@@PEAX@std@@@std@@V?$_Tree_val@U?$_Tree_simple_types@U?$pair@QEAXP6AXAEBV?$basic_string@DU?$char_traits@D@std@@V?$allocator@D@2@@std@@PEAX@Z@std@@@std@@@2@$00@std@@QEAA@U_Zero_then_variadic_args_t@1@@Z
	??$?0$$V@?$_Compressed_pair@V?$allocator@U?$_Tree_node@V?$basic_string@DU?$char_traits@D@std@@V?$allocator@D@2@@std@@PEAX@std@@@std@@V?$_Tree_val@U?$_Tree_simple_types@V?$basic_string@DU?$char_traits@D@std@@V?$allocator@D@2@@std@@@std@@@2@$00@std@@QEAA@U_Zero_then_variadic_args_t@1@@Z
	??$?0$$V@?$_Compressed_pair@V?$allocator@V?$basic_string@DU?$char_traits@D@std@@V?$allocator@D@2@@std@@@std@@V?$_Vector_val@U?$_Simple_types@V?$basic_string@DU?$char_traits@D@std@@V?$allocator@D@2@@std@@@std@@@2@$00@std@@QEAA@U_Zero_then_variadic_args_t@1@@Z
	??$?0AEAHAEAV?$basic_string@DU?$char_traits@D@std@@V?$allocator@D@2@@std@@$0A@@?$pair@HV?$basic_string@DU?$char_traits@D@std@@V?$allocator@D@2@@std@@@std@@QEAA@AEAHAEAV?$basic_string@DU?$char_traits@D@std@@V?$allocator@D@2@@1@@Z
	??$?0AEAPEAU?$_Tree_node@PEAUObserver@Dictionary@GetSetInternal@@PEAX@std@@AEAPEAU01@$0A@@?$pair@PEAU?$_Tree_node@PEAUObserver@Dictionary@GetSetInternal@@PEAX@std@@PEAU12@@std@@QEAA@AEAPEAU?$_Tree_node@PEAUObserver@Dictionary@GetSetInternal@@PEAX@1@0@Z
	??$?0AEAPEAU?$_Tree_node@PEAUObserver@Dictionary@GetSetInternal@@PEAX@std@@_N$0A@@?$pair@PEAU?$_Tree_node@PEAUObserver@Dictionary@GetSetInternal@@PEAX@std@@_N@std@@QEAA@AEAPEAU?$_Tree_node@PEAUObserver@Dictionary@GetSetInternal@@PEAX@1@$$QEA_N@Z
	??$?0AEAPEAU?$_Tree_node@V?$basic_string@DU?$char_traits@D@std@@V?$allocator@D@2@@std@@PEAX@std@@AEAPEAU01@$0A@@?$pair@PEAU?$_Tree_node@V?$basic_string@DU?$char_traits@D@std@@V?$allocator@D@2@@std@@PEAX@std@@PEAU12@@std@@QEAA@AEAPEAU?$_Tree_node@V?$basic_string@DU?$char_traits@D@std@@V?$allocator@D@2@@std@@PEAX@1@0@Z
	??$?0AEAPEAU?$_Tree_node@V?$basic_string@DU?$char_traits@D@std@@V?$allocator@D@2@@std@@PEAX@std@@_N$0A@@?$pair@PEAU?$_Tree_node@V?$basic_string@DU?$char_traits@D@std@@V?$allocator@D@2@@std@@PEAX@std@@_N@std@@QEAA@AEAPEAU?$_Tree_node@V?$basic_string@DU?$char_traits@D@std@@V?$allocator@D@2@@std@@PEAX@1@$$QEA_N@Z
	??$?0AEAPEAV_Facet_base@std@@@?$_Compressed_pair@U?$default_delete@V_Facet_base@std@@@std@@PEAV_Facet_base@2@$00@std@@QEAA@U_Zero_then_variadic_args_t@1@AEAPEAV_Facet_base@1@@Z
	??$?0AEAV?$_String_const_iterator@V?$_String_val@U?$_Simple_types@D@std@@@std@@@std@@AEAV01@$0A@@?$pair@V?$_String_const_iterator@V?$_String_val@U?$_Simple_types@D@std@@@std@@@std@@V12@@std@@QEAA@AEAV?$_String_const_iterator@V?$_String_val@U?$_Simple_types@D@std@@@std@@@1@0@Z
	??$?0AEAV?$allocator@D@std@@$$V@?$_Compressed_pair@V?$allocator@D@std@@V?$_String_val@U?$_Simple_types@D@std@@@2@$00@std@@QEAA@U_One_then_variadic_args_t@1@AEAV?$allocator@D@1@@Z
	??$?0AEBQEAU?$_Tree_node@U?$pair@$$CBEE@std@@PEAX@std@@_N$0A@@?$pair@PEAU?$_Tree_node@U?$pair@$$CBEE@std@@PEAX@std@@_N@std@@QEAA@AEBQEAU?$_Tree_node@U?$pair@$$CBEE@std@@PEAX@1@$$QEA_N@Z
	??$?0AEBQEAU?$_Tree_node@U?$pair@$$CBV?$basic_string@DU?$char_traits@D@std@@V?$allocator@D@2@@std@@P6APEAVObject@GetSetGui@@AEBVSection@4@AEAVProgressInterface@4@@Z@std@@PEAX@std@@_N$0A@@?$pair@PEAU?$_Tree_node@U?$pair@$$CBV?$basic_string@DU?$char_traits@D@std@@V?$allocator@D@2@@std@@P6APEAVObject@GetSetGui@@AEBVSection@4@AEAVProgressInterface@4@@Z@std@@PEAX@std@@_N@std@@QEAA@AEBQEAU?$_Tree_node@U?$pair@$$CBV?$basic_string@DU?$char_traits@D@std@@V?$allocator@D@2@@std@@P6APEAVObject@GetSetGui@@AEBVSection@4@AEAVProgressInterface@4@@Z@std@@PEAX@1@$$QEA_N@Z
	??$?0AEBQEAU?$_Tree_node@U?$pair@$$CBV?$basic_string@DU?$char_traits@D@std@@V?$allocator@D@2@@std@@PEAVNode@GetSetInternal@@@std@@PEAX@std@@_N$0A@@?$pair@PEAU?$_Tree_node@U?$pair@$$CBV?$basic_string@DU?$char_traits@D@std@@V?$allocator@D@2@@std@@PEAVNode@GetSetInternal@@@std@@PEAX@std@@_N@std@@QEAA@AEBQEAU?$_Tree_node@U?$pair@$$CBV?$basic_string@DU?$char_traits@D@std@@V?$allocator@D@2@@std@@PEAVNode@GetSetInternal@@@std@@PEAX@1@$$QEA_N@Z
	??$?0AEBQEAU?$_Tree_node@U?$pair@$$CBV?$basic_string@DU?$char_traits@D@std@@V?$allocator@D@2@@std@@V12@@std@@PEAX@std@@_N$0A@@?$pair@PEAU?$_Tree_node@U?$pair@$$CBV?$basic_string@DU?$char_traits@D@std@@V?$allocator@D@2@@std@@V12@@std@@PEAX@std@@_N@std@@QEAA@AEBQEAU?$_Tree_node@U?$pair@$$CBV?$basic_string@DU?$char_traits@D@std@@V?$allocator@D@2@@std@@V12@@std@@PEAX@1@$$QEA_N@Z
	??$?0AEBQEAU?$_Tree_node@U?$pair@$$CBV?$basic_string@DU?$char_traits@D@std@@V?$allocator@D@2@@std@@V?$map@V?$basic_string@DU?$char_traits@D@std@@V?$allocator@D@2@@std@@V12@U?$less@V?$basic_string@DU?$char_traits@D@std@@V?$allocator@D@2@@std@@@2@V?$allocator@U?$pair@$$CBV?$basic_string@DU?$char_traits@D@std@@V?$allocator@D@2@@std@@V12@@std@@@2@@2@@std@@PEAX@std@@_N$0A@@?$pair@PEAU?$_Tree_node@U?$pair@$$CBV?$basic_string@DU?$char_traits@D@std@@V?$allocator@D@2@@std@@V?$map@V?$basic_string@DU?$char_traits@D@std@@V?$allocator@D@2@@std@@V12@U?$less@V?$basic_string@DU?$char_traits@D@std@@V?$allocator@D@2@@std@@@2@V?$allocator@U?$pair@$$CBV?$basic_string@DU?$char_traits@D@std@@V?$allocator@D@2@@std@@V12@@std@@@2@@2@@std@@PEAX@std@@_N@std@@QEAA@AEBQEAU?$_Tree_node@U?$pair@$$CBV?$basic_string@DU?$char_traits@D@std@@V?$allocator@D@2@@std@@V?$map@V?$basic_string@DU?$char_traits@D@std@@V?$allocator@D@2@@std@@V12@U?$less@V?$basic_string@DU?$char_traits@D@std@@V?$allocator@D@2@@std@@@2@V?$allocator@U?$pair@$$CBV?$basic_string@DU?$char_traits@D@std@@V?$allocator@D@2@@std@@V12@@std@@@2@@2@@std@@PEAX@1@$$QEA_N@Z
	??$?0AEBQEAU?$_Tree_node@U?$pair@QEAXP6AXAEBV?$basic_string@DU?$char_traits@D@std@@V?$allocator@D@2@@std@@PEAX@Z@std@@PEAX@std@@_N$0A@@?$pair@PEAU?$_Tree_node@U?$pair@QEAXP6AXAEBV?$basic_string@DU?$char_traits@D@std@@V?$allocator@D@2@@std@@PEAX@Z@std@@PEAX@std@@_N@std@@QEAA@AEBQEAU?$_Tree_node@U?$pair@QEAXP6AXAEBV?$basic_string@DU?$char_traits@D@std@@V?$allocator@D@2@@std@@PEAX@Z@std@@PEAX@1@$$QEA_N@Z
	??$?0AEBQEAX$$Z$$V@?$pair@QEAXP6AXAEBV?$basic_string@DU?$char_traits@D@std@@V?$allocator@D@2@@std@@PEAX@Z@std@@QEAA@Upiecewise_construct_t@1@V?$tuple@AEBQEAX@1@V?$tuple@$$V@1@@Z
	??$?0AEBQEAX$0A@@?$tuple@AEBQEAX@std@@QEAA@AEBQEAX@Z
	??$?0AEBQEAX@?$_Tuple_val@AEBQEAX@std@@QEAA@AEBQEAX@Z
	??$?0AEBU?$less@E@std@@U_Zero_then_variadic_args_t@1@@?$_Compressed_pair@U?$less@E@std@@V?$_Compressed_pair@V?$allocator@U?$_Tree_node@U?$pair@$$CBEE@std@@PEAX@std@@@std@@V?$_Tree_val@U?$_Tree_simple_types@U?$pair@$$CBEE@std@@@std@@@2@$00@2@$00@std@@QEAA@U_One_then_variadic_args_t@1@AEBU?$less@E@1@$$QEAU_Zero_then_variadic_args_t@1@@Z
	??$?0AEBU?$less@PEAUObserver@Dictionary@GetSetInternal@@@std@@U_Zero_then_variadic_args_t@1@@?$_Compressed_pair@U?$less@PEAUObserver@Dictionary@GetSetInternal@@@std@@V?$_Compressed_pair@V?$allocator@U?$_Tree_node@PEAUObserver@Dictionary@GetSetInternal@@PEAX@std@@@std@@V?$_Tree_val@U?$_Tree_simple_types@PEAUObserver@Dictionary@GetSetInternal@@@std@@@2@$00@2@$00@std@@QEAA@U_One_then_variadic_args_t@1@AEBU?$less@PEAUObserver@Dictionary@GetSetInternal@@@1@$$QEAU_Zero_then_variadic_args_t@1@@Z
	??$?0AEBU?$less@PEAX@std@@U_Zero_then_variadic_args_t@1@@?$_Compressed_pair@U?$less@PEAX@std@@V?$_Compressed_pair@V?$allocator@U?$_Tree_node@U?$pair@QEAXP6AXAEBV?$basic_string@DU?$char_traits@D@std@@V?$allocator@D@2@@std@@PEAX@Z@std@@PEAX@std@@@std@@V?$_Tree_val@U?$_Tree_simple_types@U?$pair@QEAXP6AXAEBV?$basic_string@DU?$char_traits@D@std@@V?$allocator@D@2@@std@@PEAX@Z@std@@@std@@@2@$00@2@$00@std@@QEAA@U_One_then_variadic_args_t@1@AEBU?$less@PEAX@1@$$QEAU_Zero_then_variadic_args_t@1@@Z
	??$?0AEBU?$less@V?$basic_string@DU?$char_traits@D@std@@V?$allocator@D@2@@std@@@std@@U_Zero_then_variadic_args_t@1@@?$_Compressed_pair@U?$less@V?$basic_string@DU?$char_traits@D@std@@V?$allocator@D@2@@std@@@std@@V?$_Compressed_pair@V?$allocator@U?$_Tree_node@U?$pair@$$CBV?$basic_string@DU?$char_traits@D@std@@V?$allocator@D@2@@std@@P6APEAVObject@GetSetGui@@AEBVSection@4@AEAVProgressInterface@4@@Z@std@@PEAX@std@@@std@@V?$_Tree_val@U?$_Tree_simple_types@U?$pair@$$CBV?$basic_string@DU?$char_traits@D@std@@V?$allocator@D@2@@std@@P6APEAVObject@GetSetGui@@AEBVSection@4@AEAVProgressInterface@4@@Z@std@@@std@@@2@$00@2@$00@std@@QEAA@U_One_then_variadic_args_t@1@AEBU?$less@V?$basic_string@DU?$char_traits@D@std@@V?$allocator@D@2@@std@@@1@$$QEAU_Zero_then_variadic_args_t@1@@Z
	??$?0AEBU?$less@V?$basic_string@DU?$char_traits@D@std@@V?$allocator@D@2@@std@@@std@@U_Zero_then_variadic_args_t@1@@?$_Compressed_pair@U?$less@V?$basic_string@DU?$char_traits@D@std@@V?$allocator@D@2@@std@@@std@@V?$_Compressed_pair@V?$allocator@U?$_Tree_node@U?$pair@$$CBV?$basic_string@DU?$char_traits@D@std@@V?$allocator@D@2@@std@@PEAVNode@GetSetInternal@@@std@@PEAX@std@@@std@@V?$_Tree_val@U?$_Tree_simple_types@U?$pair@$$CBV?$basic_string@DU?$char_traits@D@std@@V?$allocator@D@2@@std@@PEAVNode@GetSetInternal@@@std@@@std@@@2@$00@2@$00@std@@QEAA@U_One_then_variadic_args_t@1@AEBU?$less@V?$basic_string@DU?$char_traits@D@std@@V?$allocator@D@2@@std@@@1@$$QEAU_Zero_then_variadic_args_t@1@@Z
	??$?0AEBU?$less@V?$basic_string@DU?$char_traits@D@std@@V?$allocator@D@2@@std@@@std@@U_Zero_then_variadic_args_t@1@@?$_Compressed_pair@U?$less@V?$basic_string@DU?$char_traits@D@std@@V?$allocator@D@2@@std@@@std@@V?$_Compressed_pair@V?$allocator@U?$_Tree_node@U?$pair@$$CBV?$basic_string@DU?$char_traits@D@std@@V?$allocator@D@2@@std@@V12@@std@@PEAX@std@@@std@@V?$_Tree_val@U?$_Tree_simple_types@U?$pair@$$CBV?$basic_string@DU?$char_traits@D@std@@V?$allocator@D@2@@std@@V12@@std@@@std@@@2@$00@2@$00@std@@QEAA@U_One_then_variadic_args_t@1@AEBU?$less@V?$basic_string@DU?$char_traits@D@std@@V?$allocator@D@2@@std@@@1@$$QEAU_Zero_then_variadic_args_t@1@@Z
	??$?0AEBU?$less@V?$basic_string@DU?$char_traits@D@std@@V?$allocator@D@2@@std@@@std@@U_Zero_then_variadic_args_t@1@@?$_Compressed_pair@U?$less@V?$basic_string@DU?$char_traits@D@std@@V?$allocator@D@2@@std@@@std@@V?$_Compressed_pair@V?$allocator@U?$_Tree_node@U?$pair@$$CBV?$basic_string@DU?$char_traits@D@std@@V?$allocator@D@2@@std@@V?$map@V?$basic_string@DU?$char_traits@D@std@@V?$allocator@D@2@@std@@V12@U?$less@V?$basic_string@DU?$char_traits@D@std@@V?$allocator@D@2@@std@@@2@V?$allocator@U?$pair@$$CBV?$basic_string@DU?$char_traits@D@std@@V?$allocator@D@2@@std@@V12@@std@@@2@@2@@std@@PEAX@std@@@std@@V?$_Tree_val@U?$_Tree_simple_types@U?$pair@$$CBV?$basic_string@DU?$char_traits@D@std@@V?$allocator@D@2@@std@@V?$map@V?$basic_string@DU?$char_traits@D@std@@V?$allocator@D@2@@std@@V12@U?$less@V?$basic_string@DU?$char_traits@D@std@@V?$allocator@D@2@@std@@@2@V?$allocator@U?$pair@$$CBV?$basic_string@DU?$char_traits@D@std@@V?$allocator@D@2@@std@@V12@@std@@@2@@2@@std@@@std@@@2@$00@2@$00@std@@QEAA@U_One_then_variadic_args_t@1@AEBU?$less@V?$basic_string@DU?$char_traits@D@std@@V?$allocator@D@2@@std@@@1@$$QEAU_Zero_then_variadic_args_t@1@@Z
	??$?0AEBU?$less@V?$basic_string@DU?$char_traits@D@std@@V?$allocator@D@2@@std@@@std@@U_Zero_then_variadic_args_t@1@@?$_Compressed_pair@U?$less@V?$basic_string@DU?$char_traits@D@std@@V?$allocator@D@2@@std@@@std@@V?$_Compressed_pair@V?$allocator@U?$_Tree_node@V?$basic_string@DU?$char_traits@D@std@@V?$allocator@D@2@@std@@PEAX@std@@@std@@V?$_Tree_val@U?$_Tree_simple_types@V?$basic_string@DU?$char_traits@D@std@@V?$allocator@D@2@@std@@@std@@@2@$00@2@$00@std@@QEAA@U_One_then_variadic_args_t@1@AEBU?$less@V?$basic_string@DU?$char_traits@D@std@@V?$allocator@D@2@@std@@@1@$$QEAU_Zero_then_variadic_args_t@1@@Z
	??$?0AEBUpiecewise_construct_t@std@@V?$tuple@$$QEAE@1@V?$tuple@$$V@1@@?$_Tree_temp_node@V?$allocator@U?$_Tree_node@U?$pair@$$CBEE@std@@PEAX@std@@@std@@@std@@QEAA@AEAV?$allocator@U?$_Tree_node@U?$pair@$$CBEE@std@@PEAX@std@@@1@PEAU?$_Tree_node@U?$pair@$$CBEE@std@@PEAX@1@AEBUpiecewise_construct_t@1@$$QEAV?$tuple@$$QEAE@1@$$QEAV?$tuple@$$V@1@@Z
	??$?0AEBUpiecewise_construct_t@std@@V?$tuple@$$QEAV?$basic_string@DU?$char_traits@D@std@@V?$allocator@D@2@@std@@@1@V?$tuple@$$V@1@@?$_Tree_temp_node@V?$allocator@U?$_Tree_node@U?$pair@$$CBV?$basic_string@DU?$char_traits@D@std@@V?$allocator@D@2@@std@@V12@@std@@PEAX@std@@@std@@@std@@QEAA@AEAV?$allocator@U?$_Tree_node@U?$pair@$$CBV?$basic_string@DU?$char_traits@D@std@@V?$allocator@D@2@@std@@V12@@std@@PEAX@std@@@1@PEAU?$_Tree_node@U?$pair@$$CBV?$basic_string@DU?$char_traits@D@std@@V?$allocator@D@2@@std@@V12@@std@@PEAX@1@AEBUpiecewise_construct_t@1@$$QEAV?$tuple@$$QEAV?$basic_string@DU?$char_traits@D@std@@V?$allocator@D@2@@std@@@1@$$QEAV?$tuple@$$V@1@@Z
	??$?0AEBUpiecewise_construct_t@std@@V?$tuple@AEBQEAX@1@V?$tuple@$$V@1@@?$_Tree_temp_node@V?$allocator@U?$_Tree_node@U?$pair@QEAXP6AXAEBV?$basic_string@DU?$char_traits@D@std@@V?$allocator@D@2@@std@@PEAX@Z@std@@PEAX@std@@@std@@@std@@QEAA@AEAV?$allocator@U?$_Tree_node@U?$pair@QEAXP6AXAEBV?$basic_string@DU?$char_traits@D@std@@V?$allocator@D@2@@std@@PEAX@Z@std@@PEAX@std@@@1@PEAU?$_Tree_node@U?$pair@QEAXP6AXAEBV?$basic_string@DU?$char_traits@D@std@@V?$allocator@D@2@@std@@PEAX@Z@std@@PEAX@1@AEBUpiecewise_construct_t@1@$$QEAV?$tuple@AEBQEAX@1@$$QEAV?$tuple@$$V@1@@Z
	??$?0AEBUpiecewise_construct_t@std@@V?$tuple@AEBV?$basic_string@DU?$char_traits@D@std@@V?$allocator@D@2@@std@@@1@V?$tuple@$$V@1@@?$_Tree_temp_node@V?$allocator@U?$_Tree_node@U?$pair@$$CBV?$basic_string@DU?$char_traits@D@std@@V?$allocator@D@2@@std@@P6APEAVObject@GetSetGui@@AEBVSection@4@AEAVProgressInterface@4@@Z@std@@PEAX@std@@@std@@@std@@QEAA@AEAV?$allocator@U?$_Tree_node@U?$pair@$$CBV?$basic_string@DU?$char_traits@D@std@@V?$allocator@D@2@@std@@P6APEAVObject@GetSetGui@@AEBVSection@4@AEAVProgressInterface@4@@Z@std@@PEAX@std@@@1@PEAU?$_Tree_node@U?$pair@$$CBV?$basic_string@DU?$char_traits@D@std@@V?$allocator@D@2@@std@@P6APEAVObject@GetSetGui@@AEBVSection@4@AEAVProgressInterface@4@@Z@std@@PEAX@1@AEBUpiecewise_construct_t@1@$$QEAV?$tuple@AEBV?$basic_string@DU?$char_traits@D@std@@V?$allocator@D@2@@std@@@1@$$QEAV?$tuple@$$V@1@@Z
	??$?0AEBUpiecewise_construct_t@std@@V?$tuple@AEBV?$basic_string@DU?$char_traits@D@std@@V?$allocator@D@2@@std@@@1@V?$tuple@$$V@1@@?$_Tree_temp_node@V?$allocator@U?$_Tree_node@U?$pair@$$CBV?$basic_string@DU?$char_traits@D@std@@V?$allocator@D@2@@std@@PEAVNode@GetSetInternal@@@std@@PEAX@std@@@std@@@std@@QEAA@AEAV?$allocator@U?$_Tree_node@U?$pair@$$CBV?$basic_string@DU?$char_traits@D@std@@V?$allocator@D@2@@std@@PEAVNode@GetSetInternal@@@std@@PEAX@std@@@1@PEAU?$_Tree_node@U?$pair@$$CBV?$basic_string@DU?$char_traits@D@std@@V?$allocator@D@2@@std@@PEAVNode@GetSetInternal@@@std@@PEAX@1@AEBUpiecewise_construct_t@1@$$QEAV?$tuple@AEBV?$basic_string@DU?$char_traits@D@std@@V?$allocator@D@2@@std@@@1@$$QEAV?$tuple@$$V@1@@Z
	??$?0AEBUpiecewise_construct_t@std@@V?$tuple@AEBV?$basic_string@DU?$char_traits@D@std@@V?$allocator@D@2@@std@@@1@V?$tuple@$$V@1@@?$_Tree_temp_node@V?$allocator@U?$_Tree_node@U?$pair@$$CBV?$basic_string@DU?$char_traits@D@std@@V?$allocator@D@2@@std@@V12@@std@@PEAX@std@@@std@@@std@@QEAA@AEAV?$allocator@U?$_Tree_node@U?$pair@$$CBV?$basic_string@DU?$char_traits@D@std@@V?$allocator@D@2@@std@@V12@@std@@PEAX@std@@@1@PEAU?$_Tree_node@U?$pair@$$CBV?$basic_string@DU?$char_traits@D@std@@V?$allocator@D@2@@std@@V12@@std@@PEAX@1@AEBUpiecewise_construct_t@1@$$QEAV?$tuple@AEBV?$basic_string@DU?$char_traits@D@std@@V?$allocator@D@2@@std@@@1@$$QEAV?$tuple@$$V@1@@Z
	??$?0AEBUpiecewise_construct_t@std@@V?$tuple@AEBV?$basic_string@DU?$char_traits@D@std@@V?$allocator@D@2@@std@@@1@V?$tuple@$$V@1@@?$_Tree_temp_node@V?$allocator@U?$_Tree_node@U?$pair@$$CBV?$basic_string@DU?$char_traits@D@std@@V?$allocator@D@2@@std@@V?$map@V?$basic_string@DU?$char_traits@D@std@@V?$allocator@D@2@@std@@V12@U?$less@V?$basic_string@DU?$char_traits@D@std@@V?$allocator@D@2@@std@@@2@V?$allocator@U?$pair@$$CBV?$basic_string@DU?$char_traits@D@std@@V?$allocator@D@2@@std@@V12@@std@@@2@@2@@std@@PEAX@std@@@std@@@std@@QEAA@AEAV?$allocator@U?$_Tree_node@U?$pair@$$CBV?$basic_string@DU?$char_traits@D@std@@V?$allocator@D@2@@std@@V?$map@V?$basic_string@DU?$char_traits@D@std@@V?$allocator@D@2@@std@@V12@U?$less@V?$basic_string@DU?$char_traits@D@std@@V?$allocator@D@2@@std@@@2@V?$allocator@U?$pair@$$CBV?$basic_string@DU?$char_traits@D@std@@V?$allocator@D@2@@std@@V12@@std@@@2@@2@@std@@PEAX@std@@@1@PEAU?$_Tree_node@U?$pair@$$CBV?$basic_string@DU?$char_traits@D@std@@V?$allocator@D@2@@std@@V?$map@V?$basic_string@DU?$char_traits@D@std@@V?$allocator@D@2@@std@@V12@U?$less@V?$basic_string@DU?$char_traits@D@std@@V?$allocator@D@2@@std@@@2@V?$allocator@U?$pair@$$CBV?$basic_string@DU?$char_traits@D@std@@V?$allocator@D@2@@std@@V12@@std@@@2@@2@@std@@PEAX@1@AEBUpiecewise_construct_t@1@$$QEAV?$tuple@AEBV?$basic_string@DU?$char_traits@D@std@@V?$allocator@D@2@@std@@@1@$$QEAV?$tuple@$$V@1@@Z
	??$?0AEBV?$allocator@D@std@@$$V@?$_Compressed_pair@V?$allocator@D@std@@V?$_String_val@U?$_Simple_types@D@std@@@2@$00@std@@QEAA@U_One_then_variadic_args_t@1@AEBV?$allocator@D@1@@Z
	??$?0AEBV?$allocator@I@std@@$$V@?$_Compressed_pair@V?$allocator@I@std@@V?$_Vector_val@U?$_Simple_types@I@std@@@2@$00@std@@QEAA@U_One_then_variadic_args_t@1@AEBV?$allocator@I@1@@Z
	??$?0AEBV?$basic_string@DU?$char_traits@D@std@@V?$allocator@D@2@@std@@$$Z$$V@?$pair@$$CBV?$basic_string@DU?$char_traits@D@std@@V?$allocator@D@2@@std@@P6APEAVObject@GetSetGui@@AEBVSection@4@AEAVProgressInterface@4@@Z@std@@QEAA@Upiecewise_construct_t@1@V?$tuple@AEBV?$basic_string@DU?$char_traits@D@std@@V?$allocator@D@2@@std@@@1@V?$tuple@$$V@1@@Z
	??$?0AEBV?$basic_string@DU?$char_traits@D@std@@V?$allocator@D@2@@std@@$$Z$$V@?$pair@$$CBV?$basic_string@DU?$char_traits@D@std@@V?$allocator@D@2@@std@@PEAVNode@GetSetInternal@@@std@@QEAA@Upiecewise_construct_t@1@V?$tuple@AEBV?$basic_string@DU?$char_traits@D@std@@V?$allocator@D@2@@std@@@1@V?$tuple@$$V@1@@Z
	??$?0AEBV?$basic_string@DU?$char_traits@D@std@@V?$allocator@D@2@@std@@$$Z$$V@?$pair@$$CBV?$basic_string@DU?$char_traits@D@std@@V?$allocator@D@2@@std@@V12@@std@@QEAA@Upiecewise_construct_t@1@V?$tuple@AEBV?$basic_string@DU?$char_traits@D@std@@V?$allocator@D@2@@std@@@1@V?$tuple@$$V@1@@Z
	??$?0AEBV?$basic_string@DU?$char_traits@D@std@@V?$allocator@D@2@@std@@$$Z$$V@?$pair@$$CBV?$basic_string@DU?$char_traits@D@std@@V?$allocator@D@2@@std@@V?$map@V?$basic_string@DU?$char_traits@D@std@@V?$allocator@D@2@@std@@V12@U?$less@V?$basic_string@DU?$char_traits@D@std@@V?$allocator@D@2@@std@@@2@V?$allocator@U?$pair@$$CBV?$basic_string@DU?$char_traits@D@std@@V?$allocator@D@2@@std@@V12@@std@@@2@@2@@std@@QEAA@Upiecewise_construct_t@1@V?$tuple@AEBV?$basic_string@DU?$char_traits@D@std@@V?$allocator@D@2@@std@@@1@V?$tuple@$$V@1@@Z
	??$?0AEBV?$basic_string@DU?$char_traits@D@std@@V?$allocator@D@2@@std@@$0A@@?$tuple@AEBV?$basic_string@DU?$char_traits@D@std@@V?$allocator@D@2@@std@@@std@@QEAA@AEBV?$basic_string@DU?$char_traits@D@std@@V?$allocator@D@2@@1@@Z
	??$?0AEBV?$basic_string@DU?$char_traits@D@std@@V?$allocator@D@2@@std@@@?$_Tree_temp_node@V?$allocator@U?$_Tree_node@V?$basic_string@DU?$char_traits@D@std@@V?$allocator@D@2@@std@@PEAX@std@@@std@@@std@@QEAA@AEAV?$allocator@U?$_Tree_node@V?$basic_string@DU?$char_traits@D@std@@V?$allocator@D@2@@std@@PEAX@std@@@1@PEAU?$_Tree_node@V?$basic_string@DU?$char_traits@D@std@@V?$allocator@D@2@@std@@PEAX@1@AEBV?$basic_string@DU?$char_traits@D@std@@V?$allocator@D@2@@1@@Z
	??$?0AEBV?$basic_string@DU?$char_traits@D@std@@V?$allocator@D@2@@std@@@?$_Tuple_val@AEBV?$basic_string@DU?$char_traits@D@std@@V?$allocator@D@2@@std@@@std@@QEAA@AEBV?$basic_string@DU?$char_traits@D@std@@V?$allocator@D@2@@1@@Z
	??$?0E$$V$0A@@?$tuple@$$QEAE@std@@QEAA@$$QEAE@Z
	??$?0E@?$_Tuple_val@$$QEAE@std@@QEAA@$$QEAE@Z
	??$?0HV?$basic_string@DU?$char_traits@D@std@@V?$allocator@D@2@@std@@$0A@@?$pair@HV?$basic_string@DU?$char_traits@D@std@@V?$allocator@D@2@@std@@@std@@QEAA@$$QEAH$$QEAV?$basic_string@DU?$char_traits@D@std@@V?$allocator@D@2@@1@@Z
	??$?0PEAU?$_Tree_node@PEAUObserver@Dictionary@GetSetInternal@@PEAX@std@@_N$0A@@?$pair@PEAU?$_Tree_node@PEAUObserver@Dictionary@GetSetInternal@@PEAX@std@@_N@std@@QEAA@$$QEAPEAU?$_Tree_node@PEAUObserver@Dictionary@GetSetInternal@@PEAX@1@$$QEA_N@Z
	??$?0PEAU?$_Tree_node@U?$pair@$$CBEE@std@@PEAX@std@@_N$0A@@?$pair@PEAU?$_Tree_node@U?$pair@$$CBEE@std@@PEAX@std@@_N@std@@QEAA@$$QEAPEAU?$_Tree_node@U?$pair@$$CBEE@std@@PEAX@1@$$QEA_N@Z
	??$?0PEAU?$_Tree_node@U?$pair@$$CBV?$basic_string@DU?$char_traits@D@std@@V?$allocator@D@2@@std@@P6APEAVObject@GetSetGui@@AEBVSection@4@AEAVProgressInterface@4@@Z@std@@PEAX@std@@_N$0A@@?$pair@PEAU?$_Tree_node@U?$pair@$$CBV?$basic_string@DU?$char_traits@D@std@@V?$allocator@D@2@@std@@P6APEAVObject@GetSetGui@@AEBVSection@4@AEAVProgressInterface@4@@Z@std@@PEAX@std@@_N@std@@QEAA@$$QEAPEAU?$_Tree_node@U?$pair@$$CBV?$basic_string@DU?$char_traits@D@std@@V?$allocator@D@2@@std@@P6APEAVObject@GetSetGui@@AEBVSection@4@AEAVProgressInterface@4@@Z@std@@PEAX@1@$$QEA_N@Z
	??$?0PEAU?$_Tree_node@U?$pair@$$CBV?$basic_string@DU?$char_traits@D@std@@V?$allocator@D@2@@std@@PEAVNode@GetSetInternal@@@std@@PEAX@std@@_N$0A@@?$pair@PEAU?$_Tree_node@U?$pair@$$CBV?$basic_string@DU?$char_traits@D@std@@V?$allocator@D@2@@std@@PEAVNode@GetSetInternal@@@std@@PEAX@std@@_N@std@@QEAA@$$QEAPEAU?$_Tree_node@U?$pair@$$CBV?$basic_string@DU?$char_traits@D@std@@V?$allocator@D@2@@std@@PEAVNode@GetSetInternal@@@std@@PEAX@1@$$QEA_N@Z
	??$?0PEAU?$_Tree_node@U?$pair@$$CBV?$basic_string@DU?$char_traits@D@std@@V?$allocator@D@2@@std@@V12@@std@@PEAX@std@@_N$0A@@?$pair@PEAU?$_Tree_node@U?$pair@$$CBV?$basic_string@DU?$char_traits@D@std@@V?$allocator@D@2@@std@@V12@@std@@PEAX@std@@_N@std@@QEAA@$$QEAPEAU?$_Tree_node@U?$pair@$$CBV?$basic_string@DU?$char_traits@D@std@@V?$allocator@D@2@@std@@V12@@std@@PEAX@1@$$QEA_N@Z
	??$?0PEAU?$_Tree_node@U?$pair@$$CBV?$basic_string@DU?$char_traits@D@std@@V?$allocator@D@2@@std@@V?$map@V?$basic_string@DU?$char_traits@D@std@@V?$allocator@D@2@@std@@V12@U?$less@V?$basic_string@DU?$char_traits@D@std@@V?$allocator@D@2@@std@@@2@V?$allocator@U?$pair@$$CBV?$basic_string@DU?$char_traits@D@std@@V?$allocator@D@2@@std@@V12@@std@@@2@@2@@std@@PEAX@std@@_N$0A@@?$pair@PEAU?$_Tree_node@U?$pair@$$CBV?$basic_string@DU?$char_traits@D@std@@V?$allocator@D@2@@std@@V?$map@V?$basic_string@DU?$char_traits@D@std@@V?$allocator@D@2@@std@@V12@U?$less@V?$basic_string@DU?$char_traits@D@std@@V?$allocator@D@2@@std@@@2@V?$allocator@U?$pair@$$CBV?$basic_string@DU?$char_traits@D@std@@V?$allocator@D@2@@std@@V12@@std@@@2@@2@@std@@PEAX@std@@_N@std@@QEAA@$$QEAPEAU?$_Tree_node@U?$pair@$$CBV?$basic_string@DU?$char_traits@D@std@@V?$allocator@D@2@@std@@V?$map@V?$basic_string@DU?$char_traits@D@std@@V?$allocator@D@2@@std@@V12@U?$less@V?$basic_string@DU?$char_traits@D@std@@V?$allocator@D@2@@std@@@2@V?$allocator@U?$pair@$$CBV?$basic_string@DU?$char_traits@D@std@@V?$allocator@D@2@@std@@V12@@std@@@2@@2@@std@@PEAX@1@$$QEA_N@Z
	??$?0PEAU?$_Tree_node@U?$pair@QEAXP6AXAEBV?$basic_string@DU?$char_traits@D@std@@V?$allocator@D@2@@std@@PEAX@Z@std@@PEAX@std@@_N$0A@@?$pair@PEAU?$_Tree_node@U?$pair@QEAXP6AXAEBV?$basic_string@DU?$char_traits@D@std@@V?$allocator@D@2@@std@@PEAX@Z@std@@PEAX@std@@_N@std@@QEAA@$$QEAPEAU?$_Tree_node@U?$pair@QEAXP6AXAEBV?$basic_string@DU?$char_traits@D@std@@V?$allocator@D@2@@std@@PEAX@Z@std@@PEAX@1@$$QEA_N@Z
	??$?0PEAU?$_Tree_node@V?$basic_string@DU?$char_traits@D@std@@V?$allocator@D@2@@std@@PEAX@std@@_N$0A@@?$pair@PEAU?$_Tree_node@V?$basic_string@DU?$char_traits@D@std@@V?$allocator@D@2@@std@@PEAX@std@@_N@std@@QEAA@$$QEAPEAU?$_Tree_node@V?$basic_string@DU?$char_traits@D@std@@V?$allocator@D@2@@std@@PEAX@1@$$QEA_N@Z
	??$?0PEAUObserver@Dictionary@GetSetInternal@@@?$_Tree_temp_node@V?$allocator@U?$_Tree_node@PEAUObserver@Dictionary@GetSetInternal@@PEAX@std@@@std@@@std@@QEAA@AEAV?$allocator@U?$_Tree_node@PEAUObserver@Dictionary@GetSetInternal@@PEAX@std@@@1@PEAU?$_Tree_node@PEAUObserver@Dictionary@GetSetInternal@@PEAX@1@$$QEAPEAUObserver@Dictionary@GetSetInternal@@@Z
	??$?0U?$default_delete@V_Facet_base@std@@@std@@$0A@@?$unique_ptr@V_Facet_base@std@@U?$default_delete@V_Facet_base@std@@@2@@std@@QEAA@PEAV_Facet_base@1@@Z
	??$?0U?$less@V?$basic_string@DU?$char_traits@D@std@@V?$allocator@D@2@@std@@@std@@U_One_then_variadic_args_t@1@V?$allocator@U?$_Tree_node@U?$pair@$$CBV?$basic_string@DU?$char_traits@D@std@@V?$allocator@D@2@@std@@V12@@std@@PEAX@std@@@1@@?$_Compressed_pair@U?$less@V?$basic_string@DU?$char_traits@D@std@@V?$allocator@D@2@@std@@@std@@V?$_Compressed_pair@V?$allocator@U?$_Tree_node@U?$pair@$$CBV?$basic_string@DU?$char_traits@D@std@@V?$allocator@D@2@@std@@V12@@std@@PEAX@std@@@std@@V?$_Tree_val@U?$_Tree_simple_types@U?$pair@$$CBV?$basic_string@DU?$char_traits@D@std@@V?$allocator@D@2@@std@@V12@@std@@@std@@@2@$00@2@$00@std@@QEAA@U_One_then_variadic_args_t@1@$$QEAU?$less@V?$basic_string@DU?$char_traits@D@std@@V?$allocator@D@2@@std@@@1@$$QEAU21@$$QEAV?$allocator@U?$_Tree_node@U?$pair@$$CBV?$basic_string@DU?$char_traits@D@std@@V?$allocator@D@2@@std@@V12@@std@@PEAX@std@@@1@@Z
	??$?0U?$less@V?$basic_string@DU?$char_traits@D@std@@V?$allocator@D@2@@std@@@std@@U_One_then_variadic_args_t@1@V?$allocator@U?$_Tree_node@V?$basic_string@DU?$char_traits@D@std@@V?$allocator@D@2@@std@@PEAX@std@@@1@@?$_Compressed_pair@U?$less@V?$basic_string@DU?$char_traits@D@std@@V?$allocator@D@2@@std@@@std@@V?$_Compressed_pair@V?$allocator@U?$_Tree_node@V?$basic_string@DU?$char_traits@D@std@@V?$allocator@D@2@@std@@PEAX@std@@@std@@V?$_Tree_val@U?$_Tree_simple_types@V?$basic_string@DU?$char_traits@D@std@@V?$allocator@D@2@@std@@@std@@@2@$00@2@$00@std@@QEAA@U_One_then_variadic_args_t@1@$$QEAU?$less@V?$basic_string@DU?$char_traits@D@std@@V?$allocator@D@2@@std@@@1@$$QEAU21@$$QEAV?$allocator@U?$_Tree_node@V?$basic_string@DU?$char_traits@D@std@@V?$allocator@D@2@@std@@PEAX@std@@@1@@Z
	??$?0U_Exact_args_t@std@@$0A@@?$tuple@$$V@std@@QEAA@U_Exact_args_t@1@@Z
	??$?0U_Exact_args_t@std@@AEBQEAX$$V$0A@@?$tuple@AEBQEAX@std@@QEAA@U_Exact_args_t@1@AEBQEAX@Z
	??$?0U_Exact_args_t@std@@AEBV?$basic_string@DU?$char_traits@D@std@@V?$allocator@D@2@@1@$$V$0A@@?$tuple@AEBV?$basic_string@DU?$char_traits@D@std@@V?$allocator@D@2@@std@@@std@@QEAA@U_Exact_args_t@1@AEBV?$basic_string@DU?$char_traits@D@std@@V?$allocator@D@2@@1@@Z
	??$?0U_Exact_args_t@std@@E$$V$0A@@?$tuple@$$QEAE@std@@QEAA@U_Exact_args_t@1@$$QEAE@Z
	??$?0U_Exact_args_t@std@@V?$basic_string@DU?$char_traits@D@std@@V?$allocator@D@2@@1@$$V$0A@@?$tuple@$$QEAV?$basic_string@DU?$char_traits@D@std@@V?$allocator@D@2@@std@@@std@@QEAA@U_Exact_args_t@1@$$QEAV?$basic_string@DU?$char_traits@D@std@@V?$allocator@D@2@@1@@Z
	??$?0V?$_Tree_const_iterator@V?$_Tree_val@U?$_Tree_simple_types@PEAUObserver@Dictionary@GetSetInternal@@@std@@@std@@@std@@AEB_N$0A@@?$pair@V?$_Tree_const_iterator@V?$_Tree_val@U?$_Tree_simple_types@PEAUObserver@Dictionary@GetSetInternal@@@std@@@std@@@std@@_N@std@@QEAA@$$QEAV?$_Tree_const_iterator@V?$_Tree_val@U?$_Tree_simple_types@PEAUObserver@Dictionary@GetSetInternal@@@std@@@std@@@1@AEB_N@Z
	??$?0V?$_Tree_const_iterator@V?$_Tree_val@U?$_Tree_simple_types@V?$basic_string@DU?$char_traits@D@std@@V?$allocator@D@2@@std@@@std@@@std@@@std@@AEB_N$0A@@?$pair@V?$_Tree_const_iterator@V?$_Tree_val@U?$_Tree_simple_types@V?$basic_string@DU?$char_traits@D@std@@V?$allocator@D@2@@std@@@std@@@std@@@std@@_N@std@@QEAA@$$QEAV?$_Tree_const_iterator@V?$_Tree_val@U?$_Tree_simple_types@V?$basic_string@DU?$char_traits@D@std@@V?$allocator@D@2@@std@@@std@@@std@@@1@AEB_N@Z
	??$?0V?$allocator@D@std@@$$V@?$_Compressed_pair@V?$allocator@D@std@@V?$_String_val@U?$_Simple_types@D@std@@@2@$00@std@@QEAA@U_One_then_variadic_args_t@1@$$QEAV?$allocator@D@1@@Z
	??$?0V?$allocator@D@std@@$$V@?$_Compressed_pair@V?$allocator@D@std@@V?$_Vector_val@U?$_Simple_types@D@std@@@2@$00@std@@QEAA@U_One_then_variadic_args_t@1@$$QEAV?$allocator@D@1@@Z
	??$?0V?$allocator@D@std@@PEADPEADPEAD@?$_Compressed_pair@V?$allocator@D@std@@V?$_Vector_val@U?$_Simple_types@D@std@@@2@$00@std@@QEAA@U_One_then_variadic_args_t@1@$$QEAV?$allocator@D@1@$$QEAPEAD22@Z
	??$?0V?$allocator@E@std@@$$V@?$_Compressed_pair@V?$allocator@E@std@@V?$_Vector_val@U?$_Simple_types@E@std@@@2@$00@std@@QEAA@U_One_then_variadic_args_t@1@$$QEAV?$allocator@E@1@@Z
	??$?0V?$allocator@E@std@@PEAEPEAEPEAE@?$_Compressed_pair@V?$allocator@E@std@@V?$_Vector_val@U?$_Simple_types@E@std@@@2@$00@std@@QEAA@U_One_then_variadic_args_t@1@$$QEAV?$allocator@E@1@$$QEAPEAE22@Z
	??$?0V?$allocator@F@std@@$$V@?$_Compressed_pair@V?$allocator@F@std@@V?$_Vector_val@U?$_Simple_types@F@std@@@2@$00@std@@QEAA@U_One_then_variadic_args_t@1@$$QEAV?$allocator@F@1@@Z
	??$?0V?$allocator@F@std@@PEAFPEAFPEAF@?$_Compressed_pair@V?$allocator@F@std@@V?$_Vector_val@U?$_Simple_types@F@std@@@2@$00@std@@QEAA@U_One_then_variadic_args_t@1@$$QEAV?$allocator@F@1@$$QEAPEAF22@Z
	??$?0V?$allocator@G@std@@$$V@?$_Compressed_pair@V?$allocator@G@std@@V?$_Vector_val@U?$_Simple_types@G@std@@@2@$00@std@@QEAA@U_One_then_variadic_args_t@1@$$QEAV?$allocator@G@1@@Z
	??$?0V?$allocator@G@std@@PEAGPEAGPEAG@?$_Compressed_pair@V?$allocator@G@std@@V?$_Vector_val@U?$_Simple_types@G@std@@@2@$00@std@@QEAA@U_One_then_variadic_args_t@1@$$QEAV?$allocator@G@1@$$QEAPEAG22@Z
	??$?0V?$allocator@H@std@@$$V@?$_Compressed_pair@V?$allocator@H@std@@V?$_Vector_val@U?$_Simple_types@H@std@@@2@$00@std@@QEAA@U_One_then_variadic_args_t@1@$$QEAV?$allocator@H@1@@Z
	??$?0V?$allocator@H@std@@PEAHPEAHPEAH@?$_Compressed_pair@V?$allocator@H@std@@V?$_Vector_val@U?$_Simple_types@H@std@@@2@$00@std@@QEAA@U_One_then_variadic_args_t@1@$$QEAV?$allocator@H@1@$$QEAPEAH22@Z
	??$?0V?$allocator@I@std@@$$V@?$_Compressed_pair@V?$allocator@I@std@@V?$_Vector_val@U?$_Simple_types@I@std@@@2@$00@std@@QEAA@U_One_then_variadic_args_t@1@$$QEAV?$allocator@I@1@@Z
	??$?0V?$allocator@I@std@@PEAIPEAIPEAI@?$_Compressed_pair@V?$allocator@I@std@@V?$_Vector_val@U?$_Simple_types@I@std@@@2@$00@std@@QEAA@U_One_then_variadic_args_t@1@$$QEAV?$allocator@I@1@$$QEAPEAI22@Z
	??$?0V?$allocator@J@std@@$$V@?$_Compressed_pair@V?$allocator@J@std@@V?$_Vector_val@U?$_Simple_types@J@std@@@2@$00@std@@QEAA@U_One_then_variadic_args_t@1@$$QEAV?$allocator@J@1@@Z
	??$?0V?$allocator@J@std@@PEAJPEAJPEAJ@?$_Compressed_pair@V?$allocator@J@std@@V?$_Vector_val@U?$_Simple_types@J@std@@@2@$00@std@@QEAA@U_One_then_variadic_args_t@1@$$QEAV?$allocator@J@1@$$QEAPEAJ22@Z
	??$?0V?$allocator@K@std@@$$V@?$_Compressed_pair@V?$allocator@K@std@@V?$_Vector_val@U?$_Simple_types@K@std@@@2@$00@std@@QEAA@U_One_then_variadic_args_t@1@$$QEAV?$allocator@K@1@@Z
	??$?0V?$allocator@K@std@@PEAKPEAKPEAK@?$_Compressed_pair@V?$allocator@K@std@@V?$_Vector_val@U?$_Simple_types@K@std@@@2@$00@std@@QEAA@U_One_then_variadic_args_t@1@$$QEAV?$allocator@K@1@$$QEAPEAK22@Z
	??$?0V?$allocator@M@std@@$$V@?$_Compressed_pair@V?$allocator@M@std@@V?$_Vector_val@U?$_Simple_types@M@std@@@2@$00@std@@QEAA@U_One_then_variadic_args_t@1@$$QEAV?$allocator@M@1@@Z
	??$?0V?$allocator@M@std@@PEAMPEAMPEAM@?$_Compressed_pair@V?$allocator@M@std@@V?$_Vector_val@U?$_Simple_types@M@std@@@2@$00@std@@QEAA@U_One_then_variadic_args_t@1@$$QEAV?$allocator@M@1@$$QEAPEAM22@Z
	??$?0V?$allocator@N@std@@$$V@?$_Compressed_pair@V?$allocator@N@std@@V?$_Vector_val@U?$_Simple_types@N@std@@@2@$00@std@@QEAA@U_One_then_variadic_args_t@1@$$QEAV?$allocator@N@1@@Z
	??$?0V?$allocator@N@std@@PEANPEANPEAN@?$_Compressed_pair@V?$allocator@N@std@@V?$_Vector_val@U?$_Simple_types@N@std@@@2@$00@std@@QEAA@U_One_then_variadic_args_t@1@$$QEAV?$allocator@N@1@$$QEAPEAN22@Z
	??$?0V?$allocator@U?$_Tree_node@U?$pair@$$CBV?$basic_string@DU?$char_traits@D@std@@V?$allocator@D@2@@std@@V12@@std@@PEAX@std@@@std@@$$V@?$_Compressed_pair@V?$allocator@U?$_Tree_node@U?$pair@$$CBV?$basic_string@DU?$char_traits@D@std@@V?$allocator@D@2@@std@@V12@@std@@PEAX@std@@@std@@V?$_Tree_val@U?$_Tree_simple_types@U?$pair@$$CBV?$basic_string@DU?$char_traits@D@std@@V?$allocator@D@2@@std@@V12@@std@@@std@@@2@$00@std@@QEAA@U_One_then_variadic_args_t@1@$$QEAV?$allocator@U?$_Tree_node@U?$pair@$$CBV?$basic_string@DU?$char_traits@D@std@@V?$allocator@D@2@@std@@V12@@std@@PEAX@std@@@1@@Z
	??$?0V?$allocator@U?$_Tree_node@U?$pair@$$CBV?$basic_string@DU?$char_traits@D@std@@V?$allocator@D@2@@std@@V12@@std@@PEAX@std@@@std@@@?$_Tree@V?$_Tmap_traits@V?$basic_string@DU?$char_traits@D@std@@V?$allocator@D@2@@std@@V12@U?$less@V?$basic_string@DU?$char_traits@D@std@@V?$allocator@D@2@@std@@@2@V?$allocator@U?$pair@$$CBV?$basic_string@DU?$char_traits@D@std@@V?$allocator@D@2@@std@@V12@@std@@@2@$0A@@std@@@std@@QEAA@AEBV01@$$QEAV?$allocator@U?$_Tree_node@U?$pair@$$CBV?$basic_string@DU?$char_traits@D@std@@V?$allocator@D@2@@std@@V12@@std@@PEAX@std@@@1@@Z
	??$?0V?$allocator@U?$_Tree_node@V?$basic_string@DU?$char_traits@D@std@@V?$allocator@D@2@@std@@PEAX@std@@@std@@$$V@?$_Compressed_pair@V?$allocator@U?$_Tree_node@V?$basic_string@DU?$char_traits@D@std@@V?$allocator@D@2@@std@@PEAX@std@@@std@@V?$_Tree_val@U?$_Tree_simple_types@V?$basic_string@DU?$char_traits@D@std@@V?$allocator@D@2@@std@@@std@@@2@$00@std@@QEAA@U_One_then_variadic_args_t@1@$$QEAV?$allocator@U?$_Tree_node@V?$basic_string@DU?$char_traits@D@std@@V?$allocator@D@2@@std@@PEAX@std@@@1@@Z
	??$?0V?$allocator@V?$basic_string@DU?$char_traits@D@std@@V?$allocator@D@2@@std@@@std@@$$V@?$_Compressed_pair@V?$allocator@V?$basic_string@DU?$char_traits@D@std@@V?$allocator@D@2@@std@@@std@@V?$_Vector_val@U?$_Simple_types@V?$basic_string@DU?$char_traits@D@std@@V?$allocator@D@2@@std@@@std@@@2@$00@std@@QEAA@U_One_then_variadic_args_t@1@$$QEAV?$allocator@V?$basic_string@DU?$char_traits@D@std@@V?$allocator@D@2@@std@@@1@@Z
	??$?0V?$allocator@V?$basic_string@DU?$char_traits@D@std@@V?$allocator@D@2@@std@@@std@@PEAV?$basic_string@DU?$char_traits@D@std@@V?$allocator@D@2@@1@PEAV21@PEAV21@@?$_Compressed_pair@V?$allocator@V?$basic_string@DU?$char_traits@D@std@@V?$allocator@D@2@@std@@@std@@V?$_Vector_val@U?$_Simple_types@V?$basic_string@DU?$char_traits@D@std@@V?$allocator@D@2@@std@@@std@@@2@$00@std@@QEAA@U_One_then_variadic_args_t@1@$$QEAV?$allocator@V?$basic_string@DU?$char_traits@D@std@@V?$allocator@D@2@@std@@@1@$$QEAPEAV?$basic_string@DU?$char_traits@D@std@@V?$allocator@D@2@@1@22@Z
	??$?0V?$basic_string@DU?$char_traits@D@std@@V?$allocator@D@2@@std@@$$V$0A@@?$tuple@$$QEAV?$basic_string@DU?$char_traits@D@std@@V?$allocator@D@2@@std@@@std@@QEAA@$$QEAV?$basic_string@DU?$char_traits@D@std@@V?$allocator@D@2@@1@@Z
	??$?0V?$basic_string@DU?$char_traits@D@std@@V?$allocator@D@2@@std@@@?$_Tuple_val@$$QEAV?$basic_string@DU?$char_traits@D@std@@V?$allocator@D@2@@std@@@std@@QEAA@$$QEAV?$basic_string@DU?$char_traits@D@std@@V?$allocator@D@2@@1@@Z
	??$?0V?$tuple@$$QEAE@std@@V?$tuple@$$V@1@$0A@$$Z$S@?$pair@$$CBEE@std@@AEAA@AEAV?$tuple@$$QEAE@1@AEAV?$tuple@$$V@1@U?$integer_sequence@_K$0A@@1@U?$integer_sequence@_K$S@1@@Z
	??$?0V?$tuple@$$QEAV?$basic_string@DU?$char_traits@D@std@@V?$allocator@D@2@@std@@@std@@V?$tuple@$$V@1@$0A@$$Z$S@?$pair@$$CBV?$basic_string@DU?$char_traits@D@std@@V?$allocator@D@2@@std@@V12@@std@@AEAA@AEAV?$tuple@$$QEAV?$basic_string@DU?$char_traits@D@std@@V?$allocator@D@2@@std@@@1@AEAV?$tuple@$$V@1@U?$integer_sequence@_K$0A@@1@U?$integer_sequence@_K$S@1@@Z
	??$?0V?$tuple@AEBQEAX@std@@V?$tuple@$$V@1@$0A@$$Z$S@?$pair@QEAXP6AXAEBV?$basic_string@DU?$char_traits@D@std@@V?$allocator@D@2@@std@@PEAX@Z@std@@AEAA@AEAV?$tuple@AEBQEAX@1@AEAV?$tuple@$$V@1@U?$integer_sequence@_K$0A@@1@U?$integer_sequence@_K$S@1@@Z
	??$?0V?$tuple@AEBV?$basic_string@DU?$char_traits@D@std@@V?$allocator@D@2@@std@@@std@@V?$tuple@$$V@1@$0A@$$Z$S@?$pair@$$CBV?$basic_string@DU?$char_traits@D@std@@V?$allocator@D@2@@std@@P6APEAVObject@GetSetGui@@AEBVSection@4@AEAVProgressInterface@4@@Z@std@@AEAA@AEAV?$tuple@AEBV?$basic_string@DU?$char_traits@D@std@@V?$allocator@D@2@@std@@@1@AEAV?$tuple@$$V@1@U?$integer_sequence@_K$0A@@1@U?$integer_sequence@_K$S@1@@Z
	??$?0V?$tuple@AEBV?$basic_string@DU?$char_traits@D@std@@V?$allocator@D@2@@std@@@std@@V?$tuple@$$V@1@$0A@$$Z$S@?$pair@$$CBV?$basic_string@DU?$char_traits@D@std@@V?$allocator@D@2@@std@@PEAVNode@GetSetInternal@@@std@@AEAA@AEAV?$tuple@AEBV?$basic_string@DU?$char_traits@D@std@@V?$allocator@D@2@@std@@@1@AEAV?$tuple@$$V@1@U?$integer_sequence@_K$0A@@1@U?$integer_sequence@_K$S@1@@Z
	??$?0V?$tuple@AEBV?$basic_string@DU?$char_traits@D@std@@V?$allocator@D@2@@std@@@std@@V?$tuple@$$V@1@$0A@$$Z$S@?$pair@$$CBV?$basic_string@DU?$char_traits@D@std@@V?$allocator@D@2@@std@@V12@@std@@AEAA@AEAV?$tuple@AEBV?$basic_string@DU?$char_traits@D@std@@V?$allocator@D@2@@std@@@1@AEAV?$tuple@$$V@1@U?$integer_sequence@_K$0A@@1@U?$integer_sequence@_K$S@1@@Z
	??$?0V?$tuple@AEBV?$basic_string@DU?$char_traits@D@std@@V?$allocator@D@2@@std@@@std@@V?$tuple@$$V@1@$0A@$$Z$S@?$pair@$$CBV?$basic_string@DU?$char_traits@D@std@@V?$allocator@D@2@@std@@V?$map@V?$basic_string@DU?$char_traits@D@std@@V?$allocator@D@2@@std@@V12@U?$less@V?$basic_string@DU?$char_traits@D@std@@V?$allocator@D@2@@std@@@2@V?$allocator@U?$pair@$$CBV?$basic_string@DU?$char_traits@D@std@@V?$allocator@D@2@@std@@V12@@std@@@2@@2@@std@@AEAA@AEAV?$tuple@AEBV?$basic_string@DU?$char_traits@D@std@@V?$allocator@D@2@@std@@@1@AEAV?$tuple@$$V@1@U?$integer_sequence@_K$0A@@1@U?$integer_sequence@_K$S@1@@Z
	??$?0_N@?$allocator@I@std@@QEAA@AEBV?$allocator@_N@1@@Z
	??$?5DU?$char_traits@D@std@@@std@@YAAEAV?$basic_istream@DU?$char_traits@D@std@@@0@AEAV10@AEAD@Z
	??$?5DU?$char_traits@D@std@@V?$allocator@D@1@@std@@YAAEAV?$basic_istream@DU?$char_traits@D@std@@@0@AEAV10@AEAV?$basic_string@DU?$char_traits@D@std@@V?$allocator@D@2@@0@@Z
	??$?5U?$char_traits@D@std@@@std@@YAAEAV?$basic_istream@DU?$char_traits@D@std@@@0@AEAV10@AEAE@Z
	??$?6DU?$char_traits@D@std@@V?$allocator@D@1@@std@@YAAEAV?$basic_ostream@DU?$char_traits@D@std@@@0@AEAV10@AEBV?$basic_string@DU?$char_traits@D@std@@V?$allocator@D@2@@0@@Z
	??$?6U?$char_traits@D@std@@@std@@YAAEAV?$basic_ostream@DU?$char_traits@D@std@@@0@AEAV10@D@Z
	??$?6U?$char_traits@D@std@@@std@@YAAEAV?$basic_ostream@DU?$char_traits@D@std@@@0@AEAV10@E@Z
	??$?6U?$char_traits@D@std@@@std@@YAAEAV?$basic_ostream@DU?$char_traits@D@std@@@0@AEAV10@PEBD@Z
	??$?8DU?$char_traits@D@std@@V?$allocator@D@1@@std@@YA_NAEBV?$basic_string@DU?$char_traits@D@std@@V?$allocator@D@2@@0@0@Z
	??$?8DU?$char_traits@D@std@@V?$allocator@D@1@@std@@YA_NAEBV?$basic_string@DU?$char_traits@D@std@@V?$allocator@D@2@@0@QEBD@Z
	??$?9DU?$char_traits@D@std@@V?$allocator@D@1@@std@@YA_NAEBV?$basic_string@DU?$char_traits@D@std@@V?$allocator@D@2@@0@QEBD@Z
	??$?HDU?$char_traits@D@std@@V?$allocator@D@1@@std@@YA?AV?$basic_string@DU?$char_traits@D@std@@V?$allocator@D@2@@0@$$QEAV10@0@Z
	??$?HDU?$char_traits@D@std@@V?$allocator@D@1@@std@@YA?AV?$basic_string@DU?$char_traits@D@std@@V?$allocator@D@2@@0@$$QEAV10@AEBV10@@Z
	??$?HDU?$char_traits@D@std@@V?$allocator@D@1@@std@@YA?AV?$basic_string@DU?$char_traits@D@std@@V?$allocator@D@2@@0@$$QEAV10@QEBD@Z
	??$?HDU?$char_traits@D@std@@V?$allocator@D@1@@std@@YA?AV?$basic_string@DU?$char_traits@D@std@@V?$allocator@D@2@@0@AEBV10@$$QEAV10@@Z
	??$?HDU?$char_traits@D@std@@V?$allocator@D@1@@std@@YA?AV?$basic_string@DU?$char_traits@D@std@@V?$allocator@D@2@@0@AEBV10@0@Z
	??$?HDU?$char_traits@D@std@@V?$allocator@D@1@@std@@YA?AV?$basic_string@DU?$char_traits@D@std@@V?$allocator@D@2@@0@AEBV10@QEBD@Z
	??$?HDU?$char_traits@D@std@@V?$allocator@D@1@@std@@YA?AV?$basic_string@DU?$char_traits@D@std@@V?$allocator@D@2@@0@QEBD$$QEAV10@@Z
	??$?HDU?$char_traits@D@std@@V?$allocator@D@1@@std@@YA?AV?$basic_string@DU?$char_traits@D@std@@V?$allocator@D@2@@0@QEBDAEBV10@@Z
	??$?MDU?$char_traits@D@std@@V?$allocator@D@1@@std@@YA_NAEBV?$basic_string@DU?$char_traits@D@std@@V?$allocator@D@2@@0@0@Z
	??$?RAEBDAEBD@?$equal_to@X@std@@QEBA_NAEBD0@Z
	??$_Adl_verify_range@V?$_String_const_iterator@V?$_String_val@U?$_Simple_types@D@std@@@std@@@std@@V12@@std@@YAXAEBV?$_String_const_iterator@V?$_String_val@U?$_Simple_types@D@std@@@std@@@0@0@Z
	??$_Adl_verify_range@V?$_String_iterator@V?$_String_val@U?$_Simple_types@D@std@@@std@@@std@@V12@@std@@YAXAEBV?$_String_iterator@V?$_String_val@U?$_Simple_types@D@std@@@std@@@0@0@Z
	??$_Adl_verify_range@V?$_Tree_unchecked_const_iterator@V?$_Tree_val@U?$_Tree_simple_types@PEAUObserver@Dictionary@GetSetInternal@@@std@@@std@@U_Iterator_base0@2@@std@@V12@@std@@YAXAEBV?$_Tree_unchecked_const_iterator@V?$_Tree_val@U?$_Tree_simple_types@PEAUObserver@Dictionary@GetSetInternal@@@std@@@std@@U_Iterator_base0@2@@0@0@Z
	??$_Adl_verify_range@V?$_Tree_unchecked_const_iterator@V?$_Tree_val@U?$_Tree_simple_types@V?$basic_string@DU?$char_traits@D@std@@V?$allocator@D@2@@std@@@std@@@std@@U_Iterator_base0@2@@std@@V12@@std@@YAXAEBV?$_Tree_unchecked_const_iterator@V?$_Tree_val@U?$_Tree_simple_types@V?$basic_string@DU?$char_traits@D@std@@V?$allocator@D@2@@std@@@std@@@std@@U_Iterator_base0@2@@0@0@Z
	??$_Adl_verify_range@V?$_Vb_iterator@U?$_Wrap_alloc@V?$allocator@I@std@@@std@@@std@@V12@@std@@YAXAEBV?$_Vb_iterator@U?$_Wrap_alloc@V?$allocator@I@std@@@std@@@0@0@Z
	??$_Allocate@$0BA@U_Default_allocate_traits@std@@@std@@YAPEAX_K@Z
	??$_Allocate_at_least_helper@V?$allocator@D@std@@@std@@YAPEADAEAV?$allocator@D@0@AEA_K@Z
	??$_Allocate_at_least_helper@V?$allocator@E@std@@@std@@YAPEAEAEAV?$allocator@E@0@AEA_K@Z
	??$_Allocate_at_least_helper@V?$allocator@F@std@@@std@@YAPEAFAEAV?$allocator@F@0@AEA_K@Z
	??$_Allocate_at_least_helper@V?$allocator@G@std@@@std@@YAPEAGAEAV?$allocator@G@0@AEA_K@Z
	??$_Allocate_at_least_helper@V?$allocator@H@std@@@std@@YAPEAHAEAV?$allocator@H@0@AEA_K@Z
	??$_Allocate_at_least_helper@V?$allocator@I@std@@@std@@YAPEAIAEAV?$allocator@I@0@AEA_K@Z
	??$_Allocate_at_least_helper@V?$allocator@J@std@@@std@@YAPEAJAEAV?$allocator@J@0@AEA_K@Z
	??$_Allocate_at_least_helper@V?$allocator@K@std@@@std@@YAPEAKAEAV?$allocator@K@0@AEA_K@Z
	??$_Allocate_at_least_helper@V?$allocator@M@std@@@std@@YAPEAMAEAV?$allocator@M@0@AEA_K@Z
	??$_Allocate_at_least_helper@V?$allocator@N@std@@@std@@YAPEANAEAV?$allocator@N@0@AEA_K@Z
	??$_Allocate_at_least_helper@V?$allocator@V?$basic_string@DU?$char_traits@D@std@@V?$allocator@D@2@@std@@@std@@@std@@YAPEAV?$basic_string@DU?$char_traits@D@std@@V?$allocator@D@2@@0@AEAV?$allocator@V?$basic_string@DU?$char_traits@D@std@@V?$allocator@D@2@@std@@@0@AEA_K@Z
	??$_Allocate_for_capacity@$0A@@?$basic_string@DU?$char_traits@D@std@@V?$allocator@D@2@@std@@CAPEADAEAV?$allocator@D@1@AEA_K@Z
	??$_Allocate_manually_vector_aligned@U_Default_allocate_traits@std@@@std@@YAPEAX_K@Z
	??$_Allocators_equal@V?$allocator@D@std@@@std@@YA_NAEBV?$allocator@D@0@0@Z
	??$_Append@D@?$basic_string@DU?$char_traits@D@std@@V?$allocator@D@2@@std@@AEAAAEAV01@QEBD_K@Z
	??$_Assign@D@?$basic_string@DU?$char_traits@D@std@@V?$allocator@D@2@@std@@AEAAAEAV01@QEBD_K@Z
	??$_Assign_counted_range@PEAD@?$vector@DV?$allocator@D@std@@@std@@AEAAXPEAD_K@Z
	??$_Assign_counted_range@PEAE@?$vector@EV?$allocator@E@std@@@std@@AEAAXPEAE_K@Z
	??$_Assign_counted_range@PEAF@?$vector@FV?$allocator@F@std@@@std@@AEAAXPEAF_K@Z
	??$_Assign_counted_range@PEAG@?$vector@GV?$allocator@G@std@@@std@@AEAAXPEAG_K@Z
	??$_Assign_counted_range@PEAH@?$vector@HV?$allocator@H@std@@@std@@AEAAXPEAH_K@Z
	??$_Assign_counted_range@PEAI@?$vector@IV?$allocator@I@std@@@std@@AEAAXPEAI_K@Z
	??$_Assign_counted_range@PEAJ@?$vector@JV?$allocator@J@std@@@std@@AEAAXPEAJ_K@Z
	??$_Assign_counted_range@PEAK@?$vector@KV?$allocator@K@std@@@std@@AEAAXPEAK_K@Z
	??$_Assign_counted_range@PEAM@?$vector@MV?$allocator@M@std@@@std@@AEAAXPEAM_K@Z
	??$_Assign_counted_range@PEAN@?$vector@NV?$allocator@N@std@@@std@@AEAAXPEAN_K@Z
	??$_Assign_counted_range@PEAV?$basic_string@DU?$char_traits@D@std@@V?$allocator@D@2@@std@@@?$vector@V?$basic_string@DU?$char_traits@D@std@@V?$allocator@D@2@@std@@V?$allocator@V?$basic_string@DU?$char_traits@D@std@@V?$allocator@D@2@@std@@@2@@std@@AEAAXPEAV?$basic_string@DU?$char_traits@D@std@@V?$allocator@D@2@@1@_K@Z
	??$_Buyheadnode@V?$allocator@U?$_Tree_node@PEAUObserver@Dictionary@GetSetInternal@@PEAX@std@@@std@@@?$_Tree_node@PEAUObserver@Dictionary@GetSetInternal@@PEAX@std@@SAPEAU01@AEAV?$allocator@U?$_Tree_node@PEAUObserver@Dictionary@GetSetInternal@@PEAX@std@@@1@@Z
	??$_Buyheadnode@V?$allocator@U?$_Tree_node@U?$pair@$$CBEE@std@@PEAX@std@@@std@@@?$_Tree_node@U?$pair@$$CBEE@std@@PEAX@std@@SAPEAU01@AEAV?$allocator@U?$_Tree_node@U?$pair@$$CBEE@std@@PEAX@std@@@1@@Z
	??$_Buyheadnode@V?$allocator@U?$_Tree_node@U?$pair@$$CBV?$basic_string@DU?$char_traits@D@std@@V?$allocator@D@2@@std@@P6APEAVObject@GetSetGui@@AEBVSection@4@AEAVProgressInterface@4@@Z@std@@PEAX@std@@@std@@@?$_Tree_node@U?$pair@$$CBV?$basic_string@DU?$char_traits@D@std@@V?$allocator@D@2@@std@@P6APEAVObject@GetSetGui@@AEBVSection@4@AEAVProgressInterface@4@@Z@std@@PEAX@std@@SAPEAU01@AEAV?$allocator@U?$_Tree_node@U?$pair@$$CBV?$basic_string@DU?$char_traits@D@std@@V?$allocator@D@2@@std@@P6APEAVObject@GetSetGui@@AEBVSection@4@AEAVProgressInterface@4@@Z@std@@PEAX@std@@@1@@Z
	??$_Buyheadnode@V?$allocator@U?$_Tree_node@U?$pair@$$CBV?$basic_string@DU?$char_traits@D@std@@V?$allocator@D@2@@std@@PEAVNode@GetSetInternal@@@std@@PEAX@std@@@std@@@?$_Tree_node@U?$pair@$$CBV?$basic_string@DU?$char_traits@D@std@@V?$allocator@D@2@@std@@PEAVNode@GetSetInternal@@@std@@PEAX@std@@SAPEAU01@AEAV?$allocator@U?$_Tree_node@U?$pair@$$CBV?$basic_string@DU?$char_traits@D@std@@V?$allocator@D@2@@std@@PEAVNode@GetSetInternal@@@std@@PEAX@std@@@1@@Z
	??$_Buyheadnode@V?$allocator@U?$_Tree_node@U?$pair@$$CBV?$basic_string@DU?$char_traits@D@std@@V?$allocator@D@2@@std@@V12@@std@@PEAX@std@@@std@@@?$_Tree_node@U?$pair@$$CBV?$basic_string@DU?$char_traits@D@std@@V?$allocator@D@2@@std@@V12@@std@@PEAX@std@@SAPEAU01@AEAV?$allocator@U?$_Tree_node@U?$pair@$$CBV?$basic_string@DU?$char_traits@D@std@@V?$allocator@D@2@@std@@V12@@std@@PEAX@std@@@1@@Z
	??$_Buyheadnode@V?$allocator@U?$_Tree_node@U?$pair@$$CBV?$basic_string@DU?$char_traits@D@std@@V?$allocator@D@2@@std@@V?$map@V?$basic_string@DU?$char_traits@D@std@@V?$allocator@D@2@@std@@V12@U?$less@V?$basic_string@DU?$char_traits@D@std@@V?$allocator@D@2@@std@@@2@V?$allocator@U?$pair@$$CBV?$basic_string@DU?$char_traits@D@std@@V?$allocator@D@2@@std@@V12@@std@@@2@@2@@std@@PEAX@std@@@std@@@?$_Tree_node@U?$pair@$$CBV?$basic_string@DU?$char_traits@D@std@@V?$allocator@D@2@@std@@V?$map@V?$basic_string@DU?$char_traits@D@std@@V?$allocator@D@2@@std@@V12@U?$less@V?$basic_string@DU?$char_traits@D@std@@V?$allocator@D@2@@std@@@2@V?$allocator@U?$pair@$$CBV?$basic_string@DU?$char_traits@D@std@@V?$allocator@D@2@@std@@V12@@std@@@2@@2@@std@@PEAX@std@@SAPEAU01@AEAV?$allocator@U?$_Tree_node@U?$pair@$$CBV?$basic_string@DU?$char_traits@D@std@@V?$allocator@D@2@@std@@V?$map@V?$basic_string@DU?$char_traits@D@std@@V?$allocator@D@2@@std@@V12@U?$less@V?$basic_string@DU?$char_traits@D@std@@V?$allocator@D@2@@std@@@2@V?$allocator@U?$pair@$$CBV?$basic_string@DU?$char_traits@D@std@@V?$allocator@D@2@@std@@V12@@std@@@2@@2@@std@@PEAX@std@@@1@@Z
	??$_Buyheadnode@V?$allocator@U?$_Tree_node@U?$pair@QEAXP6AXAEBV?$basic_string@DU?$char_traits@D@std@@V?$allocator@D@2@@std@@PEAX@Z@std@@PEAX@std@@@std@@@?$_Tree_node@U?$pair@QEAXP6AXAEBV?$basic_string@DU?$char_traits@D@std@@V?$allocator@D@2@@std@@PEAX@Z@std@@PEAX@std@@SAPEAU01@AEAV?$allocator@U?$_Tree_node@U?$pair@QEAXP6AXAEBV?$basic_string@DU?$char_traits@D@std@@V?$allocator@D@2@@std@@PEAX@Z@std@@PEAX@std@@@1@@Z
	??$_Buyheadnode@V?$allocator@U?$_Tree_node@V?$basic_string@DU?$char_traits@D@std@@V?$allocator@D@2@@std@@PEAX@std@@@std@@@?$_Tree_node@V?$basic_string@DU?$char_traits@D@std@@V?$allocator@D@2@@std@@PEAX@std@@SAPEAU01@AEAV?$allocator@U?$_Tree_node@V?$basic_string@DU?$char_traits@D@std@@V?$allocator@D@2@@std@@PEAX@std@@@1@@Z
	??$_Buynode@AEAU?$pair@$$CBV?$basic_string@DU?$char_traits@D@std@@V?$allocator@D@2@@std@@V12@@std@@@?$_Tree@V?$_Tmap_traits@V?$basic_string@DU?$char_traits@D@std@@V?$allocator@D@2@@std@@V12@U?$less@V?$basic_string@DU?$char_traits@D@std@@V?$allocator@D@2@@std@@@2@V?$allocator@U?$pair@$$CBV?$basic_string@DU?$char_traits@D@std@@V?$allocator@D@2@@std@@V12@@std@@@2@$0A@@std@@@std@@IEAAPEAU?$_Tree_node@U?$pair@$$CBV?$basic_string@DU?$char_traits@D@std@@V?$allocator@D@2@@std@@V12@@std@@PEAX@1@AEAU?$pair@$$CBV?$basic_string@DU?$char_traits@D@std@@V?$allocator@D@2@@std@@V12@@1@@Z
	??$_Buynode@V?$allocator@U?$_Tree_node@U?$pair@$$CBV?$basic_string@DU?$char_traits@D@std@@V?$allocator@D@2@@std@@V12@@std@@PEAX@std@@@std@@AEAU?$pair@$$CBV?$basic_string@DU?$char_traits@D@std@@V?$allocator@D@2@@std@@V12@@2@@?$_Tree_node@U?$pair@$$CBV?$basic_string@DU?$char_traits@D@std@@V?$allocator@D@2@@std@@V12@@std@@PEAX@std@@SAPEAU01@AEAV?$allocator@U?$_Tree_node@U?$pair@$$CBV?$basic_string@DU?$char_traits@D@std@@V?$allocator@D@2@@std@@V12@@std@@PEAX@std@@@1@PEAU01@AEAU?$pair@$$CBV?$basic_string@DU?$char_traits@D@std@@V?$allocator@D@2@@std@@V12@@1@@Z
	??$_Construct@$00PEBD@?$basic_string@DU?$char_traits@D@std@@V?$allocator@D@2@@std@@AEAAXQEBD_K@Z
	??$_Construct@$01PEBD@?$basic_string@DU?$char_traits@D@std@@V?$allocator@D@2@@std@@AEAAXQEBD_K@Z
	??$_Construct@$0A@D@?$basic_string@DU?$char_traits@D@std@@V?$allocator@D@2@@std@@AEAAXD_K@Z
	??$_Construct_in_place@DD@std@@YAXAEAD$$QEAD@Z
	??$_Construct_in_place@EE@std@@YAXAEAE$$QEAE@Z
	??$_Construct_in_place@FF@std@@YAXAEAF$$QEAF@Z
	??$_Construct_in_place@GG@std@@YAXAEAG$$QEAG@Z
	??$_Construct_in_place@HH@std@@YAXAEAH$$QEAH@Z
	??$_Construct_in_place@II@std@@YAXAEAI$$QEAI@Z
	??$_Construct_in_place@JJ@std@@YAXAEAJ$$QEAJ@Z
	??$_Construct_in_place@KK@std@@YAXAEAK$$QEAK@Z
	??$_Construct_in_place@MM@std@@YAXAEAM$$QEAM@Z
	??$_Construct_in_place@NN@std@@YAXAEAN$$QEAN@Z
	??$_Construct_in_place@PEADAEAPEAD@std@@YAXAEAPEAD0@Z
	??$_Construct_in_place@PEADAEBQEAD@std@@YAXAEAPEADAEBQEAD@Z
	??$_Construct_in_place@PEAU?$_Tree_node@PEAUObserver@Dictionary@GetSetInternal@@PEAX@std@@AEAPEAU12@@std@@YAXAEAPEAU?$_Tree_node@PEAUObserver@Dictionary@GetSetInternal@@PEAX@0@0@Z
	??$_Construct_in_place@PEAU?$_Tree_node@PEAUObserver@Dictionary@GetSetInternal@@PEAX@std@@AEBQEAU12@@std@@YAXAEAPEAU?$_Tree_node@PEAUObserver@Dictionary@GetSetInternal@@PEAX@0@AEBQEAU10@@Z
	??$_Construct_in_place@PEAU?$_Tree_node@U?$pair@$$CBEE@std@@PEAX@std@@AEAPEAU12@@std@@YAXAEAPEAU?$_Tree_node@U?$pair@$$CBEE@std@@PEAX@0@0@Z
	??$_Construct_in_place@PEAU?$_Tree_node@U?$pair@$$CBEE@std@@PEAX@std@@AEBQEAU12@@std@@YAXAEAPEAU?$_Tree_node@U?$pair@$$CBEE@std@@PEAX@0@AEBQEAU10@@Z
	??$_Construct_in_place@PEAU?$_Tree_node@U?$pair@$$CBV?$basic_string@DU?$char_traits@D@std@@V?$allocator@D@2@@std@@P6APEAVObject@GetSetGui@@AEBVSection@4@AEAVProgressInterface@4@@Z@std@@PEAX@std@@AEAPEAU12@@std@@YAXAEAPEAU?$_Tree_node@U?$pair@$$CBV?$basic_string@DU?$char_traits@D@std@@V?$allocator@D@2@@std@@P6APEAVObject@GetSetGui@@AEBVSection@4@AEAVProgressInterface@4@@Z@std@@PEAX@0@0@Z
	??$_Construct_in_place@PEAU?$_Tree_node@U?$pair@$$CBV?$basic_string@DU?$char_traits@D@std@@V?$allocator@D@2@@std@@P6APEAVObject@GetSetGui@@AEBVSection@4@AEAVProgressInterface@4@@Z@std@@PEAX@std@@AEBQEAU12@@std@@YAXAEAPEAU?$_Tree_node@U?$pair@$$CBV?$basic_string@DU?$char_traits@D@std@@V?$allocator@D@2@@std@@P6APEAVObject@GetSetGui@@AEBVSection@4@AEAVProgressInterface@4@@Z@std@@PEAX@0@AEBQEAU10@@Z
	??$_Construct_in_place@PEAU?$_Tree_node@U?$pair@$$CBV?$basic_string@DU?$char_traits@D@std@@V?$allocator@D@2@@std@@PEAVNode@GetSetInternal@@@std@@PEAX@std@@AEAPEAU12@@std@@YAXAEAPEAU?$_Tree_node@U?$pair@$$CBV?$basic_string@DU?$char_traits@D@std@@V?$allocator@D@2@@std@@PEAVNode@GetSetInternal@@@std@@PEAX@0@0@Z
	??$_Construct_in_place@PEAU?$_Tree_node@U?$pair@$$CBV?$basic_string@DU?$char_traits@D@std@@V?$allocator@D@2@@std@@PEAVNode@GetSetInternal@@@std@@PEAX@std@@AEBQEAU12@@std@@YAXAEAPEAU?$_Tree_node@U?$pair@$$CBV?$basic_string@DU?$char_traits@D@std@@V?$allocator@D@2@@std@@PEAVNode@GetSetInternal@@@std@@PEAX@0@AEBQEAU10@@Z
	??$_Construct_in_place@PEAU?$_Tree_node@U?$pair@$$CBV?$basic_string@DU?$char_traits@D@std@@V?$allocator@D@2@@std@@V12@@std@@PEAX@std@@AEAPEAU12@@std@@YAXAEAPEAU?$_Tree_node@U?$pair@$$CBV?$basic_string@DU?$char_traits@D@std@@V?$allocator@D@2@@std@@V12@@std@@PEAX@0@0@Z
	??$_Construct_in_place@PEAU?$_Tree_node@U?$pair@$$CBV?$basic_string@DU?$char_traits@D@std@@V?$allocator@D@2@@std@@V12@@std@@PEAX@std@@AEBQEAU12@@std@@YAXAEAPEAU?$_Tree_node@U?$pair@$$CBV?$basic_string@DU?$char_traits@D@std@@V?$allocator@D@2@@std@@V12@@std@@PEAX@0@AEBQEAU10@@Z
	??$_Construct_in_place@PEAU?$_Tree_node@U?$pair@$$CBV?$basic_string@DU?$char_traits@D@std@@V?$allocator@D@2@@std@@V?$map@V?$basic_string@DU?$char_traits@D@std@@V?$allocator@D@2@@std@@V12@U?$less@V?$basic_string@DU?$char_traits@D@std@@V?$allocator@D@2@@std@@@2@V?$allocator@U?$pair@$$CBV?$basic_string@DU?$char_traits@D@std@@V?$allocator@D@2@@std@@V12@@std@@@2@@2@@std@@PEAX@std@@AEAPEAU12@@std@@YAXAEAPEAU?$_Tree_node@U?$pair@$$CBV?$basic_string@DU?$char_traits@D@std@@V?$allocator@D@2@@std@@V?$map@V?$basic_string@DU?$char_traits@D@std@@V?$allocator@D@2@@std@@V12@U?$less@V?$basic_string@DU?$char_traits@D@std@@V?$allocator@D@2@@std@@@2@V?$allocator@U?$pair@$$CBV?$basic_string@DU?$char_traits@D@std@@V?$allocator@D@2@@std@@V12@@std@@@2@@2@@std@@PEAX@0@0@Z
	??$_Construct_in_place@PEAU?$_Tree_node@U?$pair@$$CBV?$basic_string@DU?$char_traits@D@std@@V?$allocator@D@2@@std@@V?$map@V?$basic_string@DU?$char_traits@D@std@@V?$allocator@D@2@@std@@V12@U?$less@V?$basic_string@DU?$char_traits@D@std@@V?$allocator@D@2@@std@@@2@V?$allocator@U?$pair@$$CBV?$basic_string@DU?$char_traits@D@std@@V?$allocator@D@2@@std@@V12@@std@@@2@@2@@std@@PEAX@std@@AEBQEAU12@@std@@YAXAEAPEAU?$_Tree_node@U?$pair@$$CBV?$basic_string@DU?$char_traits@D@std@@V?$allocator@D@2@@std@@V?$map@V?$basic_string@DU?$char_traits@D@std@@V?$allocator@D@2@@std@@V12@U?$less@V?$basic_string@DU?$char_traits@D@std@@V?$allocator@D@2@@std@@@2@V?$allocator@U?$pair@$$CBV?$basic_string@DU?$char_traits@D@std@@V?$allocator@D@2@@std@@V12@@std@@@2@@2@@std@@PEAX@0@AEBQEAU10@@Z
	??$_Construct_in_place@PEAU?$_Tree_node@U?$pair@QEAXP6AXAEBV?$basic_string@DU?$char_traits@D@std@@V?$allocator@D@2@@std@@PEAX@Z@std@@PEAX@std@@AEAPEAU12@@std@@YAXAEAPEAU?$_Tree_node@U?$pair@QEAXP6AXAEBV?$basic_string@DU?$char_traits@D@std@@V?$allocator@D@2@@std@@PEAX@Z@std@@PEAX@0@0@Z
	??$_Construct_in_place@PEAU?$_Tree_node@U?$pair@QEAXP6AXAEBV?$basic_string@DU?$char_traits@D@std@@V?$allocator@D@2@@std@@PEAX@Z@std@@PEAX@std@@AEBQEAU12@@std@@YAXAEAPEAU?$_Tree_node@U?$pair@QEAXP6AXAEBV?$basic_string@DU?$char_traits@D@std@@V?$allocator@D@2@@std@@PEAX@Z@std@@PEAX@0@AEBQEAU10@@Z
	??$_Construct_in_place@PEAU?$_Tree_node@V?$basic_string@DU?$char_traits@D@std@@V?$allocator@D@2@@std@@PEAX@std@@AEAPEAU12@@std@@YAXAEAPEAU?$_Tree_node@V?$basic_string@DU?$char_traits@D@std@@V?$allocator@D@2@@std@@PEAX@0@0@Z
	??$_Construct_in_place@PEAU?$_Tree_node@V?$basic_string@DU?$char_traits@D@std@@V?$allocator@D@2@@std@@PEAX@std@@AEBQEAU12@@std@@YAXAEAPEAU?$_Tree_node@V?$basic_string@DU?$char_traits@D@std@@V?$allocator@D@2@@std@@PEAX@0@AEBQEAU10@@Z
	??$_Construct_in_place@V?$basic_string@DU?$char_traits@D@std@@V?$allocator@D@2@@std@@V12@@std@@YAXAEAV?$basic_string@DU?$char_traits@D@std@@V?$allocator@D@2@@0@$$QEAV10@@Z
	??$_Construct_n@AEBQEADAEBQEAD@?$vector@DV?$allocator@D@std@@@std@@AEAAX_KAEBQEAD1@Z
	??$_Construct_n@AEBQEAEAEBQEAE@?$vector@EV?$allocator@E@std@@@std@@AEAAX_KAEBQEAE1@Z
	??$_Construct_n@AEBQEAFAEBQEAF@?$vector@FV?$allocator@F@std@@@std@@AEAAX_KAEBQEAF1@Z
	??$_Construct_n@AEBQEAGAEBQEAG@?$vector@GV?$allocator@G@std@@@std@@AEAAX_KAEBQEAG1@Z
	??$_Construct_n@AEBQEAHAEBQEAH@?$vector@HV?$allocator@H@std@@@std@@AEAAX_KAEBQEAH1@Z
	??$_Construct_n@AEBQEAIAEBQEAI@?$vector@IV?$allocator@I@std@@@std@@AEAAX_KAEBQEAI1@Z
	??$_Construct_n@AEBQEAJAEBQEAJ@?$vector@JV?$allocator@J@std@@@std@@AEAAX_KAEBQEAJ1@Z
	??$_Construct_n@AEBQEAKAEBQEAK@?$vector@KV?$allocator@K@std@@@std@@AEAAX_KAEBQEAK1@Z
	??$_Construct_n@AEBQEAMAEBQEAM@?$vector@MV?$allocator@M@std@@@std@@AEAAX_KAEBQEAM1@Z
	??$_Construct_n@AEBQEANAEBQEAN@?$vector@NV?$allocator@N@std@@@std@@AEAAX_KAEBQEAN1@Z
	??$_Construct_n@AEBQEAV?$basic_string@DU?$char_traits@D@std@@V?$allocator@D@2@@std@@AEBQEAV12@@?$vector@V?$basic_string@DU?$char_traits@D@std@@V?$allocator@D@2@@std@@V?$allocator@V?$basic_string@DU?$char_traits@D@std@@V?$allocator@D@2@@std@@@2@@std@@AEAAX_KAEBQEAV?$basic_string@DU?$char_traits@D@std@@V?$allocator@D@2@@1@1@Z
	??$_Convert_size@_K_K@std@@YA_K_K@Z
	??$_Copy@$0A@@?$_Tree@V?$_Tmap_traits@V?$basic_string@DU?$char_traits@D@std@@V?$allocator@D@2@@std@@V12@U?$less@V?$basic_string@DU?$char_traits@D@std@@V?$allocator@D@2@@std@@@2@V?$allocator@U?$pair@$$CBV?$basic_string@DU?$char_traits@D@std@@V?$allocator@D@2@@std@@V12@@std@@@2@$0A@@std@@@std@@IEAAXAEBV01@@Z
	??$_Copy_backward_unchecked@V?$_Vb_iterator@U?$_Wrap_alloc@V?$allocator@I@std@@@std@@@std@@V12@@std@@YA?AV?$_Vb_iterator@U?$_Wrap_alloc@V?$allocator@I@std@@@std@@@0@V10@00@Z
	??$_Copy_memmove@PEADPEAD@std@@YAPEADPEAD00@Z
	??$_Copy_memmove@PEAEPEAE@std@@YAPEAEPEAE00@Z
	??$_Copy_memmove@PEAFPEAF@std@@YAPEAFPEAF00@Z
	??$_Copy_memmove@PEAGPEAG@std@@YAPEAGPEAG00@Z
	??$_Copy_memmove@PEAHPEAH@std@@YAPEAHPEAH00@Z
	??$_Copy_memmove@PEAIPEAI@std@@YAPEAIPEAI00@Z
	??$_Copy_memmove@PEAJPEAJ@std@@YAPEAJPEAJ00@Z
	??$_Copy_memmove@PEAKPEAK@std@@YAPEAKPEAK00@Z
	??$_Copy_memmove@PEAMPEAM@std@@YAPEAMPEAM00@Z
	??$_Copy_memmove@PEANPEAN@std@@YAPEANPEAN00@Z
	??$_Copy_memmove_n@PEADPEAD@std@@YAPEADPEAD_K0@Z
	??$_Copy_memmove_n@PEAEPEAE@std@@YAPEAEPEAE_K0@Z
	??$_Copy_memmove_n@PEAFPEAF@std@@YAPEAFPEAF_K0@Z
	??$_Copy_memmove_n@PEAGPEAG@std@@YAPEAGPEAG_K0@Z
	??$_Copy_memmove_n@PEAHPEAH@std@@YAPEAHPEAH_K0@Z
	??$_Copy_memmove_n@PEAIPEAI@std@@YAPEAIPEAI_K0@Z
	??$_Copy_memmove_n@PEAJPEAJ@std@@YAPEAJPEAJ_K0@Z
	??$_Copy_memmove_n@PEAKPEAK@std@@YAPEAKPEAK_K0@Z
	??$_Copy_memmove_n@PEAMPEAM@std@@YAPEAMPEAM_K0@Z
	??$_Copy_memmove_n@PEANPEAN@std@@YAPEANPEAN_K0@Z
	??$_Copy_memmove_tail@PEAD@std@@YAPEADQEBDQEAD_K2@Z
	??$_Copy_memmove_tail@PEAE@std@@YAPEAEQEBDQEAE_K2@Z
	??$_Copy_memmove_tail@PEAF@std@@YAPEAFQEBDQEAF_K2@Z
	??$_Copy_memmove_tail@PEAG@std@@YAPEAGQEBDQEAG_K2@Z
	??$_Copy_memmove_tail@PEAH@std@@YAPEAHQEBDQEAH_K2@Z
	??$_Copy_memmove_tail@PEAI@std@@YAPEAIQEBDQEAI_K2@Z
	??$_Copy_memmove_tail@PEAJ@std@@YAPEAJQEBDQEAJ_K2@Z
	??$_Copy_memmove_tail@PEAK@std@@YAPEAKQEBDQEAK_K2@Z
	??$_Copy_memmove_tail@PEAM@std@@YAPEAMQEBDQEAM_K2@Z
	??$_Copy_memmove_tail@PEAN@std@@YAPEANQEBDQEAN_K2@Z
	??$_Copy_n_unchecked4@PEAD_KPEAD@std@@YAPEADPEAD_K0@Z
	??$_Copy_n_unchecked4@PEAE_KPEAE@std@@YAPEAEPEAE_K0@Z
	??$_Copy_n_unchecked4@PEAF_KPEAF@std@@YAPEAFPEAF_K0@Z
	??$_Copy_n_unchecked4@PEAG_KPEAG@std@@YAPEAGPEAG_K0@Z
	??$_Copy_n_unchecked4@PEAH_KPEAH@std@@YAPEAHPEAH_K0@Z
	??$_Copy_n_unchecked4@PEAI_KPEAI@std@@YAPEAIPEAI_K0@Z
	??$_Copy_n_unchecked4@PEAJ_KPEAJ@std@@YAPEAJPEAJ_K0@Z
	??$_Copy_n_unchecked4@PEAK_KPEAK@std@@YAPEAKPEAK_K0@Z
	??$_Copy_n_unchecked4@PEAM_KPEAM@std@@YAPEAMPEAM_K0@Z
	??$_Copy_n_unchecked4@PEAN_KPEAN@std@@YAPEANPEAN_K0@Z
	??$_Copy_n_unchecked4@PEAV?$basic_string@DU?$char_traits@D@std@@V?$allocator@D@2@@std@@_KPEAV12@@std@@YAPEAV?$basic_string@DU?$char_traits@D@std@@V?$allocator@D@2@@0@PEAV10@_K0@Z
	??$_Copy_nodes@$0A@@?$_Tree@V?$_Tmap_traits@V?$basic_string@DU?$char_traits@D@std@@V?$allocator@D@2@@std@@V12@U?$less@V?$basic_string@DU?$char_traits@D@std@@V?$allocator@D@2@@std@@@2@V?$allocator@U?$pair@$$CBV?$basic_string@DU?$char_traits@D@std@@V?$allocator@D@2@@std@@V12@@std@@@2@$0A@@std@@@std@@IEAAPEAU?$_Tree_node@U?$pair@$$CBV?$basic_string@DU?$char_traits@D@std@@V?$allocator@D@2@@std@@V12@@std@@PEAX@1@PEAU21@0@Z
	??$_Copy_or_move@$0A@U?$pair@$$CBV?$basic_string@DU?$char_traits@D@std@@V?$allocator@D@2@@std@@V12@@std@@@?$_Tree@V?$_Tmap_traits@V?$basic_string@DU?$char_traits@D@std@@V?$allocator@D@2@@std@@V12@U?$less@V?$basic_string@DU?$char_traits@D@std@@V?$allocator@D@2@@std@@@2@V?$allocator@U?$pair@$$CBV?$basic_string@DU?$char_traits@D@std@@V?$allocator@D@2@@std@@V12@@std@@@2@$0A@@std@@@std@@IEAAPEAU?$_Tree_node@U?$pair@$$CBV?$basic_string@DU?$char_traits@D@std@@V?$allocator@D@2@@std@@V12@@std@@PEAX@1@AEAU?$pair@$$CBV?$basic_string@DU?$char_traits@D@std@@V?$allocator@D@2@@std@@V12@@1@@Z
	??$_Could_compare_equal_to_value_type@PEADD@std@@YA_NAEBD@Z
	??$_Could_compare_equal_to_value_type@PEBDD@std@@YA_NAEBD@Z
	??$_Count_vectorized@$$CBDD@std@@YA_KQEBD0D@Z
	??$_Count_vectorized@DD@std@@YA_KQEAD0D@Z
	??$_Deallocate@$0BA@@std@@YAXPEAX_K@Z
	??$_Destroy_in_place@PEAD@std@@YAXAEAPEAD@Z
	??$_Destroy_in_place@PEAU?$_Tree_node@PEAUObserver@Dictionary@GetSetInternal@@PEAX@std@@@std@@YAXAEAPEAU?$_Tree_node@PEAUObserver@Dictionary@GetSetInternal@@PEAX@0@@Z
	??$_Destroy_in_place@PEAU?$_Tree_node@U?$pair@$$CBEE@std@@PEAX@std@@@std@@YAXAEAPEAU?$_Tree_node@U?$pair@$$CBEE@std@@PEAX@0@@Z
	??$_Destroy_in_place@PEAU?$_Tree_node@U?$pair@$$CBV?$basic_string@DU?$char_traits@D@std@@V?$allocator@D@2@@std@@P6APEAVObject@GetSetGui@@AEBVSection@4@AEAVProgressInterface@4@@Z@std@@PEAX@std@@@std@@YAXAEAPEAU?$_Tree_node@U?$pair@$$CBV?$basic_string@DU?$char_traits@D@std@@V?$allocator@D@2@@std@@P6APEAVObject@GetSetGui@@AEBVSection@4@AEAVProgressInterface@4@@Z@std@@PEAX@0@@Z
	??$_Destroy_in_place@PEAU?$_Tree_node@U?$pair@$$CBV?$basic_string@DU?$char_traits@D@std@@V?$allocator@D@2@@std@@PEAVNode@GetSetInternal@@@std@@PEAX@std@@@std@@YAXAEAPEAU?$_Tree_node@U?$pair@$$CBV?$basic_string@DU?$char_traits@D@std@@V?$allocator@D@2@@std@@PEAVNode@GetSetInternal@@@std@@PEAX@0@@Z
	??$_Destroy_in_place@PEAU?$_Tree_node@U?$pair@$$CBV?$basic_string@DU?$char_traits@D@std@@V?$allocator@D@2@@std@@V12@@std@@PEAX@std@@@std@@YAXAEAPEAU?$_Tree_node@U?$pair@$$CBV?$basic_string@DU?$char_traits@D@std@@V?$allocator@D@2@@std@@V12@@std@@PEAX@0@@Z
	??$_Destroy_in_place@PEAU?$_Tree_node@U?$pair@$$CBV?$basic_string@DU?$char_traits@D@std@@V?$allocator@D@2@@std@@V?$map@V?$basic_string@DU?$char_traits@D@std@@V?$allocator@D@2@@std@@V12@U?$less@V?$basic_string@DU?$char_traits@D@std@@V?$allocator@D@2@@std@@@2@V?$allocator@U?$pair@$$CBV?$basic_string@DU?$char_traits@D@std@@V?$allocator@D@2@@std@@V12@@std@@@2@@2@@std@@PEAX@std@@@std@@YAXAEAPEAU?$_Tree_node@U?$pair@$$CBV?$basic_string@DU?$char_traits@D@std@@V?$allocator@D@2@@std@@V?$map@V?$basic_string@DU?$char_traits@D@std@@V?$allocator@D@2@@std@@V12@U?$less@V?$basic_string@DU?$char_traits@D@std@@V?$allocator@D@2@@std@@@2@V?$allocator@U?$pair@$$CBV?$basic_string@DU?$char_traits@D@std@@V?$allocator@D@2@@std@@V12@@std@@@2@@2@@std@@PEAX@0@@Z
	??$_Destroy_in_place@PEAU?$_Tree_node@U?$pair@QEAXP6AXAEBV?$basic_string@DU?$char_traits@D@std@@V?$allocator@D@2@@std@@PEAX@Z@std@@PEAX@std@@@std@@YAXAEAPEAU?$_Tree_node@U?$pair@QEAXP6AXAEBV?$basic_string@DU?$char_traits@D@std@@V?$allocator@D@2@@std@@PEAX@Z@std@@PEAX@0@@Z
	??$_Destroy_in_place@PEAU?$_Tree_node@V?$basic_string@DU?$char_traits@D@std@@V?$allocator@D@2@@std@@PEAX@std@@@std@@YAXAEAPEAU?$_Tree_node@V?$basic_string@DU?$char_traits@D@std@@V?$allocator@D@2@@std@@PEAX@0@@Z
	??$_Destroy_range@V?$allocator@D@std@@@std@@YAXPEADQEADAEAV?$allocator@D@0@@Z
	??$_Destroy_range@V?$allocator@E@std@@@std@@YAXPEAEQEAEAEAV?$allocator@E@0@@Z
	??$_Destroy_range@V?$allocator@F@std@@@std@@YAXPEAFQEAFAEAV?$allocator@F@0@@Z
	??$_Destroy_range@V?$allocator@G@std@@@std@@YAXPEAGQEAGAEAV?$allocator@G@0@@Z
	??$_Destroy_range@V?$allocator@H@std@@@std@@YAXPEAHQEAHAEAV?$allocator@H@0@@Z
	??$_Destroy_range@V?$allocator@I@std@@@std@@YAXPEAIQEAIAEAV?$allocator@I@0@@Z
	??$_Destroy_range@V?$allocator@J@std@@@std@@YAXPEAJQEAJAEAV?$allocator@J@0@@Z
	??$_Destroy_range@V?$allocator@K@std@@@std@@YAXPEAKQEAKAEAV?$allocator@K@0@@Z
	??$_Destroy_range@V?$allocator@M@std@@@std@@YAXPEAMQEAMAEAV?$allocator@M@0@@Z
	??$_Destroy_range@V?$allocator@N@std@@@std@@YAXPEANQEANAEAV?$allocator@N@0@@Z
	??$_Destroy_range@V?$allocator@V?$basic_string@DU?$char_traits@D@std@@V?$allocator@D@2@@std@@@std@@@std@@YAXPEAV?$basic_string@DU?$char_traits@D@std@@V?$allocator@D@2@@0@QEAV10@AEAV?$allocator@V?$basic_string@DU?$char_traits@D@std@@V?$allocator@D@2@@std@@@0@@Z
	??$_Emplace@AEBV?$basic_string@DU?$char_traits@D@std@@V?$allocator@D@2@@std@@@?$_Tree@V?$_Tset_traits@V?$basic_string@DU?$char_traits@D@std@@V?$allocator@D@2@@std@@U?$less@V?$basic_string@DU?$char_traits@D@std@@V?$allocator@D@2@@std@@@2@V?$allocator@V?$basic_string@DU?$char_traits@D@std@@V?$allocator@D@2@@std@@@2@$0A@@std@@@std@@IEAA?AU?$pair@PEAU?$_Tree_node@V?$basic_string@DU?$char_traits@D@std@@V?$allocator@D@2@@std@@PEAX@std@@_N@1@AEBV?$basic_string@DU?$char_traits@D@std@@V?$allocator@D@2@@1@@Z
	??$_Emplace@PEAUObserver@Dictionary@GetSetInternal@@@?$_Tree@V?$_Tset_traits@PEAUObserver@Dictionary@GetSetInternal@@U?$less@PEAUObserver@Dictionary@GetSetInternal@@@std@@V?$allocator@PEAUObserver@Dictionary@GetSetInternal@@@5@$0A@@std@@@std@@IEAA?AU?$pair@PEAU?$_Tree_node@PEAUObserver@Dictionary@GetSetInternal@@PEAX@std@@_N@1@$$QEAPEAUObserver@Dictionary@GetSetInternal@@@Z
	??$_Emplace_back@AEAD@?$_Uninitialized_backout_al@V?$allocator@D@std@@@std@@QEAAXAEAD@Z
	??$_Emplace_back@AEAE@?$_Uninitialized_backout_al@V?$allocator@E@std@@@std@@QEAAXAEAE@Z
	??$_Emplace_back@AEAF@?$_Uninitialized_backout_al@V?$allocator@F@std@@@std@@QEAAXAEAF@Z
	??$_Emplace_back@AEAG@?$_Uninitialized_backout_al@V?$allocator@G@std@@@std@@QEAAXAEAG@Z
	??$_Emplace_back@AEAH@?$_Uninitialized_backout_al@V?$allocator@H@std@@@std@@QEAAXAEAH@Z
	??$_Emplace_back@AEAI@?$_Uninitialized_backout_al@V?$allocator@I@std@@@std@@QEAAXAEAI@Z
	??$_Emplace_back@AEAJ@?$_Uninitialized_backout_al@V?$allocator@J@std@@@std@@QEAAXAEAJ@Z
	??$_Emplace_back@AEAK@?$_Uninitialized_backout_al@V?$allocator@K@std@@@std@@QEAAXAEAK@Z
	??$_Emplace_back@AEAM@?$_Uninitialized_backout_al@V?$allocator@M@std@@@std@@QEAAXAEAM@Z
	??$_Emplace_back@AEAN@?$_Uninitialized_backout_al@V?$allocator@N@std@@@std@@QEAAXAEAN@Z
	??$_Emplace_back@AEAV?$basic_string@DU?$char_traits@D@std@@V?$allocator@D@2@@std@@@?$_Uninitialized_backout_al@V?$allocator@V?$basic_string@DU?$char_traits@D@std@@V?$allocator@D@2@@std@@@std@@@std@@QEAAXAEAV?$basic_string@DU?$char_traits@D@std@@V?$allocator@D@2@@1@@Z
	??$_Emplace_back@AEBI@?$_Uninitialized_backout_al@V?$allocator@I@std@@@std@@QEAAXAEBI@Z
	??$_Emplace_back@D@?$_Uninitialized_backout_al@V?$allocator@D@std@@@std@@QEAAX$$QEAD@Z
	??$_Emplace_back@E@?$_Uninitialized_backout_al@V?$allocator@E@std@@@std@@QEAAX$$QEAE@Z
	??$_Emplace_back@F@?$_Uninitialized_backout_al@V?$allocator@F@std@@@std@@QEAAX$$QEAF@Z
	??$_Emplace_back@G@?$_Uninitialized_backout_al@V?$allocator@G@std@@@std@@QEAAX$$QEAG@Z
	??$_Emplace_back@H@?$_Uninitialized_backout_al@V?$allocator@H@std@@@std@@QEAAX$$QEAH@Z
	??$_Emplace_back@I@?$_Uninitialized_backout_al@V?$allocator@I@std@@@std@@QEAAX$$QEAI@Z
	??$_Emplace_back@J@?$_Uninitialized_backout_al@V?$allocator@J@std@@@std@@QEAAX$$QEAJ@Z
	??$_Emplace_back@K@?$_Uninitialized_backout_al@V?$allocator@K@std@@@std@@QEAAX$$QEAK@Z
	??$_Emplace_back@M@?$_Uninitialized_backout_al@V?$allocator@M@std@@@std@@QEAAX$$QEAM@Z
	??$_Emplace_back@N@?$_Uninitialized_backout_al@V?$allocator@N@std@@@std@@QEAAX$$QEAN@Z
	??$_Emplace_back@V?$basic_string@DU?$char_traits@D@std@@V?$allocator@D@2@@std@@@?$_Uninitialized_backout_al@V?$allocator@V?$basic_string@DU?$char_traits@D@std@@V?$allocator@D@2@@std@@@std@@@std@@QEAAX$$QEAV?$basic_string@DU?$char_traits@D@std@@V?$allocator@D@2@@1@@Z
	??$_Emplace_back_with_unused_capacity@AEBV?$basic_string@DU?$char_traits@D@std@@V?$allocator@D@2@@std@@@?$vector@V?$basic_string@DU?$char_traits@D@std@@V?$allocator@D@2@@std@@V?$allocator@V?$basic_string@DU?$char_traits@D@std@@V?$allocator@D@2@@std@@@2@@std@@AEAAAEAV?$basic_string@DU?$char_traits@D@std@@V?$allocator@D@2@@1@AEBV21@@Z
	??$_Emplace_back_with_unused_capacity@D@?$vector@DV?$allocator@D@std@@@std@@AEAAAEAD$$QEAD@Z
	??$_Emplace_back_with_unused_capacity@E@?$vector@EV?$allocator@E@std@@@std@@AEAAAEAE$$QEAE@Z
	??$_Emplace_back_with_unused_capacity@F@?$vector@FV?$allocator@F@std@@@std@@AEAAAEAF$$QEAF@Z
	??$_Emplace_back_with_unused_capacity@G@?$vector@GV?$allocator@G@std@@@std@@AEAAAEAG$$QEAG@Z
	??$_Emplace_back_with_unused_capacity@H@?$vector@HV?$allocator@H@std@@@std@@AEAAAEAH$$QEAH@Z
	??$_Emplace_back_with_unused_capacity@I@?$vector@IV?$allocator@I@std@@@std@@AEAAAEAI$$QEAI@Z
	??$_Emplace_back_with_unused_capacity@J@?$vector@JV?$allocator@J@std@@@std@@AEAAAEAJ$$QEAJ@Z
	??$_Emplace_back_with_unused_capacity@K@?$vector@KV?$allocator@K@std@@@std@@AEAAAEAK$$QEAK@Z
	??$_Emplace_back_with_unused_capacity@M@?$vector@MV?$allocator@M@std@@@std@@AEAAAEAM$$QEAM@Z
	??$_Emplace_back_with_unused_capacity@N@?$vector@NV?$allocator@N@std@@@std@@AEAAAEAN$$QEAN@Z
	??$_Emplace_back_with_unused_capacity@V?$basic_string@DU?$char_traits@D@std@@V?$allocator@D@2@@std@@@?$vector@V?$basic_string@DU?$char_traits@D@std@@V?$allocator@D@2@@std@@V?$allocator@V?$basic_string@DU?$char_traits@D@std@@V?$allocator@D@2@@std@@@2@@std@@AEAAAEAV?$basic_string@DU?$char_traits@D@std@@V?$allocator@D@2@@1@$$QEAV21@@Z
	??$_Emplace_one_at_back@AEBV?$basic_string@DU?$char_traits@D@std@@V?$allocator@D@2@@std@@@?$vector@V?$basic_string@DU?$char_traits@D@std@@V?$allocator@D@2@@std@@V?$allocator@V?$basic_string@DU?$char_traits@D@std@@V?$allocator@D@2@@std@@@2@@std@@AEAAAEAV?$basic_string@DU?$char_traits@D@std@@V?$allocator@D@2@@1@AEBV21@@Z
	??$_Emplace_one_at_back@D@?$vector@DV?$allocator@D@std@@@std@@AEAAAEAD$$QEAD@Z
	??$_Emplace_one_at_back@E@?$vector@EV?$allocator@E@std@@@std@@AEAAAEAE$$QEAE@Z
	??$_Emplace_one_at_back@F@?$vector@FV?$allocator@F@std@@@std@@AEAAAEAF$$QEAF@Z
	??$_Emplace_one_at_back@G@?$vector@GV?$allocator@G@std@@@std@@AEAAAEAG$$QEAG@Z
	??$_Emplace_one_at_back@H@?$vector@HV?$allocator@H@std@@@std@@AEAAAEAH$$QEAH@Z
	??$_Emplace_one_at_back@I@?$vector@IV?$allocator@I@std@@@std@@AEAAAEAI$$QEAI@Z
	??$_Emplace_one_at_back@J@?$vector@JV?$allocator@J@std@@@std@@AEAAAEAJ$$QEAJ@Z
	??$_Emplace_one_at_back@K@?$vector@KV?$allocator@K@std@@@std@@AEAAAEAK$$QEAK@Z
	??$_Emplace_one_at_back@M@?$vector@MV?$allocator@M@std@@@std@@AEAAAEAM$$QEAM@Z
	??$_Emplace_one_at_back@N@?$vector@NV?$allocator@N@std@@@std@@AEAAAEAN$$QEAN@Z
	??$_Emplace_one_at_back@V?$basic_string@DU?$char_traits@D@std@@V?$allocator@D@2@@std@@@?$vector@V?$basic_string@DU?$char_traits@D@std@@V?$allocator@D@2@@std@@V?$allocator@V?$basic_string@DU?$char_traits@D@std@@V?$allocator@D@2@@std@@@2@@std@@AEAAAEAV?$basic_string@DU?$char_traits@D@std@@V?$allocator@D@2@@1@$$QEAV21@@Z
	??$_Emplace_reallocate@AEBV?$basic_string@DU?$char_traits@D@std@@V?$allocator@D@2@@std@@@?$vector@V?$basic_string@DU?$char_traits@D@std@@V?$allocator@D@2@@std@@V?$allocator@V?$basic_string@DU?$char_traits@D@std@@V?$allocator@D@2@@std@@@2@@std@@AEAAPEAV?$basic_string@DU?$char_traits@D@std@@V?$allocator@D@2@@1@QEAV21@AEBV21@@Z
	??$_Emplace_reallocate@D@?$vector@DV?$allocator@D@std@@@std@@AEAAPEADQEAD$$QEAD@Z
	??$_Emplace_reallocate@E@?$vector@EV?$allocator@E@std@@@std@@AEAAPEAEQEAE$$QEAE@Z
	??$_Emplace_reallocate@F@?$vector@FV?$allocator@F@std@@@std@@AEAAPEAFQEAF$$QEAF@Z
	??$_Emplace_reallocate@G@?$vector@GV?$allocator@G@std@@@std@@AEAAPEAGQEAG$$QEAG@Z
	??$_Emplace_reallocate@H@?$vector@HV?$allocator@H@std@@@std@@AEAAPEAHQEAH$$QEAH@Z
	??$_Emplace_reallocate@I@?$vector@IV?$allocator@I@std@@@std@@AEAAPEAIQEAI$$QEAI@Z
	??$_Emplace_reallocate@J@?$vector@JV?$allocator@J@std@@@std@@AEAAPEAJQEAJ$$QEAJ@Z
	??$_Emplace_reallocate@K@?$vector@KV?$allocator@K@std@@@std@@AEAAPEAKQEAK$$QEAK@Z
	??$_Emplace_reallocate@M@?$vector@MV?$allocator@M@std@@@std@@AEAAPEAMQEAM$$QEAM@Z
	??$_Emplace_reallocate@N@?$vector@NV?$allocator@N@std@@@std@@AEAAPEANQEAN$$QEAN@Z
	??$_Emplace_reallocate@V?$basic_string@DU?$char_traits@D@std@@V?$allocator@D@2@@std@@@?$vector@V?$basic_string@DU?$char_traits@D@std@@V?$allocator@D@2@@std@@V?$allocator@V?$basic_string@DU?$char_traits@D@std@@V?$allocator@D@2@@std@@@2@@std@@AEAAPEAV?$basic_string@DU?$char_traits@D@std@@V?$allocator@D@2@@1@QEAV21@$$QEAV21@@Z
	??$_Eqrange@PEAUObserver@Dictionary@GetSetInternal@@@?$_Tree@V?$_Tset_traits@PEAUObserver@Dictionary@GetSetInternal@@U?$less@PEAUObserver@Dictionary@GetSetInternal@@@std@@V?$allocator@PEAUObserver@Dictionary@GetSetInternal@@@5@$0A@@std@@@std@@IEBA?AU?$pair@PEAU?$_Tree_node@PEAUObserver@Dictionary@GetSetInternal@@PEAX@std@@PEAU12@@1@AEBQEAUObserver@Dictionary@GetSetInternal@@@Z
	??$_Eqrange@V?$basic_string@DU?$char_traits@D@std@@V?$allocator@D@2@@std@@@?$_Tree@V?$_Tset_traits@V?$basic_string@DU?$char_traits@D@std@@V?$allocator@D@2@@std@@U?$less@V?$basic_string@DU?$char_traits@D@std@@V?$allocator@D@2@@std@@@2@V?$allocator@V?$basic_string@DU?$char_traits@D@std@@V?$allocator@D@2@@std@@@2@$0A@@std@@@std@@IEBA?AU?$pair@PEAU?$_Tree_node@V?$basic_string@DU?$char_traits@D@std@@V?$allocator@D@2@@std@@PEAX@std@@PEAU12@@1@AEBV?$basic_string@DU?$char_traits@D@std@@V?$allocator@D@2@@1@@Z
	??$_Erase_head@V?$allocator@U?$_Tree_node@PEAUObserver@Dictionary@GetSetInternal@@PEAX@std@@@std@@@?$_Tree_val@U?$_Tree_simple_types@PEAUObserver@Dictionary@GetSetInternal@@@std@@@std@@QEAAXAEAV?$allocator@U?$_Tree_node@PEAUObserver@Dictionary@GetSetInternal@@PEAX@std@@@1@@Z
	??$_Erase_head@V?$allocator@U?$_Tree_node@U?$pair@$$CBEE@std@@PEAX@std@@@std@@@?$_Tree_val@U?$_Tree_simple_types@U?$pair@$$CBEE@std@@@std@@@std@@QEAAXAEAV?$allocator@U?$_Tree_node@U?$pair@$$CBEE@std@@PEAX@std@@@1@@Z
	??$_Erase_head@V?$allocator@U?$_Tree_node@U?$pair@$$CBV?$basic_string@DU?$char_traits@D@std@@V?$allocator@D@2@@std@@P6APEAVObject@GetSetGui@@AEBVSection@4@AEAVProgressInterface@4@@Z@std@@PEAX@std@@@std@@@?$_Tree_val@U?$_Tree_simple_types@U?$pair@$$CBV?$basic_string@DU?$char_traits@D@std@@V?$allocator@D@2@@std@@P6APEAVObject@GetSetGui@@AEBVSection@4@AEAVProgressInterface@4@@Z@std@@@std@@@std@@QEAAXAEAV?$allocator@U?$_Tree_node@U?$pair@$$CBV?$basic_string@DU?$char_traits@D@std@@V?$allocator@D@2@@std@@P6APEAVObject@GetSetGui@@AEBVSection@4@AEAVProgressInterface@4@@Z@std@@PEAX@std@@@1@@Z
	??$_Erase_head@V?$allocator@U?$_Tree_node@U?$pair@$$CBV?$basic_string@DU?$char_traits@D@std@@V?$allocator@D@2@@std@@PEAVNode@GetSetInternal@@@std@@PEAX@std@@@std@@@?$_Tree_val@U?$_Tree_simple_types@U?$pair@$$CBV?$basic_string@DU?$char_traits@D@std@@V?$allocator@D@2@@std@@PEAVNode@GetSetInternal@@@std@@@std@@@std@@QEAAXAEAV?$allocator@U?$_Tree_node@U?$pair@$$CBV?$basic_string@DU?$char_traits@D@std@@V?$allocator@D@2@@std@@PEAVNode@GetSetInternal@@@std@@PEAX@std@@@1@@Z
	??$_Erase_head@V?$allocator@U?$_Tree_node@U?$pair@$$CBV?$basic_string@DU?$char_traits@D@std@@V?$allocator@D@2@@std@@V12@@std@@PEAX@std@@@std@@@?$_Tree_val@U?$_Tree_simple_types@U?$pair@$$CBV?$basic_string@DU?$char_traits@D@std@@V?$allocator@D@2@@std@@V12@@std@@@std@@@std@@QEAAXAEAV?$allocator@U?$_Tree_node@U?$pair@$$CBV?$basic_string@DU?$char_traits@D@std@@V?$allocator@D@2@@std@@V12@@std@@PEAX@std@@@1@@Z
	??$_Erase_head@V?$allocator@U?$_Tree_node@U?$pair@$$CBV?$basic_string@DU?$char_traits@D@std@@V?$allocator@D@2@@std@@V?$map@V?$basic_string@DU?$char_traits@D@std@@V?$allocator@D@2@@std@@V12@U?$less@V?$basic_string@DU?$char_traits@D@std@@V?$allocator@D@2@@std@@@2@V?$allocator@U?$pair@$$CBV?$basic_string@DU?$char_traits@D@std@@V?$allocator@D@2@@std@@V12@@std@@@2@@2@@std@@PEAX@std@@@std@@@?$_Tree_val@U?$_Tree_simple_types@U?$pair@$$CBV?$basic_string@DU?$char_traits@D@std@@V?$allocator@D@2@@std@@V?$map@V?$basic_string@DU?$char_traits@D@std@@V?$allocator@D@2@@std@@V12@U?$less@V?$basic_string@DU?$char_traits@D@std@@V?$allocator@D@2@@std@@@2@V?$allocator@U?$pair@$$CBV?$basic_string@DU?$char_traits@D@std@@V?$allocator@D@2@@std@@V12@@std@@@2@@2@@std@@@std@@@std@@QEAAXAEAV?$allocator@U?$_Tree_node@U?$pair@$$CBV?$basic_string@DU?$char_traits@D@std@@V?$allocator@D@2@@std@@V?$map@V?$basic_string@DU?$char_traits@D@std@@V?$allocator@D@2@@std@@V12@U?$less@V?$basic_string@DU?$char_traits@D@std@@V?$allocator@D@2@@std@@@2@V?$allocator@U?$pair@$$CBV?$basic_string@DU?$char_traits@D@std@@V?$allocator@D@2@@std@@V12@@std@@@2@@2@@std@@PEAX@std@@@1@@Z
	??$_Erase_head@V?$allocator@U?$_Tree_node@U?$pair@QEAXP6AXAEBV?$basic_string@DU?$char_traits@D@std@@V?$allocator@D@2@@std@@PEAX@Z@std@@PEAX@std@@@std@@@?$_Tree_val@U?$_Tree_simple_types@U?$pair@QEAXP6AXAEBV?$basic_string@DU?$char_traits@D@std@@V?$allocator@D@2@@std@@PEAX@Z@std@@@std@@@std@@QEAAXAEAV?$allocator@U?$_Tree_node@U?$pair@QEAXP6AXAEBV?$basic_string@DU?$char_traits@D@std@@V?$allocator@D@2@@std@@PEAX@Z@std@@PEAX@std@@@1@@Z
	??$_Erase_head@V?$allocator@U?$_Tree_node@V?$basic_string@DU?$char_traits@D@std@@V?$allocator@D@2@@std@@PEAX@std@@@std@@@?$_Tree_val@U?$_Tree_simple_types@V?$basic_string@DU?$char_traits@D@std@@V?$allocator@D@2@@std@@@std@@@std@@QEAAXAEAV?$allocator@U?$_Tree_node@V?$basic_string@DU?$char_traits@D@std@@V?$allocator@D@2@@std@@PEAX@std@@@1@@Z
	??$_Erase_tree@V?$allocator@U?$_Tree_node@PEAUObserver@Dictionary@GetSetInternal@@PEAX@std@@@std@@@?$_Tree_val@U?$_Tree_simple_types@PEAUObserver@Dictionary@GetSetInternal@@@std@@@std@@QEAAXAEAV?$allocator@U?$_Tree_node@PEAUObserver@Dictionary@GetSetInternal@@PEAX@std@@@1@PEAU?$_Tree_node@PEAUObserver@Dictionary@GetSetInternal@@PEAX@1@@Z
	??$_Erase_tree@V?$allocator@U?$_Tree_node@U?$pair@$$CBEE@std@@PEAX@std@@@std@@@?$_Tree_val@U?$_Tree_simple_types@U?$pair@$$CBEE@std@@@std@@@std@@QEAAXAEAV?$allocator@U?$_Tree_node@U?$pair@$$CBEE@std@@PEAX@std@@@1@PEAU?$_Tree_node@U?$pair@$$CBEE@std@@PEAX@1@@Z
	??$_Erase_tree@V?$allocator@U?$_Tree_node@U?$pair@$$CBV?$basic_string@DU?$char_traits@D@std@@V?$allocator@D@2@@std@@P6APEAVObject@GetSetGui@@AEBVSection@4@AEAVProgressInterface@4@@Z@std@@PEAX@std@@@std@@@?$_Tree_val@U?$_Tree_simple_types@U?$pair@$$CBV?$basic_string@DU?$char_traits@D@std@@V?$allocator@D@2@@std@@P6APEAVObject@GetSetGui@@AEBVSection@4@AEAVProgressInterface@4@@Z@std@@@std@@@std@@QEAAXAEAV?$allocator@U?$_Tree_node@U?$pair@$$CBV?$basic_string@DU?$char_traits@D@std@@V?$allocator@D@2@@std@@P6APEAVObject@GetSetGui@@AEBVSection@4@AEAVProgressInterface@4@@Z@std@@PEAX@std@@@1@PEAU?$_Tree_node@U?$pair@$$CBV?$basic_string@DU?$char_traits@D@std@@V?$allocator@D@2@@std@@P6APEAVObject@GetSetGui@@AEBVSection@4@AEAVProgressInterface@4@@Z@std@@PEAX@1@@Z
	??$_Erase_tree@V?$allocator@U?$_Tree_node@U?$pair@$$CBV?$basic_string@DU?$char_traits@D@std@@V?$allocator@D@2@@std@@PEAVNode@GetSetInternal@@@std@@PEAX@std@@@std@@@?$_Tree_val@U?$_Tree_simple_types@U?$pair@$$CBV?$basic_string@DU?$char_traits@D@std@@V?$allocator@D@2@@std@@PEAVNode@GetSetInternal@@@std@@@std@@@std@@QEAAXAEAV?$allocator@U?$_Tree_node@U?$pair@$$CBV?$basic_string@DU?$char_traits@D@std@@V?$allocator@D@2@@std@@PEAVNode@GetSetInternal@@@std@@PEAX@std@@@1@PEAU?$_Tree_node@U?$pair@$$CBV?$basic_string@DU?$char_traits@D@std@@V?$allocator@D@2@@std@@PEAVNode@GetSetInternal@@@std@@PEAX@1@@Z
	??$_Erase_tree@V?$allocator@U?$_Tree_node@U?$pair@$$CBV?$basic_string@DU?$char_traits@D@std@@V?$allocator@D@2@@std@@V12@@std@@PEAX@std@@@std@@@?$_Tree_val@U?$_Tree_simple_types@U?$pair@$$CBV?$basic_string@DU?$char_traits@D@std@@V?$allocator@D@2@@std@@V12@@std@@@std@@@std@@QEAAXAEAV?$allocator@U?$_Tree_node@U?$pair@$$CBV?$basic_string@DU?$char_traits@D@std@@V?$allocator@D@2@@std@@V12@@std@@PEAX@std@@@1@PEAU?$_Tree_node@U?$pair@$$CBV?$basic_string@DU?$char_traits@D@std@@V?$allocator@D@2@@std@@V12@@std@@PEAX@1@@Z
	??$_Erase_tree@V?$allocator@U?$_Tree_node@U?$pair@$$CBV?$basic_string@DU?$char_traits@D@std@@V?$allocator@D@2@@std@@V?$map@V?$basic_string@DU?$char_traits@D@std@@V?$allocator@D@2@@std@@V12@U?$less@V?$basic_string@DU?$char_traits@D@std@@V?$allocator@D@2@@std@@@2@V?$allocator@U?$pair@$$CBV?$basic_string@DU?$char_traits@D@std@@V?$allocator@D@2@@std@@V12@@std@@@2@@2@@std@@PEAX@std@@@std@@@?$_Tree_val@U?$_Tree_simple_types@U?$pair@$$CBV?$basic_string@DU?$char_traits@D@std@@V?$allocator@D@2@@std@@V?$map@V?$basic_string@DU?$char_traits@D@std@@V?$allocator@D@2@@std@@V12@U?$less@V?$basic_string@DU?$char_traits@D@std@@V?$allocator@D@2@@std@@@2@V?$allocator@U?$pair@$$CBV?$basic_string@DU?$char_traits@D@std@@V?$allocator@D@2@@std@@V12@@std@@@2@@2@@std@@@std@@@std@@QEAAXAEAV?$allocator@U?$_Tree_node@U?$pair@$$CBV?$basic_string@DU?$char_traits@D@std@@V?$allocator@D@2@@std@@V?$map@V?$basic_string@DU?$char_traits@D@std@@V?$allocator@D@2@@std@@V12@U?$less@V?$basic_string@DU?$char_traits@D@std@@V?$allocator@D@2@@std@@@2@V?$allocator@U?$pair@$$CBV?$basic_string@DU?$char_traits@D@std@@V?$allocator@D@2@@std@@V12@@std@@@2@@2@@std@@PEAX@std@@@1@PEAU?$_Tree_node@U?$pair@$$CBV?$basic_string@DU?$char_traits@D@std@@V?$allocator@D@2@@std@@V?$map@V?$basic_string@DU?$char_traits@D@std@@V?$allocator@D@2@@std@@V12@U?$less@V?$basic_string@DU?$char_traits@D@std@@V?$allocator@D@2@@std@@@2@V?$allocator@U?$pair@$$CBV?$basic_string@DU?$char_traits@D@std@@V?$allocator@D@2@@std@@V12@@std@@@2@@2@@std@@PEAX@1@@Z
	??$_Erase_tree@V?$allocator@U?$_Tree_node@U?$pair@QEAXP6AXAEBV?$basic_string@DU?$char_traits@D@std@@V?$allocator@D@2@@std@@PEAX@Z@std@@PEAX@std@@@std@@@?$_Tree_val@U?$_Tree_simple_types@U?$pair@QEAXP6AXAEBV?$basic_string@DU?$char_traits@D@std@@V?$allocator@D@2@@std@@PEAX@Z@std@@@std@@@std@@QEAAXAEAV?$allocator@U?$_Tree_node@U?$pair@QEAXP6AXAEBV?$basic_string@DU?$char_traits@D@std@@V?$allocator@D@2@@std@@PEAX@Z@std@@PEAX@std@@@1@PEAU?$_Tree_node@U?$pair@QEAXP6AXAEBV?$basic_string@DU?$char_traits@D@std@@V?$allocator@D@2@@std@@PEAX@Z@std@@PEAX@1@@Z
	??$_Erase_tree@V?$allocator@U?$_Tree_node@V?$basic_string@DU?$char_traits@D@std@@V?$allocator@D@2@@std@@PEAX@std@@@std@@@?$_Tree_val@U?$_Tree_simple_types@V?$basic_string@DU?$char_traits@D@std@@V?$allocator@D@2@@std@@@std@@@std@@QEAAXAEAV?$allocator@U?$_Tree_node@V?$basic_string@DU?$char_traits@D@std@@V?$allocator@D@2@@std@@PEAX@std@@@1@PEAU?$_Tree_node@V?$basic_string@DU?$char_traits@D@std@@V?$allocator@D@2@@std@@PEAX@1@@Z
	??$_Erase_tree_and_orphan@V?$allocator@U?$_Tree_node@U?$pair@$$CBV?$basic_string@DU?$char_traits@D@std@@V?$allocator@D@2@@std@@V12@@std@@PEAX@std@@@std@@@?$_Tree_val@U?$_Tree_simple_types@U?$pair@$$CBV?$basic_string@DU?$char_traits@D@std@@V?$allocator@D@2@@std@@V12@@std@@@std@@@std@@QEAAXAEAV?$allocator@U?$_Tree_node@U?$pair@$$CBV?$basic_string@DU?$char_traits@D@std@@V?$allocator@D@2@@std@@V12@@std@@PEAX@std@@@1@PEAU?$_Tree_node@U?$pair@$$CBV?$basic_string@DU?$char_traits@D@std@@V?$allocator@D@2@@std@@V12@@std@@PEAX@1@@Z
	??$_Fgetc@D@std@@YA_NAEADPEAU_iobuf@@@Z
	??$_Fill_vbool@V?$_Vb_iterator@U?$_Wrap_alloc@V?$allocator@I@std@@@std@@@std@@@std@@YAXV?$_Vb_iterator@U?$_Wrap_alloc@V?$allocator@I@std@@@std@@@0@V10@_N@Z
	??$_Fill_zero_memset@PEAI@std@@YAXPEAI_K@Z
	??$_Find@E@?$_Tree@V?$_Tmap_traits@EEU?$less@E@std@@V?$allocator@U?$pair@$$CBEE@std@@@2@$0A@@std@@@std@@AEBAPEAU?$_Tree_node@U?$pair@$$CBEE@std@@PEAX@1@AEBE@Z
	??$_Find@PEAX@?$_Tree@V?$_Tmap_traits@PEAXP6AXAEBV?$basic_string@DU?$char_traits@D@std@@V?$allocator@D@2@@std@@PEAX@ZU?$less@PEAX@2@V?$allocator@U?$pair@QEAXP6AXAEBV?$basic_string@DU?$char_traits@D@std@@V?$allocator@D@2@@std@@PEAX@Z@std@@@2@$0A@@std@@@std@@AEBAPEAU?$_Tree_node@U?$pair@QEAXP6AXAEBV?$basic_string@DU?$char_traits@D@std@@V?$allocator@D@2@@std@@PEAX@Z@std@@PEAX@1@AEBQEAX@Z
	??$_Find@V?$basic_string@DU?$char_traits@D@std@@V?$allocator@D@2@@std@@@?$_Tree@V?$_Tmap_traits@V?$basic_string@DU?$char_traits@D@std@@V?$allocator@D@2@@std@@P6APEAVObject@GetSetGui@@AEBVSection@4@AEAVProgressInterface@4@@ZU?$less@V?$basic_string@DU?$char_traits@D@std@@V?$allocator@D@2@@std@@@2@V?$allocator@U?$pair@$$CBV?$basic_string@DU?$char_traits@D@std@@V?$allocator@D@2@@std@@P6APEAVObject@GetSetGui@@AEBVSection@4@AEAVProgressInterface@4@@Z@std@@@2@$0A@@std@@@std@@AEBAPEAU?$_Tree_node@U?$pair@$$CBV?$basic_string@DU?$char_traits@D@std@@V?$allocator@D@2@@std@@P6APEAVObject@GetSetGui@@AEBVSection@4@AEAVProgressInterface@4@@Z@std@@PEAX@1@AEBV?$basic_string@DU?$char_traits@D@std@@V?$allocator@D@2@@1@@Z
	??$_Find@V?$basic_string@DU?$char_traits@D@std@@V?$allocator@D@2@@std@@@?$_Tree@V?$_Tmap_traits@V?$basic_string@DU?$char_traits@D@std@@V?$allocator@D@2@@std@@PEAVNode@GetSetInternal@@U?$less@V?$basic_string@DU?$char_traits@D@std@@V?$allocator@D@2@@std@@@2@V?$allocator@U?$pair@$$CBV?$basic_string@DU?$char_traits@D@std@@V?$allocator@D@2@@std@@PEAVNode@GetSetInternal@@@std@@@2@$0A@@std@@@std@@AEBAPEAU?$_Tree_node@U?$pair@$$CBV?$basic_string@DU?$char_traits@D@std@@V?$allocator@D@2@@std@@PEAVNode@GetSetInternal@@@std@@PEAX@1@AEBV?$basic_string@DU?$char_traits@D@std@@V?$allocator@D@2@@1@@Z
	??$_Find@V?$basic_string@DU?$char_traits@D@std@@V?$allocator@D@2@@std@@@?$_Tree@V?$_Tmap_traits@V?$basic_string@DU?$char_traits@D@std@@V?$allocator@D@2@@std@@V12@U?$less@V?$basic_string@DU?$char_traits@D@std@@V?$allocator@D@2@@std@@@2@V?$allocator@U?$pair@$$CBV?$basic_string@DU?$char_traits@D@std@@V?$allocator@D@2@@std@@V12@@std@@@2@$0A@@std@@@std@@AEBAPEAU?$_Tree_node@U?$pair@$$CBV?$basic_string@DU?$char_traits@D@std@@V?$allocator@D@2@@std@@V12@@std@@PEAX@1@AEBV?$basic_string@DU?$char_traits@D@std@@V?$allocator@D@2@@1@@Z
	??$_Find@V?$basic_string@DU?$char_traits@D@std@@V?$allocator@D@2@@std@@@?$_Tree@V?$_Tset_traits@V?$basic_string@DU?$char_traits@D@std@@V?$allocator@D@2@@std@@U?$less@V?$basic_string@DU?$char_traits@D@std@@V?$allocator@D@2@@std@@@2@V?$allocator@V?$basic_string@DU?$char_traits@D@std@@V?$allocator@D@2@@std@@@2@$0A@@std@@@std@@AEBAPEAU?$_Tree_node@V?$basic_string@DU?$char_traits@D@std@@V?$allocator@D@2@@std@@PEAX@1@AEBV?$basic_string@DU?$char_traits@D@std@@V?$allocator@D@2@@1@@Z
	??$_Find_first_not_of_pos_vectorized@DD@std@@YA_KQEBD_K01@Z
	??$_Find_last_not_of_pos_vectorized@DD@std@@YA_KQEBD_K01@Z
	??$_Find_last_of_pos_vectorized@DD@std@@YA_KQEBD_K01@Z
	??$_Find_lower_bound@E@?$_Tree@V?$_Tmap_traits@EEU?$less@E@std@@V?$allocator@U?$pair@$$CBEE@std@@@2@$0A@@std@@@std@@IEBA?AU?$_Tree_find_result@PEAU?$_Tree_node@U?$pair@$$CBEE@std@@PEAX@std@@@1@AEBE@Z
	??$_Find_lower_bound@PEAUObserver@Dictionary@GetSetInternal@@@?$_Tree@V?$_Tset_traits@PEAUObserver@Dictionary@GetSetInternal@@U?$less@PEAUObserver@Dictionary@GetSetInternal@@@std@@V?$allocator@PEAUObserver@Dictionary@GetSetInternal@@@5@$0A@@std@@@std@@IEBA?AU?$_Tree_find_result@PEAU?$_Tree_node@PEAUObserver@Dictionary@GetSetInternal@@PEAX@std@@@1@AEBQEAUObserver@Dictionary@GetSetInternal@@@Z
	??$_Find_lower_bound@PEAX@?$_Tree@V?$_Tmap_traits@PEAXP6AXAEBV?$basic_string@DU?$char_traits@D@std@@V?$allocator@D@2@@std@@PEAX@ZU?$less@PEAX@2@V?$allocator@U?$pair@QEAXP6AXAEBV?$basic_string@DU?$char_traits@D@std@@V?$allocator@D@2@@std@@PEAX@Z@std@@@2@$0A@@std@@@std@@IEBA?AU?$_Tree_find_result@PEAU?$_Tree_node@U?$pair@QEAXP6AXAEBV?$basic_string@DU?$char_traits@D@std@@V?$allocator@D@2@@std@@PEAX@Z@std@@PEAX@std@@@1@AEBQEAX@Z
	??$_Find_lower_bound@V?$basic_string@DU?$char_traits@D@std@@V?$allocator@D@2@@std@@@?$_Tree@V?$_Tmap_traits@V?$basic_string@DU?$char_traits@D@std@@V?$allocator@D@2@@std@@P6APEAVObject@GetSetGui@@AEBVSection@4@AEAVProgressInterface@4@@ZU?$less@V?$basic_string@DU?$char_traits@D@std@@V?$allocator@D@2@@std@@@2@V?$allocator@U?$pair@$$CBV?$basic_string@DU?$char_traits@D@std@@V?$allocator@D@2@@std@@P6APEAVObject@GetSetGui@@AEBVSection@4@AEAVProgressInterface@4@@Z@std@@@2@$0A@@std@@@std@@IEBA?AU?$_Tree_find_result@PEAU?$_Tree_node@U?$pair@$$CBV?$basic_string@DU?$char_traits@D@std@@V?$allocator@D@2@@std@@P6APEAVObject@GetSetGui@@AEBVSection@4@AEAVProgressInterface@4@@Z@std@@PEAX@std@@@1@AEBV?$basic_string@DU?$char_traits@D@std@@V?$allocator@D@2@@1@@Z
	??$_Find_lower_bound@V?$basic_string@DU?$char_traits@D@std@@V?$allocator@D@2@@std@@@?$_Tree@V?$_Tmap_traits@V?$basic_string@DU?$char_traits@D@std@@V?$allocator@D@2@@std@@PEAVNode@GetSetInternal@@U?$less@V?$basic_string@DU?$char_traits@D@std@@V?$allocator@D@2@@std@@@2@V?$allocator@U?$pair@$$CBV?$basic_string@DU?$char_traits@D@std@@V?$allocator@D@2@@std@@PEAVNode@GetSetInternal@@@std@@@2@$0A@@std@@@std@@IEBA?AU?$_Tree_find_result@PEAU?$_Tree_node@U?$pair@$$CBV?$basic_string@DU?$char_traits@D@std@@V?$allocator@D@2@@std@@PEAVNode@GetSetInternal@@@std@@PEAX@std@@@1@AEBV?$basic_string@DU?$char_traits@D@std@@V?$allocator@D@2@@1@@Z
	??$_Find_lower_bound@V?$basic_string@DU?$char_traits@D@std@@V?$allocator@D@2@@std@@@?$_Tree@V?$_Tmap_traits@V?$basic_string@DU?$char_traits@D@std@@V?$allocator@D@2@@std@@V12@U?$less@V?$basic_string@DU?$char_traits@D@std@@V?$allocator@D@2@@std@@@2@V?$allocator@U?$pair@$$CBV?$basic_string@DU?$char_traits@D@std@@V?$allocator@D@2@@std@@V12@@std@@@2@$0A@@std@@@std@@IEBA?AU?$_Tree_find_result@PEAU?$_Tree_node@U?$pair@$$CBV?$basic_string@DU?$char_traits@D@std@@V?$allocator@D@2@@std@@V12@@std@@PEAX@std@@@1@AEBV?$basic_string@DU?$char_traits@D@std@@V?$allocator@D@2@@1@@Z
	??$_Find_lower_bound@V?$basic_string@DU?$char_traits@D@std@@V?$allocator@D@2@@std@@@?$_Tree@V?$_Tmap_traits@V?$basic_string@DU?$char_traits@D@std@@V?$allocator@D@2@@std@@V?$map@V?$basic_string@DU?$char_traits@D@std@@V?$allocator@D@2@@std@@V12@U?$less@V?$basic_string@DU?$char_traits@D@std@@V?$allocator@D@2@@std@@@2@V?$allocator@U?$pair@$$CBV?$basic_string@DU?$char_traits@D@std@@V?$allocator@D@2@@std@@V12@@std@@@2@@2@U?$less@V?$basic_string@DU?$char_traits@D@std@@V?$allocator@D@2@@std@@@2@V?$allocator@U?$pair@$$CBV?$basic_string@DU?$char_traits@D@std@@V?$allocator@D@2@@std@@V?$map@V?$basic_string@DU?$char_traits@D@std@@V?$allocator@D@2@@std@@V12@U?$less@V?$basic_string@DU?$char_traits@D@std@@V?$allocator@D@2@@std@@@2@V?$allocator@U?$pair@$$CBV?$basic_string@DU?$char_traits@D@std@@V?$allocator@D@2@@std@@V12@@std@@@2@@2@@std@@@2@$0A@@std@@@std@@IEBA?AU?$_Tree_find_result@PEAU?$_Tree_node@U?$pair@$$CBV?$basic_string@DU?$char_traits@D@std@@V?$allocator@D@2@@std@@V?$map@V?$basic_string@DU?$char_traits@D@std@@V?$allocator@D@2@@std@@V12@U?$less@V?$basic_string@DU?$char_traits@D@std@@V?$allocator@D@2@@std@@@2@V?$allocator@U?$pair@$$CBV?$basic_string@DU?$char_traits@D@std@@V?$allocator@D@2@@std@@V12@@std@@@2@@2@@std@@PEAX@std@@@1@AEBV?$basic_string@DU?$char_traits@D@std@@V?$allocator@D@2@@1@@Z
	??$_Find_lower_bound@V?$basic_string@DU?$char_traits@D@std@@V?$allocator@D@2@@std@@@?$_Tree@V?$_Tset_traits@V?$basic_string@DU?$char_traits@D@std@@V?$allocator@D@2@@std@@U?$less@V?$basic_string@DU?$char_traits@D@std@@V?$allocator@D@2@@std@@@2@V?$allocator@V?$basic_string@DU?$char_traits@D@std@@V?$allocator@D@2@@std@@@2@$0A@@std@@@std@@IEBA?AU?$_Tree_find_result@PEAU?$_Tree_node@V?$basic_string@DU?$char_traits@D@std@@V?$allocator@D@2@@std@@PEAX@std@@@1@AEBV?$basic_string@DU?$char_traits@D@std@@V?$allocator@D@2@@1@@Z
	??$_Find_vectorized@$$CBDD@std@@YAPEBDQEBD0D@Z
	??$_Fputc@D@std@@YA_NDPEAU_iobuf@@@Z
	??$_Freenode0@V?$allocator@U?$_Tree_node@PEAUObserver@Dictionary@GetSetInternal@@PEAX@std@@@std@@@?$_Tree_node@PEAUObserver@Dictionary@GetSetInternal@@PEAX@std@@SAXAEAV?$allocator@U?$_Tree_node@PEAUObserver@Dictionary@GetSetInternal@@PEAX@std@@@1@PEAU01@@Z
	??$_Freenode0@V?$allocator@U?$_Tree_node@U?$pair@$$CBEE@std@@PEAX@std@@@std@@@?$_Tree_node@U?$pair@$$CBEE@std@@PEAX@std@@SAXAEAV?$allocator@U?$_Tree_node@U?$pair@$$CBEE@std@@PEAX@std@@@1@PEAU01@@Z
	??$_Freenode0@V?$allocator@U?$_Tree_node@U?$pair@$$CBV?$basic_string@DU?$char_traits@D@std@@V?$allocator@D@2@@std@@P6APEAVObject@GetSetGui@@AEBVSection@4@AEAVProgressInterface@4@@Z@std@@PEAX@std@@@std@@@?$_Tree_node@U?$pair@$$CBV?$basic_string@DU?$char_traits@D@std@@V?$allocator@D@2@@std@@P6APEAVObject@GetSetGui@@AEBVSection@4@AEAVProgressInterface@4@@Z@std@@PEAX@std@@SAXAEAV?$allocator@U?$_Tree_node@U?$pair@$$CBV?$basic_string@DU?$char_traits@D@std@@V?$allocator@D@2@@std@@P6APEAVObject@GetSetGui@@AEBVSection@4@AEAVProgressInterface@4@@Z@std@@PEAX@std@@@1@PEAU01@@Z
	??$_Freenode0@V?$allocator@U?$_Tree_node@U?$pair@$$CBV?$basic_string@DU?$char_traits@D@std@@V?$allocator@D@2@@std@@PEAVNode@GetSetInternal@@@std@@PEAX@std@@@std@@@?$_Tree_node@U?$pair@$$CBV?$basic_string@DU?$char_traits@D@std@@V?$allocator@D@2@@std@@PEAVNode@GetSetInternal@@@std@@PEAX@std@@SAXAEAV?$allocator@U?$_Tree_node@U?$pair@$$CBV?$basic_string@DU?$char_traits@D@std@@V?$allocator@D@2@@std@@PEAVNode@GetSetInternal@@@std@@PEAX@std@@@1@PEAU01@@Z
	??$_Freenode0@V?$allocator@U?$_Tree_node@U?$pair@$$CBV?$basic_string@DU?$char_traits@D@std@@V?$allocator@D@2@@std@@V12@@std@@PEAX@std@@@std@@@?$_Tree_node@U?$pair@$$CBV?$basic_string@DU?$char_traits@D@std@@V?$allocator@D@2@@std@@V12@@std@@PEAX@std@@SAXAEAV?$allocator@U?$_Tree_node@U?$pair@$$CBV?$basic_string@DU?$char_traits@D@std@@V?$allocator@D@2@@std@@V12@@std@@PEAX@std@@@1@PEAU01@@Z
	??$_Freenode0@V?$allocator@U?$_Tree_node@U?$pair@$$CBV?$basic_string@DU?$char_traits@D@std@@V?$allocator@D@2@@std@@V?$map@V?$basic_string@DU?$char_traits@D@std@@V?$allocator@D@2@@std@@V12@U?$less@V?$basic_string@DU?$char_traits@D@std@@V?$allocator@D@2@@std@@@2@V?$allocator@U?$pair@$$CBV?$basic_string@DU?$char_traits@D@std@@V?$allocator@D@2@@std@@V12@@std@@@2@@2@@std@@PEAX@std@@@std@@@?$_Tree_node@U?$pair@$$CBV?$basic_string@DU?$char_traits@D@std@@V?$allocator@D@2@@std@@V?$map@V?$basic_string@DU?$char_traits@D@std@@V?$allocator@D@2@@std@@V12@U?$less@V?$basic_string@DU?$char_traits@D@std@@V?$allocator@D@2@@std@@@2@V?$allocator@U?$pair@$$CBV?$basic_string@DU?$char_traits@D@std@@V?$allocator@D@2@@std@@V12@@std@@@2@@2@@std@@PEAX@std@@SAXAEAV?$allocator@U?$_Tree_node@U?$pair@$$CBV?$basic_string@DU?$char_traits@D@std@@V?$allocator@D@2@@std@@V?$map@V?$basic_string@DU?$char_traits@D@std@@V?$allocator@D@2@@std@@V12@U?$less@V?$basic_string@DU?$char_traits@D@std@@V?$allocator@D@2@@std@@@2@V?$allocator@U?$pair@$$CBV?$basic_string@DU?$char_traits@D@std@@V?$allocator@D@2@@std@@V12@@std@@@2@@2@@std@@PEAX@std@@@1@PEAU01@@Z
	??$_Freenode0@V?$allocator@U?$_Tree_node@U?$pair@QEAXP6AXAEBV?$basic_string@DU?$char_traits@D@std@@V?$allocator@D@2@@std@@PEAX@Z@std@@PEAX@std@@@std@@@?$_Tree_node@U?$pair@QEAXP6AXAEBV?$basic_string@DU?$char_traits@D@std@@V?$allocator@D@2@@std@@PEAX@Z@std@@PEAX@std@@SAXAEAV?$allocator@U?$_Tree_node@U?$pair@QEAXP6AXAEBV?$basic_string@DU?$char_traits@D@std@@V?$allocator@D@2@@std@@PEAX@Z@std@@PEAX@std@@@1@PEAU01@@Z
	??$_Freenode0@V?$allocator@U?$_Tree_node@V?$basic_string@DU?$char_traits@D@std@@V?$allocator@D@2@@std@@PEAX@std@@@std@@@?$_Tree_node@V?$basic_string@DU?$char_traits@D@std@@V?$allocator@D@2@@std@@PEAX@std@@SAXAEAV?$allocator@U?$_Tree_node@V?$basic_string@DU?$char_traits@D@std@@V?$allocator@D@2@@std@@PEAX@std@@@1@PEAU01@@Z
	??$_Freenode@V?$allocator@U?$_Tree_node@PEAUObserver@Dictionary@GetSetInternal@@PEAX@std@@@std@@@?$_Tree_node@PEAUObserver@Dictionary@GetSetInternal@@PEAX@std@@SAXAEAV?$allocator@U?$_Tree_node@PEAUObserver@Dictionary@GetSetInternal@@PEAX@std@@@1@PEAU01@@Z
	??$_Freenode@V?$allocator@U?$_Tree_node@U?$pair@$$CBEE@std@@PEAX@std@@@std@@@?$_Tree_node@U?$pair@$$CBEE@std@@PEAX@std@@SAXAEAV?$allocator@U?$_Tree_node@U?$pair@$$CBEE@std@@PEAX@std@@@1@PEAU01@@Z
	??$_Freenode@V?$allocator@U?$_Tree_node@U?$pair@$$CBV?$basic_string@DU?$char_traits@D@std@@V?$allocator@D@2@@std@@P6APEAVObject@GetSetGui@@AEBVSection@4@AEAVProgressInterface@4@@Z@std@@PEAX@std@@@std@@@?$_Tree_node@U?$pair@$$CBV?$basic_string@DU?$char_traits@D@std@@V?$allocator@D@2@@std@@P6APEAVObject@GetSetGui@@AEBVSection@4@AEAVProgressInterface@4@@Z@std@@PEAX@std@@SAXAEAV?$allocator@U?$_Tree_node@U?$pair@$$CBV?$basic_string@DU?$char_traits@D@std@@V?$allocator@D@2@@std@@P6APEAVObject@GetSetGui@@AEBVSection@4@AEAVProgressInterface@4@@Z@std@@PEAX@std@@@1@PEAU01@@Z
	??$_Freenode@V?$allocator@U?$_Tree_node@U?$pair@$$CBV?$basic_string@DU?$char_traits@D@std@@V?$allocator@D@2@@std@@PEAVNode@GetSetInternal@@@std@@PEAX@std@@@std@@@?$_Tree_node@U?$pair@$$CBV?$basic_string@DU?$char_traits@D@std@@V?$allocator@D@2@@std@@PEAVNode@GetSetInternal@@@std@@PEAX@std@@SAXAEAV?$allocator@U?$_Tree_node@U?$pair@$$CBV?$basic_string@DU?$char_traits@D@std@@V?$allocator@D@2@@std@@PEAVNode@GetSetInternal@@@std@@PEAX@std@@@1@PEAU01@@Z
	??$_Freenode@V?$allocator@U?$_Tree_node@U?$pair@$$CBV?$basic_string@DU?$char_traits@D@std@@V?$allocator@D@2@@std@@V12@@std@@PEAX@std@@@std@@@?$_Tree_node@U?$pair@$$CBV?$basic_string@DU?$char_traits@D@std@@V?$allocator@D@2@@std@@V12@@std@@PEAX@std@@SAXAEAV?$allocator@U?$_Tree_node@U?$pair@$$CBV?$basic_string@DU?$char_traits@D@std@@V?$allocator@D@2@@std@@V12@@std@@PEAX@std@@@1@PEAU01@@Z
	??$_Freenode@V?$allocator@U?$_Tree_node@U?$pair@$$CBV?$basic_string@DU?$char_traits@D@std@@V?$allocator@D@2@@std@@V?$map@V?$basic_string@DU?$char_traits@D@std@@V?$allocator@D@2@@std@@V12@U?$less@V?$basic_string@DU?$char_traits@D@std@@V?$allocator@D@2@@std@@@2@V?$allocator@U?$pair@$$CBV?$basic_string@DU?$char_traits@D@std@@V?$allocator@D@2@@std@@V12@@std@@@2@@2@@std@@PEAX@std@@@std@@@?$_Tree_node@U?$pair@$$CBV?$basic_string@DU?$char_traits@D@std@@V?$allocator@D@2@@std@@V?$map@V?$basic_string@DU?$char_traits@D@std@@V?$allocator@D@2@@std@@V12@U?$less@V?$basic_string@DU?$char_traits@D@std@@V?$allocator@D@2@@std@@@2@V?$allocator@U?$pair@$$CBV?$basic_string@DU?$char_traits@D@std@@V?$allocator@D@2@@std@@V12@@std@@@2@@2@@std@@PEAX@std@@SAXAEAV?$allocator@U?$_Tree_node@U?$pair@$$CBV?$basic_string@DU?$char_traits@D@std@@V?$allocator@D@2@@std@@V?$map@V?$basic_string@DU?$char_traits@D@std@@V?$allocator@D@2@@std@@V12@U?$less@V?$basic_string@DU?$char_traits@D@std@@V?$allocator@D@2@@std@@@2@V?$allocator@U?$pair@$$CBV?$basic_string@DU?$char_traits@D@std@@V?$allocator@D@2@@std@@V12@@std@@@2@@2@@std@@PEAX@std@@@1@PEAU01@@Z
	??$_Freenode@V?$allocator@U?$_Tree_node@U?$pair@QEAXP6AXAEBV?$basic_string@DU?$char_traits@D@std@@V?$allocator@D@2@@std@@PEAX@Z@std@@PEAX@std@@@std@@@?$_Tree_node@U?$pair@QEAXP6AXAEBV?$basic_string@DU?$char_traits@D@std@@V?$allocator@D@2@@std@@PEAX@Z@std@@PEAX@std@@SAXAEAV?$allocator@U?$_Tree_node@U?$pair@QEAXP6AXAEBV?$basic_string@DU?$char_traits@D@std@@V?$allocator@D@2@@std@@PEAX@Z@std@@PEAX@std@@@1@PEAU01@@Z
	??$_Freenode@V?$allocator@U?$_Tree_node@V?$basic_string@DU?$char_traits@D@std@@V?$allocator@D@2@@std@@PEAX@std@@@std@@@?$_Tree_node@V?$basic_string@DU?$char_traits@D@std@@V?$allocator@D@2@@std@@PEAX@std@@SAXAEAV?$allocator@U?$_Tree_node@V?$basic_string@DU?$char_traits@D@std@@V?$allocator@D@2@@std@@PEAX@std@@@1@PEAU01@@Z
	??$_Get_index@$0A@@id@locale@std@@QEAA_KXZ
	??$_Get_proxy_allocator@V?$allocator@D@std@@@std@@YA?AU_Fake_allocator@0@AEBV?$allocator@D@0@@Z
	??$_Get_proxy_allocator@V?$allocator@E@std@@@std@@YA?AU_Fake_allocator@0@AEBV?$allocator@E@0@@Z
	??$_Get_proxy_allocator@V?$allocator@F@std@@@std@@YA?AU_Fake_allocator@0@AEBV?$allocator@F@0@@Z
	??$_Get_proxy_allocator@V?$allocator@G@std@@@std@@YA?AU_Fake_allocator@0@AEBV?$allocator@G@0@@Z
	??$_Get_proxy_allocator@V?$allocator@H@std@@@std@@YA?AU_Fake_allocator@0@AEBV?$allocator@H@0@@Z
	??$_Get_proxy_allocator@V?$allocator@I@std@@@std@@YA?AU_Fake_allocator@0@AEBV?$allocator@I@0@@Z
	??$_Get_proxy_allocator@V?$allocator@J@std@@@std@@YA?AU_Fake_allocator@0@AEBV?$allocator@J@0@@Z
	??$_Get_proxy_allocator@V?$allocator@K@std@@@std@@YA?AU_Fake_allocator@0@AEBV?$allocator@K@0@@Z
	??$_Get_proxy_allocator@V?$allocator@M@std@@@std@@YA?AU_Fake_allocator@0@AEBV?$allocator@M@0@@Z
	??$_Get_proxy_allocator@V?$allocator@N@std@@@std@@YA?AU_Fake_allocator@0@AEBV?$allocator@N@0@@Z
	??$_Get_proxy_allocator@V?$allocator@U?$_Tree_node@PEAUObserver@Dictionary@GetSetInternal@@PEAX@std@@@std@@@std@@YA?AU_Fake_allocator@0@AEBV?$allocator@U?$_Tree_node@PEAUObserver@Dictionary@GetSetInternal@@PEAX@std@@@0@@Z
	??$_Get_proxy_allocator@V?$allocator@U?$_Tree_node@U?$pair@$$CBEE@std@@PEAX@std@@@std@@@std@@YA?AU_Fake_allocator@0@AEBV?$allocator@U?$_Tree_node@U?$pair@$$CBEE@std@@PEAX@std@@@0@@Z
	??$_Get_proxy_allocator@V?$allocator@U?$_Tree_node@U?$pair@$$CBV?$basic_string@DU?$char_traits@D@std@@V?$allocator@D@2@@std@@P6APEAVObject@GetSetGui@@AEBVSection@4@AEAVProgressInterface@4@@Z@std@@PEAX@std@@@std@@@std@@YA?AU_Fake_allocator@0@AEBV?$allocator@U?$_Tree_node@U?$pair@$$CBV?$basic_string@DU?$char_traits@D@std@@V?$allocator@D@2@@std@@P6APEAVObject@GetSetGui@@AEBVSection@4@AEAVProgressInterface@4@@Z@std@@PEAX@std@@@0@@Z
	??$_Get_proxy_allocator@V?$allocator@U?$_Tree_node@U?$pair@$$CBV?$basic_string@DU?$char_traits@D@std@@V?$allocator@D@2@@std@@PEAVNode@GetSetInternal@@@std@@PEAX@std@@@std@@@std@@YA?AU_Fake_allocator@0@AEBV?$allocator@U?$_Tree_node@U?$pair@$$CBV?$basic_string@DU?$char_traits@D@std@@V?$allocator@D@2@@std@@PEAVNode@GetSetInternal@@@std@@PEAX@std@@@0@@Z
	??$_Get_proxy_allocator@V?$allocator@U?$_Tree_node@U?$pair@$$CBV?$basic_string@DU?$char_traits@D@std@@V?$allocator@D@2@@std@@V12@@std@@PEAX@std@@@std@@@std@@YA?AU_Fake_allocator@0@AEBV?$allocator@U?$_Tree_node@U?$pair@$$CBV?$basic_string@DU?$char_traits@D@std@@V?$allocator@D@2@@std@@V12@@std@@PEAX@std@@@0@@Z
	??$_Get_proxy_allocator@V?$allocator@U?$_Tree_node@U?$pair@$$CBV?$basic_string@DU?$char_traits@D@std@@V?$allocator@D@2@@std@@V?$map@V?$basic_string@DU?$char_traits@D@std@@V?$allocator@D@2@@std@@V12@U?$less@V?$basic_string@DU?$char_traits@D@std@@V?$allocator@D@2@@std@@@2@V?$allocator@U?$pair@$$CBV?$basic_string@DU?$char_traits@D@std@@V?$allocator@D@2@@std@@V12@@std@@@2@@2@@std@@PEAX@std@@@std@@@std@@YA?AU_Fake_allocator@0@AEBV?$allocator@U?$_Tree_node@U?$pair@$$CBV?$basic_string@DU?$char_traits@D@std@@V?$allocator@D@2@@std@@V?$map@V?$basic_string@DU?$char_traits@D@std@@V?$allocator@D@2@@std@@V12@U?$less@V?$basic_string@DU?$char_traits@D@std@@V?$allocator@D@2@@std@@@2@V?$allocator@U?$pair@$$CBV?$basic_string@DU?$char_traits@D@std@@V?$allocator@D@2@@std@@V12@@std@@@2@@2@@std@@PEAX@std@@@0@@Z
	??$_Get_proxy_allocator@V?$allocator@U?$_Tree_node@U?$pair@QEAXP6AXAEBV?$basic_string@DU?$char_traits@D@std@@V?$allocator@D@2@@std@@PEAX@Z@std@@PEAX@std@@@std@@@std@@YA?AU_Fake_allocator@0@AEBV?$allocator@U?$_Tree_node@U?$pair@QEAXP6AXAEBV?$basic_string@DU?$char_traits@D@std@@V?$allocator@D@2@@std@@PEAX@Z@std@@PEAX@std@@@0@@Z
	??$_Get_proxy_allocator@V?$allocator@U?$_Tree_node@V?$basic_string@DU?$char_traits@D@std@@V?$allocator@D@2@@std@@PEAX@std@@@std@@@std@@YA?AU_Fake_allocator@0@AEBV?$allocator@U?$_Tree_node@V?$basic_string@DU?$char_traits@D@std@@V?$allocator@D@2@@std@@PEAX@std@@@0@@Z
	??$_Get_proxy_allocator@V?$allocator@V?$basic_string@DU?$char_traits@D@std@@V?$allocator@D@2@@std@@@std@@@std@@YA?AU_Fake_allocator@0@AEBV?$allocator@V?$basic_string@DU?$char_traits@D@std@@V?$allocator@D@2@@std@@@0@@Z
	??$_Get_size_of_n@$00@std@@YA_K_K@Z
	??$_Get_size_of_n@$01@std@@YA_K_K@Z
	??$_Get_size_of_n@$03@std@@YA_K_K@Z
	??$_Get_size_of_n@$07@std@@YA_K_K@Z
	??$_Get_size_of_n@$0CA@@std@@YA_K_K@Z
	??$_Get_size_of_n@$0CI@@std@@YA_K_K@Z
	??$_Get_size_of_n@$0DA@@std@@YA_K_K@Z
	??$_Get_size_of_n@$0EA@@std@@YA_K_K@Z
	??$_Get_size_of_n@$0EI@@std@@YA_K_K@Z
	??$_Get_size_of_n@$0FA@@std@@YA_K_K@Z
	??$_Get_size_of_n@$0GA@@std@@YA_K_K@Z
	??$_Get_unwrapped@AEAV?$_String_const_iterator@V?$_String_val@U?$_Simple_types@D@std@@@std@@@std@@@std@@YA?A_TAEAV?$_String_const_iterator@V?$_String_val@U?$_Simple_types@D@std@@@std@@@0@@Z
	??$_Get_unwrapped@AEAV?$_Tree_unchecked_const_iterator@V?$_Tree_val@U?$_Tree_simple_types@PEAUObserver@Dictionary@GetSetInternal@@@std@@@std@@U_Iterator_base0@2@@std@@@std@@YA?A_TAEAV?$_Tree_unchecked_const_iterator@V?$_Tree_val@U?$_Tree_simple_types@PEAUObserver@Dictionary@GetSetInternal@@@std@@@std@@U_Iterator_base0@2@@0@@Z
	??$_Get_unwrapped@AEAV?$_Tree_unchecked_const_iterator@V?$_Tree_val@U?$_Tree_simple_types@V?$basic_string@DU?$char_traits@D@std@@V?$allocator@D@2@@std@@@std@@@std@@U_Iterator_base0@2@@std@@@std@@YA?A_TAEAV?$_Tree_unchecked_const_iterator@V?$_Tree_val@U?$_Tree_simple_types@V?$basic_string@DU?$char_traits@D@std@@V?$allocator@D@2@@std@@@std@@@std@@U_Iterator_base0@2@@0@@Z
	??$_Get_unwrapped@AEAV?$_Vb_iterator@U?$_Wrap_alloc@V?$allocator@I@std@@@std@@@std@@@std@@YA?A_TAEAV?$_Vb_iterator@U?$_Wrap_alloc@V?$allocator@I@std@@@std@@@0@@Z
	??$_Get_unwrapped@AEBQEAD@std@@YA?A_TAEBQEAD@Z
	??$_Get_unwrapped@AEBQEAE@std@@YA?A_TAEBQEAE@Z
	??$_Get_unwrapped@AEBQEAF@std@@YA?A_TAEBQEAF@Z
	??$_Get_unwrapped@AEBQEAG@std@@YA?A_TAEBQEAG@Z
	??$_Get_unwrapped@AEBQEAH@std@@YA?A_TAEBQEAH@Z
	??$_Get_unwrapped@AEBQEAI@std@@YA?A_TAEBQEAI@Z
	??$_Get_unwrapped@AEBQEAJ@std@@YA?A_TAEBQEAJ@Z
	??$_Get_unwrapped@AEBQEAK@std@@YA?A_TAEBQEAK@Z
	??$_Get_unwrapped@AEBQEAM@std@@YA?A_TAEBQEAM@Z
	??$_Get_unwrapped@AEBQEAN@std@@YA?A_TAEBQEAN@Z
	??$_Get_unwrapped@AEBQEAV?$basic_string@DU?$char_traits@D@std@@V?$allocator@D@2@@std@@@std@@YA?A_TAEBQEAV?$basic_string@DU?$char_traits@D@std@@V?$allocator@D@2@@0@@Z
	??$_Get_unwrapped@AEBV?$_String_const_iterator@V?$_String_val@U?$_Simple_types@D@std@@@std@@@std@@@std@@YA?A_TAEBV?$_String_const_iterator@V?$_String_val@U?$_Simple_types@D@std@@@std@@@0@@Z
	??$_Get_unwrapped@AEBV?$_String_iterator@V?$_String_val@U?$_Simple_types@D@std@@@std@@@std@@@std@@YA?A_TAEBV?$_String_iterator@V?$_String_val@U?$_Simple_types@D@std@@@std@@@0@@Z
	??$_Get_unwrapped@PEAD@std@@YA?A_T$$QEAPEAD@Z
	??$_Get_unwrapped@PEAE@std@@YA?A_T$$QEAPEAE@Z
	??$_Get_unwrapped@PEAF@std@@YA?A_T$$QEAPEAF@Z
	??$_Get_unwrapped@PEAG@std@@YA?A_T$$QEAPEAG@Z
	??$_Get_unwrapped@PEAH@std@@YA?A_T$$QEAPEAH@Z
	??$_Get_unwrapped@PEAI@std@@YA?A_T$$QEAPEAI@Z
	??$_Get_unwrapped@PEAJ@std@@YA?A_T$$QEAPEAJ@Z
	??$_Get_unwrapped@PEAK@std@@YA?A_T$$QEAPEAK@Z
	??$_Get_unwrapped@PEAM@std@@YA?A_T$$QEAPEAM@Z
	??$_Get_unwrapped@PEAN@std@@YA?A_T$$QEAPEAN@Z
	??$_Get_unwrapped@PEAV?$basic_string@DU?$char_traits@D@std@@V?$allocator@D@2@@std@@@std@@YA?A_T$$QEAPEAV?$basic_string@DU?$char_traits@D@std@@V?$allocator@D@2@@0@@Z
	??$_Get_unwrapped_n@AEAV?$_String_const_iterator@V?$_String_val@U?$_Simple_types@D@std@@@std@@@std@@_J@std@@YA?A_TAEAV?$_String_const_iterator@V?$_String_val@U?$_Simple_types@D@std@@@std@@@0@_J@Z
	??$_Get_unwrapped_n@AEAV?$_String_iterator@V?$_String_val@U?$_Simple_types@D@std@@@std@@@std@@_J@std@@YA?A_TAEAV?$_String_iterator@V?$_String_val@U?$_Simple_types@D@std@@@std@@@0@_J@Z
	??$_Get_unwrapped_n@AEAV?$_Vb_iterator@U?$_Wrap_alloc@V?$allocator@I@std@@@std@@@std@@_J@std@@YA?A_TAEAV?$_Vb_iterator@U?$_Wrap_alloc@V?$allocator@I@std@@@std@@@0@_J@Z
	??$_Getvals@_W@?$time_get@DV?$istreambuf_iterator@DU?$char_traits@D@std@@@std@@@std@@IEAAX_WAEBV_Locinfo@1@@Z
	??$_Getvals@_W@?$time_get@_WV?$istreambuf_iterator@_WU?$char_traits@_W@std@@@std@@@std@@IEAAX_WAEBV_Locinfo@1@@Z
	??$_Idl_distance@V?$_String_const_iterator@V?$_String_val@U?$_Simple_types@D@std@@@std@@@std@@PEBD@std@@YA?A_PAEBQEBD0@Z
	??$_Idl_distance@V?$_String_iterator@V?$_String_val@U?$_Simple_types@D@std@@@std@@@std@@PEAD@std@@YA?A_PAEBQEAD0@Z
	??$_Idl_distance@V?$_Vb_iterator@U?$_Wrap_alloc@V?$allocator@I@std@@@std@@@std@@V12@@std@@YA?A_PAEBV?$_Vb_iterator@U?$_Wrap_alloc@V?$allocator@I@std@@@std@@@0@0@Z
	??$_Insert@D@?$basic_string@DU?$char_traits@D@std@@V?$allocator@D@2@@std@@AEAAAEAV01@_KQEBD0@Z
	??$_Insert_string@DU?$char_traits@D@std@@_K@std@@YAAEAV?$basic_ostream@DU?$char_traits@D@std@@@0@AEAV10@QEBD_K@Z
	??$_Is_all_bits_zero@I@std@@YA_NAEBI@Z
	??$_Kfn@$$CBEE@?$_Tmap_traits@EEU?$less@E@std@@V?$allocator@U?$pair@$$CBEE@std@@@2@$0A@@std@@SAAEBEAEBU?$pair@$$CBEE@1@@Z
	??$_Kfn@$$CBV?$basic_string@DU?$char_traits@D@std@@V?$allocator@D@2@@std@@P6APEAVObject@GetSetGui@@AEBVSection@4@AEAVProgressInterface@4@@Z@?$_Tmap_traits@V?$basic_string@DU?$char_traits@D@std@@V?$allocator@D@2@@std@@P6APEAVObject@GetSetGui@@AEBVSection@4@AEAVProgressInterface@4@@ZU?$less@V?$basic_string@DU?$char_traits@D@std@@V?$allocator@D@2@@std@@@2@V?$allocator@U?$pair@$$CBV?$basic_string@DU?$char_traits@D@std@@V?$allocator@D@2@@std@@P6APEAVObject@GetSetGui@@AEBVSection@4@AEAVProgressInterface@4@@Z@std@@@2@$0A@@std@@SAAEBV?$basic_string@DU?$char_traits@D@std@@V?$allocator@D@2@@1@AEBU?$pair@$$CBV?$basic_string@DU?$char_traits@D@std@@V?$allocator@D@2@@std@@P6APEAVObject@GetSetGui@@AEBVSection@4@AEAVProgressInterface@4@@Z@1@@Z
	??$_Kfn@$$CBV?$basic_string@DU?$char_traits@D@std@@V?$allocator@D@2@@std@@PEAVNode@GetSetInternal@@@?$_Tmap_traits@V?$basic_string@DU?$char_traits@D@std@@V?$allocator@D@2@@std@@PEAVNode@GetSetInternal@@U?$less@V?$basic_string@DU?$char_traits@D@std@@V?$allocator@D@2@@std@@@2@V?$allocator@U?$pair@$$CBV?$basic_string@DU?$char_traits@D@std@@V?$allocator@D@2@@std@@PEAVNode@GetSetInternal@@@std@@@2@$0A@@std@@SAAEBV?$basic_string@DU?$char_traits@D@std@@V?$allocator@D@2@@1@AEBU?$pair@$$CBV?$basic_string@DU?$char_traits@D@std@@V?$allocator@D@2@@std@@PEAVNode@GetSetInternal@@@1@@Z
	??$_Kfn@$$CBV?$basic_string@DU?$char_traits@D@std@@V?$allocator@D@2@@std@@V12@@?$_Tmap_traits@V?$basic_string@DU?$char_traits@D@std@@V?$allocator@D@2@@std@@V12@U?$less@V?$basic_string@DU?$char_traits@D@std@@V?$allocator@D@2@@std@@@2@V?$allocator@U?$pair@$$CBV?$basic_string@DU?$char_traits@D@std@@V?$allocator@D@2@@std@@V12@@std@@@2@$0A@@std@@SAAEBV?$basic_string@DU?$char_traits@D@std@@V?$allocator@D@2@@1@AEBU?$pair@$$CBV?$basic_string@DU?$char_traits@D@std@@V?$allocator@D@2@@std@@V12@@1@@Z
	??$_Kfn@$$CBV?$basic_string@DU?$char_traits@D@std@@V?$allocator@D@2@@std@@V?$map@V?$basic_string@DU?$char_traits@D@std@@V?$allocator@D@2@@std@@V12@U?$less@V?$basic_string@DU?$char_traits@D@std@@V?$allocator@D@2@@std@@@2@V?$allocator@U?$pair@$$CBV?$basic_string@DU?$char_traits@D@std@@V?$allocator@D@2@@std@@V12@@std@@@2@@2@@?$_Tmap_traits@V?$basic_string@DU?$char_traits@D@std@@V?$allocator@D@2@@std@@V?$map@V?$basic_string@DU?$char_traits@D@std@@V?$allocator@D@2@@std@@V12@U?$less@V?$basic_string@DU?$char_traits@D@std@@V?$allocator@D@2@@std@@@2@V?$allocator@U?$pair@$$CBV?$basic_string@DU?$char_traits@D@std@@V?$allocator@D@2@@std@@V12@@std@@@2@@2@U?$less@V?$basic_string@DU?$char_traits@D@std@@V?$allocator@D@2@@std@@@2@V?$allocator@U?$pair@$$CBV?$basic_string@DU?$char_traits@D@std@@V?$allocator@D@2@@std@@V?$map@V?$basic_string@DU?$char_traits@D@std@@V?$allocator@D@2@@std@@V12@U?$less@V?$basic_string@DU?$char_traits@D@std@@V?$allocator@D@2@@std@@@2@V?$allocator@U?$pair@$$CBV?$basic_string@DU?$char_traits@D@std@@V?$allocator@D@2@@std@@V12@@std@@@2@@2@@std@@@2@$0A@@std@@SAAEBV?$basic_string@DU?$char_traits@D@std@@V?$allocator@D@2@@1@AEBU?$pair@$$CBV?$basic_string@DU?$char_traits@D@std@@V?$allocator@D@2@@std@@V?$map@V?$basic_string@DU?$char_traits@D@std@@V?$allocator@D@2@@std@@V12@U?$less@V?$basic_string@DU?$char_traits@D@std@@V?$allocator@D@2@@std@@@2@V?$allocator@U?$pair@$$CBV?$basic_string@DU?$char_traits@D@std@@V?$allocator@D@2@@std@@V12@@std@@@2@@2@@1@@Z
	??$_Kfn@QEAXP6AXAEBV?$basic_string@DU?$char_traits@D@std@@V?$allocator@D@2@@std@@PEAX@Z@?$_Tmap_traits@PEAXP6AXAEBV?$basic_string@DU?$char_traits@D@std@@V?$allocator@D@2@@std@@PEAX@ZU?$less@PEAX@2@V?$allocator@U?$pair@QEAXP6AXAEBV?$basic_string@DU?$char_traits@D@std@@V?$allocator@D@2@@std@@PEAX@Z@std@@@2@$0A@@std@@SAAEBQEAXAEBU?$pair@QEAXP6AXAEBV?$basic_string@DU?$char_traits@D@std@@V?$allocator@D@2@@std@@PEAX@Z@1@@Z
	??$_Lower_bound_duplicate@E@?$_Tree@V?$_Tmap_traits@EEU?$less@E@std@@V?$allocator@U?$pair@$$CBEE@std@@@2@$0A@@std@@@std@@IEBA_NQEAU?$_Tree_node@U?$pair@$$CBEE@std@@PEAX@1@AEBE@Z
	??$_Lower_bound_duplicate@PEAUObserver@Dictionary@GetSetInternal@@@?$_Tree@V?$_Tset_traits@PEAUObserver@Dictionary@GetSetInternal@@U?$less@PEAUObserver@Dictionary@GetSetInternal@@@std@@V?$allocator@PEAUObserver@Dictionary@GetSetInternal@@@5@$0A@@std@@@std@@IEBA_NQEAU?$_Tree_node@PEAUObserver@Dictionary@GetSetInternal@@PEAX@1@AEBQEAUObserver@Dictionary@GetSetInternal@@@Z
	??$_Lower_bound_duplicate@PEAX@?$_Tree@V?$_Tmap_traits@PEAXP6AXAEBV?$basic_string@DU?$char_traits@D@std@@V?$allocator@D@2@@std@@PEAX@ZU?$less@PEAX@2@V?$allocator@U?$pair@QEAXP6AXAEBV?$basic_string@DU?$char_traits@D@std@@V?$allocator@D@2@@std@@PEAX@Z@std@@@2@$0A@@std@@@std@@IEBA_NQEAU?$_Tree_node@U?$pair@QEAXP6AXAEBV?$basic_string@DU?$char_traits@D@std@@V?$allocator@D@2@@std@@PEAX@Z@std@@PEAX@1@AEBQEAX@Z
	??$_Lower_bound_duplicate@V?$basic_string@DU?$char_traits@D@std@@V?$allocator@D@2@@std@@@?$_Tree@V?$_Tmap_traits@V?$basic_string@DU?$char_traits@D@std@@V?$allocator@D@2@@std@@P6APEAVObject@GetSetGui@@AEBVSection@4@AEAVProgressInterface@4@@ZU?$less@V?$basic_string@DU?$char_traits@D@std@@V?$allocator@D@2@@std@@@2@V?$allocator@U?$pair@$$CBV?$basic_string@DU?$char_traits@D@std@@V?$allocator@D@2@@std@@P6APEAVObject@GetSetGui@@AEBVSection@4@AEAVProgressInterface@4@@Z@std@@@2@$0A@@std@@@std@@IEBA_NQEAU?$_Tree_node@U?$pair@$$CBV?$basic_string@DU?$char_traits@D@std@@V?$allocator@D@2@@std@@P6APEAVObject@GetSetGui@@AEBVSection@4@AEAVProgressInterface@4@@Z@std@@PEAX@1@AEBV?$basic_string@DU?$char_traits@D@std@@V?$allocator@D@2@@1@@Z
	??$_Lower_bound_duplicate@V?$basic_string@DU?$char_traits@D@std@@V?$allocator@D@2@@std@@@?$_Tree@V?$_Tmap_traits@V?$basic_string@DU?$char_traits@D@std@@V?$allocator@D@2@@std@@PEAVNode@GetSetInternal@@U?$less@V?$basic_string@DU?$char_traits@D@std@@V?$allocator@D@2@@std@@@2@V?$allocator@U?$pair@$$CBV?$basic_string@DU?$char_traits@D@std@@V?$allocator@D@2@@std@@PEAVNode@GetSetInternal@@@std@@@2@$0A@@std@@@std@@IEBA_NQEAU?$_Tree_node@U?$pair@$$CBV?$basic_string@DU?$char_traits@D@std@@V?$allocator@D@2@@std@@PEAVNode@GetSetInternal@@@std@@PEAX@1@AEBV?$basic_string@DU?$char_traits@D@std@@V?$allocator@D@2@@1@@Z
	??$_Lower_bound_duplicate@V?$basic_string@DU?$char_traits@D@std@@V?$allocator@D@2@@std@@@?$_Tree@V?$_Tmap_traits@V?$basic_string@DU?$char_traits@D@std@@V?$allocator@D@2@@std@@V12@U?$less@V?$basic_string@DU?$char_traits@D@std@@V?$allocator@D@2@@std@@@2@V?$allocator@U?$pair@$$CBV?$basic_string@DU?$char_traits@D@std@@V?$allocator@D@2@@std@@V12@@std@@@2@$0A@@std@@@std@@IEBA_NQEAU?$_Tree_node@U?$pair@$$CBV?$basic_string@DU?$char_traits@D@std@@V?$allocator@D@2@@std@@V12@@std@@PEAX@1@AEBV?$basic_string@DU?$char_traits@D@std@@V?$allocator@D@2@@1@@Z
	??$_Lower_bound_duplicate@V?$basic_string@DU?$char_traits@D@std@@V?$allocator@D@2@@std@@@?$_Tree@V?$_Tmap_traits@V?$basic_string@DU?$char_traits@D@std@@V?$allocator@D@2@@std@@V?$map@V?$basic_string@DU?$char_traits@D@std@@V?$allocator@D@2@@std@@V12@U?$less@V?$basic_string@DU?$char_traits@D@std@@V?$allocator@D@2@@std@@@2@V?$allocator@U?$pair@$$CBV?$basic_string@DU?$char_traits@D@std@@V?$allocator@D@2@@std@@V12@@std@@@2@@2@U?$less@V?$basic_string@DU?$char_traits@D@std@@V?$allocator@D@2@@std@@@2@V?$allocator@U?$pair@$$CBV?$basic_string@DU?$char_traits@D@std@@V?$allocator@D@2@@std@@V?$map@V?$basic_string@DU?$char_traits@D@std@@V?$allocator@D@2@@std@@V12@U?$less@V?$basic_string@DU?$char_traits@D@std@@V?$allocator@D@2@@std@@@2@V?$allocator@U?$pair@$$CBV?$basic_string@DU?$char_traits@D@std@@V?$allocator@D@2@@std@@V12@@std@@@2@@2@@std@@@2@$0A@@std@@@std@@IEBA_NQEAU?$_Tree_node@U?$pair@$$CBV?$basic_string@DU?$char_traits@D@std@@V?$allocator@D@2@@std@@V?$map@V?$basic_string@DU?$char_traits@D@std@@V?$allocator@D@2@@std@@V12@U?$less@V?$basic_string@DU?$char_traits@D@std@@V?$allocator@D@2@@std@@@2@V?$allocator@U?$pair@$$CBV?$basic_string@DU?$char_traits@D@std@@V?$allocator@D@2@@std@@V12@@std@@@2@@2@@std@@PEAX@1@AEBV?$basic_string@DU?$char_traits@D@std@@V?$allocator@D@2@@1@@Z
	??$_Lower_bound_duplicate@V?$basic_string@DU?$char_traits@D@std@@V?$allocator@D@2@@std@@@?$_Tree@V?$_Tset_traits@V?$basic_string@DU?$char_traits@D@std@@V?$allocator@D@2@@std@@U?$less@V?$basic_string@DU?$char_traits@D@std@@V?$allocator@D@2@@std@@@2@V?$allocator@V?$basic_string@DU?$char_traits@D@std@@V?$allocator@D@2@@std@@@2@$0A@@std@@@std@@IEBA_NQEAU?$_Tree_node@V?$basic_string@DU?$char_traits@D@std@@V?$allocator@D@2@@std@@PEAX@1@AEBV?$basic_string@DU?$char_traits@D@std@@V?$allocator@D@2@@1@@Z
	??$_Max_limit@_J@std@@YA_JXZ
	??$_Mismatch_vectorized@$00@std@@YA_KQEBX0_K@Z
	??$_Pocca@V?$allocator@D@std@@@std@@YAXAEAV?$allocator@D@0@AEBV10@@Z
	??$_Pocca@V?$allocator@E@std@@@std@@YAXAEAV?$allocator@E@0@AEBV10@@Z
	??$_Pocca@V?$allocator@F@std@@@std@@YAXAEAV?$allocator@F@0@AEBV10@@Z
	??$_Pocca@V?$allocator@G@std@@@std@@YAXAEAV?$allocator@G@0@AEBV10@@Z
	??$_Pocca@V?$allocator@H@std@@@std@@YAXAEAV?$allocator@H@0@AEBV10@@Z
	??$_Pocca@V?$allocator@I@std@@@std@@YAXAEAV?$allocator@I@0@AEBV10@@Z
	??$_Pocca@V?$allocator@J@std@@@std@@YAXAEAV?$allocator@J@0@AEBV10@@Z
	??$_Pocca@V?$allocator@K@std@@@std@@YAXAEAV?$allocator@K@0@AEBV10@@Z
	??$_Pocca@V?$allocator@M@std@@@std@@YAXAEAV?$allocator@M@0@AEBV10@@Z
	??$_Pocca@V?$allocator@N@std@@@std@@YAXAEAV?$allocator@N@0@AEBV10@@Z
	??$_Pocca@V?$allocator@U?$_Tree_node@U?$pair@$$CBV?$basic_string@DU?$char_traits@D@std@@V?$allocator@D@2@@std@@V12@@std@@PEAX@std@@@std@@@std@@YAXAEAV?$allocator@U?$_Tree_node@U?$pair@$$CBV?$basic_string@DU?$char_traits@D@std@@V?$allocator@D@2@@std@@V12@@std@@PEAX@std@@@0@AEBV10@@Z
	??$_Pocca@V?$allocator@V?$basic_string@DU?$char_traits@D@std@@V?$allocator@D@2@@std@@@std@@@std@@YAXAEAV?$allocator@V?$basic_string@DU?$char_traits@D@std@@V?$allocator@D@2@@std@@@0@AEBV10@@Z
	??$_Pocma@V?$allocator@D@std@@@std@@YAXAEAV?$allocator@D@0@0@Z
	??$_Pocma@V?$allocator@E@std@@@std@@YAXAEAV?$allocator@E@0@0@Z
	??$_Pocma@V?$allocator@F@std@@@std@@YAXAEAV?$allocator@F@0@0@Z
	??$_Pocma@V?$allocator@G@std@@@std@@YAXAEAV?$allocator@G@0@0@Z
	??$_Pocma@V?$allocator@H@std@@@std@@YAXAEAV?$allocator@H@0@0@Z
	??$_Pocma@V?$allocator@I@std@@@std@@YAXAEAV?$allocator@I@0@0@Z
	??$_Pocma@V?$allocator@J@std@@@std@@YAXAEAV?$allocator@J@0@0@Z
	??$_Pocma@V?$allocator@K@std@@@std@@YAXAEAV?$allocator@K@0@0@Z
	??$_Pocma@V?$allocator@M@std@@@std@@YAXAEAV?$allocator@M@0@0@Z
	??$_Pocma@V?$allocator@N@std@@@std@@YAXAEAV?$allocator@N@0@0@Z
	??$_Pocma@V?$allocator@V?$basic_string@DU?$char_traits@D@std@@V?$allocator@D@2@@std@@@std@@@std@@YAXAEAV?$allocator@V?$basic_string@DU?$char_traits@D@std@@V?$allocator@D@2@@std@@@0@0@Z
	??$_Reallocate_for@V<lambda_a132b9f505f015b07a26cb4edca31da2>@@PEBD@?$basic_string@DU?$char_traits@D@std@@V?$allocator@D@2@@std@@AEAAAEAV01@_KV<lambda_a132b9f505f015b07a26cb4edca31da2>@@PEBD@Z
	??$_Reallocate_grow_by@V<lambda_319d5e083f45f90dcdce5dce53cbb275>@@D@?$basic_string@DU?$char_traits@D@std@@V?$allocator@D@2@@std@@AEAAAEAV01@_KV<lambda_319d5e083f45f90dcdce5dce53cbb275>@@D@Z
	??$_Reallocate_grow_by@V<lambda_6e107f859707de1a71dcca60860853b1>@@PEBD_K@?$basic_string@DU?$char_traits@D@std@@V?$allocator@D@2@@std@@AEAAAEAV01@_KV<lambda_6e107f859707de1a71dcca60860853b1>@@PEBD_K@Z
	??$_Reallocate_grow_by@V<lambda_e9b99a188f9a316a73b83d1e72db26de>@@_KPEBD_K@?$basic_string@DU?$char_traits@D@std@@V?$allocator@D@2@@std@@AEAAAEAV01@_KV<lambda_e9b99a188f9a316a73b83d1e72db26de>@@_KPEBD2@Z
	??$_Refancy@PEAD$0A@@std@@YAPEADPEAD@Z
	??$_Refancy@PEBD$0A@@std@@YAPEBDPEBD@Z
	??$_Refancy_maybe_null@PEBD$0A@@std@@YAPEBDPEBD@Z
	??$_Resize@I@?$vector@IV?$allocator@I@std@@@std@@AEAAX_KAEBI@Z
	??$_Resize_reallocate@I@?$vector@IV?$allocator@I@std@@@std@@AEAAX_KAEBI@Z
	??$_Search_vectorized@$$CBD$$CBD@std@@YAPEBDQEBD00_K@Z
	??$_Seek_wrapped@V?$_String_const_iterator@V?$_String_val@U?$_Simple_types@D@std@@@std@@@std@@AEAPEBD@std@@YAXAEAV?$_String_const_iterator@V?$_String_val@U?$_Simple_types@D@std@@@std@@@0@AEAPEBD@Z
	??$_Seek_wrapped@V?$_String_iterator@V?$_String_val@U?$_Simple_types@D@std@@@std@@@std@@AEAPEAD@std@@YAXAEAV?$_String_iterator@V?$_String_val@U?$_Simple_types@D@std@@@std@@@0@AEAPEAD@Z
	??$_Seek_wrapped@V?$_Vb_iterator@U?$_Wrap_alloc@V?$allocator@I@std@@@std@@@std@@V12@@std@@YAXAEAV?$_Vb_iterator@U?$_Wrap_alloc@V?$allocator@I@std@@@std@@@0@$$QEAV10@@Z
	??$_To_address@PEAD@std@@YA?A_PAEBQEAD@Z
	??$_To_address@PEAE@std@@YA?A_PAEBQEAE@Z
	??$_To_address@PEAF@std@@YA?A_PAEBQEAF@Z
	??$_To_address@PEAG@std@@YA?A_PAEBQEAG@Z
	??$_To_address@PEAH@std@@YA?A_PAEBQEAH@Z
	??$_To_address@PEAI@std@@YA?A_PAEBQEAI@Z
	??$_To_address@PEAJ@std@@YA?A_PAEBQEAJ@Z
	??$_To_address@PEAK@std@@YA?A_PAEBQEAK@Z
	??$_To_address@PEAM@std@@YA?A_PAEBQEAM@Z
	??$_To_address@PEAN@std@@YA?A_PAEBQEAN@Z
	??$_To_address@PEBD@std@@YA?A_PAEBQEBD@Z
	??$_Traits_compare@U?$char_traits@D@std@@@std@@YAHQEBD_K01@Z
	??$_Traits_copy_batch@U?$char_traits@D@std@@D@std@@YAXQEADQEBD_K@Z
	??$_Traits_equal@U?$char_traits@D@std@@@std@@YA_NQEBD_K01@Z
	??$_Traits_find@U?$char_traits@D@std@@@std@@YA_KQEBD_K101@Z
	??$_Traits_find_ch@U?$char_traits@D@std@@@std@@YA_KQEBD_K1D@Z
	??$_Traits_find_first_not_of@U?$char_traits@D@std@@@std@@YA_KQEBD_K101@Z
	??$_Traits_find_last_not_of@U?$char_traits@D@std@@@std@@YA_KQEBD_K101@Z
	??$_Traits_find_last_of@U?$char_traits@D@std@@@std@@YA_KQEBD_K101@Z
	??$_Traits_move_batch@U?$char_traits@D@std@@D@std@@YAXQEADQEBD_K@Z
	??$_Try_emplace@AEBQEAX$$V@?$map@PEAXP6AXAEBV?$basic_string@DU?$char_traits@D@std@@V?$allocator@D@2@@std@@PEAX@ZU?$less@PEAX@2@V?$allocator@U?$pair@QEAXP6AXAEBV?$basic_string@DU?$char_traits@D@std@@V?$allocator@D@2@@std@@PEAX@Z@std@@@2@@std@@AEAA?AU?$pair@PEAU?$_Tree_node@U?$pair@QEAXP6AXAEBV?$basic_string@DU?$char_traits@D@std@@V?$allocator@D@2@@std@@PEAX@Z@std@@PEAX@std@@_N@1@AEBQEAX@Z
	??$_Try_emplace@AEBV?$basic_string@DU?$char_traits@D@std@@V?$allocator@D@2@@std@@$$V@?$map@V?$basic_string@DU?$char_traits@D@std@@V?$allocator@D@2@@std@@P6APEAVObject@GetSetGui@@AEBVSection@4@AEAVProgressInterface@4@@ZU?$less@V?$basic_string@DU?$char_traits@D@std@@V?$allocator@D@2@@std@@@2@V?$allocator@U?$pair@$$CBV?$basic_string@DU?$char_traits@D@std@@V?$allocator@D@2@@std@@P6APEAVObject@GetSetGui@@AEBVSection@4@AEAVProgressInterface@4@@Z@std@@@2@@std@@AEAA?AU?$pair@PEAU?$_Tree_node@U?$pair@$$CBV?$basic_string@DU?$char_traits@D@std@@V?$allocator@D@2@@std@@P6APEAVObject@GetSetGui@@AEBVSection@4@AEAVProgressInterface@4@@Z@std@@PEAX@std@@_N@1@AEBV?$basic_string@DU?$char_traits@D@std@@V?$allocator@D@2@@1@@Z
	??$_Try_emplace@AEBV?$basic_string@DU?$char_traits@D@std@@V?$allocator@D@2@@std@@$$V@?$map@V?$basic_string@DU?$char_traits@D@std@@V?$allocator@D@2@@std@@PEAVNode@GetSetInternal@@U?$less@V?$basic_string@DU?$char_traits@D@std@@V?$allocator@D@2@@std@@@2@V?$allocator@U?$pair@$$CBV?$basic_string@DU?$char_traits@D@std@@V?$allocator@D@2@@std@@PEAVNode@GetSetInternal@@@std@@@2@@std@@AEAA?AU?$pair@PEAU?$_Tree_node@U?$pair@$$CBV?$basic_string@DU?$char_traits@D@std@@V?$allocator@D@2@@std@@PEAVNode@GetSetInternal@@@std@@PEAX@std@@_N@1@AEBV?$basic_string@DU?$char_traits@D@std@@V?$allocator@D@2@@1@@Z
	??$_Try_emplace@AEBV?$basic_string@DU?$char_traits@D@std@@V?$allocator@D@2@@std@@$$V@?$map@V?$basic_string@DU?$char_traits@D@std@@V?$allocator@D@2@@std@@V12@U?$less@V?$basic_string@DU?$char_traits@D@std@@V?$allocator@D@2@@std@@@2@V?$allocator@U?$pair@$$CBV?$basic_string@DU?$char_traits@D@std@@V?$allocator@D@2@@std@@V12@@std@@@2@@std@@AEAA?AU?$pair@PEAU?$_Tree_node@U?$pair@$$CBV?$basic_string@DU?$char_traits@D@std@@V?$allocator@D@2@@std@@V12@@std@@PEAX@std@@_N@1@AEBV?$basic_string@DU?$char_traits@D@std@@V?$allocator@D@2@@1@@Z
	??$_Try_emplace@AEBV?$basic_string@DU?$char_traits@D@std@@V?$allocator@D@2@@std@@$$V@?$map@V?$basic_string@DU?$char_traits@D@std@@V?$allocator@D@2@@std@@V?$map@V?$basic_string@DU?$char_traits@D@std@@V?$allocator@D@2@@std@@V12@U?$less@V?$basic_string@DU?$char_traits@D@std@@V?$allocator@D@2@@std@@@2@V?$allocator@U?$pair@$$CBV?$basic_string@DU?$char_traits@D@std@@V?$allocator@D@2@@std@@V12@@std@@@2@@2@U?$less@V?$basic_string@DU?$char_traits@D@std@@V?$allocator@D@2@@std@@@2@V?$allocator@U?$pair@$$CBV?$basic_string@DU?$char_traits@D@std@@V?$allocator@D@2@@std@@V?$map@V?$basic_string@DU?$char_traits@D@std@@V?$allocator@D@2@@std@@V12@U?$less@V?$basic_string@DU?$char_traits@D@std@@V?$allocator@D@2@@std@@@2@V?$allocator@U?$pair@$$CBV?$basic_string@DU?$char_traits@D@std@@V?$allocator@D@2@@std@@V12@@std@@@2@@2@@std@@@2@@std@@AEAA?AU?$pair@PEAU?$_Tree_node@U?$pair@$$CBV?$basic_string@DU?$char_traits@D@std@@V?$allocator@D@2@@std@@V?$map@V?$basic_string@DU?$char_traits@D@std@@V?$allocator@D@2@@std@@V12@U?$less@V?$basic_string@DU?$char_traits@D@std@@V?$allocator@D@2@@std@@@2@V?$allocator@U?$pair@$$CBV?$basic_string@DU?$char_traits@D@std@@V?$allocator@D@2@@std@@V12@@std@@@2@@2@@std@@PEAX@std@@_N@1@AEBV?$basic_string@DU?$char_traits@D@std@@V?$allocator@D@2@@1@@Z
	??$_Try_emplace@E$$V@?$map@EEU?$less@E@std@@V?$allocator@U?$pair@$$CBEE@std@@@2@@std@@AEAA?AU?$pair@PEAU?$_Tree_node@U?$pair@$$CBEE@std@@PEAX@std@@_N@1@$$QEAE@Z
	??$_Try_emplace@V?$basic_string@DU?$char_traits@D@std@@V?$allocator@D@2@@std@@$$V@?$map@V?$basic_string@DU?$char_traits@D@std@@V?$allocator@D@2@@std@@V12@U?$less@V?$basic_string@DU?$char_traits@D@std@@V?$allocator@D@2@@std@@@2@V?$allocator@U?$pair@$$CBV?$basic_string@DU?$char_traits@D@std@@V?$allocator@D@2@@std@@V12@@std@@@2@@std@@AEAA?AU?$pair@PEAU?$_Tree_node@U?$pair@$$CBV?$basic_string@DU?$char_traits@D@std@@V?$allocator@D@2@@std@@V12@@std@@PEAX@std@@_N@1@$$QEAV?$basic_string@DU?$char_traits@D@std@@V?$allocator@D@2@@1@@Z
	??$_Tuple_get@$0A@$$QEAE@std@@YA$$QEA_P$$QEAV?$tuple@$$QEAE@0@@Z
	??$_Tuple_get@$0A@$$QEAV?$basic_string@DU?$char_traits@D@std@@V?$allocator@D@2@@std@@@std@@YA$$QEA_P$$QEAV?$tuple@$$QEAV?$basic_string@DU?$char_traits@D@std@@V?$allocator@D@2@@std@@@0@@Z
	??$_Tuple_get@$0A@AEBQEAX@std@@YA$$QEA_P$$QEAV?$tuple@AEBQEAX@0@@Z
	??$_Tuple_get@$0A@AEBV?$basic_string@DU?$char_traits@D@std@@V?$allocator@D@2@@std@@@std@@YA$$QEA_P$$QEAV?$tuple@AEBV?$basic_string@DU?$char_traits@D@std@@V?$allocator@D@2@@std@@@0@@Z
	??$_Unfancy@D@std@@YAPEADPEAD@Z
	??$_Unfancy@E@std@@YAPEAEPEAE@Z
	??$_Unfancy@F@std@@YAPEAFPEAF@Z
	??$_Unfancy@G@std@@YAPEAGPEAG@Z
	??$_Unfancy@H@std@@YAPEAHPEAH@Z
	??$_Unfancy@I@std@@YAPEAIPEAI@Z
	??$_Unfancy@J@std@@YAPEAJPEAJ@Z
	??$_Unfancy@K@std@@YAPEAKPEAK@Z
	??$_Unfancy@M@std@@YAPEAMPEAM@Z
	??$_Unfancy@N@std@@YAPEANPEAN@Z
	??$_Unfancy@V?$basic_string@DU?$char_traits@D@std@@V?$allocator@D@2@@std@@@std@@YAPEAV?$basic_string@DU?$char_traits@D@std@@V?$allocator@D@2@@0@PEAV10@@Z
	??$_Unfancy_maybe_null@$$CBD@std@@YAPEBDPEBD@Z
	??$_Unfancy_maybe_null@I@std@@YAPEAIPEAI@Z
	??$_Ungetc@D@std@@YA_NAEBDPEAU_iobuf@@@Z
	??$_Uninitialized_copy@PEADPEADV?$allocator@D@std@@@std@@YAPEADPEAD00AEAV?$allocator@D@0@@Z
	??$_Uninitialized_copy@PEAEPEAEV?$allocator@E@std@@@std@@YAPEAEPEAE00AEAV?$allocator@E@0@@Z
	??$_Uninitialized_copy@PEAFPEAFV?$allocator@F@std@@@std@@YAPEAFPEAF00AEAV?$allocator@F@0@@Z
	??$_Uninitialized_copy@PEAGPEAGV?$allocator@G@std@@@std@@YAPEAGPEAG00AEAV?$allocator@G@0@@Z
	??$_Uninitialized_copy@PEAHPEAHV?$allocator@H@std@@@std@@YAPEAHPEAH00AEAV?$allocator@H@0@@Z
	??$_Uninitialized_copy@PEAIPEAIV?$allocator@I@std@@@std@@YAPEAIPEAI00AEAV?$allocator@I@0@@Z
	??$_Uninitialized_copy@PEAJPEAJV?$allocator@J@std@@@std@@YAPEAJPEAJ00AEAV?$allocator@J@0@@Z
	??$_Uninitialized_copy@PEAKPEAKV?$allocator@K@std@@@std@@YAPEAKPEAK00AEAV?$allocator@K@0@@Z
	??$_Uninitialized_copy@PEAMPEAMV?$allocator@M@std@@@std@@YAPEAMPEAM00AEAV?$allocator@M@0@@Z
	??$_Uninitialized_copy@PEANPEANV?$allocator@N@std@@@std@@YAPEANPEAN00AEAV?$allocator@N@0@@Z
	??$_Uninitialized_copy@PEAV?$basic_string@DU?$char_traits@D@std@@V?$allocator@D@2@@std@@PEAV12@V?$allocator@V?$basic_string@DU?$char_traits@D@std@@V?$allocator@D@2@@std@@@2@@std@@YAPEAV?$basic_string@DU?$char_traits@D@std@@V?$allocator@D@2@@0@PEAV10@00AEAV?$allocator@V?$basic_string@DU?$char_traits@D@std@@V?$allocator@D@2@@std@@@0@@Z
	??$_Uninitialized_copy_n@PEADV?$allocator@D@std@@@std@@YAPEADPEAD_K0AEAV?$allocator@D@0@@Z
	??$_Uninitialized_copy_n@PEAEV?$allocator@E@std@@@std@@YAPEAEPEAE_K0AEAV?$allocator@E@0@@Z
	??$_Uninitialized_copy_n@PEAFV?$allocator@F@std@@@std@@YAPEAFPEAF_K0AEAV?$allocator@F@0@@Z
	??$_Uninitialized_copy_n@PEAGV?$allocator@G@std@@@std@@YAPEAGPEAG_K0AEAV?$allocator@G@0@@Z
	??$_Uninitialized_copy_n@PEAHV?$allocator@H@std@@@std@@YAPEAHPEAH_K0AEAV?$allocator@H@0@@Z
	??$_Uninitialized_copy_n@PEAIV?$allocator@I@std@@@std@@YAPEAIPEAI_K0AEAV?$allocator@I@0@@Z
	??$_Uninitialized_copy_n@PEAJV?$allocator@J@std@@@std@@YAPEAJPEAJ_K0AEAV?$allocator@J@0@@Z
	??$_Uninitialized_copy_n@PEAKV?$allocator@K@std@@@std@@YAPEAKPEAK_K0AEAV?$allocator@K@0@@Z
	??$_Uninitialized_copy_n@PEAMV?$allocator@M@std@@@std@@YAPEAMPEAM_K0AEAV?$allocator@M@0@@Z
	??$_Uninitialized_copy_n@PEANV?$allocator@N@std@@@std@@YAPEANPEAN_K0AEAV?$allocator@N@0@@Z
	??$_Uninitialized_copy_n@PEAV?$basic_string@DU?$char_traits@D@std@@V?$allocator@D@2@@std@@V?$allocator@V?$basic_string@DU?$char_traits@D@std@@V?$allocator@D@2@@std@@@2@@std@@YAPEAV?$basic_string@DU?$char_traits@D@std@@V?$allocator@D@2@@0@PEAV10@_K0AEAV?$allocator@V?$basic_string@DU?$char_traits@D@std@@V?$allocator@D@2@@std@@@0@@Z
	??$_Uninitialized_fill_n@V?$allocator@I@std@@@std@@YAPEAIPEAI_KAEBIAEAV?$allocator@I@0@@Z
	??$_Uninitialized_move@PEADV?$allocator@D@std@@@std@@YAPEADQEAD0PEADAEAV?$allocator@D@0@@Z
	??$_Uninitialized_move@PEAEV?$allocator@E@std@@@std@@YAPEAEQEAE0PEAEAEAV?$allocator@E@0@@Z
	??$_Uninitialized_move@PEAFV?$allocator@F@std@@@std@@YAPEAFQEAF0PEAFAEAV?$allocator@F@0@@Z
	??$_Uninitialized_move@PEAGV?$allocator@G@std@@@std@@YAPEAGQEAG0PEAGAEAV?$allocator@G@0@@Z
	??$_Uninitialized_move@PEAHV?$allocator@H@std@@@std@@YAPEAHQEAH0PEAHAEAV?$allocator@H@0@@Z
	??$_Uninitialized_move@PEAIV?$allocator@I@std@@@std@@YAPEAIQEAI0PEAIAEAV?$allocator@I@0@@Z
	??$_Uninitialized_move@PEAJV?$allocator@J@std@@@std@@YAPEAJQEAJ0PEAJAEAV?$allocator@J@0@@Z
	??$_Uninitialized_move@PEAKV?$allocator@K@std@@@std@@YAPEAKQEAK0PEAKAEAV?$allocator@K@0@@Z
	??$_Uninitialized_move@PEAMV?$allocator@M@std@@@std@@YAPEAMQEAM0PEAMAEAV?$allocator@M@0@@Z
	??$_Uninitialized_move@PEANV?$allocator@N@std@@@std@@YAPEANQEAN0PEANAEAV?$allocator@N@0@@Z
	??$_Uninitialized_move@PEAV?$basic_string@DU?$char_traits@D@std@@V?$allocator@D@2@@std@@V?$allocator@V?$basic_string@DU?$char_traits@D@std@@V?$allocator@D@2@@std@@@2@@std@@YAPEAV?$basic_string@DU?$char_traits@D@std@@V?$allocator@D@2@@0@QEAV10@0PEAV10@AEAV?$allocator@V?$basic_string@DU?$char_traits@D@std@@V?$allocator@D@2@@std@@@0@@Z
	??$addressof@$$CBU?$pair@$$CBEE@std@@@std@@YAPEBU?$pair@$$CBEE@0@AEBU10@@Z
	??$addressof@$$CBU?$pair@$$CBV?$basic_string@DU?$char_traits@D@std@@V?$allocator@D@2@@std@@PEAVNode@GetSetInternal@@@std@@@std@@YAPEBU?$pair@$$CBV?$basic_string@DU?$char_traits@D@std@@V?$allocator@D@2@@std@@PEAVNode@GetSetInternal@@@0@AEBU10@@Z
	??$addressof@$$CBU?$pair@$$CBV?$basic_string@DU?$char_traits@D@std@@V?$allocator@D@2@@std@@V12@@std@@@std@@YAPEBU?$pair@$$CBV?$basic_string@DU?$char_traits@D@std@@V?$allocator@D@2@@std@@V12@@0@AEBU10@@Z
	??$addressof@$$CBU?$pair@$$CBV?$basic_string@DU?$char_traits@D@std@@V?$allocator@D@2@@std@@V?$map@V?$basic_string@DU?$char_traits@D@std@@V?$allocator@D@2@@std@@V12@U?$less@V?$basic_string@DU?$char_traits@D@std@@V?$allocator@D@2@@std@@@2@V?$allocator@U?$pair@$$CBV?$basic_string@DU?$char_traits@D@std@@V?$allocator@D@2@@std@@V12@@std@@@2@@2@@std@@@std@@YAPEBU?$pair@$$CBV?$basic_string@DU?$char_traits@D@std@@V?$allocator@D@2@@std@@V?$map@V?$basic_string@DU?$char_traits@D@std@@V?$allocator@D@2@@std@@V12@U?$less@V?$basic_string@DU?$char_traits@D@std@@V?$allocator@D@2@@std@@@2@V?$allocator@U?$pair@$$CBV?$basic_string@DU?$char_traits@D@std@@V?$allocator@D@2@@std@@V12@@std@@@2@@2@@0@AEBU10@@Z
	??$addressof@$$CBV?$_String_val@U?$_Simple_types@D@std@@@std@@@std@@YAPEBV?$_String_val@U?$_Simple_types@D@std@@@0@AEBV10@@Z
	??$addressof@$$CBV?$_Tree@V?$_Tmap_traits@V?$basic_string@DU?$char_traits@D@std@@V?$allocator@D@2@@std@@V12@U?$less@V?$basic_string@DU?$char_traits@D@std@@V?$allocator@D@2@@std@@@2@V?$allocator@U?$pair@$$CBV?$basic_string@DU?$char_traits@D@std@@V?$allocator@D@2@@std@@V12@@std@@@2@$0A@@std@@@std@@@std@@YAPEBV?$_Tree@V?$_Tmap_traits@V?$basic_string@DU?$char_traits@D@std@@V?$allocator@D@2@@std@@V12@U?$less@V?$basic_string@DU?$char_traits@D@std@@V?$allocator@D@2@@std@@@2@V?$allocator@U?$pair@$$CBV?$basic_string@DU?$char_traits@D@std@@V?$allocator@D@2@@std@@V12@@std@@@2@$0A@@std@@@0@AEBV10@@Z
	??$addressof@$$CBV?$_Tree_val@U?$_Tree_simple_types@PEAUObserver@Dictionary@GetSetInternal@@@std@@@std@@@std@@YAPEBV?$_Tree_val@U?$_Tree_simple_types@PEAUObserver@Dictionary@GetSetInternal@@@std@@@0@AEBV10@@Z
	??$addressof@$$CBV?$_Tree_val@U?$_Tree_simple_types@U?$pair@$$CBEE@std@@@std@@@std@@@std@@YAPEBV?$_Tree_val@U?$_Tree_simple_types@U?$pair@$$CBEE@std@@@std@@@0@AEBV10@@Z
	??$addressof@$$CBV?$_Tree_val@U?$_Tree_simple_types@U?$pair@$$CBV?$basic_string@DU?$char_traits@D@std@@V?$allocator@D@2@@std@@P6APEAVObject@GetSetGui@@AEBVSection@4@AEAVProgressInterface@4@@Z@std@@@std@@@std@@@std@@YAPEBV?$_Tree_val@U?$_Tree_simple_types@U?$pair@$$CBV?$basic_string@DU?$char_traits@D@std@@V?$allocator@D@2@@std@@P6APEAVObject@GetSetGui@@AEBVSection@4@AEAVProgressInterface@4@@Z@std@@@std@@@0@AEBV10@@Z
	??$addressof@$$CBV?$_Tree_val@U?$_Tree_simple_types@U?$pair@$$CBV?$basic_string@DU?$char_traits@D@std@@V?$allocator@D@2@@std@@PEAVNode@GetSetInternal@@@std@@@std@@@std@@@std@@YAPEBV?$_Tree_val@U?$_Tree_simple_types@U?$pair@$$CBV?$basic_string@DU?$char_traits@D@std@@V?$allocator@D@2@@std@@PEAVNode@GetSetInternal@@@std@@@std@@@0@AEBV10@@Z
	??$addressof@$$CBV?$_Tree_val@U?$_Tree_simple_types@U?$pair@$$CBV?$basic_string@DU?$char_traits@D@std@@V?$allocator@D@2@@std@@V12@@std@@@std@@@std@@@std@@YAPEBV?$_Tree_val@U?$_Tree_simple_types@U?$pair@$$CBV?$basic_string@DU?$char_traits@D@std@@V?$allocator@D@2@@std@@V12@@std@@@std@@@0@AEBV10@@Z
	??$addressof@$$CBV?$_Tree_val@U?$_Tree_simple_types@U?$pair@$$CBV?$basic_string@DU?$char_traits@D@std@@V?$allocator@D@2@@std@@V?$map@V?$basic_string@DU?$char_traits@D@std@@V?$allocator@D@2@@std@@V12@U?$less@V?$basic_string@DU?$char_traits@D@std@@V?$allocator@D@2@@std@@@2@V?$allocator@U?$pair@$$CBV?$basic_string@DU?$char_traits@D@std@@V?$allocator@D@2@@std@@V12@@std@@@2@@2@@std@@@std@@@std@@@std@@YAPEBV?$_Tree_val@U?$_Tree_simple_types@U?$pair@$$CBV?$basic_string@DU?$char_traits@D@std@@V?$allocator@D@2@@std@@V?$map@V?$basic_string@DU?$char_traits@D@std@@V?$allocator@D@2@@std@@V12@U?$less@V?$basic_string@DU?$char_traits@D@std@@V?$allocator@D@2@@std@@@2@V?$allocator@U?$pair@$$CBV?$basic_string@DU?$char_traits@D@std@@V?$allocator@D@2@@std@@V12@@std@@@2@@2@@std@@@std@@@0@AEBV10@@Z
	??$addressof@$$CBV?$_Tree_val@U?$_Tree_simple_types@U?$pair@QEAXP6AXAEBV?$basic_string@DU?$char_traits@D@std@@V?$allocator@D@2@@std@@PEAX@Z@std@@@std@@@std@@@std@@YAPEBV?$_Tree_val@U?$_Tree_simple_types@U?$pair@QEAXP6AXAEBV?$basic_string@DU?$char_traits@D@std@@V?$allocator@D@2@@std@@PEAX@Z@std@@@std@@@0@AEBV10@@Z
	??$addressof@$$CBV?$_Tree_val@U?$_Tree_simple_types@V?$basic_string@DU?$char_traits@D@std@@V?$allocator@D@2@@std@@@std@@@std@@@std@@YAPEBV?$_Tree_val@U?$_Tree_simple_types@V?$basic_string@DU?$char_traits@D@std@@V?$allocator@D@2@@std@@@std@@@0@AEBV10@@Z
	??$addressof@$$CBV?$_Vector_val@U?$_Simple_types@D@std@@@std@@@std@@YAPEBV?$_Vector_val@U?$_Simple_types@D@std@@@0@AEBV10@@Z
	??$addressof@$$CBV?$_Vector_val@U?$_Simple_types@E@std@@@std@@@std@@YAPEBV?$_Vector_val@U?$_Simple_types@E@std@@@0@AEBV10@@Z
	??$addressof@$$CBV?$_Vector_val@U?$_Simple_types@F@std@@@std@@@std@@YAPEBV?$_Vector_val@U?$_Simple_types@F@std@@@0@AEBV10@@Z
	??$addressof@$$CBV?$_Vector_val@U?$_Simple_types@G@std@@@std@@@std@@YAPEBV?$_Vector_val@U?$_Simple_types@G@std@@@0@AEBV10@@Z
	??$addressof@$$CBV?$_Vector_val@U?$_Simple_types@H@std@@@std@@@std@@YAPEBV?$_Vector_val@U?$_Simple_types@H@std@@@0@AEBV10@@Z
	??$addressof@$$CBV?$_Vector_val@U?$_Simple_types@I@std@@@std@@@std@@YAPEBV?$_Vector_val@U?$_Simple_types@I@std@@@0@AEBV10@@Z
	??$addressof@$$CBV?$_Vector_val@U?$_Simple_types@J@std@@@std@@@std@@YAPEBV?$_Vector_val@U?$_Simple_types@J@std@@@0@AEBV10@@Z
	??$addressof@$$CBV?$_Vector_val@U?$_Simple_types@K@std@@@std@@@std@@YAPEBV?$_Vector_val@U?$_Simple_types@K@std@@@0@AEBV10@@Z
	??$addressof@$$CBV?$_Vector_val@U?$_Simple_types@M@std@@@std@@@std@@YAPEBV?$_Vector_val@U?$_Simple_types@M@std@@@0@AEBV10@@Z
	??$addressof@$$CBV?$_Vector_val@U?$_Simple_types@N@std@@@std@@@std@@YAPEBV?$_Vector_val@U?$_Simple_types@N@std@@@0@AEBV10@@Z
	??$addressof@$$CBV?$_Vector_val@U?$_Simple_types@V?$basic_string@DU?$char_traits@D@std@@V?$allocator@D@2@@std@@@std@@@std@@@std@@YAPEBV?$_Vector_val@U?$_Simple_types@V?$basic_string@DU?$char_traits@D@std@@V?$allocator@D@2@@std@@@std@@@0@AEBV10@@Z
	??$addressof@$$CBV?$basic_string@DU?$char_traits@D@std@@V?$allocator@D@2@@std@@@std@@YAPEBV?$basic_string@DU?$char_traits@D@std@@V?$allocator@D@2@@0@AEBV10@@Z
	??$addressof@$$CBV?$codecvt@DDU_Mbstatet@@@std@@@std@@YAPEBV?$codecvt@DDU_Mbstatet@@@0@AEBV10@@Z
	??$addressof@$$CBV?$vector@DV?$allocator@D@std@@@std@@@std@@YAPEBV?$vector@DV?$allocator@D@std@@@0@AEBV10@@Z
	??$addressof@$$CBV?$vector@EV?$allocator@E@std@@@std@@@std@@YAPEBV?$vector@EV?$allocator@E@std@@@0@AEBV10@@Z
	??$addressof@$$CBV?$vector@FV?$allocator@F@std@@@std@@@std@@YAPEBV?$vector@FV?$allocator@F@std@@@0@AEBV10@@Z
	??$addressof@$$CBV?$vector@GV?$allocator@G@std@@@std@@@std@@YAPEBV?$vector@GV?$allocator@G@std@@@0@AEBV10@@Z
	??$addressof@$$CBV?$vector@HV?$allocator@H@std@@@std@@@std@@YAPEBV?$vector@HV?$allocator@H@std@@@0@AEBV10@@Z
	??$addressof@$$CBV?$vector@IV?$allocator@I@std@@@std@@@std@@YAPEBV?$vector@IV?$allocator@I@std@@@0@AEBV10@@Z
	??$addressof@$$CBV?$vector@JV?$allocator@J@std@@@std@@@std@@YAPEBV?$vector@JV?$allocator@J@std@@@0@AEBV10@@Z
	??$addressof@$$CBV?$vector@KV?$allocator@K@std@@@std@@@std@@YAPEBV?$vector@KV?$allocator@K@std@@@0@AEBV10@@Z
	??$addressof@$$CBV?$vector@MV?$allocator@M@std@@@std@@@std@@YAPEBV?$vector@MV?$allocator@M@std@@@0@AEBV10@@Z
	??$addressof@$$CBV?$vector@NV?$allocator@N@std@@@std@@@std@@YAPEBV?$vector@NV?$allocator@N@std@@@0@AEBV10@@Z
	??$addressof@$$CBV?$vector@V?$basic_string@DU?$char_traits@D@std@@V?$allocator@D@2@@std@@V?$allocator@V?$basic_string@DU?$char_traits@D@std@@V?$allocator@D@2@@std@@@2@@std@@@std@@YAPEBV?$vector@V?$basic_string@DU?$char_traits@D@std@@V?$allocator@D@2@@std@@V?$allocator@V?$basic_string@DU?$char_traits@D@std@@V?$allocator@D@2@@std@@@2@@0@AEBV10@@Z
	??$addressof@$$CBV?$vector@_NV?$allocator@_N@std@@@std@@@std@@YAPEBV?$vector@_NV?$allocator@_N@std@@@0@AEBV10@@Z
	??$addressof@D@std@@YAPEADAEAD@Z
	??$addressof@E@std@@YAPEAEAEAE@Z
	??$addressof@F@std@@YAPEAFAEAF@Z
	??$addressof@G@std@@YAPEAGAEAG@Z
	??$addressof@H@std@@YAPEAHAEAH@Z
	??$addressof@I@std@@YAPEAIAEAI@Z
	??$addressof@J@std@@YAPEAJAEAJ@Z
	??$addressof@K@std@@YAPEAKAEAK@Z
	??$addressof@M@std@@YAPEAMAEAM@Z
	??$addressof@N@std@@YAPEANAEAN@Z
	??$addressof@PEAD@std@@YAPEAPEADAEAPEAD@Z
	??$addressof@PEAU?$_Tree_node@PEAUObserver@Dictionary@GetSetInternal@@PEAX@std@@@std@@YAPEAPEAU?$_Tree_node@PEAUObserver@Dictionary@GetSetInternal@@PEAX@0@AEAPEAU10@@Z
	??$addressof@PEAU?$_Tree_node@U?$pair@$$CBEE@std@@PEAX@std@@@std@@YAPEAPEAU?$_Tree_node@U?$pair@$$CBEE@std@@PEAX@0@AEAPEAU10@@Z
	??$addressof@PEAU?$_Tree_node@U?$pair@$$CBV?$basic_string@DU?$char_traits@D@std@@V?$allocator@D@2@@std@@P6APEAVObject@GetSetGui@@AEBVSection@4@AEAVProgressInterface@4@@Z@std@@PEAX@std@@@std@@YAPEAPEAU?$_Tree_node@U?$pair@$$CBV?$basic_string@DU?$char_traits@D@std@@V?$allocator@D@2@@std@@P6APEAVObject@GetSetGui@@AEBVSection@4@AEAVProgressInterface@4@@Z@std@@PEAX@0@AEAPEAU10@@Z
	??$addressof@PEAU?$_Tree_node@U?$pair@$$CBV?$basic_string@DU?$char_traits@D@std@@V?$allocator@D@2@@std@@PEAVNode@GetSetInternal@@@std@@PEAX@std@@@std@@YAPEAPEAU?$_Tree_node@U?$pair@$$CBV?$basic_string@DU?$char_traits@D@std@@V?$allocator@D@2@@std@@PEAVNode@GetSetInternal@@@std@@PEAX@0@AEAPEAU10@@Z
	??$addressof@PEAU?$_Tree_node@U?$pair@$$CBV?$basic_string@DU?$char_traits@D@std@@V?$allocator@D@2@@std@@V12@@std@@PEAX@std@@@std@@YAPEAPEAU?$_Tree_node@U?$pair@$$CBV?$basic_string@DU?$char_traits@D@std@@V?$allocator@D@2@@std@@V12@@std@@PEAX@0@AEAPEAU10@@Z
	??$addressof@PEAU?$_Tree_node@U?$pair@$$CBV?$basic_string@DU?$char_traits@D@std@@V?$allocator@D@2@@std@@V?$map@V?$basic_string@DU?$char_traits@D@std@@V?$allocator@D@2@@std@@V12@U?$less@V?$basic_string@DU?$char_traits@D@std@@V?$allocator@D@2@@std@@@2@V?$allocator@U?$pair@$$CBV?$basic_string@DU?$char_traits@D@std@@V?$allocator@D@2@@std@@V12@@std@@@2@@2@@std@@PEAX@std@@@std@@YAPEAPEAU?$_Tree_node@U?$pair@$$CBV?$basic_string@DU?$char_traits@D@std@@V?$allocator@D@2@@std@@V?$map@V?$basic_string@DU?$char_traits@D@std@@V?$allocator@D@2@@std@@V12@U?$less@V?$basic_string@DU?$char_traits@D@std@@V?$allocator@D@2@@std@@@2@V?$allocator@U?$pair@$$CBV?$basic_string@DU?$char_traits@D@std@@V?$allocator@D@2@@std@@V12@@std@@@2@@2@@std@@PEAX@0@AEAPEAU10@@Z
	??$addressof@PEAU?$_Tree_node@U?$pair@QEAXP6AXAEBV?$basic_string@DU?$char_traits@D@std@@V?$allocator@D@2@@std@@PEAX@Z@std@@PEAX@std@@@std@@YAPEAPEAU?$_Tree_node@U?$pair@QEAXP6AXAEBV?$basic_string@DU?$char_traits@D@std@@V?$allocator@D@2@@std@@PEAX@Z@std@@PEAX@0@AEAPEAU10@@Z
	??$addressof@PEAU?$_Tree_node@V?$basic_string@DU?$char_traits@D@std@@V?$allocator@D@2@@std@@PEAX@std@@@std@@YAPEAPEAU?$_Tree_node@V?$basic_string@DU?$char_traits@D@std@@V?$allocator@D@2@@std@@PEAX@0@AEAPEAU10@@Z
	??$addressof@PEAUObserver@Dictionary@GetSetInternal@@@std@@YAPEAPEAUObserver@Dictionary@GetSetInternal@@AEAPEAU123@@Z
	??$addressof@U?$pair@$$CBEE@std@@@std@@YAPEAU?$pair@$$CBEE@0@AEAU10@@Z
	??$addressof@U?$pair@$$CBV?$basic_string@DU?$char_traits@D@std@@V?$allocator@D@2@@std@@P6APEAVObject@GetSetGui@@AEBVSection@4@AEAVProgressInterface@4@@Z@std@@@std@@YAPEAU?$pair@$$CBV?$basic_string@DU?$char_traits@D@std@@V?$allocator@D@2@@std@@P6APEAVObject@GetSetGui@@AEBVSection@4@AEAVProgressInterface@4@@Z@0@AEAU10@@Z
	??$addressof@U?$pair@$$CBV?$basic_string@DU?$char_traits@D@std@@V?$allocator@D@2@@std@@PEAVNode@GetSetInternal@@@std@@@std@@YAPEAU?$pair@$$CBV?$basic_string@DU?$char_traits@D@std@@V?$allocator@D@2@@std@@PEAVNode@GetSetInternal@@@0@AEAU10@@Z
	??$addressof@U?$pair@$$CBV?$basic_string@DU?$char_traits@D@std@@V?$allocator@D@2@@std@@V12@@std@@@std@@YAPEAU?$pair@$$CBV?$basic_string@DU?$char_traits@D@std@@V?$allocator@D@2@@std@@V12@@0@AEAU10@@Z
	??$addressof@U?$pair@$$CBV?$basic_string@DU?$char_traits@D@std@@V?$allocator@D@2@@std@@V?$map@V?$basic_string@DU?$char_traits@D@std@@V?$allocator@D@2@@std@@V12@U?$less@V?$basic_string@DU?$char_traits@D@std@@V?$allocator@D@2@@std@@@2@V?$allocator@U?$pair@$$CBV?$basic_string@DU?$char_traits@D@std@@V?$allocator@D@2@@std@@V12@@std@@@2@@2@@std@@@std@@YAPEAU?$pair@$$CBV?$basic_string@DU?$char_traits@D@std@@V?$allocator@D@2@@std@@V?$map@V?$basic_string@DU?$char_traits@D@std@@V?$allocator@D@2@@std@@V12@U?$less@V?$basic_string@DU?$char_traits@D@std@@V?$allocator@D@2@@std@@@2@V?$allocator@U?$pair@$$CBV?$basic_string@DU?$char_traits@D@std@@V?$allocator@D@2@@std@@V12@@std@@@2@@2@@0@AEAU10@@Z
	??$addressof@U?$pair@QEAXP6AXAEBV?$basic_string@DU?$char_traits@D@std@@V?$allocator@D@2@@std@@PEAX@Z@std@@@std@@YAPEAU?$pair@QEAXP6AXAEBV?$basic_string@DU?$char_traits@D@std@@V?$allocator@D@2@@std@@PEAX@Z@0@AEAU10@@Z
	??$addressof@V?$_String_val@U?$_Simple_types@D@std@@@std@@@std@@YAPEAV?$_String_val@U?$_Simple_types@D@std@@@0@AEAV10@@Z
	??$addressof@V?$_Tree_val@U?$_Tree_simple_types@PEAUObserver@Dictionary@GetSetInternal@@@std@@@std@@@std@@YAPEAV?$_Tree_val@U?$_Tree_simple_types@PEAUObserver@Dictionary@GetSetInternal@@@std@@@0@AEAV10@@Z
	??$addressof@V?$_Tree_val@U?$_Tree_simple_types@U?$pair@$$CBEE@std@@@std@@@std@@@std@@YAPEAV?$_Tree_val@U?$_Tree_simple_types@U?$pair@$$CBEE@std@@@std@@@0@AEAV10@@Z
	??$addressof@V?$_Tree_val@U?$_Tree_simple_types@U?$pair@$$CBV?$basic_string@DU?$char_traits@D@std@@V?$allocator@D@2@@std@@P6APEAVObject@GetSetGui@@AEBVSection@4@AEAVProgressInterface@4@@Z@std@@@std@@@std@@@std@@YAPEAV?$_Tree_val@U?$_Tree_simple_types@U?$pair@$$CBV?$basic_string@DU?$char_traits@D@std@@V?$allocator@D@2@@std@@P6APEAVObject@GetSetGui@@AEBVSection@4@AEAVProgressInterface@4@@Z@std@@@std@@@0@AEAV10@@Z
	??$addressof@V?$_Tree_val@U?$_Tree_simple_types@U?$pair@$$CBV?$basic_string@DU?$char_traits@D@std@@V?$allocator@D@2@@std@@PEAVNode@GetSetInternal@@@std@@@std@@@std@@@std@@YAPEAV?$_Tree_val@U?$_Tree_simple_types@U?$pair@$$CBV?$basic_string@DU?$char_traits@D@std@@V?$allocator@D@2@@std@@PEAVNode@GetSetInternal@@@std@@@std@@@0@AEAV10@@Z
	??$addressof@V?$_Tree_val@U?$_Tree_simple_types@U?$pair@$$CBV?$basic_string@DU?$char_traits@D@std@@V?$allocator@D@2@@std@@V12@@std@@@std@@@std@@@std@@YAPEAV?$_Tree_val@U?$_Tree_simple_types@U?$pair@$$CBV?$basic_string@DU?$char_traits@D@std@@V?$allocator@D@2@@std@@V12@@std@@@std@@@0@AEAV10@@Z
	??$addressof@V?$_Tree_val@U?$_Tree_simple_types@U?$pair@$$CBV?$basic_string@DU?$char_traits@D@std@@V?$allocator@D@2@@std@@V?$map@V?$basic_string@DU?$char_traits@D@std@@V?$allocator@D@2@@std@@V12@U?$less@V?$basic_string@DU?$char_traits@D@std@@V?$allocator@D@2@@std@@@2@V?$allocator@U?$pair@$$CBV?$basic_string@DU?$char_traits@D@std@@V?$allocator@D@2@@std@@V12@@std@@@2@@2@@std@@@std@@@std@@@std@@YAPEAV?$_Tree_val@U?$_Tree_simple_types@U?$pair@$$CBV?$basic_string@DU?$char_traits@D@std@@V?$allocator@D@2@@std@@V?$map@V?$basic_string@DU?$char_traits@D@std@@V?$allocator@D@2@@std@@V12@U?$less@V?$basic_string@DU?$char_traits@D@std@@V?$allocator@D@2@@std@@@2@V?$allocator@U?$pair@$$CBV?$basic_string@DU?$char_traits@D@std@@V?$allocator@D@2@@std@@V12@@std@@@2@@2@@std@@@std@@@0@AEAV10@@Z
	??$addressof@V?$_Tree_val@U?$_Tree_simple_types@U?$pair@QEAXP6AXAEBV?$basic_string@DU?$char_traits@D@std@@V?$allocator@D@2@@std@@PEAX@Z@std@@@std@@@std@@@std@@YAPEAV?$_Tree_val@U?$_Tree_simple_types@U?$pair@QEAXP6AXAEBV?$basic_string@DU?$char_traits@D@std@@V?$allocator@D@2@@std@@PEAX@Z@std@@@std@@@0@AEAV10@@Z
	??$addressof@V?$_Tree_val@U?$_Tree_simple_types@V?$basic_string@DU?$char_traits@D@std@@V?$allocator@D@2@@std@@@std@@@std@@@std@@YAPEAV?$_Tree_val@U?$_Tree_simple_types@V?$basic_string@DU?$char_traits@D@std@@V?$allocator@D@2@@std@@@std@@@0@AEAV10@@Z
	??$addressof@V?$_Vector_val@U?$_Simple_types@V?$basic_string@DU?$char_traits@D@std@@V?$allocator@D@2@@std@@@std@@@std@@@std@@YAPEAV?$_Vector_val@U?$_Simple_types@V?$basic_string@DU?$char_traits@D@std@@V?$allocator@D@2@@std@@@std@@@0@AEAV10@@Z
	??$addressof@V?$basic_filebuf@DU?$char_traits@D@std@@@std@@@std@@YAPEAV?$basic_filebuf@DU?$char_traits@D@std@@@0@AEAV10@@Z
	??$addressof@V?$basic_ostream@DU?$char_traits@D@std@@@std@@@std@@YAPEAV?$basic_ostream@DU?$char_traits@D@std@@@0@AEAV10@@Z
	??$addressof@V?$basic_string@DU?$char_traits@D@std@@V?$allocator@D@2@@std@@@std@@YAPEAV?$basic_string@DU?$char_traits@D@std@@V?$allocator@D@2@@0@AEAV10@@Z
	??$addressof@V?$basic_stringbuf@DU?$char_traits@D@std@@V?$allocator@D@2@@std@@@std@@YAPEAV?$basic_stringbuf@DU?$char_traits@D@std@@V?$allocator@D@2@@0@AEAV10@@Z
	??$addressof@V?$vector@DV?$allocator@D@std@@@std@@@std@@YAPEAV?$vector@DV?$allocator@D@std@@@0@AEAV10@@Z
	??$addressof@V?$vector@EV?$allocator@E@std@@@std@@@std@@YAPEAV?$vector@EV?$allocator@E@std@@@0@AEAV10@@Z
	??$addressof@V?$vector@FV?$allocator@F@std@@@std@@@std@@YAPEAV?$vector@FV?$allocator@F@std@@@0@AEAV10@@Z
	??$addressof@V?$vector@GV?$allocator@G@std@@@std@@@std@@YAPEAV?$vector@GV?$allocator@G@std@@@0@AEAV10@@Z
	??$addressof@V?$vector@HV?$allocator@H@std@@@std@@@std@@YAPEAV?$vector@HV?$allocator@H@std@@@0@AEAV10@@Z
	??$addressof@V?$vector@IV?$allocator@I@std@@@std@@@std@@YAPEAV?$vector@IV?$allocator@I@std@@@0@AEAV10@@Z
	??$addressof@V?$vector@JV?$allocator@J@std@@@std@@@std@@YAPEAV?$vector@JV?$allocator@J@std@@@0@AEAV10@@Z
	??$addressof@V?$vector@KV?$allocator@K@std@@@std@@@std@@YAPEAV?$vector@KV?$allocator@K@std@@@0@AEAV10@@Z
	??$addressof@V?$vector@MV?$allocator@M@std@@@std@@@std@@YAPEAV?$vector@MV?$allocator@M@std@@@0@AEAV10@@Z
	??$addressof@V?$vector@NV?$allocator@N@std@@@std@@@std@@YAPEAV?$vector@NV?$allocator@N@std@@@0@AEAV10@@Z
	??$addressof@V?$vector@V?$basic_string@DU?$char_traits@D@std@@V?$allocator@D@2@@std@@V?$allocator@V?$basic_string@DU?$char_traits@D@std@@V?$allocator@D@2@@std@@@2@@std@@@std@@YAPEAV?$vector@V?$basic_string@DU?$char_traits@D@std@@V?$allocator@D@2@@std@@V?$allocator@V?$basic_string@DU?$char_traits@D@std@@V?$allocator@D@2@@std@@@2@@0@AEAV10@@Z
	??$addressof@V?$vector@_NV?$allocator@_N@std@@@std@@@std@@YAPEAV?$vector@_NV?$allocator@_N@std@@@0@AEAV10@@Z
	??$construct@DAEAD@?$_Default_allocator_traits@V?$allocator@D@std@@@std@@SAXAEAV?$allocator@D@1@QEADAEAD@Z
	??$construct@DD@?$_Default_allocator_traits@V?$allocator@D@std@@@std@@SAXAEAV?$allocator@D@1@QEAD$$QEAD@Z
	??$construct@EAEAE@?$_Default_allocator_traits@V?$allocator@E@std@@@std@@SAXAEAV?$allocator@E@1@QEAEAEAE@Z
	??$construct@EE@?$_Default_allocator_traits@V?$allocator@E@std@@@std@@SAXAEAV?$allocator@E@1@QEAE$$QEAE@Z
	??$construct@FAEAF@?$_Default_allocator_traits@V?$allocator@F@std@@@std@@SAXAEAV?$allocator@F@1@QEAFAEAF@Z
	??$construct@FF@?$_Default_allocator_traits@V?$allocator@F@std@@@std@@SAXAEAV?$allocator@F@1@QEAF$$QEAF@Z
	??$construct@GAEAG@?$_Default_allocator_traits@V?$allocator@G@std@@@std@@SAXAEAV?$allocator@G@1@QEAGAEAG@Z
	??$construct@GG@?$_Default_allocator_traits@V?$allocator@G@std@@@std@@SAXAEAV?$allocator@G@1@QEAG$$QEAG@Z
	??$construct@HAEAH@?$_Default_allocator_traits@V?$allocator@H@std@@@std@@SAXAEAV?$allocator@H@1@QEAHAEAH@Z
	??$construct@HH@?$_Default_allocator_traits@V?$allocator@H@std@@@std@@SAXAEAV?$allocator@H@1@QEAH$$QEAH@Z
	??$construct@IAEAI@?$_Default_allocator_traits@V?$allocator@I@std@@@std@@SAXAEAV?$allocator@I@1@QEAIAEAI@Z
	??$construct@IAEBI@?$_Default_allocator_traits@V?$allocator@I@std@@@std@@SAXAEAV?$allocator@I@1@QEAIAEBI@Z
	??$construct@II@?$_Default_allocator_traits@V?$allocator@I@std@@@std@@SAXAEAV?$allocator@I@1@QEAI$$QEAI@Z
	??$construct@JAEAJ@?$_Default_allocator_traits@V?$allocator@J@std@@@std@@SAXAEAV?$allocator@J@1@QEAJAEAJ@Z
	??$construct@JJ@?$_Default_allocator_traits@V?$allocator@J@std@@@std@@SAXAEAV?$allocator@J@1@QEAJ$$QEAJ@Z
	??$construct@KAEAK@?$_Default_allocator_traits@V?$allocator@K@std@@@std@@SAXAEAV?$allocator@K@1@QEAKAEAK@Z
	??$construct@KK@?$_Default_allocator_traits@V?$allocator@K@std@@@std@@SAXAEAV?$allocator@K@1@QEAK$$QEAK@Z
	??$construct@MAEAM@?$_Default_allocator_traits@V?$allocator@M@std@@@std@@SAXAEAV?$allocator@M@1@QEAMAEAM@Z
	??$construct@MM@?$_Default_allocator_traits@V?$allocator@M@std@@@std@@SAXAEAV?$allocator@M@1@QEAM$$QEAM@Z
	??$construct@NAEAN@?$_Default_allocator_traits@V?$allocator@N@std@@@std@@SAXAEAV?$allocator@N@1@QEANAEAN@Z
	??$construct@NN@?$_Default_allocator_traits@V?$allocator@N@std@@@std@@SAXAEAV?$allocator@N@1@QEAN$$QEAN@Z
	??$construct@PEAUObserver@Dictionary@GetSetInternal@@PEAU123@@?$_Default_allocator_traits@V?$allocator@U?$_Tree_node@PEAUObserver@Dictionary@GetSetInternal@@PEAX@std@@@std@@@std@@SAXAEAV?$allocator@U?$_Tree_node@PEAUObserver@Dictionary@GetSetInternal@@PEAX@std@@@1@QEAPEAUObserver@Dictionary@GetSetInternal@@$$QEAPEAU345@@Z
	??$construct@U?$pair@$$CBEE@std@@AEBUpiecewise_construct_t@2@V?$tuple@$$QEAE@2@V?$tuple@$$V@2@@?$_Default_allocator_traits@V?$allocator@U?$_Tree_node@U?$pair@$$CBEE@std@@PEAX@std@@@std@@@std@@SAXAEAV?$allocator@U?$_Tree_node@U?$pair@$$CBEE@std@@PEAX@std@@@1@QEAU?$pair@$$CBEE@1@AEBUpiecewise_construct_t@1@$$QEAV?$tuple@$$QEAE@1@$$QEAV?$tuple@$$V@1@@Z
	??$construct@U?$pair@$$CBV?$basic_string@DU?$char_traits@D@std@@V?$allocator@D@2@@std@@P6APEAVObject@GetSetGui@@AEBVSection@4@AEAVProgressInterface@4@@Z@std@@AEBUpiecewise_construct_t@2@V?$tuple@AEBV?$basic_string@DU?$char_traits@D@std@@V?$allocator@D@2@@std@@@2@V?$tuple@$$V@2@@?$_Default_allocator_traits@V?$allocator@U?$_Tree_node@U?$pair@$$CBV?$basic_string@DU?$char_traits@D@std@@V?$allocator@D@2@@std@@P6APEAVObject@GetSetGui@@AEBVSection@4@AEAVProgressInterface@4@@Z@std@@PEAX@std@@@std@@@std@@SAXAEAV?$allocator@U?$_Tree_node@U?$pair@$$CBV?$basic_string@DU?$char_traits@D@std@@V?$allocator@D@2@@std@@P6APEAVObject@GetSetGui@@AEBVSection@4@AEAVProgressInterface@4@@Z@std@@PEAX@std@@@1@QEAU?$pair@$$CBV?$basic_string@DU?$char_traits@D@std@@V?$allocator@D@2@@std@@P6APEAVObject@GetSetGui@@AEBVSection@4@AEAVProgressInterface@4@@Z@1@AEBUpiecewise_construct_t@1@$$QEAV?$tuple@AEBV?$basic_string@DU?$char_traits@D@std@@V?$allocator@D@2@@std@@@1@$$QEAV?$tuple@$$V@1@@Z
	??$construct@U?$pair@$$CBV?$basic_string@DU?$char_traits@D@std@@V?$allocator@D@2@@std@@PEAVNode@GetSetInternal@@@std@@AEBUpiecewise_construct_t@2@V?$tuple@AEBV?$basic_string@DU?$char_traits@D@std@@V?$allocator@D@2@@std@@@2@V?$tuple@$$V@2@@?$_Default_allocator_traits@V?$allocator@U?$_Tree_node@U?$pair@$$CBV?$basic_string@DU?$char_traits@D@std@@V?$allocator@D@2@@std@@PEAVNode@GetSetInternal@@@std@@PEAX@std@@@std@@@std@@SAXAEAV?$allocator@U?$_Tree_node@U?$pair@$$CBV?$basic_string@DU?$char_traits@D@std@@V?$allocator@D@2@@std@@PEAVNode@GetSetInternal@@@std@@PEAX@std@@@1@QEAU?$pair@$$CBV?$basic_string@DU?$char_traits@D@std@@V?$allocator@D@2@@std@@PEAVNode@GetSetInternal@@@1@AEBUpiecewise_construct_t@1@$$QEAV?$tuple@AEBV?$basic_string@DU?$char_traits@D@std@@V?$allocator@D@2@@std@@@1@$$QEAV?$tuple@$$V@1@@Z
	??$construct@U?$pair@$$CBV?$basic_string@DU?$char_traits@D@std@@V?$allocator@D@2@@std@@V12@@std@@AEAU12@@?$_Default_allocator_traits@V?$allocator@U?$_Tree_node@U?$pair@$$CBV?$basic_string@DU?$char_traits@D@std@@V?$allocator@D@2@@std@@V12@@std@@PEAX@std@@@std@@@std@@SAXAEAV?$allocator@U?$_Tree_node@U?$pair@$$CBV?$basic_string@DU?$char_traits@D@std@@V?$allocator@D@2@@std@@V12@@std@@PEAX@std@@@1@QEAU?$pair@$$CBV?$basic_string@DU?$char_traits@D@std@@V?$allocator@D@2@@std@@V12@@1@AEAU31@@Z
	??$construct@U?$pair@$$CBV?$basic_string@DU?$char_traits@D@std@@V?$allocator@D@2@@std@@V12@@std@@AEBUpiecewise_construct_t@2@V?$tuple@$$QEAV?$basic_string@DU?$char_traits@D@std@@V?$allocator@D@2@@std@@@2@V?$tuple@$$V@2@@?$_Default_allocator_traits@V?$allocator@U?$_Tree_node@U?$pair@$$CBV?$basic_string@DU?$char_traits@D@std@@V?$allocator@D@2@@std@@V12@@std@@PEAX@std@@@std@@@std@@SAXAEAV?$allocator@U?$_Tree_node@U?$pair@$$CBV?$basic_string@DU?$char_traits@D@std@@V?$allocator@D@2@@std@@V12@@std@@PEAX@std@@@1@QEAU?$pair@$$CBV?$basic_string@DU?$char_traits@D@std@@V?$allocator@D@2@@std@@V12@@1@AEBUpiecewise_construct_t@1@$$QEAV?$tuple@$$QEAV?$basic_string@DU?$char_traits@D@std@@V?$allocator@D@2@@std@@@1@$$QEAV?$tuple@$$V@1@@Z
	??$construct@U?$pair@$$CBV?$basic_string@DU?$char_traits@D@std@@V?$allocator@D@2@@std@@V12@@std@@AEBUpiecewise_construct_t@2@V?$tuple@AEBV?$basic_string@DU?$char_traits@D@std@@V?$allocator@D@2@@std@@@2@V?$tuple@$$V@2@@?$_Default_allocator_traits@V?$allocator@U?$_Tree_node@U?$pair@$$CBV?$basic_string@DU?$char_traits@D@std@@V?$allocator@D@2@@std@@V12@@std@@PEAX@std@@@std@@@std@@SAXAEAV?$allocator@U?$_Tree_node@U?$pair@$$CBV?$basic_string@DU?$char_traits@D@std@@V?$allocator@D@2@@std@@V12@@std@@PEAX@std@@@1@QEAU?$pair@$$CBV?$basic_string@DU?$char_traits@D@std@@V?$allocator@D@2@@std@@V12@@1@AEBUpiecewise_construct_t@1@$$QEAV?$tuple@AEBV?$basic_string@DU?$char_traits@D@std@@V?$allocator@D@2@@std@@@1@$$QEAV?$tuple@$$V@1@@Z
	??$construct@U?$pair@$$CBV?$basic_string@DU?$char_traits@D@std@@V?$allocator@D@2@@std@@V?$map@V?$basic_string@DU?$char_traits@D@std@@V?$allocator@D@2@@std@@V12@U?$less@V?$basic_string@DU?$char_traits@D@std@@V?$allocator@D@2@@std@@@2@V?$allocator@U?$pair@$$CBV?$basic_string@DU?$char_traits@D@std@@V?$allocator@D@2@@std@@V12@@std@@@2@@2@@std@@AEBUpiecewise_construct_t@2@V?$tuple@AEBV?$basic_string@DU?$char_traits@D@std@@V?$allocator@D@2@@std@@@2@V?$tuple@$$V@2@@?$_Default_allocator_traits@V?$allocator@U?$_Tree_node@U?$pair@$$CBV?$basic_string@DU?$char_traits@D@std@@V?$allocator@D@2@@std@@V?$map@V?$basic_string@DU?$char_traits@D@std@@V?$allocator@D@2@@std@@V12@U?$less@V?$basic_string@DU?$char_traits@D@std@@V?$allocator@D@2@@std@@@2@V?$allocator@U?$pair@$$CBV?$basic_string@DU?$char_traits@D@std@@V?$allocator@D@2@@std@@V12@@std@@@2@@2@@std@@PEAX@std@@@std@@@std@@SAXAEAV?$allocator@U?$_Tree_node@U?$pair@$$CBV?$basic_string@DU?$char_traits@D@std@@V?$allocator@D@2@@std@@V?$map@V?$basic_string@DU?$char_traits@D@std@@V?$allocator@D@2@@std@@V12@U?$less@V?$basic_string@DU?$char_traits@D@std@@V?$allocator@D@2@@std@@@2@V?$allocator@U?$pair@$$CBV?$basic_string@DU?$char_traits@D@std@@V?$allocator@D@2@@std@@V12@@std@@@2@@2@@std@@PEAX@std@@@1@QEAU?$pair@$$CBV?$basic_string@DU?$char_traits@D@std@@V?$allocator@D@2@@std@@V?$map@V?$basic_string@DU?$char_traits@D@std@@V?$allocator@D@2@@std@@V12@U?$less@V?$basic_string@DU?$char_traits@D@std@@V?$allocator@D@2@@std@@@2@V?$allocator@U?$pair@$$CBV?$basic_string@DU?$char_traits@D@std@@V?$allocator@D@2@@std@@V12@@std@@@2@@2@@1@AEBUpiecewise_construct_t@1@$$QEAV?$tuple@AEBV?$basic_string@DU?$char_traits@D@std@@V?$allocator@D@2@@std@@@1@$$QEAV?$tuple@$$V@1@@Z
	??$construct@U?$pair@QEAXP6AXAEBV?$basic_string@DU?$char_traits@D@std@@V?$allocator@D@2@@std@@PEAX@Z@std@@AEBUpiecewise_construct_t@2@V?$tuple@AEBQEAX@2@V?$tuple@$$V@2@@?$_Default_allocator_traits@V?$allocator@U?$_Tree_node@U?$pair@QEAXP6AXAEBV?$basic_string@DU?$char_traits@D@std@@V?$allocator@D@2@@std@@PEAX@Z@std@@PEAX@std@@@std@@@std@@SAXAEAV?$allocator@U?$_Tree_node@U?$pair@QEAXP6AXAEBV?$basic_string@DU?$char_traits@D@std@@V?$allocator@D@2@@std@@PEAX@Z@std@@PEAX@std@@@1@QEAU?$pair@QEAXP6AXAEBV?$basic_string@DU?$char_traits@D@std@@V?$allocator@D@2@@std@@PEAX@Z@1@AEBUpiecewise_construct_t@1@$$QEAV?$tuple@AEBQEAX@1@$$QEAV?$tuple@$$V@1@@Z
	??$construct@V?$basic_string@DU?$char_traits@D@std@@V?$allocator@D@2@@std@@AEAV12@@?$_Default_allocator_traits@V?$allocator@V?$basic_string@DU?$char_traits@D@std@@V?$allocator@D@2@@std@@@std@@@std@@SAXAEAV?$allocator@V?$basic_string@DU?$char_traits@D@std@@V?$allocator@D@2@@std@@@1@QEAV?$basic_string@DU?$char_traits@D@std@@V?$allocator@D@2@@1@AEAV31@@Z
	??$construct@V?$basic_string@DU?$char_traits@D@std@@V?$allocator@D@2@@std@@AEBV12@@?$_Default_allocator_traits@V?$allocator@U?$_Tree_node@V?$basic_string@DU?$char_traits@D@std@@V?$allocator@D@2@@std@@PEAX@std@@@std@@@std@@SAXAEAV?$allocator@U?$_Tree_node@V?$basic_string@DU?$char_traits@D@std@@V?$allocator@D@2@@std@@PEAX@std@@@1@QEAV?$basic_string@DU?$char_traits@D@std@@V?$allocator@D@2@@1@AEBV31@@Z
	??$construct@V?$basic_string@DU?$char_traits@D@std@@V?$allocator@D@2@@std@@AEBV12@@?$_Default_allocator_traits@V?$allocator@V?$basic_string@DU?$char_traits@D@std@@V?$allocator@D@2@@std@@@std@@@std@@SAXAEAV?$allocator@V?$basic_string@DU?$char_traits@D@std@@V?$allocator@D@2@@std@@@1@QEAV?$basic_string@DU?$char_traits@D@std@@V?$allocator@D@2@@1@AEBV31@@Z
	??$construct@V?$basic_string@DU?$char_traits@D@std@@V?$allocator@D@2@@std@@V12@@?$_Default_allocator_traits@V?$allocator@V?$basic_string@DU?$char_traits@D@std@@V?$allocator@D@2@@std@@@std@@@std@@SAXAEAV?$allocator@V?$basic_string@DU?$char_traits@D@std@@V?$allocator@D@2@@std@@@1@QEAV?$basic_string@DU?$char_traits@D@std@@V?$allocator@D@2@@1@$$QEAV31@@Z
	??$copy_backward@V?$_Vb_iterator@U?$_Wrap_alloc@V?$allocator@I@std@@@std@@@std@@V12@@std@@YA?AV?$_Vb_iterator@U?$_Wrap_alloc@V?$allocator@I@std@@@std@@@0@V10@00@Z
	??$count@V?$_String_const_iterator@V?$_String_val@U?$_Simple_types@D@std@@@std@@@std@@D@std@@YA_JV?$_String_const_iterator@V?$_String_val@U?$_Simple_types@D@std@@@std@@@0@0AEBD@Z
	??$count@V?$_String_iterator@V?$_String_val@U?$_Simple_types@D@std@@@std@@@std@@D@std@@YA_JV?$_String_iterator@V?$_String_val@U?$_Simple_types@D@std@@@std@@@0@0AEBD@Z
	??$declare@V?$Key@V?$basic_string@DU?$char_traits@D@std@@V?$allocator@D@2@@std@@@GetSetInternal@@V?$basic_string@DU?$char_traits@D@std@@V?$allocator@D@2@@std@@@Section@GetSetGui@@QEBAAEAVNode@GetSetInternal@@AEBV?$basic_string@DU?$char_traits@D@std@@V?$allocator@D@2@@std@@_N0@Z
	??$declare@V?$Key@_N@GetSetInternal@@_N@Section@GetSetGui@@QEBAAEAVNode@GetSetInternal@@AEBV?$basic_string@DU?$char_traits@D@std@@V?$allocator@D@2@@std@@_NAEB_N@Z
	??$declare@VKeyButton@GetSetInternal@@V?$basic_string@DU?$char_traits@D@std@@V?$allocator@D@2@@std@@@Section@GetSetGui@@QEBAAEAVNode@GetSetInternal@@AEBV?$basic_string@DU?$char_traits@D@std@@V?$allocator@D@2@@std@@_N0@Z
	??$default_value@D@@YADXZ
	??$default_value@E@@YAEXZ
	??$default_value@F@@YAFXZ
	??$default_value@G@@YAGXZ
	??$default_value@H@@YAHXZ
	??$default_value@I@@YAIXZ
	??$default_value@J@@YAJXZ
	??$default_value@K@@YAKXZ
	??$default_value@M@@YAMXZ
	??$default_value@N@@YANXZ
	??$default_value@V?$basic_string@DU?$char_traits@D@std@@V?$allocator@D@2@@std@@@@YA?AV?$basic_string@DU?$char_traits@D@std@@V?$allocator@D@2@@std@@XZ
	??$default_value@V?$vector@DV?$allocator@D@std@@@std@@@@YA?AV?$vector@DV?$allocator@D@std@@@std@@XZ
	??$default_value@V?$vector@EV?$allocator@E@std@@@std@@@@YA?AV?$vector@EV?$allocator@E@std@@@std@@XZ
	??$default_value@V?$vector@FV?$allocator@F@std@@@std@@@@YA?AV?$vector@FV?$allocator@F@std@@@std@@XZ
	??$default_value@V?$vector@GV?$allocator@G@std@@@std@@@@YA?AV?$vector@GV?$allocator@G@std@@@std@@XZ
	??$default_value@V?$vector@HV?$allocator@H@std@@@std@@@@YA?AV?$vector@HV?$allocator@H@std@@@std@@XZ
	??$default_value@V?$vector@IV?$allocator@I@std@@@std@@@@YA?AV?$vector@IV?$allocator@I@std@@@std@@XZ
	??$default_value@V?$vector@JV?$allocator@J@std@@@std@@@@YA?AV?$vector@JV?$allocator@J@std@@@std@@XZ
	??$default_value@V?$vector@KV?$allocator@K@std@@@std@@@@YA?AV?$vector@KV?$allocator@K@std@@@std@@XZ
	??$default_value@V?$vector@MV?$allocator@M@std@@@std@@@@YA?AV?$vector@MV?$allocator@M@std@@@std@@XZ
	??$default_value@V?$vector@NV?$allocator@N@std@@@std@@@@YA?AV?$vector@NV?$allocator@N@std@@@std@@XZ
	??$default_value@V?$vector@V?$basic_string@DU?$char_traits@D@std@@V?$allocator@D@2@@std@@V?$allocator@V?$basic_string@DU?$char_traits@D@std@@V?$allocator@D@2@@std@@@2@@std@@@@YA?AV?$vector@V?$basic_string@DU?$char_traits@D@std@@V?$allocator@D@2@@std@@V?$allocator@V?$basic_string@DU?$char_traits@D@std@@V?$allocator@D@2@@std@@@2@@std@@XZ
	??$default_value@V?$vector@_NV?$allocator@_N@std@@@std@@@@YA?AV?$vector@_NV?$allocator@_N@std@@@std@@XZ
	??$default_value@_N@@YA_NXZ
	??$destroy@PEAUObserver@Dictionary@GetSetInternal@@@?$_Default_allocator_traits@V?$allocator@U?$_Tree_node@PEAUObserver@Dictionary@GetSetInternal@@PEAX@std@@@std@@@std@@SAXAEAV?$allocator@U?$_Tree_node@PEAUObserver@Dictionary@GetSetInternal@@PEAX@std@@@1@QEAPEAUObserver@Dictionary@GetSetInternal@@@Z
	??$destroy@U?$pair@$$CBEE@std@@@?$_Default_allocator_traits@V?$allocator@U?$_Tree_node@U?$pair@$$CBEE@std@@PEAX@std@@@std@@@std@@SAXAEAV?$allocator@U?$_Tree_node@U?$pair@$$CBEE@std@@PEAX@std@@@1@QEAU?$pair@$$CBEE@1@@Z
	??$destroy@U?$pair@$$CBV?$basic_string@DU?$char_traits@D@std@@V?$allocator@D@2@@std@@P6APEAVObject@GetSetGui@@AEBVSection@4@AEAVProgressInterface@4@@Z@std@@@?$_Default_allocator_traits@V?$allocator@U?$_Tree_node@U?$pair@$$CBV?$basic_string@DU?$char_traits@D@std@@V?$allocator@D@2@@std@@P6APEAVObject@GetSetGui@@AEBVSection@4@AEAVProgressInterface@4@@Z@std@@PEAX@std@@@std@@@std@@SAXAEAV?$allocator@U?$_Tree_node@U?$pair@$$CBV?$basic_string@DU?$char_traits@D@std@@V?$allocator@D@2@@std@@P6APEAVObject@GetSetGui@@AEBVSection@4@AEAVProgressInterface@4@@Z@std@@PEAX@std@@@1@QEAU?$pair@$$CBV?$basic_string@DU?$char_traits@D@std@@V?$allocator@D@2@@std@@P6APEAVObject@GetSetGui@@AEBVSection@4@AEAVProgressInterface@4@@Z@1@@Z
	??$destroy@U?$pair@$$CBV?$basic_string@DU?$char_traits@D@std@@V?$allocator@D@2@@std@@PEAVNode@GetSetInternal@@@std@@@?$_Default_allocator_traits@V?$allocator@U?$_Tree_node@U?$pair@$$CBV?$basic_string@DU?$char_traits@D@std@@V?$allocator@D@2@@std@@PEAVNode@GetSetInternal@@@std@@PEAX@std@@@std@@@std@@SAXAEAV?$allocator@U?$_Tree_node@U?$pair@$$CBV?$basic_string@DU?$char_traits@D@std@@V?$allocator@D@2@@std@@PEAVNode@GetSetInternal@@@std@@PEAX@std@@@1@QEAU?$pair@$$CBV?$basic_string@DU?$char_traits@D@std@@V?$allocator@D@2@@std@@PEAVNode@GetSetInternal@@@1@@Z
	??$destroy@U?$pair@$$CBV?$basic_string@DU?$char_traits@D@std@@V?$allocator@D@2@@std@@V12@@std@@@?$_Default_allocator_traits@V?$allocator@U?$_Tree_node@U?$pair@$$CBV?$basic_string@DU?$char_traits@D@std@@V?$allocator@D@2@@std@@V12@@std@@PEAX@std@@@std@@@std@@SAXAEAV?$allocator@U?$_Tree_node@U?$pair@$$CBV?$basic_string@DU?$char_traits@D@std@@V?$allocator@D@2@@std@@V12@@std@@PEAX@std@@@1@QEAU?$pair@$$CBV?$basic_string@DU?$char_traits@D@std@@V?$allocator@D@2@@std@@V12@@1@@Z
	??$destroy@U?$pair@$$CBV?$basic_string@DU?$char_traits@D@std@@V?$allocator@D@2@@std@@V?$map@V?$basic_string@DU?$char_traits@D@std@@V?$allocator@D@2@@std@@V12@U?$less@V?$basic_string@DU?$char_traits@D@std@@V?$allocator@D@2@@std@@@2@V?$allocator@U?$pair@$$CBV?$basic_string@DU?$char_traits@D@std@@V?$allocator@D@2@@std@@V12@@std@@@2@@2@@std@@@?$_Default_allocator_traits@V?$allocator@U?$_Tree_node@U?$pair@$$CBV?$basic_string@DU?$char_traits@D@std@@V?$allocator@D@2@@std@@V?$map@V?$basic_string@DU?$char_traits@D@std@@V?$allocator@D@2@@std@@V12@U?$less@V?$basic_string@DU?$char_traits@D@std@@V?$allocator@D@2@@std@@@2@V?$allocator@U?$pair@$$CBV?$basic_string@DU?$char_traits@D@std@@V?$allocator@D@2@@std@@V12@@std@@@2@@2@@std@@PEAX@std@@@std@@@std@@SAXAEAV?$allocator@U?$_Tree_node@U?$pair@$$CBV?$basic_string@DU?$char_traits@D@std@@V?$allocator@D@2@@std@@V?$map@V?$basic_string@DU?$char_traits@D@std@@V?$allocator@D@2@@std@@V12@U?$less@V?$basic_string@DU?$char_traits@D@std@@V?$allocator@D@2@@std@@@2@V?$allocator@U?$pair@$$CBV?$basic_string@DU?$char_traits@D@std@@V?$allocator@D@2@@std@@V12@@std@@@2@@2@@std@@PEAX@std@@@1@QEAU?$pair@$$CBV?$basic_string@DU?$char_traits@D@std@@V?$allocator@D@2@@std@@V?$map@V?$basic_string@DU?$char_traits@D@std@@V?$allocator@D@2@@std@@V12@U?$less@V?$basic_string@DU?$char_traits@D@std@@V?$allocator@D@2@@std@@@2@V?$allocator@U?$pair@$$CBV?$basic_string@DU?$char_traits@D@std@@V?$allocator@D@2@@std@@V12@@std@@@2@@2@@1@@Z
	??$destroy@U?$pair@QEAXP6AXAEBV?$basic_string@DU?$char_traits@D@std@@V?$allocator@D@2@@std@@PEAX@Z@std@@@?$_Default_allocator_traits@V?$allocator@U?$_Tree_node@U?$pair@QEAXP6AXAEBV?$basic_string@DU?$char_traits@D@std@@V?$allocator@D@2@@std@@PEAX@Z@std@@PEAX@std@@@std@@@std@@SAXAEAV?$allocator@U?$_Tree_node@U?$pair@QEAXP6AXAEBV?$basic_string@DU?$char_traits@D@std@@V?$allocator@D@2@@std@@PEAX@Z@std@@PEAX@std@@@1@QEAU?$pair@QEAXP6AXAEBV?$basic_string@DU?$char_traits@D@std@@V?$allocator@D@2@@std@@PEAX@Z@1@@Z
	??$destroy@V?$basic_string@DU?$char_traits@D@std@@V?$allocator@D@2@@std@@@?$_Default_allocator_traits@V?$allocator@U?$_Tree_node@V?$basic_string@DU?$char_traits@D@std@@V?$allocator@D@2@@std@@PEAX@std@@@std@@@std@@SAXAEAV?$allocator@U?$_Tree_node@V?$basic_string@DU?$char_traits@D@std@@V?$allocator@D@2@@std@@PEAX@std@@@1@QEAV?$basic_string@DU?$char_traits@D@std@@V?$allocator@D@2@@1@@Z
	??$destroy@V?$basic_string@DU?$char_traits@D@std@@V?$allocator@D@2@@std@@@?$_Default_allocator_traits@V?$allocator@V?$basic_string@DU?$char_traits@D@std@@V?$allocator@D@2@@std@@@std@@@std@@SAXAEAV?$allocator@V?$basic_string@DU?$char_traits@D@std@@V?$allocator@D@2@@std@@@1@QEAV?$basic_string@DU?$char_traits@D@std@@V?$allocator@D@2@@1@@Z
	??$distance@V?$_Tree_unchecked_const_iterator@V?$_Tree_val@U?$_Tree_simple_types@PEAUObserver@Dictionary@GetSetInternal@@@std@@@std@@U_Iterator_base0@2@@std@@@std@@YA_JV?$_Tree_unchecked_const_iterator@V?$_Tree_val@U?$_Tree_simple_types@PEAUObserver@Dictionary@GetSetInternal@@@std@@@std@@U_Iterator_base0@2@@0@0@Z
	??$distance@V?$_Tree_unchecked_const_iterator@V?$_Tree_val@U?$_Tree_simple_types@V?$basic_string@DU?$char_traits@D@std@@V?$allocator@D@2@@std@@@std@@@std@@U_Iterator_base0@2@@std@@@std@@YA_JV?$_Tree_unchecked_const_iterator@V?$_Tree_val@U?$_Tree_simple_types@V?$basic_string@DU?$char_traits@D@std@@V?$allocator@D@2@@std@@@std@@@std@@U_Iterator_base0@2@@0@0@Z
	??$endl@DU?$char_traits@D@std@@@std@@YAAEAV?$basic_ostream@DU?$char_traits@D@std@@@0@AEAV10@@Z
	??$erase@V?$_Tree_iterator@V?$_Tree_val@U?$_Tree_simple_types@U?$pair@$$CBV?$basic_string@DU?$char_traits@D@std@@V?$allocator@D@2@@std@@P6APEAVObject@GetSetGui@@AEBVSection@4@AEAVProgressInterface@4@@Z@std@@@std@@@std@@@std@@$0A@@?$_Tree@V?$_Tmap_traits@V?$basic_string@DU?$char_traits@D@std@@V?$allocator@D@2@@std@@P6APEAVObject@GetSetGui@@AEBVSection@4@AEAVProgressInterface@4@@ZU?$less@V?$basic_string@DU?$char_traits@D@std@@V?$allocator@D@2@@std@@@2@V?$allocator@U?$pair@$$CBV?$basic_string@DU?$char_traits@D@std@@V?$allocator@D@2@@std@@P6APEAVObject@GetSetGui@@AEBVSection@4@AEAVProgressInterface@4@@Z@std@@@2@$0A@@std@@@std@@QEAA?AV?$_Tree_iterator@V?$_Tree_val@U?$_Tree_simple_types@U?$pair@$$CBV?$basic_string@DU?$char_traits@D@std@@V?$allocator@D@2@@std@@P6APEAVObject@GetSetGui@@AEBVSection@4@AEAVProgressInterface@4@@Z@std@@@std@@@std@@@1@V21@@Z
	??$erase@V?$_Tree_iterator@V?$_Tree_val@U?$_Tree_simple_types@U?$pair@$$CBV?$basic_string@DU?$char_traits@D@std@@V?$allocator@D@2@@std@@PEAVNode@GetSetInternal@@@std@@@std@@@std@@@std@@$0A@@?$_Tree@V?$_Tmap_traits@V?$basic_string@DU?$char_traits@D@std@@V?$allocator@D@2@@std@@PEAVNode@GetSetInternal@@U?$less@V?$basic_string@DU?$char_traits@D@std@@V?$allocator@D@2@@std@@@2@V?$allocator@U?$pair@$$CBV?$basic_string@DU?$char_traits@D@std@@V?$allocator@D@2@@std@@PEAVNode@GetSetInternal@@@std@@@2@$0A@@std@@@std@@QEAA?AV?$_Tree_iterator@V?$_Tree_val@U?$_Tree_simple_types@U?$pair@$$CBV?$basic_string@DU?$char_traits@D@std@@V?$allocator@D@2@@std@@PEAVNode@GetSetInternal@@@std@@@std@@@std@@@1@V21@@Z
	??$erase@V?$_Tree_iterator@V?$_Tree_val@U?$_Tree_simple_types@U?$pair@$$CBV?$basic_string@DU?$char_traits@D@std@@V?$allocator@D@2@@std@@V12@@std@@@std@@@std@@@std@@$0A@@?$_Tree@V?$_Tmap_traits@V?$basic_string@DU?$char_traits@D@std@@V?$allocator@D@2@@std@@V12@U?$less@V?$basic_string@DU?$char_traits@D@std@@V?$allocator@D@2@@std@@@2@V?$allocator@U?$pair@$$CBV?$basic_string@DU?$char_traits@D@std@@V?$allocator@D@2@@std@@V12@@std@@@2@$0A@@std@@@std@@QEAA?AV?$_Tree_iterator@V?$_Tree_val@U?$_Tree_simple_types@U?$pair@$$CBV?$basic_string@DU?$char_traits@D@std@@V?$allocator@D@2@@std@@V12@@std@@@std@@@std@@@1@V21@@Z
	??$erase@V?$_Tree_iterator@V?$_Tree_val@U?$_Tree_simple_types@U?$pair@QEAXP6AXAEBV?$basic_string@DU?$char_traits@D@std@@V?$allocator@D@2@@std@@PEAX@Z@std@@@std@@@std@@@std@@$0A@@?$_Tree@V?$_Tmap_traits@PEAXP6AXAEBV?$basic_string@DU?$char_traits@D@std@@V?$allocator@D@2@@std@@PEAX@ZU?$less@PEAX@2@V?$allocator@U?$pair@QEAXP6AXAEBV?$basic_string@DU?$char_traits@D@std@@V?$allocator@D@2@@std@@PEAX@Z@std@@@2@$0A@@std@@@std@@QEAA?AV?$_Tree_iterator@V?$_Tree_val@U?$_Tree_simple_types@U?$pair@QEAXP6AXAEBV?$basic_string@DU?$char_traits@D@std@@V?$allocator@D@2@@std@@PEAX@Z@std@@@std@@@std@@@1@V21@@Z
	??$exchange@PEAD$$T@std@@YAPEADAEAPEAD$$QEA$$T@Z
	??$exchange@PEAE$$T@std@@YAPEAEAEAPEAE$$QEA$$T@Z
	??$exchange@PEAF$$T@std@@YAPEAFAEAPEAF$$QEA$$T@Z
	??$exchange@PEAG$$T@std@@YAPEAGAEAPEAG$$QEA$$T@Z
	??$exchange@PEAH$$T@std@@YAPEAHAEAPEAH$$QEA$$T@Z
	??$exchange@PEAI$$T@std@@YAPEAIAEAPEAI$$QEA$$T@Z
	??$exchange@PEAJ$$T@std@@YAPEAJAEAPEAJ$$QEA$$T@Z
	??$exchange@PEAK$$T@std@@YAPEAKAEAPEAK$$QEA$$T@Z
	??$exchange@PEAM$$T@std@@YAPEAMAEAPEAM$$QEA$$T@Z
	??$exchange@PEAN$$T@std@@YAPEANAEAPEAN$$QEA$$T@Z
	??$exchange@PEAU?$_Tree_node@PEAUObserver@Dictionary@GetSetInternal@@PEAX@std@@$$T@std@@YAPEAU?$_Tree_node@PEAUObserver@Dictionary@GetSetInternal@@PEAX@0@AEAPEAU10@$$QEA$$T@Z
	??$exchange@PEAU?$_Tree_node@PEAUObserver@Dictionary@GetSetInternal@@PEAX@std@@AEAPEAU12@@std@@YAPEAU?$_Tree_node@PEAUObserver@Dictionary@GetSetInternal@@PEAX@0@AEAPEAU10@0@Z
	??$exchange@PEAU?$_Tree_node@U?$pair@$$CBEE@std@@PEAX@std@@$$T@std@@YAPEAU?$_Tree_node@U?$pair@$$CBEE@std@@PEAX@0@AEAPEAU10@$$QEA$$T@Z
	??$exchange@PEAU?$_Tree_node@U?$pair@$$CBEE@std@@PEAX@std@@AEAPEAU12@@std@@YAPEAU?$_Tree_node@U?$pair@$$CBEE@std@@PEAX@0@AEAPEAU10@0@Z
	??$exchange@PEAU?$_Tree_node@U?$pair@$$CBV?$basic_string@DU?$char_traits@D@std@@V?$allocator@D@2@@std@@P6APEAVObject@GetSetGui@@AEBVSection@4@AEAVProgressInterface@4@@Z@std@@PEAX@std@@$$T@std@@YAPEAU?$_Tree_node@U?$pair@$$CBV?$basic_string@DU?$char_traits@D@std@@V?$allocator@D@2@@std@@P6APEAVObject@GetSetGui@@AEBVSection@4@AEAVProgressInterface@4@@Z@std@@PEAX@0@AEAPEAU10@$$QEA$$T@Z
	??$exchange@PEAU?$_Tree_node@U?$pair@$$CBV?$basic_string@DU?$char_traits@D@std@@V?$allocator@D@2@@std@@P6APEAVObject@GetSetGui@@AEBVSection@4@AEAVProgressInterface@4@@Z@std@@PEAX@std@@AEAPEAU12@@std@@YAPEAU?$_Tree_node@U?$pair@$$CBV?$basic_string@DU?$char_traits@D@std@@V?$allocator@D@2@@std@@P6APEAVObject@GetSetGui@@AEBVSection@4@AEAVProgressInterface@4@@Z@std@@PEAX@0@AEAPEAU10@0@Z
	??$exchange@PEAU?$_Tree_node@U?$pair@$$CBV?$basic_string@DU?$char_traits@D@std@@V?$allocator@D@2@@std@@PEAVNode@GetSetInternal@@@std@@PEAX@std@@$$T@std@@YAPEAU?$_Tree_node@U?$pair@$$CBV?$basic_string@DU?$char_traits@D@std@@V?$allocator@D@2@@std@@PEAVNode@GetSetInternal@@@std@@PEAX@0@AEAPEAU10@$$QEA$$T@Z
	??$exchange@PEAU?$_Tree_node@U?$pair@$$CBV?$basic_string@DU?$char_traits@D@std@@V?$allocator@D@2@@std@@PEAVNode@GetSetInternal@@@std@@PEAX@std@@AEAPEAU12@@std@@YAPEAU?$_Tree_node@U?$pair@$$CBV?$basic_string@DU?$char_traits@D@std@@V?$allocator@D@2@@std@@PEAVNode@GetSetInternal@@@std@@PEAX@0@AEAPEAU10@0@Z
	??$exchange@PEAU?$_Tree_node@U?$pair@$$CBV?$basic_string@DU?$char_traits@D@std@@V?$allocator@D@2@@std@@V12@@std@@PEAX@std@@$$T@std@@YAPEAU?$_Tree_node@U?$pair@$$CBV?$basic_string@DU?$char_traits@D@std@@V?$allocator@D@2@@std@@V12@@std@@PEAX@0@AEAPEAU10@$$QEA$$T@Z
	??$exchange@PEAU?$_Tree_node@U?$pair@$$CBV?$basic_string@DU?$char_traits@D@std@@V?$allocator@D@2@@std@@V12@@std@@PEAX@std@@AEAPEAU12@@std@@YAPEAU?$_Tree_node@U?$pair@$$CBV?$basic_string@DU?$char_traits@D@std@@V?$allocator@D@2@@std@@V12@@std@@PEAX@0@AEAPEAU10@0@Z
	??$exchange@PEAU?$_Tree_node@U?$pair@$$CBV?$basic_string@DU?$char_traits@D@std@@V?$allocator@D@2@@std@@V?$map@V?$basic_string@DU?$char_traits@D@std@@V?$allocator@D@2@@std@@V12@U?$less@V?$basic_string@DU?$char_traits@D@std@@V?$allocator@D@2@@std@@@2@V?$allocator@U?$pair@$$CBV?$basic_string@DU?$char_traits@D@std@@V?$allocator@D@2@@std@@V12@@std@@@2@@2@@std@@PEAX@std@@$$T@std@@YAPEAU?$_Tree_node@U?$pair@$$CBV?$basic_string@DU?$char_traits@D@std@@V?$allocator@D@2@@std@@V?$map@V?$basic_string@DU?$char_traits@D@std@@V?$allocator@D@2@@std@@V12@U?$less@V?$basic_string@DU?$char_traits@D@std@@V?$allocator@D@2@@std@@@2@V?$allocator@U?$pair@$$CBV?$basic_string@DU?$char_traits@D@std@@V?$allocator@D@2@@std@@V12@@std@@@2@@2@@std@@PEAX@0@AEAPEAU10@$$QEA$$T@Z
	??$exchange@PEAU?$_Tree_node@U?$pair@$$CBV?$basic_string@DU?$char_traits@D@std@@V?$allocator@D@2@@std@@V?$map@V?$basic_string@DU?$char_traits@D@std@@V?$allocator@D@2@@std@@V12@U?$less@V?$basic_string@DU?$char_traits@D@std@@V?$allocator@D@2@@std@@@2@V?$allocator@U?$pair@$$CBV?$basic_string@DU?$char_traits@D@std@@V?$allocator@D@2@@std@@V12@@std@@@2@@2@@std@@PEAX@std@@AEAPEAU12@@std@@YAPEAU?$_Tree_node@U?$pair@$$CBV?$basic_string@DU?$char_traits@D@std@@V?$allocator@D@2@@std@@V?$map@V?$basic_string@DU?$char_traits@D@std@@V?$allocator@D@2@@std@@V12@U?$less@V?$basic_string@DU?$char_traits@D@std@@V?$allocator@D@2@@std@@@2@V?$allocator@U?$pair@$$CBV?$basic_string@DU?$char_traits@D@std@@V?$allocator@D@2@@std@@V12@@std@@@2@@2@@std@@PEAX@0@AEAPEAU10@0@Z
	??$exchange@PEAU?$_Tree_node@U?$pair@QEAXP6AXAEBV?$basic_string@DU?$char_traits@D@std@@V?$allocator@D@2@@std@@PEAX@Z@std@@PEAX@std@@$$T@std@@YAPEAU?$_Tree_node@U?$pair@QEAXP6AXAEBV?$basic_string@DU?$char_traits@D@std@@V?$allocator@D@2@@std@@PEAX@Z@std@@PEAX@0@AEAPEAU10@$$QEA$$T@Z
	??$exchange@PEAU?$_Tree_node@U?$pair@QEAXP6AXAEBV?$basic_string@DU?$char_traits@D@std@@V?$allocator@D@2@@std@@PEAX@Z@std@@PEAX@std@@AEAPEAU12@@std@@YAPEAU?$_Tree_node@U?$pair@QEAXP6AXAEBV?$basic_string@DU?$char_traits@D@std@@V?$allocator@D@2@@std@@PEAX@Z@std@@PEAX@0@AEAPEAU10@0@Z
	??$exchange@PEAU?$_Tree_node@V?$basic_string@DU?$char_traits@D@std@@V?$allocator@D@2@@std@@PEAX@std@@$$T@std@@YAPEAU?$_Tree_node@V?$basic_string@DU?$char_traits@D@std@@V?$allocator@D@2@@std@@PEAX@0@AEAPEAU10@$$QEA$$T@Z
	??$exchange@PEAU?$_Tree_node@V?$basic_string@DU?$char_traits@D@std@@V?$allocator@D@2@@std@@PEAX@std@@AEAPEAU12@@std@@YAPEAU?$_Tree_node@V?$basic_string@DU?$char_traits@D@std@@V?$allocator@D@2@@std@@PEAX@0@AEAPEAU10@0@Z
	??$exchange@PEAV?$basic_string@DU?$char_traits@D@std@@V?$allocator@D@2@@std@@$$T@std@@YAPEAV?$basic_string@DU?$char_traits@D@std@@V?$allocator@D@2@@0@AEAPEAV10@$$QEA$$T@Z
	??$exchange@PEAV_Facet_base@std@@$$T@std@@YAPEAV_Facet_base@0@AEAPEAV10@$$QEA$$T@Z
	??$exchange@_K_K@std@@YA_KAEA_K$$QEA_K@Z
	??$fill_n@V?$_Vb_iterator@U?$_Wrap_alloc@V?$allocator@I@std@@@std@@@std@@_K_N@std@@YA?AV?$_Vb_iterator@U?$_Wrap_alloc@V?$allocator@I@std@@@std@@@0@V10@_KAEB_N@Z
	??$forward@AEAD@std@@YAAEADAEAD@Z
	??$forward@AEAE@std@@YAAEAEAEAE@Z
	??$forward@AEAF@std@@YAAEAFAEAF@Z
	??$forward@AEAG@std@@YAAEAGAEAG@Z
	??$forward@AEAH@std@@YAAEAHAEAH@Z
	??$forward@AEAI@std@@YAAEAIAEAI@Z
	??$forward@AEAJ@std@@YAAEAJAEAJ@Z
	??$forward@AEAK@std@@YAAEAKAEAK@Z
	??$forward@AEAM@std@@YAAEAMAEAM@Z
	??$forward@AEAN@std@@YAAEANAEAN@Z
	??$forward@AEAPEAD@std@@YAAEAPEADAEAPEAD@Z
	??$forward@AEAPEAU?$_Tree_node@PEAUObserver@Dictionary@GetSetInternal@@PEAX@std@@@std@@YAAEAPEAU?$_Tree_node@PEAUObserver@Dictionary@GetSetInternal@@PEAX@0@AEAPEAU10@@Z
	??$forward@AEAPEAU?$_Tree_node@U?$pair@$$CBEE@std@@PEAX@std@@@std@@YAAEAPEAU?$_Tree_node@U?$pair@$$CBEE@std@@PEAX@0@AEAPEAU10@@Z
	??$forward@AEAPEAU?$_Tree_node@U?$pair@$$CBV?$basic_string@DU?$char_traits@D@std@@V?$allocator@D@2@@std@@P6APEAVObject@GetSetGui@@AEBVSection@4@AEAVProgressInterface@4@@Z@std@@PEAX@std@@@std@@YAAEAPEAU?$_Tree_node@U?$pair@$$CBV?$basic_string@DU?$char_traits@D@std@@V?$allocator@D@2@@std@@P6APEAVObject@GetSetGui@@AEBVSection@4@AEAVProgressInterface@4@@Z@std@@PEAX@0@AEAPEAU10@@Z
	??$forward@AEAPEAU?$_Tree_node@U?$pair@$$CBV?$basic_string@DU?$char_traits@D@std@@V?$allocator@D@2@@std@@PEAVNode@GetSetInternal@@@std@@PEAX@std@@@std@@YAAEAPEAU?$_Tree_node@U?$pair@$$CBV?$basic_string@DU?$char_traits@D@std@@V?$allocator@D@2@@std@@PEAVNode@GetSetInternal@@@std@@PEAX@0@AEAPEAU10@@Z
	??$forward@AEAPEAU?$_Tree_node@U?$pair@$$CBV?$basic_string@DU?$char_traits@D@std@@V?$allocator@D@2@@std@@V12@@std@@PEAX@std@@@std@@YAAEAPEAU?$_Tree_node@U?$pair@$$CBV?$basic_string@DU?$char_traits@D@std@@V?$allocator@D@2@@std@@V12@@std@@PEAX@0@AEAPEAU10@@Z
	??$forward@AEAPEAU?$_Tree_node@U?$pair@$$CBV?$basic_string@DU?$char_traits@D@std@@V?$allocator@D@2@@std@@V?$map@V?$basic_string@DU?$char_traits@D@std@@V?$allocator@D@2@@std@@V12@U?$less@V?$basic_string@DU?$char_traits@D@std@@V?$allocator@D@2@@std@@@2@V?$allocator@U?$pair@$$CBV?$basic_string@DU?$char_traits@D@std@@V?$allocator@D@2@@std@@V12@@std@@@2@@2@@std@@PEAX@std@@@std@@YAAEAPEAU?$_Tree_node@U?$pair@$$CBV?$basic_string@DU?$char_traits@D@std@@V?$allocator@D@2@@std@@V?$map@V?$basic_string@DU?$char_traits@D@std@@V?$allocator@D@2@@std@@V12@U?$less@V?$basic_string@DU?$char_traits@D@std@@V?$allocator@D@2@@std@@@2@V?$allocator@U?$pair@$$CBV?$basic_string@DU?$char_traits@D@std@@V?$allocator@D@2@@std@@V12@@std@@@2@@2@@std@@PEAX@0@AEAPEAU10@@Z
	??$forward@AEAPEAU?$_Tree_node@U?$pair@QEAXP6AXAEBV?$basic_string@DU?$char_traits@D@std@@V?$allocator@D@2@@std@@PEAX@Z@std@@PEAX@std@@@std@@YAAEAPEAU?$_Tree_node@U?$pair@QEAXP6AXAEBV?$basic_string@DU?$char_traits@D@std@@V?$allocator@D@2@@std@@PEAX@Z@std@@PEAX@0@AEAPEAU10@@Z
	??$forward@AEAPEAU?$_Tree_node@V?$basic_string@DU?$char_traits@D@std@@V?$allocator@D@2@@std@@PEAX@std@@@std@@YAAEAPEAU?$_Tree_node@V?$basic_string@DU?$char_traits@D@std@@V?$allocator@D@2@@std@@PEAX@0@AEAPEAU10@@Z
	??$forward@AEAPEAV_Facet_base@std@@@std@@YAAEAPEAV_Facet_base@0@AEAPEAV10@@Z
	??$forward@AEAPEBD@std@@YAAEAPEBDAEAPEBD@Z
	??$forward@AEAU?$pair@$$CBV?$basic_string@DU?$char_traits@D@std@@V?$allocator@D@2@@std@@V12@@std@@@std@@YAAEAU?$pair@$$CBV?$basic_string@DU?$char_traits@D@std@@V?$allocator@D@2@@std@@V12@@0@AEAU10@@Z
	??$forward@AEAV?$_String_const_iterator@V?$_String_val@U?$_Simple_types@D@std@@@std@@@std@@@std@@YAAEAV?$_String_const_iterator@V?$_String_val@U?$_Simple_types@D@std@@@std@@@0@AEAV10@@Z
	??$forward@AEAV?$allocator@D@std@@@std@@YAAEAV?$allocator@D@0@AEAV10@@Z
	??$forward@AEAV?$basic_string@DU?$char_traits@D@std@@V?$allocator@D@2@@std@@@std@@YAAEAV?$basic_string@DU?$char_traits@D@std@@V?$allocator@D@2@@0@AEAV10@@Z
	??$forward@AEBI@std@@YAAEBIAEBI@Z
	??$forward@AEBQEAD@std@@YAAEBQEADAEBQEAD@Z
	??$forward@AEBQEAE@std@@YAAEBQEAEAEBQEAE@Z
	??$forward@AEBQEAF@std@@YAAEBQEAFAEBQEAF@Z
	??$forward@AEBQEAG@std@@YAAEBQEAGAEBQEAG@Z
	??$forward@AEBQEAH@std@@YAAEBQEAHAEBQEAH@Z
	??$forward@AEBQEAI@std@@YAAEBQEAIAEBQEAI@Z
	??$forward@AEBQEAJ@std@@YAAEBQEAJAEBQEAJ@Z
	??$forward@AEBQEAK@std@@YAAEBQEAKAEBQEAK@Z
	??$forward@AEBQEAM@std@@YAAEBQEAMAEBQEAM@Z
	??$forward@AEBQEAN@std@@YAAEBQEANAEBQEAN@Z
	??$forward@AEBQEAU?$_Tree_node@PEAUObserver@Dictionary@GetSetInternal@@PEAX@std@@@std@@YAAEBQEAU?$_Tree_node@PEAUObserver@Dictionary@GetSetInternal@@PEAX@0@AEBQEAU10@@Z
	??$forward@AEBQEAU?$_Tree_node@U?$pair@$$CBEE@std@@PEAX@std@@@std@@YAAEBQEAU?$_Tree_node@U?$pair@$$CBEE@std@@PEAX@0@AEBQEAU10@@Z
	??$forward@AEBQEAU?$_Tree_node@U?$pair@$$CBV?$basic_string@DU?$char_traits@D@std@@V?$allocator@D@2@@std@@P6APEAVObject@GetSetGui@@AEBVSection@4@AEAVProgressInterface@4@@Z@std@@PEAX@std@@@std@@YAAEBQEAU?$_Tree_node@U?$pair@$$CBV?$basic_string@DU?$char_traits@D@std@@V?$allocator@D@2@@std@@P6APEAVObject@GetSetGui@@AEBVSection@4@AEAVProgressInterface@4@@Z@std@@PEAX@0@AEBQEAU10@@Z
	??$forward@AEBQEAU?$_Tree_node@U?$pair@$$CBV?$basic_string@DU?$char_traits@D@std@@V?$allocator@D@2@@std@@PEAVNode@GetSetInternal@@@std@@PEAX@std@@@std@@YAAEBQEAU?$_Tree_node@U?$pair@$$CBV?$basic_string@DU?$char_traits@D@std@@V?$allocator@D@2@@std@@PEAVNode@GetSetInternal@@@std@@PEAX@0@AEBQEAU10@@Z
	??$forward@AEBQEAU?$_Tree_node@U?$pair@$$CBV?$basic_string@DU?$char_traits@D@std@@V?$allocator@D@2@@std@@V12@@std@@PEAX@std@@@std@@YAAEBQEAU?$_Tree_node@U?$pair@$$CBV?$basic_string@DU?$char_traits@D@std@@V?$allocator@D@2@@std@@V12@@std@@PEAX@0@AEBQEAU10@@Z
	??$forward@AEBQEAU?$_Tree_node@U?$pair@$$CBV?$basic_string@DU?$char_traits@D@std@@V?$allocator@D@2@@std@@V?$map@V?$basic_string@DU?$char_traits@D@std@@V?$allocator@D@2@@std@@V12@U?$less@V?$basic_string@DU?$char_traits@D@std@@V?$allocator@D@2@@std@@@2@V?$allocator@U?$pair@$$CBV?$basic_string@DU?$char_traits@D@std@@V?$allocator@D@2@@std@@V12@@std@@@2@@2@@std@@PEAX@std@@@std@@YAAEBQEAU?$_Tree_node@U?$pair@$$CBV?$basic_string@DU?$char_traits@D@std@@V?$allocator@D@2@@std@@V?$map@V?$basic_string@DU?$char_traits@D@std@@V?$allocator@D@2@@std@@V12@U?$less@V?$basic_string@DU?$char_traits@D@std@@V?$allocator@D@2@@std@@@2@V?$allocator@U?$pair@$$CBV?$basic_string@DU?$char_traits@D@std@@V?$allocator@D@2@@std@@V12@@std@@@2@@2@@std@@PEAX@0@AEBQEAU10@@Z
	??$forward@AEBQEAU?$_Tree_node@U?$pair@QEAXP6AXAEBV?$basic_string@DU?$char_traits@D@std@@V?$allocator@D@2@@std@@PEAX@Z@std@@PEAX@std@@@std@@YAAEBQEAU?$_Tree_node@U?$pair@QEAXP6AXAEBV?$basic_string@DU?$char_traits@D@std@@V?$allocator@D@2@@std@@PEAX@Z@std@@PEAX@0@AEBQEAU10@@Z
	??$forward@AEBQEAU?$_Tree_node@V?$basic_string@DU?$char_traits@D@std@@V?$allocator@D@2@@std@@PEAX@std@@@std@@YAAEBQEAU?$_Tree_node@V?$basic_string@DU?$char_traits@D@std@@V?$allocator@D@2@@std@@PEAX@0@AEBQEAU10@@Z
	??$forward@AEBQEAV?$basic_string@DU?$char_traits@D@std@@V?$allocator@D@2@@std@@@std@@YAAEBQEAV?$basic_string@DU?$char_traits@D@std@@V?$allocator@D@2@@0@AEBQEAV10@@Z
	??$forward@AEBQEAX@std@@YAAEBQEAXAEBQEAX@Z
	??$forward@AEBU?$less@E@std@@@std@@YAAEBU?$less@E@0@AEBU10@@Z
	??$forward@AEBU?$less@PEAUObserver@Dictionary@GetSetInternal@@@std@@@std@@YAAEBU?$less@PEAUObserver@Dictionary@GetSetInternal@@@0@AEBU10@@Z
	??$forward@AEBU?$less@PEAX@std@@@std@@YAAEBU?$less@PEAX@0@AEBU10@@Z
	??$forward@AEBU?$less@V?$basic_string@DU?$char_traits@D@std@@V?$allocator@D@2@@std@@@std@@@std@@YAAEBU?$less@V?$basic_string@DU?$char_traits@D@std@@V?$allocator@D@2@@std@@@0@AEBU10@@Z
	??$forward@AEBUpiecewise_construct_t@std@@@std@@YAAEBUpiecewise_construct_t@0@AEBU10@@Z
	??$forward@AEBV?$allocator@D@std@@@std@@YAAEBV?$allocator@D@0@AEBV10@@Z
	??$forward@AEBV?$allocator@I@std@@@std@@YAAEBV?$allocator@I@0@AEBV10@@Z
	??$forward@AEBV?$basic_string@DU?$char_traits@D@std@@V?$allocator@D@2@@std@@@std@@YAAEBV?$basic_string@DU?$char_traits@D@std@@V?$allocator@D@2@@0@AEBV10@@Z
	??$forward@AEBVNode@GetSetInternal@@@std@@YAAEBVNode@GetSetInternal@@AEBV12@@Z
	??$forward@AEB_N@std@@YAAEB_NAEB_N@Z
	??$forward@D@std@@YA$$QEADAEAD@Z
	??$forward@E@std@@YA$$QEAEAEAE@Z
	??$forward@F@std@@YA$$QEAFAEAF@Z
	??$forward@G@std@@YA$$QEAGAEAG@Z
	??$forward@H@std@@YA$$QEAHAEAH@Z
	??$forward@I@std@@YA$$QEAIAEAI@Z
	??$forward@J@std@@YA$$QEAJAEAJ@Z
	??$forward@K@std@@YA$$QEAKAEAK@Z
	??$forward@M@std@@YA$$QEAMAEAM@Z
	??$forward@N@std@@YA$$QEANAEAN@Z
	??$forward@PEAD@std@@YA$$QEAPEADAEAPEAD@Z
	??$forward@PEAE@std@@YA$$QEAPEAEAEAPEAE@Z
	??$forward@PEAF@std@@YA$$QEAPEAFAEAPEAF@Z
	??$forward@PEAG@std@@YA$$QEAPEAGAEAPEAG@Z
	??$forward@PEAH@std@@YA$$QEAPEAHAEAPEAH@Z
	??$forward@PEAI@std@@YA$$QEAPEAIAEAPEAI@Z
	??$forward@PEAJ@std@@YA$$QEAPEAJAEAPEAJ@Z
	??$forward@PEAK@std@@YA$$QEAPEAKAEAPEAK@Z
	??$forward@PEAM@std@@YA$$QEAPEAMAEAPEAM@Z
	??$forward@PEAN@std@@YA$$QEAPEANAEAPEAN@Z
	??$forward@PEAU?$_Tree_node@PEAUObserver@Dictionary@GetSetInternal@@PEAX@std@@@std@@YA$$QEAPEAU?$_Tree_node@PEAUObserver@Dictionary@GetSetInternal@@PEAX@0@AEAPEAU10@@Z
	??$forward@PEAU?$_Tree_node@U?$pair@$$CBEE@std@@PEAX@std@@@std@@YA$$QEAPEAU?$_Tree_node@U?$pair@$$CBEE@std@@PEAX@0@AEAPEAU10@@Z
	??$forward@PEAU?$_Tree_node@U?$pair@$$CBV?$basic_string@DU?$char_traits@D@std@@V?$allocator@D@2@@std@@P6APEAVObject@GetSetGui@@AEBVSection@4@AEAVProgressInterface@4@@Z@std@@PEAX@std@@@std@@YA$$QEAPEAU?$_Tree_node@U?$pair@$$CBV?$basic_string@DU?$char_traits@D@std@@V?$allocator@D@2@@std@@P6APEAVObject@GetSetGui@@AEBVSection@4@AEAVProgressInterface@4@@Z@std@@PEAX@0@AEAPEAU10@@Z
	??$forward@PEAU?$_Tree_node@U?$pair@$$CBV?$basic_string@DU?$char_traits@D@std@@V?$allocator@D@2@@std@@PEAVNode@GetSetInternal@@@std@@PEAX@std@@@std@@YA$$QEAPEAU?$_Tree_node@U?$pair@$$CBV?$basic_string@DU?$char_traits@D@std@@V?$allocator@D@2@@std@@PEAVNode@GetSetInternal@@@std@@PEAX@0@AEAPEAU10@@Z
	??$forward@PEAU?$_Tree_node@U?$pair@$$CBV?$basic_string@DU?$char_traits@D@std@@V?$allocator@D@2@@std@@V12@@std@@PEAX@std@@@std@@YA$$QEAPEAU?$_Tree_node@U?$pair@$$CBV?$basic_string@DU?$char_traits@D@std@@V?$allocator@D@2@@std@@V12@@std@@PEAX@0@AEAPEAU10@@Z
	??$forward@PEAU?$_Tree_node@U?$pair@$$CBV?$basic_string@DU?$char_traits@D@std@@V?$allocator@D@2@@std@@V?$map@V?$basic_string@DU?$char_traits@D@std@@V?$allocator@D@2@@std@@V12@U?$less@V?$basic_string@DU?$char_traits@D@std@@V?$allocator@D@2@@std@@@2@V?$allocator@U?$pair@$$CBV?$basic_string@DU?$char_traits@D@std@@V?$allocator@D@2@@std@@V12@@std@@@2@@2@@std@@PEAX@std@@@std@@YA$$QEAPEAU?$_Tree_node@U?$pair@$$CBV?$basic_string@DU?$char_traits@D@std@@V?$allocator@D@2@@std@@V?$map@V?$basic_string@DU?$char_traits@D@std@@V?$allocator@D@2@@std@@V12@U?$less@V?$basic_string@DU?$char_traits@D@std@@V?$allocator@D@2@@std@@@2@V?$allocator@U?$pair@$$CBV?$basic_string@DU?$char_traits@D@std@@V?$allocator@D@2@@std@@V12@@std@@@2@@2@@std@@PEAX@0@AEAPEAU10@@Z
	??$forward@PEAU?$_Tree_node@U?$pair@QEAXP6AXAEBV?$basic_string@DU?$char_traits@D@std@@V?$allocator@D@2@@std@@PEAX@Z@std@@PEAX@std@@@std@@YA$$QEAPEAU?$_Tree_node@U?$pair@QEAXP6AXAEBV?$basic_string@DU?$char_traits@D@std@@V?$allocator@D@2@@std@@PEAX@Z@std@@PEAX@0@AEAPEAU10@@Z
	??$forward@PEAU?$_Tree_node@V?$basic_string@DU?$char_traits@D@std@@V?$allocator@D@2@@std@@PEAX@std@@@std@@YA$$QEAPEAU?$_Tree_node@V?$basic_string@DU?$char_traits@D@std@@V?$allocator@D@2@@std@@PEAX@0@AEAPEAU10@@Z
	??$forward@PEAUObserver@Dictionary@GetSetInternal@@@std@@YA$$QEAPEAUObserver@Dictionary@GetSetInternal@@AEAPEAU123@@Z
	??$forward@PEAV?$basic_string@DU?$char_traits@D@std@@V?$allocator@D@2@@std@@@std@@YA$$QEAPEAV?$basic_string@DU?$char_traits@D@std@@V?$allocator@D@2@@0@AEAPEAV10@@Z
	??$forward@U?$less@V?$basic_string@DU?$char_traits@D@std@@V?$allocator@D@2@@std@@@std@@@std@@YA$$QEAU?$less@V?$basic_string@DU?$char_traits@D@std@@V?$allocator@D@2@@std@@@0@AEAU10@@Z
	??$forward@U_One_then_variadic_args_t@std@@@std@@YA$$QEAU_One_then_variadic_args_t@0@AEAU10@@Z
	??$forward@U_Zero_then_variadic_args_t@std@@@std@@YA$$QEAU_Zero_then_variadic_args_t@0@AEAU10@@Z
	??$forward@V?$_Tree_const_iterator@V?$_Tree_val@U?$_Tree_simple_types@PEAUObserver@Dictionary@GetSetInternal@@@std@@@std@@@std@@@std@@YA$$QEAV?$_Tree_const_iterator@V?$_Tree_val@U?$_Tree_simple_types@PEAUObserver@Dictionary@GetSetInternal@@@std@@@std@@@0@AEAV10@@Z
	??$forward@V?$_Tree_const_iterator@V?$_Tree_val@U?$_Tree_simple_types@V?$basic_string@DU?$char_traits@D@std@@V?$allocator@D@2@@std@@@std@@@std@@@std@@@std@@YA$$QEAV?$_Tree_const_iterator@V?$_Tree_val@U?$_Tree_simple_types@V?$basic_string@DU?$char_traits@D@std@@V?$allocator@D@2@@std@@@std@@@std@@@0@AEAV10@@Z
	??$forward@V?$_Vb_iterator@U?$_Wrap_alloc@V?$allocator@I@std@@@std@@@std@@@std@@YA$$QEAV?$_Vb_iterator@U?$_Wrap_alloc@V?$allocator@I@std@@@std@@@0@AEAV10@@Z
	??$forward@V?$allocator@D@std@@@std@@YA$$QEAV?$allocator@D@0@AEAV10@@Z
	??$forward@V?$allocator@E@std@@@std@@YA$$QEAV?$allocator@E@0@AEAV10@@Z
	??$forward@V?$allocator@F@std@@@std@@YA$$QEAV?$allocator@F@0@AEAV10@@Z
	??$forward@V?$allocator@G@std@@@std@@YA$$QEAV?$allocator@G@0@AEAV10@@Z
	??$forward@V?$allocator@H@std@@@std@@YA$$QEAV?$allocator@H@0@AEAV10@@Z
	??$forward@V?$allocator@I@std@@@std@@YA$$QEAV?$allocator@I@0@AEAV10@@Z
	??$forward@V?$allocator@J@std@@@std@@YA$$QEAV?$allocator@J@0@AEAV10@@Z
	??$forward@V?$allocator@K@std@@@std@@YA$$QEAV?$allocator@K@0@AEAV10@@Z
	??$forward@V?$allocator@M@std@@@std@@YA$$QEAV?$allocator@M@0@AEAV10@@Z
	??$forward@V?$allocator@N@std@@@std@@YA$$QEAV?$allocator@N@0@AEAV10@@Z
	??$forward@V?$allocator@U?$_Tree_node@U?$pair@$$CBV?$basic_string@DU?$char_traits@D@std@@V?$allocator@D@2@@std@@V12@@std@@PEAX@std@@@std@@@std@@YA$$QEAV?$allocator@U?$_Tree_node@U?$pair@$$CBV?$basic_string@DU?$char_traits@D@std@@V?$allocator@D@2@@std@@V12@@std@@PEAX@std@@@0@AEAV10@@Z
	??$forward@V?$allocator@U?$_Tree_node@V?$basic_string@DU?$char_traits@D@std@@V?$allocator@D@2@@std@@PEAX@std@@@std@@@std@@YA$$QEAV?$allocator@U?$_Tree_node@V?$basic_string@DU?$char_traits@D@std@@V?$allocator@D@2@@std@@PEAX@std@@@0@AEAV10@@Z
	??$forward@V?$allocator@V?$basic_string@DU?$char_traits@D@std@@V?$allocator@D@2@@std@@@std@@@std@@YA$$QEAV?$allocator@V?$basic_string@DU?$char_traits@D@std@@V?$allocator@D@2@@std@@@0@AEAV10@@Z
	??$forward@V?$basic_string@DU?$char_traits@D@std@@V?$allocator@D@2@@std@@@std@@YA$$QEAV?$basic_string@DU?$char_traits@D@std@@V?$allocator@D@2@@0@AEAV10@@Z
	??$forward@V?$tuple@$$QEAE@std@@@std@@YA$$QEAV?$tuple@$$QEAE@0@AEAV10@@Z
	??$forward@V?$tuple@$$QEAV?$basic_string@DU?$char_traits@D@std@@V?$allocator@D@2@@std@@@std@@@std@@YA$$QEAV?$tuple@$$QEAV?$basic_string@DU?$char_traits@D@std@@V?$allocator@D@2@@std@@@0@AEAV10@@Z
	??$forward@V?$tuple@$$V@std@@@std@@YA$$QEAV?$tuple@$$V@0@AEAV10@@Z
	??$forward@V?$tuple@AEBQEAX@std@@@std@@YA$$QEAV?$tuple@AEBQEAX@0@AEAV10@@Z
	??$forward@V?$tuple@AEBV?$basic_string@DU?$char_traits@D@std@@V?$allocator@D@2@@std@@@std@@@std@@YA$$QEAV?$tuple@AEBV?$basic_string@DU?$char_traits@D@std@@V?$allocator@D@2@@std@@@0@AEAV10@@Z
	??$forward@_N@std@@YA$$QEA_NAEA_N@Z
	??$forward_as_tuple@$$V@std@@YA?AV?$tuple@$$V@0@XZ
	??$forward_as_tuple@AEBQEAX@std@@YA?AV?$tuple@AEBQEAX@0@AEBQEAX@Z
	??$forward_as_tuple@AEBV?$basic_string@DU?$char_traits@D@std@@V?$allocator@D@2@@std@@@std@@YA?AV?$tuple@AEBV?$basic_string@DU?$char_traits@D@std@@V?$allocator@D@2@@std@@@0@AEBV?$basic_string@DU?$char_traits@D@std@@V?$allocator@D@2@@0@@Z
	??$forward_as_tuple@E@std@@YA?AV?$tuple@$$QEAE@0@$$QEAE@Z
	??$forward_as_tuple@V?$basic_string@DU?$char_traits@D@std@@V?$allocator@D@2@@std@@@std@@YA?AV?$tuple@$$QEAV?$basic_string@DU?$char_traits@D@std@@V?$allocator@D@2@@std@@@0@$$QEAV?$basic_string@DU?$char_traits@D@std@@V?$allocator@D@2@@0@@Z
	??$getAttribute@V?$vector@V?$basic_string@DU?$char_traits@D@std@@V?$allocator@D@2@@std@@V?$allocator@V?$basic_string@DU?$char_traits@D@std@@V?$allocator@D@2@@std@@@2@@std@@@Node@GetSetInternal@@QEBA?AV?$vector@V?$basic_string@DU?$char_traits@D@std@@V?$allocator@D@2@@std@@V?$allocator@V?$basic_string@DU?$char_traits@D@std@@V?$allocator@D@2@@std@@@2@@std@@V?$basic_string@DU?$char_traits@D@std@@V?$allocator@D@2@@3@@Z
	??$getline@DU?$char_traits@D@std@@V?$allocator@D@2@@std@@YAAEAV?$basic_istream@DU?$char_traits@D@std@@@0@$$QEAV10@AEAV?$basic_string@DU?$char_traits@D@std@@V?$allocator@D@2@@0@D@Z
	??$getline@DU?$char_traits@D@std@@V?$allocator@D@2@@std@@YAAEAV?$basic_istream@DU?$char_traits@D@std@@@0@AEAV10@AEAV?$basic_string@DU?$char_traits@D@std@@V?$allocator@D@2@@0@@Z
	??$getline@DU?$char_traits@D@std@@V?$allocator@D@2@@std@@YAAEAV?$basic_istream@DU?$char_traits@D@std@@@0@AEAV10@AEAV?$basic_string@DU?$char_traits@D@std@@V?$allocator@D@2@@0@D@Z
	??$insert@$0A@$0A@@?$_Tree@V?$_Tset_traits@PEAUObserver@Dictionary@GetSetInternal@@U?$less@PEAUObserver@Dictionary@GetSetInternal@@@std@@V?$allocator@PEAUObserver@Dictionary@GetSetInternal@@@5@$0A@@std@@@std@@QEAA?AU?$pair@V?$_Tree_const_iterator@V?$_Tree_val@U?$_Tree_simple_types@PEAUObserver@Dictionary@GetSetInternal@@@std@@@std@@@std@@_N@1@$$QEAPEAUObserver@Dictionary@GetSetInternal@@@Z
	??$insert@$0A@$0A@@?$_Tree@V?$_Tset_traits@V?$basic_string@DU?$char_traits@D@std@@V?$allocator@D@2@@std@@U?$less@V?$basic_string@DU?$char_traits@D@std@@V?$allocator@D@2@@std@@@2@V?$allocator@V?$basic_string@DU?$char_traits@D@std@@V?$allocator@D@2@@std@@@2@$0A@@std@@@std@@QEAA?AU?$pair@V?$_Tree_const_iterator@V?$_Tree_val@U?$_Tree_simple_types@V?$basic_string@DU?$char_traits@D@std@@V?$allocator@D@2@@std@@@std@@@std@@@std@@_N@1@AEBV?$basic_string@DU?$char_traits@D@std@@V?$allocator@D@2@@1@@Z
	??$load@UIniFile@GetSetIO@@@GetSetIO@@YA_NAEBV?$basic_string@DU?$char_traits@D@std@@V?$allocator@D@2@@std@@AEAVSection@GetSetInternal@@@Z
	??$load@UTxtKeyValue@GetSetIO@@@GetSetIO@@YA_NAEBV?$basic_string@DU?$char_traits@D@std@@V?$allocator@D@2@@std@@AEAVSection@GetSetInternal@@@Z
	??$make_pair@AEAHAEAV?$basic_string@DU?$char_traits@D@std@@V?$allocator@D@2@@std@@@std@@YA?AU?$pair@HV?$basic_string@DU?$char_traits@D@std@@V?$allocator@D@2@@std@@@0@AEAHAEAV?$basic_string@DU?$char_traits@D@std@@V?$allocator@D@2@@0@@Z
	??$make_pair@HV?$basic_string@DU?$char_traits@D@std@@V?$allocator@D@2@@std@@@std@@YA?AU?$pair@HV?$basic_string@DU?$char_traits@D@std@@V?$allocator@D@2@@std@@@0@$$QEAH$$QEAV?$basic_string@DU?$char_traits@D@std@@V?$allocator@D@2@@0@@Z
	??$max@PEAD@std@@YAAEBQEADAEBQEAD0@Z
	??$max@_K@std@@YAAEB_KAEB_K0@Z
	??$min@_K@std@@YAAEB_KAEB_K0@Z
	??$mismatch@V?$_String_const_iterator@V?$_String_val@U?$_Simple_types@D@std@@@std@@@std@@V12@@std@@YA?AU?$pair@V?$_String_const_iterator@V?$_String_val@U?$_Simple_types@D@std@@@std@@@std@@V12@@0@V?$_String_const_iterator@V?$_String_val@U?$_Simple_types@D@std@@@std@@@0@00@Z
	??$mismatch@V?$_String_const_iterator@V?$_String_val@U?$_Simple_types@D@std@@@std@@@std@@V12@U?$equal_to@X@2@@std@@YA?AU?$pair@V?$_String_const_iterator@V?$_String_val@U?$_Simple_types@D@std@@@std@@@std@@V12@@0@V?$_String_const_iterator@V?$_String_val@U?$_Simple_types@D@std@@@std@@@0@V20@0U?$equal_to@X@0@@Z
	??$move@AEAD@std@@YA$$QEADAEAD@Z
	??$move@AEAE@std@@YA$$QEAEAEAE@Z
	??$move@AEAF@std@@YA$$QEAFAEAF@Z
	??$move@AEAG@std@@YA$$QEAGAEAG@Z
	??$move@AEAH@std@@YA$$QEAHAEAH@Z
	??$move@AEAI@std@@YA$$QEAIAEAI@Z
	??$move@AEAJ@std@@YA$$QEAJAEAJ@Z
	??$move@AEAK@std@@YA$$QEAKAEAK@Z
	??$move@AEAM@std@@YA$$QEAMAEAM@Z
	??$move@AEAN@std@@YA$$QEANAEAN@Z
	??$move@AEAPEAD@std@@YA$$QEAPEADAEAPEAD@Z
	??$move@AEAPEAE@std@@YA$$QEAPEAEAEAPEAE@Z
	??$move@AEAPEAF@std@@YA$$QEAPEAFAEAPEAF@Z
	??$move@AEAPEAG@std@@YA$$QEAPEAGAEAPEAG@Z
	??$move@AEAPEAH@std@@YA$$QEAPEAHAEAPEAH@Z
	??$move@AEAPEAI@std@@YA$$QEAPEAIAEAPEAI@Z
	??$move@AEAPEAJ@std@@YA$$QEAPEAJAEAPEAJ@Z
	??$move@AEAPEAK@std@@YA$$QEAPEAKAEAPEAK@Z
	??$move@AEAPEAM@std@@YA$$QEAPEAMAEAPEAM@Z
	??$move@AEAPEAN@std@@YA$$QEAPEANAEAPEAN@Z
	??$move@AEAPEAU?$_Tree_node@V?$basic_string@DU?$char_traits@D@std@@V?$allocator@D@2@@std@@PEAX@std@@@std@@YA$$QEAPEAU?$_Tree_node@V?$basic_string@DU?$char_traits@D@std@@V?$allocator@D@2@@std@@PEAX@0@AEAPEAU10@@Z
	??$move@AEAPEAUObserver@Dictionary@GetSetInternal@@@std@@YA$$QEAPEAUObserver@Dictionary@GetSetInternal@@AEAPEAU123@@Z
	??$move@AEAPEAV?$basic_string@DU?$char_traits@D@std@@V?$allocator@D@2@@std@@@std@@YA$$QEAPEAV?$basic_string@DU?$char_traits@D@std@@V?$allocator@D@2@@0@AEAPEAV10@@Z
	??$move@AEAV?$allocator@D@std@@@std@@YA$$QEAV?$allocator@D@0@AEAV10@@Z
	??$move@AEAV?$allocator@E@std@@@std@@YA$$QEAV?$allocator@E@0@AEAV10@@Z
	??$move@AEAV?$allocator@F@std@@@std@@YA$$QEAV?$allocator@F@0@AEAV10@@Z
	??$move@AEAV?$allocator@G@std@@@std@@YA$$QEAV?$allocator@G@0@AEAV10@@Z
	??$move@AEAV?$allocator@H@std@@@std@@YA$$QEAV?$allocator@H@0@AEAV10@@Z
	??$move@AEAV?$allocator@I@std@@@std@@YA$$QEAV?$allocator@I@0@AEAV10@@Z
	??$move@AEAV?$allocator@J@std@@@std@@YA$$QEAV?$allocator@J@0@AEAV10@@Z
	??$move@AEAV?$allocator@K@std@@@std@@YA$$QEAV?$allocator@K@0@AEAV10@@Z
	??$move@AEAV?$allocator@M@std@@@std@@YA$$QEAV?$allocator@M@0@AEAV10@@Z
	??$move@AEAV?$allocator@N@std@@@std@@YA$$QEAV?$allocator@N@0@AEAV10@@Z
	??$move@AEAV?$allocator@U?$_Tree_node@V?$basic_string@DU?$char_traits@D@std@@V?$allocator@D@2@@std@@PEAX@std@@@std@@@std@@YA$$QEAV?$allocator@U?$_Tree_node@V?$basic_string@DU?$char_traits@D@std@@V?$allocator@D@2@@std@@PEAX@std@@@0@AEAV10@@Z
	??$move@AEAV?$allocator@V?$basic_string@DU?$char_traits@D@std@@V?$allocator@D@2@@std@@@std@@@std@@YA$$QEAV?$allocator@V?$basic_string@DU?$char_traits@D@std@@V?$allocator@D@2@@std@@@0@AEAV10@@Z
	??$move@AEAV?$basic_istream@DU?$char_traits@D@std@@@std@@@std@@YA$$QEAV?$basic_istream@DU?$char_traits@D@std@@@0@AEAV10@@Z
	??$move@AEAV?$basic_string@DU?$char_traits@D@std@@V?$allocator@D@2@@std@@@std@@YA$$QEAV?$basic_string@DU?$char_traits@D@std@@V?$allocator@D@2@@0@AEAV10@@Z
	??$move@AEAV?$set@V?$basic_string@DU?$char_traits@D@std@@V?$allocator@D@2@@std@@U?$less@V?$basic_string@DU?$char_traits@D@std@@V?$allocator@D@2@@std@@@2@V?$allocator@V?$basic_string@DU?$char_traits@D@std@@V?$allocator@D@2@@std@@@2@@std@@@std@@YA$$QEAV?$set@V?$basic_string@DU?$char_traits@D@std@@V?$allocator@D@2@@std@@U?$less@V?$basic_string@DU?$char_traits@D@std@@V?$allocator@D@2@@std@@@2@V?$allocator@V?$basic_string@DU?$char_traits@D@std@@V?$allocator@D@2@@std@@@2@@0@AEAV10@@Z
	??$move@AEAV?$tuple@$$QEAE@std@@@std@@YA$$QEAV?$tuple@$$QEAE@0@AEAV10@@Z
	??$move@AEAV?$tuple@$$QEAV?$basic_string@DU?$char_traits@D@std@@V?$allocator@D@2@@std@@@std@@@std@@YA$$QEAV?$tuple@$$QEAV?$basic_string@DU?$char_traits@D@std@@V?$allocator@D@2@@std@@@0@AEAV10@@Z
	??$move@AEAV?$tuple@AEBQEAX@std@@@std@@YA$$QEAV?$tuple@AEBQEAX@0@AEAV10@@Z
	??$move@AEAV?$tuple@AEBV?$basic_string@DU?$char_traits@D@std@@V?$allocator@D@2@@std@@@std@@@std@@YA$$QEAV?$tuple@AEBV?$basic_string@DU?$char_traits@D@std@@V?$allocator@D@2@@std@@@0@AEAV10@@Z
	??$move@AEAV?$vector@IV?$allocator@I@std@@@std@@@std@@YA$$QEAV?$vector@IV?$allocator@I@std@@@0@AEAV10@@Z
	??$move@AEAV?$vector@_NV?$allocator@_N@std@@@std@@@std@@YA$$QEAV?$vector@_NV?$allocator@_N@std@@@0@AEAV10@@Z
	??$move@AEA_K@std@@YA$$QEA_KAEA_K@Z
	??$replace@V?$_String_iterator@V?$_String_val@U?$_Simple_types@D@std@@@std@@@std@@D@std@@YAXV?$_String_iterator@V?$_String_val@U?$_Simple_types@D@std@@@std@@@0@0AEBD1@Z
	??$save@UIniFile@GetSetIO@@@GetSetIO@@YA_NAEBV?$basic_string@DU?$char_traits@D@std@@V?$allocator@D@2@@std@@AEBVSection@GetSetInternal@@@Z
	??$save@UTxtKeyValue@GetSetIO@@@GetSetIO@@YA_NAEBV?$basic_string@DU?$char_traits@D@std@@V?$allocator@D@2@@std@@AEBVSection@GetSetInternal@@@Z
	??$stringTo@D@@YADAEBV?$basic_string@DU?$char_traits@D@std@@V?$allocator@D@2@@std@@@Z
	??$stringTo@E@@YAEAEBV?$basic_string@DU?$char_traits@D@std@@V?$allocator@D@2@@std@@@Z
	??$stringTo@F@@YAFAEBV?$basic_string@DU?$char_traits@D@std@@V?$allocator@D@2@@std@@@Z
	??$stringTo@G@@YAGAEBV?$basic_string@DU?$char_traits@D@std@@V?$allocator@D@2@@std@@@Z
	??$stringTo@H@@YAHAEBV?$basic_string@DU?$char_traits@D@std@@V?$allocator@D@2@@std@@@Z
	??$stringTo@I@@YAIAEBV?$basic_string@DU?$char_traits@D@std@@V?$allocator@D@2@@std@@@Z
	??$stringTo@J@@YAJAEBV?$basic_string@DU?$char_traits@D@std@@V?$allocator@D@2@@std@@@Z
	??$stringTo@K@@YAKAEBV?$basic_string@DU?$char_traits@D@std@@V?$allocator@D@2@@std@@@Z
	??$stringTo@M@@YAMAEBV?$basic_string@DU?$char_traits@D@std@@V?$allocator@D@2@@std@@@Z
	??$stringTo@N@@YANAEBV?$basic_string@DU?$char_traits@D@std@@V?$allocator@D@2@@std@@@Z
	??$stringTo@V?$basic_string@DU?$char_traits@D@std@@V?$allocator@D@2@@std@@@@YA?AV?$basic_string@DU?$char_traits@D@std@@V?$allocator@D@2@@std@@AEBV01@@Z
	??$stringTo@V?$vector@DV?$allocator@D@std@@@std@@@@YA?AV?$vector@DV?$allocator@D@std@@@std@@AEBV?$basic_string@DU?$char_traits@D@std@@V?$allocator@D@2@@1@@Z
	??$stringTo@V?$vector@EV?$allocator@E@std@@@std@@@@YA?AV?$vector@EV?$allocator@E@std@@@std@@AEBV?$basic_string@DU?$char_traits@D@std@@V?$allocator@D@2@@1@@Z
	??$stringTo@V?$vector@FV?$allocator@F@std@@@std@@@@YA?AV?$vector@FV?$allocator@F@std@@@std@@AEBV?$basic_string@DU?$char_traits@D@std@@V?$allocator@D@2@@1@@Z
	??$stringTo@V?$vector@GV?$allocator@G@std@@@std@@@@YA?AV?$vector@GV?$allocator@G@std@@@std@@AEBV?$basic_string@DU?$char_traits@D@std@@V?$allocator@D@2@@1@@Z
	??$stringTo@V?$vector@HV?$allocator@H@std@@@std@@@@YA?AV?$vector@HV?$allocator@H@std@@@std@@AEBV?$basic_string@DU?$char_traits@D@std@@V?$allocator@D@2@@1@@Z
	??$stringTo@V?$vector@IV?$allocator@I@std@@@std@@@@YA?AV?$vector@IV?$allocator@I@std@@@std@@AEBV?$basic_string@DU?$char_traits@D@std@@V?$allocator@D@2@@1@@Z
	??$stringTo@V?$vector@JV?$allocator@J@std@@@std@@@@YA?AV?$vector@JV?$allocator@J@std@@@std@@AEBV?$basic_string@DU?$char_traits@D@std@@V?$allocator@D@2@@1@@Z
	??$stringTo@V?$vector@KV?$allocator@K@std@@@std@@@@YA?AV?$vector@KV?$allocator@K@std@@@std@@AEBV?$basic_string@DU?$char_traits@D@std@@V?$allocator@D@2@@1@@Z
	??$stringTo@V?$vector@MV?$allocator@M@std@@@std@@@@YA?AV?$vector@MV?$allocator@M@std@@@std@@AEBV?$basic_string@DU?$char_traits@D@std@@V?$allocator@D@2@@1@@Z
	??$stringTo@V?$vector@NV?$allocator@N@std@@@std@@@@YA?AV?$vector@NV?$allocator@N@std@@@std@@AEBV?$basic_string@DU?$char_traits@D@std@@V?$allocator@D@2@@1@@Z
	??$stringTo@V?$vector@V?$basic_string@DU?$char_traits@D@std@@V?$allocator@D@2@@std@@V?$allocator@V?$basic_string@DU?$char_traits@D@std@@V?$allocator@D@2@@std@@@2@@std@@@@YA?AV?$vector@V?$basic_string@DU?$char_traits@D@std@@V?$allocator@D@2@@std@@V?$allocator@V?$basic_string@DU?$char_traits@D@std@@V?$allocator@D@2@@std@@@2@@std@@AEBV?$basic_string@DU?$char_traits@D@std@@V?$allocator@D@2@@1@@Z
	??$stringTo@V?$vector@_NV?$allocator@_N@std@@@std@@@@YA?AV?$vector@_NV?$allocator@_N@std@@@std@@AEBV?$basic_string@DU?$char_traits@D@std@@V?$allocator@D@2@@1@@Z
	??$stringTo@_N@@YA_NAEBV?$basic_string@DU?$char_traits@D@std@@V?$allocator@D@2@@std@@@Z
	??$stringToVector@D@@YA?AV?$vector@DV?$allocator@D@std@@@std@@AEBV?$basic_string@DU?$char_traits@D@std@@V?$allocator@D@2@@1@D_N@Z
	??$stringToVector@E@@YA?AV?$vector@EV?$allocator@E@std@@@std@@AEBV?$basic_string@DU?$char_traits@D@std@@V?$allocator@D@2@@1@D_N@Z
	??$stringToVector@F@@YA?AV?$vector@FV?$allocator@F@std@@@std@@AEBV?$basic_string@DU?$char_traits@D@std@@V?$allocator@D@2@@1@D_N@Z
	??$stringToVector@G@@YA?AV?$vector@GV?$allocator@G@std@@@std@@AEBV?$basic_string@DU?$char_traits@D@std@@V?$allocator@D@2@@1@D_N@Z
	??$stringToVector@H@@YA?AV?$vector@HV?$allocator@H@std@@@std@@AEBV?$basic_string@DU?$char_traits@D@std@@V?$allocator@D@2@@1@D_N@Z
	??$stringToVector@I@@YA?AV?$vector@IV?$allocator@I@std@@@std@@AEBV?$basic_string@DU?$char_traits@D@std@@V?$allocator@D@2@@1@D_N@Z
	??$stringToVector@J@@YA?AV?$vector@JV?$allocator@J@std@@@std@@AEBV?$basic_string@DU?$char_traits@D@std@@V?$allocator@D@2@@1@D_N@Z
	??$stringToVector@K@@YA?AV?$vector@KV?$allocator@K@std@@@std@@AEBV?$basic_string@DU?$char_traits@D@std@@V?$allocator@D@2@@1@D_N@Z
	??$stringToVector@M@@YA?AV?$vector@MV?$allocator@M@std@@@std@@AEBV?$basic_string@DU?$char_traits@D@std@@V?$allocator@D@2@@1@D_N@Z
	??$stringToVector@N@@YA?AV?$vector@NV?$allocator@N@std@@@std@@AEBV?$basic_string@DU?$char_traits@D@std@@V?$allocator@D@2@@1@D_N@Z
	??$stringToVector@V?$basic_string@DU?$char_traits@D@std@@V?$allocator@D@2@@std@@@@YA?AV?$vector@V?$basic_string@DU?$char_traits@D@std@@V?$allocator@D@2@@std@@V?$allocator@V?$basic_string@DU?$char_traits@D@std@@V?$allocator@D@2@@std@@@2@@std@@AEBV?$basic_string@DU?$char_traits@D@std@@V?$allocator@D@2@@1@D_N@Z
	??$stringToVector@_N@@YA?AV?$vector@_NV?$allocator@_N@std@@@std@@AEBV?$basic_string@DU?$char_traits@D@std@@V?$allocator@D@2@@1@D_N@Z
	??$swap@D$0A@@std@@YAXAEAD0@Z
	??$swap@PEAU?$_Tree_node@V?$basic_string@DU?$char_traits@D@std@@V?$allocator@D@2@@std@@PEAX@std@@$0A@@std@@YAXAEAPEAU?$_Tree_node@V?$basic_string@DU?$char_traits@D@std@@V?$allocator@D@2@@std@@PEAX@0@0@Z
	??$swap@_K$0A@@std@@YAXAEA_K0@Z
	??$toString@D@@YA?AV?$basic_string@DU?$char_traits@D@std@@V?$allocator@D@2@@std@@AEBD@Z
	??$toString@E@@YA?AV?$basic_string@DU?$char_traits@D@std@@V?$allocator@D@2@@std@@AEBE@Z
	??$toString@F@@YA?AV?$basic_string@DU?$char_traits@D@std@@V?$allocator@D@2@@std@@AEBF@Z
	??$toString@G@@YA?AV?$basic_string@DU?$char_traits@D@std@@V?$allocator@D@2@@std@@AEBG@Z
	??$toString@H@@YA?AV?$basic_string@DU?$char_traits@D@std@@V?$allocator@D@2@@std@@AEBH@Z
	??$toString@I@@YA?AV?$basic_string@DU?$char_traits@D@std@@V?$allocator@D@2@@std@@AEBI@Z
	??$toString@J@@YA?AV?$basic_string@DU?$char_traits@D@std@@V?$allocator@D@2@@std@@AEBJ@Z
	??$toString@K@@YA?AV?$basic_string@DU?$char_traits@D@std@@V?$allocator@D@2@@std@@AEBK@Z
	??$toString@M@@YA?AV?$basic_string@DU?$char_traits@D@std@@V?$allocator@D@2@@std@@AEBM@Z
	??$toString@N@@YA?AV?$basic_string@DU?$char_traits@D@std@@V?$allocator@D@2@@std@@AEBN@Z
	??$toString@V?$basic_string@DU?$char_traits@D@std@@V?$allocator@D@2@@std@@@@YA?AV?$basic_string@DU?$char_traits@D@std@@V?$allocator@D@2@@std@@AEBV01@@Z
	??$toString@V?$fpos@U_Mbstatet@@@std@@@@YA?AV?$basic_string@DU?$char_traits@D@std@@V?$allocator@D@2@@std@@AEBV?$fpos@U_Mbstatet@@@1@@Z
	??$toString@V?$vector@DV?$allocator@D@std@@@std@@@@YA?AV?$basic_string@DU?$char_traits@D@std@@V?$allocator@D@2@@std@@AEBV?$vector@DV?$allocator@D@std@@@1@@Z
	??$toString@V?$vector@EV?$allocator@E@std@@@std@@@@YA?AV?$basic_string@DU?$char_traits@D@std@@V?$allocator@D@2@@std@@AEBV?$vector@EV?$allocator@E@std@@@1@@Z
	??$toString@V?$vector@FV?$allocator@F@std@@@std@@@@YA?AV?$basic_string@DU?$char_traits@D@std@@V?$allocator@D@2@@std@@AEBV?$vector@FV?$allocator@F@std@@@1@@Z
	??$toString@V?$vector@GV?$allocator@G@std@@@std@@@@YA?AV?$basic_string@DU?$char_traits@D@std@@V?$allocator@D@2@@std@@AEBV?$vector@GV?$allocator@G@std@@@1@@Z
	??$toString@V?$vector@HV?$allocator@H@std@@@std@@@@YA?AV?$basic_string@DU?$char_traits@D@std@@V?$allocator@D@2@@std@@AEBV?$vector@HV?$allocator@H@std@@@1@@Z
	??$toString@V?$vector@IV?$allocator@I@std@@@std@@@@YA?AV?$basic_string@DU?$char_traits@D@std@@V?$allocator@D@2@@std@@AEBV?$vector@IV?$allocator@I@std@@@1@@Z
	??$toString@V?$vector@JV?$allocator@J@std@@@std@@@@YA?AV?$basic_string@DU?$char_traits@D@std@@V?$allocator@D@2@@std@@AEBV?$vector@JV?$allocator@J@std@@@1@@Z
	??$toString@V?$vector@KV?$allocator@K@std@@@std@@@@YA?AV?$basic_string@DU?$char_traits@D@std@@V?$allocator@D@2@@std@@AEBV?$vector@KV?$allocator@K@std@@@1@@Z
	??$toString@V?$vector@MV?$allocator@M@std@@@std@@@@YA?AV?$basic_string@DU?$char_traits@D@std@@V?$allocator@D@2@@std@@AEBV?$vector@MV?$allocator@M@std@@@1@@Z
	??$toString@V?$vector@NV?$allocator@N@std@@@std@@@@YA?AV?$basic_string@DU?$char_traits@D@std@@V?$allocator@D@2@@std@@AEBV?$vector@NV?$allocator@N@std@@@1@@Z
	??$toString@V?$vector@V?$basic_string@DU?$char_traits@D@std@@V?$allocator@D@2@@std@@V?$allocator@V?$basic_string@DU?$char_traits@D@std@@V?$allocator@D@2@@std@@@2@@std@@@@YA?AV?$basic_string@DU?$char_traits@D@std@@V?$allocator@D@2@@std@@AEBV?$vector@V?$basic_string@DU?$char_traits@D@std@@V?$allocator@D@2@@std@@V?$allocator@V?$basic_string@DU?$char_traits@D@std@@V?$allocator@D@2@@std@@@2@@1@@Z
	??$toString@V?$vector@_NV?$allocator@_N@std@@@std@@@@YA?AV?$basic_string@DU?$char_traits@D@std@@V?$allocator@D@2@@std@@AEBV?$vector@_NV?$allocator@_N@std@@@1@@Z
	??$toString@_J@@YA?AV?$basic_string@DU?$char_traits@D@std@@V?$allocator@D@2@@std@@AEB_J@Z
	??$toString@_N@@YA?AV?$basic_string@DU?$char_traits@D@std@@V?$allocator@D@2@@std@@AEB_N@Z
	??$transform@V?$_String_iterator@V?$_String_val@U?$_Simple_types@D@std@@@std@@@std@@V12@P6AHH@Z@std@@YA?AV?$_String_iterator@V?$_String_val@U?$_Simple_types@D@std@@@std@@@0@V10@0V10@P6AHH@Z@Z
	??$typeName@D@@YA?AV?$basic_string@DU?$char_traits@D@std@@V?$allocator@D@2@@std@@XZ
	??$typeName@E@@YA?AV?$basic_string@DU?$char_traits@D@std@@V?$allocator@D@2@@std@@XZ
	??$typeName@F@@YA?AV?$basic_string@DU?$char_traits@D@std@@V?$allocator@D@2@@std@@XZ
	??$typeName@G@@YA?AV?$basic_string@DU?$char_traits@D@std@@V?$allocator@D@2@@std@@XZ
	??$typeName@H@@YA?AV?$basic_string@DU?$char_traits@D@std@@V?$allocator@D@2@@std@@XZ
	??$typeName@I@@YA?AV?$basic_string@DU?$char_traits@D@std@@V?$allocator@D@2@@std@@XZ
	??$typeName@J@@YA?AV?$basic_string@DU?$char_traits@D@std@@V?$allocator@D@2@@std@@XZ
	??$typeName@K@@YA?AV?$basic_string@DU?$char_traits@D@std@@V?$allocator@D@2@@std@@XZ
	??$typeName@M@@YA?AV?$basic_string@DU?$char_traits@D@std@@V?$allocator@D@2@@std@@XZ
	??$typeName@N@@YA?AV?$basic_string@DU?$char_traits@D@std@@V?$allocator@D@2@@std@@XZ
	??$typeName@V?$basic_string@DU?$char_traits@D@std@@V?$allocator@D@2@@std@@@@YA?AV?$basic_string@DU?$char_traits@D@std@@V?$allocator@D@2@@std@@XZ
	??$typeName@V?$vector@DV?$allocator@D@std@@@std@@@@YA?AV?$basic_string@DU?$char_traits@D@std@@V?$allocator@D@2@@std@@XZ
	??$typeName@V?$vector@EV?$allocator@E@std@@@std@@@@YA?AV?$basic_string@DU?$char_traits@D@std@@V?$allocator@D@2@@std@@XZ
	??$typeName@V?$vector@FV?$allocator@F@std@@@std@@@@YA?AV?$basic_string@DU?$char_traits@D@std@@V?$allocator@D@2@@std@@XZ
	??$typeName@V?$vector@GV?$allocator@G@std@@@std@@@@YA?AV?$basic_string@DU?$char_traits@D@std@@V?$allocator@D@2@@std@@XZ
	??$typeName@V?$vector@HV?$allocator@H@std@@@std@@@@YA?AV?$basic_string@DU?$char_traits@D@std@@V?$allocator@D@2@@std@@XZ
	??$typeName@V?$vector@IV?$allocator@I@std@@@std@@@@YA?AV?$basic_string@DU?$char_traits@D@std@@V?$allocator@D@2@@std@@XZ
	??$typeName@V?$vector@JV?$allocator@J@std@@@std@@@@YA?AV?$basic_string@DU?$char_traits@D@std@@V?$allocator@D@2@@std@@XZ
	??$typeName@V?$vector@KV?$allocator@K@std@@@std@@@@YA?AV?$basic_string@DU?$char_traits@D@std@@V?$allocator@D@2@@std@@XZ
	??$typeName@V?$vector@MV?$allocator@M@std@@@std@@@@YA?AV?$basic_string@DU?$char_traits@D@std@@V?$allocator@D@2@@std@@XZ
	??$typeName@V?$vector@NV?$allocator@N@std@@@std@@@@YA?AV?$basic_string@DU?$char_traits@D@std@@V?$allocator@D@2@@std@@XZ
	??$typeName@V?$vector@V?$basic_string@DU?$char_traits@D@std@@V?$allocator@D@2@@std@@V?$allocator@V?$basic_string@DU?$char_traits@D@std@@V?$allocator@D@2@@std@@@2@@std@@@@YA?AV?$basic_string@DU?$char_traits@D@std@@V?$allocator@D@2@@std@@XZ
	??$typeName@V?$vector@_NV?$allocator@_N@std@@@std@@@@YA?AV?$basic_string@DU?$char_traits@D@std@@V?$allocator@D@2@@std@@XZ
	??$typeName@_N@@YA?AV?$basic_string@DU?$char_traits@D@std@@V?$allocator@D@2@@std@@XZ
	??$use_facet@V?$codecvt@DDU_Mbstatet@@@std@@@std@@YAAEBV?$codecvt@DDU_Mbstatet@@@0@AEBVlocale@0@@Z
	??$use_facet@V?$ctype@D@std@@@std@@YAAEBV?$ctype@D@0@AEBVlocale@0@@Z
	??$vectorToString@D@@YA?AV?$basic_string@DU?$char_traits@D@std@@V?$allocator@D@2@@std@@AEBV?$vector@DV?$allocator@D@std@@@1@AEBV01@@Z
	??$vectorToString@E@@YA?AV?$basic_string@DU?$char_traits@D@std@@V?$allocator@D@2@@std@@AEBV?$vector@EV?$allocator@E@std@@@1@AEBV01@@Z
	??$vectorToString@F@@YA?AV?$basic_string@DU?$char_traits@D@std@@V?$allocator@D@2@@std@@AEBV?$vector@FV?$allocator@F@std@@@1@AEBV01@@Z
	??$vectorToString@G@@YA?AV?$basic_string@DU?$char_traits@D@std@@V?$allocator@D@2@@std@@AEBV?$vector@GV?$allocator@G@std@@@1@AEBV01@@Z
	??$vectorToString@H@@YA?AV?$basic_string@DU?$char_traits@D@std@@V?$allocator@D@2@@std@@AEBV?$vector@HV?$allocator@H@std@@@1@AEBV01@@Z
	??$vectorToString@I@@YA?AV?$basic_string@DU?$char_traits@D@std@@V?$allocator@D@2@@std@@AEBV?$vector@IV?$allocator@I@std@@@1@AEBV01@@Z
	??$vectorToString@J@@YA?AV?$basic_string@DU?$char_traits@D@std@@V?$allocator@D@2@@std@@AEBV?$vector@JV?$allocator@J@std@@@1@AEBV01@@Z
	??$vectorToString@K@@YA?AV?$basic_string@DU?$char_traits@D@std@@V?$allocator@D@2@@std@@AEBV?$vector@KV?$allocator@K@std@@@1@AEBV01@@Z
	??$vectorToString@M@@YA?AV?$basic_string@DU?$char_traits@D@std@@V?$allocator@D@2@@std@@AEBV?$vector@MV?$allocator@M@std@@@1@AEBV01@@Z
	??$vectorToString@N@@YA?AV?$basic_string@DU?$char_traits@D@std@@V?$allocator@D@2@@std@@AEBV?$vector@NV?$allocator@N@std@@@1@AEBV01@@Z
	??$vectorToString@V?$basic_string@DU?$char_traits@D@std@@V?$allocator@D@2@@std@@@@YA?AV?$basic_string@DU?$char_traits@D@std@@V?$allocator@D@2@@std@@AEBV?$vector@V?$basic_string@DU?$char_traits@D@std@@V?$allocator@D@2@@std@@V?$allocator@V?$basic_string@DU?$char_traits@D@std@@V?$allocator@D@2@@std@@@2@@1@AEBV01@@Z
	??$vectorToString@_N@@YA?AV?$basic_string@DU?$char_traits@D@std@@V?$allocator@D@2@@std@@AEBV?$vector@_NV?$allocator@_N@std@@@1@AEBV01@@Z
	??$ws@DU?$char_traits@D@std@@@std@@YAAEAV?$basic_istream@DU?$char_traits@D@std@@@0@AEAV10@@Z
	??0?$GetSet@V?$basic_string@DU?$char_traits@D@std@@V?$allocator@D@2@@std@@@@IEAA@AEAVNode@GetSetInternal@@@Z
	??0?$GetSet@V?$basic_string@DU?$char_traits@D@std@@V?$allocator@D@2@@std@@@@QEAA@AEBV?$basic_string@DU?$char_traits@D@std@@V?$allocator@D@2@@std@@AEBVSection@GetSetGui@@0@Z
	??0?$GetSet@_N@@QEAA@AEBV?$basic_string@DU?$char_traits@D@std@@V?$allocator@D@2@@std@@AEBVSection@GetSetGui@@AEB_N@Z
	??0?$Key@D@GetSetInternal@@QEAA@AEAVSection@1@AEBV?$basic_string@DU?$char_traits@D@std@@V?$allocator@D@2@@std@@AEBD@Z
	??0?$Key@E@GetSetInternal@@QEAA@AEAVSection@1@AEBV?$basic_string@DU?$char_traits@D@std@@V?$allocator@D@2@@std@@AEBE@Z
	??0?$Key@F@GetSetInternal@@QEAA@AEAVSection@1@AEBV?$basic_string@DU?$char_traits@D@std@@V?$allocator@D@2@@std@@AEBF@Z
	??0?$Key@G@GetSetInternal@@QEAA@AEAVSection@1@AEBV?$basic_string@DU?$char_traits@D@std@@V?$allocator@D@2@@std@@AEBG@Z
	??0?$Key@H@GetSetInternal@@QEAA@AEAVSection@1@AEBV?$basic_string@DU?$char_traits@D@std@@V?$allocator@D@2@@std@@AEBH@Z
	??0?$Key@I@GetSetInternal@@QEAA@AEAVSection@1@AEBV?$basic_string@DU?$char_traits@D@std@@V?$allocator@D@2@@std@@AEBI@Z
	??0?$Key@J@GetSetInternal@@QEAA@AEAVSection@1@AEBV?$basic_string@DU?$char_traits@D@std@@V?$allocator@D@2@@std@@AEBJ@Z
	??0?$Key@K@GetSetInternal@@QEAA@AEAVSection@1@AEBV?$basic_string@DU?$char_traits@D@std@@V?$allocator@D@2@@std@@AEBK@Z
	??0?$Key@M@GetSetInternal@@QEAA@AEAVSection@1@AEBV?$basic_string@DU?$char_traits@D@std@@V?$allocator@D@2@@std@@AEBM@Z
	??0?$Key@N@GetSetInternal@@QEAA@AEAVSection@1@AEBV?$basic_string@DU?$char_traits@D@std@@V?$allocator@D@2@@std@@AEBN@Z
	??0?$Key@V?$basic_string@DU?$char_traits@D@std@@V?$allocator@D@2@@std@@@GetSetInternal@@QEAA@AEAVSection@1@AEBV?$basic_string@DU?$char_traits@D@std@@V?$allocator@D@2@@std@@1@Z
	??0?$Key@V?$vector@DV?$allocator@D@std@@@std@@@GetSetInternal@@QEAA@AEAVSection@1@AEBV?$basic_string@DU?$char_traits@D@std@@V?$allocator@D@2@@std@@AEBV?$vector@DV?$allocator@D@std@@@4@@Z
	??0?$Key@V?$vector@EV?$allocator@E@std@@@std@@@GetSetInternal@@QEAA@AEAVSection@1@AEBV?$basic_string@DU?$char_traits@D@std@@V?$allocator@D@2@@std@@AEBV?$vector@EV?$allocator@E@std@@@4@@Z
	??0?$Key@V?$vector@FV?$allocator@F@std@@@std@@@GetSetInternal@@QEAA@AEAVSection@1@AEBV?$basic_string@DU?$char_traits@D@std@@V?$allocator@D@2@@std@@AEBV?$vector@FV?$allocator@F@std@@@4@@Z
	??0?$Key@V?$vector@GV?$allocator@G@std@@@std@@@GetSetInternal@@QEAA@AEAVSection@1@AEBV?$basic_string@DU?$char_traits@D@std@@V?$allocator@D@2@@std@@AEBV?$vector@GV?$allocator@G@std@@@4@@Z
	??0?$Key@V?$vector@HV?$allocator@H@std@@@std@@@GetSetInternal@@QEAA@AEAVSection@1@AEBV?$basic_string@DU?$char_traits@D@std@@V?$allocator@D@2@@std@@AEBV?$vector@HV?$allocator@H@std@@@4@@Z
	??0?$Key@V?$vector@IV?$allocator@I@std@@@std@@@GetSetInternal@@QEAA@AEAVSection@1@AEBV?$basic_string@DU?$char_traits@D@std@@V?$allocator@D@2@@std@@AEBV?$vector@IV?$allocator@I@std@@@4@@Z
	??0?$Key@V?$vector@JV?$allocator@J@std@@@std@@@GetSetInternal@@QEAA@AEAVSection@1@AEBV?$basic_string@DU?$char_traits@D@std@@V?$allocator@D@2@@std@@AEBV?$vector@JV?$allocator@J@std@@@4@@Z
	??0?$Key@V?$vector@KV?$allocator@K@std@@@std@@@GetSetInternal@@QEAA@AEAVSection@1@AEBV?$basic_string@DU?$char_traits@D@std@@V?$allocator@D@2@@std@@AEBV?$vector@KV?$allocator@K@std@@@4@@Z
	??0?$Key@V?$vector@MV?$allocator@M@std@@@std@@@GetSetInternal@@QEAA@AEAVSection@1@AEBV?$basic_string@DU?$char_traits@D@std@@V?$allocator@D@2@@std@@AEBV?$vector@MV?$allocator@M@std@@@4@@Z
	??0?$Key@V?$vector@NV?$allocator@N@std@@@std@@@GetSetInternal@@QEAA@AEAVSection@1@AEBV?$basic_string@DU?$char_traits@D@std@@V?$allocator@D@2@@std@@AEBV?$vector@NV?$allocator@N@std@@@4@@Z
	??0?$Key@V?$vector@V?$basic_string@DU?$char_traits@D@std@@V?$allocator@D@2@@std@@V?$allocator@V?$basic_string@DU?$char_traits@D@std@@V?$allocator@D@2@@std@@@2@@std@@@GetSetInternal@@QEAA@AEAVSection@1@AEBV?$basic_string@DU?$char_traits@D@std@@V?$allocator@D@2@@std@@AEBV?$vector@V?$basic_string@DU?$char_traits@D@std@@V?$allocator@D@2@@std@@V?$allocator@V?$basic_string@DU?$char_traits@D@std@@V?$allocator@D@2@@std@@@2@@4@@Z
	??0?$Key@V?$vector@_NV?$allocator@_N@std@@@std@@@GetSetInternal@@QEAA@AEAVSection@1@AEBV?$basic_string@DU?$char_traits@D@std@@V?$allocator@D@2@@std@@AEBV?$vector@_NV?$allocator@_N@std@@@4@@Z
	??0?$Key@_N@GetSetInternal@@QEAA@AEAVSection@1@AEBV?$basic_string@DU?$char_traits@D@std@@V?$allocator@D@2@@std@@AEB_N@Z
	??0?$_Alloc_construct_ptr@V?$allocator@U?$_Tree_node@PEAUObserver@Dictionary@GetSetInternal@@PEAX@std@@@std@@@std@@QEAA@AEAV?$allocator@U?$_Tree_node@PEAUObserver@Dictionary@GetSetInternal@@PEAX@std@@@1@@Z
	??0?$_Alloc_construct_ptr@V?$allocator@U?$_Tree_node@U?$pair@$$CBEE@std@@PEAX@std@@@std@@@std@@QEAA@AEAV?$allocator@U?$_Tree_node@U?$pair@$$CBEE@std@@PEAX@std@@@1@@Z
	??0?$_Alloc_construct_ptr@V?$allocator@U?$_Tree_node@U?$pair@$$CBV?$basic_string@DU?$char_traits@D@std@@V?$allocator@D@2@@std@@P6APEAVObject@GetSetGui@@AEBVSection@4@AEAVProgressInterface@4@@Z@std@@PEAX@std@@@std@@@std@@QEAA@AEAV?$allocator@U?$_Tree_node@U?$pair@$$CBV?$basic_string@DU?$char_traits@D@std@@V?$allocator@D@2@@std@@P6APEAVObject@GetSetGui@@AEBVSection@4@AEAVProgressInterface@4@@Z@std@@PEAX@std@@@1@@Z
	??0?$_Alloc_construct_ptr@V?$allocator@U?$_Tree_node@U?$pair@$$CBV?$basic_string@DU?$char_traits@D@std@@V?$allocator@D@2@@std@@PEAVNode@GetSetInternal@@@std@@PEAX@std@@@std@@@std@@QEAA@AEAV?$allocator@U?$_Tree_node@U?$pair@$$CBV?$basic_string@DU?$char_traits@D@std@@V?$allocator@D@2@@std@@PEAVNode@GetSetInternal@@@std@@PEAX@std@@@1@@Z
	??0?$_Alloc_construct_ptr@V?$allocator@U?$_Tree_node@U?$pair@$$CBV?$basic_string@DU?$char_traits@D@std@@V?$allocator@D@2@@std@@V12@@std@@PEAX@std@@@std@@@std@@QEAA@AEAV?$allocator@U?$_Tree_node@U?$pair@$$CBV?$basic_string@DU?$char_traits@D@std@@V?$allocator@D@2@@std@@V12@@std@@PEAX@std@@@1@@Z
	??0?$_Alloc_construct_ptr@V?$allocator@U?$_Tree_node@U?$pair@$$CBV?$basic_string@DU?$char_traits@D@std@@V?$allocator@D@2@@std@@V?$map@V?$basic_string@DU?$char_traits@D@std@@V?$allocator@D@2@@std@@V12@U?$less@V?$basic_string@DU?$char_traits@D@std@@V?$allocator@D@2@@std@@@2@V?$allocator@U?$pair@$$CBV?$basic_string@DU?$char_traits@D@std@@V?$allocator@D@2@@std@@V12@@std@@@2@@2@@std@@PEAX@std@@@std@@@std@@QEAA@AEAV?$allocator@U?$_Tree_node@U?$pair@$$CBV?$basic_string@DU?$char_traits@D@std@@V?$allocator@D@2@@std@@V?$map@V?$basic_string@DU?$char_traits@D@std@@V?$allocator@D@2@@std@@V12@U?$less@V?$basic_string@DU?$char_traits@D@std@@V?$allocator@D@2@@std@@@2@V?$allocator@U?$pair@$$CBV?$basic_string@DU?$char_traits@D@std@@V?$allocator@D@2@@std@@V12@@std@@@2@@2@@std@@PEAX@std@@@1@@Z
	??0?$_Alloc_construct_ptr@V?$allocator@U?$_Tree_node@U?$pair@QEAXP6AXAEBV?$basic_string@DU?$char_traits@D@std@@V?$allocator@D@2@@std@@PEAX@Z@std@@PEAX@std@@@std@@@std@@QEAA@AEAV?$allocator@U?$_Tree_node@U?$pair@QEAXP6AXAEBV?$basic_string@DU?$char_traits@D@std@@V?$allocator@D@2@@std@@PEAX@Z@std@@PEAX@std@@@1@@Z
	??0?$_Alloc_construct_ptr@V?$allocator@U?$_Tree_node@V?$basic_string@DU?$char_traits@D@std@@V?$allocator@D@2@@std@@PEAX@std@@@std@@@std@@QEAA@AEAV?$allocator@U?$_Tree_node@V?$basic_string@DU?$char_traits@D@std@@V?$allocator@D@2@@std@@PEAX@std@@@1@@Z
	??0?$_Func_class@XAEBVNode@GetSetInternal@@@std@@QEAA@XZ
	??0?$_String_bitmap@D$00@std@@QEAA@XZ
	??0?$_String_const_iterator@V?$_String_val@U?$_Simple_types@D@std@@@std@@@std@@QEAA@PEBDPEBU_Container_base0@1@@Z
	??0?$_String_iterator@V?$_String_val@U?$_Simple_types@D@std@@@std@@@std@@QEAA@PEBDPEBU_Container_base0@1@@Z
	??0?$_String_val@U?$_Simple_types@D@std@@@std@@QEAA@XZ
	??0?$_Tree@V?$_Tmap_traits@EEU?$less@E@std@@V?$allocator@U?$pair@$$CBEE@std@@@2@$0A@@std@@@std@@QEAA@AEBU?$less@E@1@@Z
	??0?$_Tree@V?$_Tmap_traits@PEAXP6AXAEBV?$basic_string@DU?$char_traits@D@std@@V?$allocator@D@2@@std@@PEAX@ZU?$less@PEAX@2@V?$allocator@U?$pair@QEAXP6AXAEBV?$basic_string@DU?$char_traits@D@std@@V?$allocator@D@2@@std@@PEAX@Z@std@@@2@$0A@@std@@@std@@QEAA@AEBU?$less@PEAX@1@@Z
	??0?$_Tree@V?$_Tmap_traits@V?$basic_string@DU?$char_traits@D@std@@V?$allocator@D@2@@std@@P6APEAVObject@GetSetGui@@AEBVSection@4@AEAVProgressInterface@4@@ZU?$less@V?$basic_string@DU?$char_traits@D@std@@V?$allocator@D@2@@std@@@2@V?$allocator@U?$pair@$$CBV?$basic_string@DU?$char_traits@D@std@@V?$allocator@D@2@@std@@P6APEAVObject@GetSetGui@@AEBVSection@4@AEAVProgressInterface@4@@Z@std@@@2@$0A@@std@@@std@@QEAA@AEBU?$less@V?$basic_string@DU?$char_traits@D@std@@V?$allocator@D@2@@std@@@1@@Z
	??0?$_Tree@V?$_Tmap_traits@V?$basic_string@DU?$char_traits@D@std@@V?$allocator@D@2@@std@@PEAVNode@GetSetInternal@@U?$less@V?$basic_string@DU?$char_traits@D@std@@V?$allocator@D@2@@std@@@2@V?$allocator@U?$pair@$$CBV?$basic_string@DU?$char_traits@D@std@@V?$allocator@D@2@@std@@PEAVNode@GetSetInternal@@@std@@@2@$0A@@std@@@std@@QEAA@AEBU?$less@V?$basic_string@DU?$char_traits@D@std@@V?$allocator@D@2@@std@@@1@@Z
	??0?$_Tree@V?$_Tmap_traits@V?$basic_string@DU?$char_traits@D@std@@V?$allocator@D@2@@std@@V12@U?$less@V?$basic_string@DU?$char_traits@D@std@@V?$allocator@D@2@@std@@@2@V?$allocator@U?$pair@$$CBV?$basic_string@DU?$char_traits@D@std@@V?$allocator@D@2@@std@@V12@@std@@@2@$0A@@std@@@std@@QEAA@AEBU?$less@V?$basic_string@DU?$char_traits@D@std@@V?$allocator@D@2@@std@@@1@@Z
	??0?$_Tree@V?$_Tmap_traits@V?$basic_string@DU?$char_traits@D@std@@V?$allocator@D@2@@std@@V?$map@V?$basic_string@DU?$char_traits@D@std@@V?$allocator@D@2@@std@@V12@U?$less@V?$basic_string@DU?$char_traits@D@std@@V?$allocator@D@2@@std@@@2@V?$allocator@U?$pair@$$CBV?$basic_string@DU?$char_traits@D@std@@V?$allocator@D@2@@std@@V12@@std@@@2@@2@U?$less@V?$basic_string@DU?$char_traits@D@std@@V?$allocator@D@2@@std@@@2@V?$allocator@U?$pair@$$CBV?$basic_string@DU?$char_traits@D@std@@V?$allocator@D@2@@std@@V?$map@V?$basic_string@DU?$char_traits@D@std@@V?$allocator@D@2@@std@@V12@U?$less@V?$basic_string@DU?$char_traits@D@std@@V?$allocator@D@2@@std@@@2@V?$allocator@U?$pair@$$CBV?$basic_string@DU?$char_traits@D@std@@V?$allocator@D@2@@std@@V12@@std@@@2@@2@@std@@@2@$0A@@std@@@std@@QEAA@AEBU?$less@V?$basic_string@DU?$char_traits@D@std@@V?$allocator@D@2@@std@@@1@@Z
	??0?$_Tree@V?$_Tset_traits@PEAUObserver@Dictionary@GetSetInternal@@U?$less@PEAUObserver@Dictionary@GetSetInternal@@@std@@V?$allocator@PEAUObserver@Dictionary@GetSetInternal@@@5@$0A@@std@@@std@@QEAA@AEBU?$less@PEAUObserver@Dictionary@GetSetInternal@@@1@@Z
	??0?$_Tree@V?$_Tset_traits@V?$basic_string@DU?$char_traits@D@std@@V?$allocator@D@2@@std@@U?$less@V?$basic_string@DU?$char_traits@D@std@@V?$allocator@D@2@@std@@@2@V?$allocator@V?$basic_string@DU?$char_traits@D@std@@V?$allocator@D@2@@std@@@2@$0A@@std@@@std@@QEAA@$$QEAV01@@Z
	??0?$_Tree@V?$_Tset_traits@V?$basic_string@DU?$char_traits@D@std@@V?$allocator@D@2@@std@@U?$less@V?$basic_string@DU?$char_traits@D@std@@V?$allocator@D@2@@std@@@2@V?$allocator@V?$basic_string@DU?$char_traits@D@std@@V?$allocator@D@2@@std@@@2@$0A@@std@@@std@@QEAA@AEBU?$less@V?$basic_string@DU?$char_traits@D@std@@V?$allocator@D@2@@std@@@1@@Z
	??0?$_Tree_const_iterator@V?$_Tree_val@U?$_Tree_simple_types@PEAUObserver@Dictionary@GetSetInternal@@@std@@@std@@@std@@QEAA@PEAU?$_Tree_node@PEAUObserver@Dictionary@GetSetInternal@@PEAX@1@PEBV?$_Tree_val@U?$_Tree_simple_types@PEAUObserver@Dictionary@GetSetInternal@@@std@@@1@@Z
	??0?$_Tree_const_iterator@V?$_Tree_val@U?$_Tree_simple_types@U?$pair@$$CBEE@std@@@std@@@std@@@std@@QEAA@PEAU?$_Tree_node@U?$pair@$$CBEE@std@@PEAX@1@PEBV?$_Tree_val@U?$_Tree_simple_types@U?$pair@$$CBEE@std@@@std@@@1@@Z
	??0?$_Tree_const_iterator@V?$_Tree_val@U?$_Tree_simple_types@U?$pair@$$CBV?$basic_string@DU?$char_traits@D@std@@V?$allocator@D@2@@std@@P6APEAVObject@GetSetGui@@AEBVSection@4@AEAVProgressInterface@4@@Z@std@@@std@@@std@@@std@@QEAA@PEAU?$_Tree_node@U?$pair@$$CBV?$basic_string@DU?$char_traits@D@std@@V?$allocator@D@2@@std@@P6APEAVObject@GetSetGui@@AEBVSection@4@AEAVProgressInterface@4@@Z@std@@PEAX@1@PEBV?$_Tree_val@U?$_Tree_simple_types@U?$pair@$$CBV?$basic_string@DU?$char_traits@D@std@@V?$allocator@D@2@@std@@P6APEAVObject@GetSetGui@@AEBVSection@4@AEAVProgressInterface@4@@Z@std@@@std@@@1@@Z
	??0?$_Tree_const_iterator@V?$_Tree_val@U?$_Tree_simple_types@U?$pair@$$CBV?$basic_string@DU?$char_traits@D@std@@V?$allocator@D@2@@std@@PEAVNode@GetSetInternal@@@std@@@std@@@std@@@std@@QEAA@PEAU?$_Tree_node@U?$pair@$$CBV?$basic_string@DU?$char_traits@D@std@@V?$allocator@D@2@@std@@PEAVNode@GetSetInternal@@@std@@PEAX@1@PEBV?$_Tree_val@U?$_Tree_simple_types@U?$pair@$$CBV?$basic_string@DU?$char_traits@D@std@@V?$allocator@D@2@@std@@PEAVNode@GetSetInternal@@@std@@@std@@@1@@Z
	??0?$_Tree_const_iterator@V?$_Tree_val@U?$_Tree_simple_types@U?$pair@$$CBV?$basic_string@DU?$char_traits@D@std@@V?$allocator@D@2@@std@@V12@@std@@@std@@@std@@@std@@QEAA@PEAU?$_Tree_node@U?$pair@$$CBV?$basic_string@DU?$char_traits@D@std@@V?$allocator@D@2@@std@@V12@@std@@PEAX@1@PEBV?$_Tree_val@U?$_Tree_simple_types@U?$pair@$$CBV?$basic_string@DU?$char_traits@D@std@@V?$allocator@D@2@@std@@V12@@std@@@std@@@1@@Z
	??0?$_Tree_const_iterator@V?$_Tree_val@U?$_Tree_simple_types@U?$pair@$$CBV?$basic_string@DU?$char_traits@D@std@@V?$allocator@D@2@@std@@V?$map@V?$basic_string@DU?$char_traits@D@std@@V?$allocator@D@2@@std@@V12@U?$less@V?$basic_string@DU?$char_traits@D@std@@V?$allocator@D@2@@std@@@2@V?$allocator@U?$pair@$$CBV?$basic_string@DU?$char_traits@D@std@@V?$allocator@D@2@@std@@V12@@std@@@2@@2@@std@@@std@@@std@@@std@@QEAA@PEAU?$_Tree_node@U?$pair@$$CBV?$basic_string@DU?$char_traits@D@std@@V?$allocator@D@2@@std@@V?$map@V?$basic_string@DU?$char_traits@D@std@@V?$allocator@D@2@@std@@V12@U?$less@V?$basic_string@DU?$char_traits@D@std@@V?$allocator@D@2@@std@@@2@V?$allocator@U?$pair@$$CBV?$basic_string@DU?$char_traits@D@std@@V?$allocator@D@2@@std@@V12@@std@@@2@@2@@std@@PEAX@1@PEBV?$_Tree_val@U?$_Tree_simple_types@U?$pair@$$CBV?$basic_string@DU?$char_traits@D@std@@V?$allocator@D@2@@std@@V?$map@V?$basic_string@DU?$char_traits@D@std@@V?$allocator@D@2@@std@@V12@U?$less@V?$basic_string@DU?$char_traits@D@std@@V?$allocator@D@2@@std@@@2@V?$allocator@U?$pair@$$CBV?$basic_string@DU?$char_traits@D@std@@V?$allocator@D@2@@std@@V12@@std@@@2@@2@@std@@@std@@@1@@Z
	??0?$_Tree_const_iterator@V?$_Tree_val@U?$_Tree_simple_types@U?$pair@QEAXP6AXAEBV?$basic_string@DU?$char_traits@D@std@@V?$allocator@D@2@@std@@PEAX@Z@std@@@std@@@std@@@std@@QEAA@PEAU?$_Tree_node@U?$pair@QEAXP6AXAEBV?$basic_string@DU?$char_traits@D@std@@V?$allocator@D@2@@std@@PEAX@Z@std@@PEAX@1@PEBV?$_Tree_val@U?$_Tree_simple_types@U?$pair@QEAXP6AXAEBV?$basic_string@DU?$char_traits@D@std@@V?$allocator@D@2@@std@@PEAX@Z@std@@@std@@@1@@Z
	??0?$_Tree_const_iterator@V?$_Tree_val@U?$_Tree_simple_types@V?$basic_string@DU?$char_traits@D@std@@V?$allocator@D@2@@std@@@std@@@std@@@std@@QEAA@PEAU?$_Tree_node@V?$basic_string@DU?$char_traits@D@std@@V?$allocator@D@2@@std@@PEAX@1@PEBV?$_Tree_val@U?$_Tree_simple_types@V?$basic_string@DU?$char_traits@D@std@@V?$allocator@D@2@@std@@@std@@@1@@Z
	??0?$_Tree_head_scoped_ptr@V?$allocator@U?$_Tree_node@U?$pair@$$CBV?$basic_string@DU?$char_traits@D@std@@V?$allocator@D@2@@std@@V12@@std@@PEAX@std@@@std@@V?$_Tree_val@U?$_Tree_simple_types@U?$pair@$$CBV?$basic_string@DU?$char_traits@D@std@@V?$allocator@D@2@@std@@V12@@std@@@std@@@2@@std@@QEAA@AEAV?$allocator@U?$_Tree_node@U?$pair@$$CBV?$basic_string@DU?$char_traits@D@std@@V?$allocator@D@2@@std@@V12@@std@@PEAX@std@@@1@AEAV?$_Tree_val@U?$_Tree_simple_types@U?$pair@$$CBV?$basic_string@DU?$char_traits@D@std@@V?$allocator@D@2@@std@@V12@@std@@@std@@@1@@Z
	??0?$_Tree_iterator@V?$_Tree_val@U?$_Tree_simple_types@U?$pair@$$CBV?$basic_string@DU?$char_traits@D@std@@V?$allocator@D@2@@std@@P6APEAVObject@GetSetGui@@AEBVSection@4@AEAVProgressInterface@4@@Z@std@@@std@@@std@@@std@@QEAA@PEAU?$_Tree_node@U?$pair@$$CBV?$basic_string@DU?$char_traits@D@std@@V?$allocator@D@2@@std@@P6APEAVObject@GetSetGui@@AEBVSection@4@AEAVProgressInterface@4@@Z@std@@PEAX@1@PEBV?$_Tree_val@U?$_Tree_simple_types@U?$pair@$$CBV?$basic_string@DU?$char_traits@D@std@@V?$allocator@D@2@@std@@P6APEAVObject@GetSetGui@@AEBVSection@4@AEAVProgressInterface@4@@Z@std@@@std@@@1@@Z
	??0?$_Tree_iterator@V?$_Tree_val@U?$_Tree_simple_types@U?$pair@$$CBV?$basic_string@DU?$char_traits@D@std@@V?$allocator@D@2@@std@@PEAVNode@GetSetInternal@@@std@@@std@@@std@@@std@@QEAA@PEAU?$_Tree_node@U?$pair@$$CBV?$basic_string@DU?$char_traits@D@std@@V?$allocator@D@2@@std@@PEAVNode@GetSetInternal@@@std@@PEAX@1@PEBV?$_Tree_val@U?$_Tree_simple_types@U?$pair@$$CBV?$basic_string@DU?$char_traits@D@std@@V?$allocator@D@2@@std@@PEAVNode@GetSetInternal@@@std@@@std@@@1@@Z
	??0?$_Tree_iterator@V?$_Tree_val@U?$_Tree_simple_types@U?$pair@$$CBV?$basic_string@DU?$char_traits@D@std@@V?$allocator@D@2@@std@@V12@@std@@@std@@@std@@@std@@QEAA@PEAU?$_Tree_node@U?$pair@$$CBV?$basic_string@DU?$char_traits@D@std@@V?$allocator@D@2@@std@@V12@@std@@PEAX@1@PEBV?$_Tree_val@U?$_Tree_simple_types@U?$pair@$$CBV?$basic_string@DU?$char_traits@D@std@@V?$allocator@D@2@@std@@V12@@std@@@std@@@1@@Z
	??0?$_Tree_iterator@V?$_Tree_val@U?$_Tree_simple_types@U?$pair@QEAXP6AXAEBV?$basic_string@DU?$char_traits@D@std@@V?$allocator@D@2@@std@@PEAX@Z@std@@@std@@@std@@@std@@QEAA@PEAU?$_Tree_node@U?$pair@QEAXP6AXAEBV?$basic_string@DU?$char_traits@D@std@@V?$allocator@D@2@@std@@PEAX@Z@std@@PEAX@1@PEBV?$_Tree_val@U?$_Tree_simple_types@U?$pair@QEAXP6AXAEBV?$basic_string@DU?$char_traits@D@std@@V?$allocator@D@2@@std@@PEAX@Z@std@@@std@@@1@@Z
	??0?$_Tree_temp_node_alloc@V?$allocator@U?$_Tree_node@PEAUObserver@Dictionary@GetSetInternal@@PEAX@std@@@std@@@std@@QEAA@AEAV?$allocator@U?$_Tree_node@PEAUObserver@Dictionary@GetSetInternal@@PEAX@std@@@1@@Z
	??0?$_Tree_temp_node_alloc@V?$allocator@U?$_Tree_node@U?$pair@$$CBEE@std@@PEAX@std@@@std@@@std@@QEAA@AEAV?$allocator@U?$_Tree_node@U?$pair@$$CBEE@std@@PEAX@std@@@1@@Z
	??0?$_Tree_temp_node_alloc@V?$allocator@U?$_Tree_node@U?$pair@$$CBV?$basic_string@DU?$char_traits@D@std@@V?$allocator@D@2@@std@@P6APEAVObject@GetSetGui@@AEBVSection@4@AEAVProgressInterface@4@@Z@std@@PEAX@std@@@std@@@std@@QEAA@AEAV?$allocator@U?$_Tree_node@U?$pair@$$CBV?$basic_string@DU?$char_traits@D@std@@V?$allocator@D@2@@std@@P6APEAVObject@GetSetGui@@AEBVSection@4@AEAVProgressInterface@4@@Z@std@@PEAX@std@@@1@@Z
	??0?$_Tree_temp_node_alloc@V?$allocator@U?$_Tree_node@U?$pair@$$CBV?$basic_string@DU?$char_traits@D@std@@V?$allocator@D@2@@std@@PEAVNode@GetSetInternal@@@std@@PEAX@std@@@std@@@std@@QEAA@AEAV?$allocator@U?$_Tree_node@U?$pair@$$CBV?$basic_string@DU?$char_traits@D@std@@V?$allocator@D@2@@std@@PEAVNode@GetSetInternal@@@std@@PEAX@std@@@1@@Z
	??0?$_Tree_temp_node_alloc@V?$allocator@U?$_Tree_node@U?$pair@$$CBV?$basic_string@DU?$char_traits@D@std@@V?$allocator@D@2@@std@@V12@@std@@PEAX@std@@@std@@@std@@QEAA@AEAV?$allocator@U?$_Tree_node@U?$pair@$$CBV?$basic_string@DU?$char_traits@D@std@@V?$allocator@D@2@@std@@V12@@std@@PEAX@std@@@1@@Z
	??0?$_Tree_temp_node_alloc@V?$allocator@U?$_Tree_node@U?$pair@$$CBV?$basic_string@DU?$char_traits@D@std@@V?$allocator@D@2@@std@@V?$map@V?$basic_string@DU?$char_traits@D@std@@V?$allocator@D@2@@std@@V12@U?$less@V?$basic_string@DU?$char_traits@D@std@@V?$allocator@D@2@@std@@@2@V?$allocator@U?$pair@$$CBV?$basic_string@DU?$char_traits@D@std@@V?$allocator@D@2@@std@@V12@@std@@@2@@2@@std@@PEAX@std@@@std@@@std@@QEAA@AEAV?$allocator@U?$_Tree_node@U?$pair@$$CBV?$basic_string@DU?$char_traits@D@std@@V?$allocator@D@2@@std@@V?$map@V?$basic_string@DU?$char_traits@D@std@@V?$allocator@D@2@@std@@V12@U?$less@V?$basic_string@DU?$char_traits@D@std@@V?$allocator@D@2@@std@@@2@V?$allocator@U?$pair@$$CBV?$basic_string@DU?$char_traits@D@std@@V?$allocator@D@2@@std@@V12@@std@@@2@@2@@std@@PEAX@std@@@1@@Z
	??0?$_Tree_temp_node_alloc@V?$allocator@U?$_Tree_node@U?$pair@QEAXP6AXAEBV?$basic_string@DU?$char_traits@D@std@@V?$allocator@D@2@@std@@PEAX@Z@std@@PEAX@std@@@std@@@std@@QEAA@AEAV?$allocator@U?$_Tree_node@U?$pair@QEAXP6AXAEBV?$basic_string@DU?$char_traits@D@std@@V?$allocator@D@2@@std@@PEAX@Z@std@@PEAX@std@@@1@@Z
	??0?$_Tree_temp_node_alloc@V?$allocator@U?$_Tree_node@V?$basic_string@DU?$char_traits@D@std@@V?$allocator@D@2@@std@@PEAX@std@@@std@@@std@@QEAA@AEAV?$allocator@U?$_Tree_node@V?$basic_string@DU?$char_traits@D@std@@V?$allocator@D@2@@std@@PEAX@std@@@1@@Z
	??0?$_Tree_unchecked_const_iterator@V?$_Tree_val@U?$_Tree_simple_types@PEAUObserver@Dictionary@GetSetInternal@@@std@@@std@@U_Iterator_base0@2@@std@@QEAA@PEAU?$_Tree_node@PEAUObserver@Dictionary@GetSetInternal@@PEAX@1@PEBV?$_Tree_val@U?$_Tree_simple_types@PEAUObserver@Dictionary@GetSetInternal@@@std@@@1@@Z
	??0?$_Tree_unchecked_const_iterator@V?$_Tree_val@U?$_Tree_simple_types@U?$pair@$$CBEE@std@@@std@@@std@@U_Iterator_base0@2@@std@@QEAA@PEAU?$_Tree_node@U?$pair@$$CBEE@std@@PEAX@1@PEBV?$_Tree_val@U?$_Tree_simple_types@U?$pair@$$CBEE@std@@@std@@@1@@Z
	??0?$_Tree_unchecked_const_iterator@V?$_Tree_val@U?$_Tree_simple_types@U?$pair@$$CBV?$basic_string@DU?$char_traits@D@std@@V?$allocator@D@2@@std@@P6APEAVObject@GetSetGui@@AEBVSection@4@AEAVProgressInterface@4@@Z@std@@@std@@@std@@U_Iterator_base0@2@@std@@QEAA@PEAU?$_Tree_node@U?$pair@$$CBV?$basic_string@DU?$char_traits@D@std@@V?$allocator@D@2@@std@@P6APEAVObject@GetSetGui@@AEBVSection@4@AEAVProgressInterface@4@@Z@std@@PEAX@1@PEBV?$_Tree_val@U?$_Tree_simple_types@U?$pair@$$CBV?$basic_string@DU?$char_traits@D@std@@V?$allocator@D@2@@std@@P6APEAVObject@GetSetGui@@AEBVSection@4@AEAVProgressInterface@4@@Z@std@@@std@@@1@@Z
	??0?$_Tree_unchecked_const_iterator@V?$_Tree_val@U?$_Tree_simple_types@U?$pair@$$CBV?$basic_string@DU?$char_traits@D@std@@V?$allocator@D@2@@std@@PEAVNode@GetSetInternal@@@std@@@std@@@std@@U_Iterator_base0@2@@std@@QEAA@PEAU?$_Tree_node@U?$pair@$$CBV?$basic_string@DU?$char_traits@D@std@@V?$allocator@D@2@@std@@PEAVNode@GetSetInternal@@@std@@PEAX@1@PEBV?$_Tree_val@U?$_Tree_simple_types@U?$pair@$$CBV?$basic_string@DU?$char_traits@D@std@@V?$allocator@D@2@@std@@PEAVNode@GetSetInternal@@@std@@@std@@@1@@Z
	??0?$_Tree_unchecked_const_iterator@V?$_Tree_val@U?$_Tree_simple_types@U?$pair@$$CBV?$basic_string@DU?$char_traits@D@std@@V?$allocator@D@2@@std@@V12@@std@@@std@@@std@@U_Iterator_base0@2@@std@@QEAA@PEAU?$_Tree_node@U?$pair@$$CBV?$basic_string@DU?$char_traits@D@std@@V?$allocator@D@2@@std@@V12@@std@@PEAX@1@PEBV?$_Tree_val@U?$_Tree_simple_types@U?$pair@$$CBV?$basic_string@DU?$char_traits@D@std@@V?$allocator@D@2@@std@@V12@@std@@@std@@@1@@Z
	??0?$_Tree_unchecked_const_iterator@V?$_Tree_val@U?$_Tree_simple_types@U?$pair@$$CBV?$basic_string@DU?$char_traits@D@std@@V?$allocator@D@2@@std@@V?$map@V?$basic_string@DU?$char_traits@D@std@@V?$allocator@D@2@@std@@V12@U?$less@V?$basic_string@DU?$char_traits@D@std@@V?$allocator@D@2@@std@@@2@V?$allocator@U?$pair@$$CBV?$basic_string@DU?$char_traits@D@std@@V?$allocator@D@2@@std@@V12@@std@@@2@@2@@std@@@std@@@std@@U_Iterator_base0@2@@std@@QEAA@PEAU?$_Tree_node@U?$pair@$$CBV?$basic_string@DU?$char_traits@D@std@@V?$allocator@D@2@@std@@V?$map@V?$basic_string@DU?$char_traits@D@std@@V?$allocator@D@2@@std@@V12@U?$less@V?$basic_string@DU?$char_traits@D@std@@V?$allocator@D@2@@std@@@2@V?$allocator@U?$pair@$$CBV?$basic_string@DU?$char_traits@D@std@@V?$allocator@D@2@@std@@V12@@std@@@2@@2@@std@@PEAX@1@PEBV?$_Tree_val@U?$_Tree_simple_types@U?$pair@$$CBV?$basic_string@DU?$char_traits@D@std@@V?$allocator@D@2@@std@@V?$map@V?$basic_string@DU?$char_traits@D@std@@V?$allocator@D@2@@std@@V12@U?$less@V?$basic_string@DU?$char_traits@D@std@@V?$allocator@D@2@@std@@@2@V?$allocator@U?$pair@$$CBV?$basic_string@DU?$char_traits@D@std@@V?$allocator@D@2@@std@@V12@@std@@@2@@2@@std@@@std@@@1@@Z
	??0?$_Tree_unchecked_const_iterator@V?$_Tree_val@U?$_Tree_simple_types@U?$pair@QEAXP6AXAEBV?$basic_string@DU?$char_traits@D@std@@V?$allocator@D@2@@std@@PEAX@Z@std@@@std@@@std@@U_Iterator_base0@2@@std@@QEAA@PEAU?$_Tree_node@U?$pair@QEAXP6AXAEBV?$basic_string@DU?$char_traits@D@std@@V?$allocator@D@2@@std@@PEAX@Z@std@@PEAX@1@PEBV?$_Tree_val@U?$_Tree_simple_types@U?$pair@QEAXP6AXAEBV?$basic_string@DU?$char_traits@D@std@@V?$allocator@D@2@@std@@PEAX@Z@std@@@std@@@1@@Z
	??0?$_Tree_unchecked_const_iterator@V?$_Tree_val@U?$_Tree_simple_types@V?$basic_string@DU?$char_traits@D@std@@V?$allocator@D@2@@std@@@std@@@std@@U_Iterator_base0@2@@std@@QEAA@PEAU?$_Tree_node@V?$basic_string@DU?$char_traits@D@std@@V?$allocator@D@2@@std@@PEAX@1@PEBV?$_Tree_val@U?$_Tree_simple_types@V?$basic_string@DU?$char_traits@D@std@@V?$allocator@D@2@@std@@@std@@@1@@Z
	??0?$_Tree_unchecked_iterator@V?$_Tree_val@U?$_Tree_simple_types@U?$pair@$$CBV?$basic_string@DU?$char_traits@D@std@@V?$allocator@D@2@@std@@P6APEAVObject@GetSetGui@@AEBVSection@4@AEAVProgressInterface@4@@Z@std@@@std@@@std@@@std@@QEAA@PEAU?$_Tree_node@U?$pair@$$CBV?$basic_string@DU?$char_traits@D@std@@V?$allocator@D@2@@std@@P6APEAVObject@GetSetGui@@AEBVSection@4@AEAVProgressInterface@4@@Z@std@@PEAX@1@PEBV?$_Tree_val@U?$_Tree_simple_types@U?$pair@$$CBV?$basic_string@DU?$char_traits@D@std@@V?$allocator@D@2@@std@@P6APEAVObject@GetSetGui@@AEBVSection@4@AEAVProgressInterface@4@@Z@std@@@std@@@1@@Z
	??0?$_Tree_unchecked_iterator@V?$_Tree_val@U?$_Tree_simple_types@U?$pair@$$CBV?$basic_string@DU?$char_traits@D@std@@V?$allocator@D@2@@std@@PEAVNode@GetSetInternal@@@std@@@std@@@std@@@std@@QEAA@PEAU?$_Tree_node@U?$pair@$$CBV?$basic_string@DU?$char_traits@D@std@@V?$allocator@D@2@@std@@PEAVNode@GetSetInternal@@@std@@PEAX@1@PEBV?$_Tree_val@U?$_Tree_simple_types@U?$pair@$$CBV?$basic_string@DU?$char_traits@D@std@@V?$allocator@D@2@@std@@PEAVNode@GetSetInternal@@@std@@@std@@@1@@Z
	??0?$_Tree_unchecked_iterator@V?$_Tree_val@U?$_Tree_simple_types@U?$pair@$$CBV?$basic_string@DU?$char_traits@D@std@@V?$allocator@D@2@@std@@V12@@std@@@std@@@std@@@std@@QEAA@PEAU?$_Tree_node@U?$pair@$$CBV?$basic_string@DU?$char_traits@D@std@@V?$allocator@D@2@@std@@V12@@std@@PEAX@1@PEBV?$_Tree_val@U?$_Tree_simple_types@U?$pair@$$CBV?$basic_string@DU?$char_traits@D@std@@V?$allocator@D@2@@std@@V12@@std@@@std@@@1@@Z
	??0?$_Tree_unchecked_iterator@V?$_Tree_val@U?$_Tree_simple_types@U?$pair@QEAXP6AXAEBV?$basic_string@DU?$char_traits@D@std@@V?$allocator@D@2@@std@@PEAX@Z@std@@@std@@@std@@@std@@QEAA@PEAU?$_Tree_node@U?$pair@QEAXP6AXAEBV?$basic_string@DU?$char_traits@D@std@@V?$allocator@D@2@@std@@PEAX@Z@std@@PEAX@1@PEBV?$_Tree_val@U?$_Tree_simple_types@U?$pair@QEAXP6AXAEBV?$basic_string@DU?$char_traits@D@std@@V?$allocator@D@2@@std@@PEAX@Z@std@@@std@@@1@@Z
	??0?$_Tree_val@U?$_Tree_simple_types@PEAUObserver@Dictionary@GetSetInternal@@@std@@@std@@QEAA@XZ
	??0?$_Tree_val@U?$_Tree_simple_types@U?$pair@$$CBEE@std@@@std@@@std@@QEAA@XZ
	??0?$_Tree_val@U?$_Tree_simple_types@U?$pair@$$CBV?$basic_string@DU?$char_traits@D@std@@V?$allocator@D@2@@std@@P6APEAVObject@GetSetGui@@AEBVSection@4@AEAVProgressInterface@4@@Z@std@@@std@@@std@@QEAA@XZ
	??0?$_Tree_val@U?$_Tree_simple_types@U?$pair@$$CBV?$basic_string@DU?$char_traits@D@std@@V?$allocator@D@2@@std@@PEAVNode@GetSetInternal@@@std@@@std@@@std@@QEAA@XZ
	??0?$_Tree_val@U?$_Tree_simple_types@U?$pair@$$CBV?$basic_string@DU?$char_traits@D@std@@V?$allocator@D@2@@std@@V12@@std@@@std@@@std@@QEAA@XZ
	??0?$_Tree_val@U?$_Tree_simple_types@U?$pair@$$CBV?$basic_string@DU?$char_traits@D@std@@V?$allocator@D@2@@std@@V?$map@V?$basic_string@DU?$char_traits@D@std@@V?$allocator@D@2@@std@@V12@U?$less@V?$basic_string@DU?$char_traits@D@std@@V?$allocator@D@2@@std@@@2@V?$allocator@U?$pair@$$CBV?$basic_string@DU?$char_traits@D@std@@V?$allocator@D@2@@std@@V12@@std@@@2@@2@@std@@@std@@@std@@QEAA@XZ
	??0?$_Tree_val@U?$_Tree_simple_types@U?$pair@QEAXP6AXAEBV?$basic_string@DU?$char_traits@D@std@@V?$allocator@D@2@@std@@PEAX@Z@std@@@std@@@std@@QEAA@XZ
	??0?$_Tree_val@U?$_Tree_simple_types@V?$basic_string@DU?$char_traits@D@std@@V?$allocator@D@2@@std@@@std@@@std@@QEAA@XZ
	??0?$_Uninitialized_backout_al@V?$allocator@D@std@@@std@@QEAA@PEADAEAV?$allocator@D@1@@Z
	??0?$_Uninitialized_backout_al@V?$allocator@E@std@@@std@@QEAA@PEAEAEAV?$allocator@E@1@@Z
	??0?$_Uninitialized_backout_al@V?$allocator@F@std@@@std@@QEAA@PEAFAEAV?$allocator@F@1@@Z
	??0?$_Uninitialized_backout_al@V?$allocator@G@std@@@std@@QEAA@PEAGAEAV?$allocator@G@1@@Z
	??0?$_Uninitialized_backout_al@V?$allocator@H@std@@@std@@QEAA@PEAHAEAV?$allocator@H@1@@Z
	??0?$_Uninitialized_backout_al@V?$allocator@I@std@@@std@@QEAA@PEAIAEAV?$allocator@I@1@@Z
	??0?$_Uninitialized_backout_al@V?$allocator@J@std@@@std@@QEAA@PEAJAEAV?$allocator@J@1@@Z
	??0?$_Uninitialized_backout_al@V?$allocator@K@std@@@std@@QEAA@PEAKAEAV?$allocator@K@1@@Z
	??0?$_Uninitialized_backout_al@V?$allocator@M@std@@@std@@QEAA@PEAMAEAV?$allocator@M@1@@Z
	??0?$_Uninitialized_backout_al@V?$allocator@N@std@@@std@@QEAA@PEANAEAV?$allocator@N@1@@Z
	??0?$_Uninitialized_backout_al@V?$allocator@V?$basic_string@DU?$char_traits@D@std@@V?$allocator@D@2@@std@@@std@@@std@@QEAA@PEAV?$basic_string@DU?$char_traits@D@std@@V?$allocator@D@2@@1@AEAV?$allocator@V?$basic_string@DU?$char_traits@D@std@@V?$allocator@D@2@@std@@@1@@Z
	??0?$_Vb_const_iterator@U?$_Wrap_alloc@V?$allocator@I@std@@@std@@@std@@QEAA@PEBIPEBU_Container_base0@1@@Z
	??0?$_Vb_iter_base@U?$_Wrap_alloc@V?$allocator@I@std@@@std@@@std@@QEAA@PEBI_KPEBU_Container_base0@1@@Z
	??0?$_Vb_iterator@U?$_Wrap_alloc@V?$allocator@I@std@@@std@@@std@@QEAA@PEBIPEBU_Container_base0@1@@Z
	??0?$_Vb_reference@U?$_Wrap_alloc@V?$allocator@I@std@@@std@@@std@@QEAA@AEBV?$_Vb_iter_base@U?$_Wrap_alloc@V?$allocator@I@std@@@std@@@1@@Z
	??0?$_Vb_val@V?$allocator@_N@std@@@std@@QEAA@$$QEAV01@@Z
	??0?$_Vb_val@V?$allocator@_N@std@@@std@@QEAA@AEBV01@@Z
	??0?$_Vb_val@V?$allocator@_N@std@@@std@@QEAA@AEBV?$allocator@_N@1@@Z
	??0?$_Vector_const_iterator@V?$_Vector_val@U?$_Simple_types@D@std@@@std@@@std@@QEAA@PEADPEBU_Container_base0@1@@Z
	??0?$_Vector_const_iterator@V?$_Vector_val@U?$_Simple_types@E@std@@@std@@@std@@QEAA@PEAEPEBU_Container_base0@1@@Z
	??0?$_Vector_const_iterator@V?$_Vector_val@U?$_Simple_types@F@std@@@std@@@std@@QEAA@PEAFPEBU_Container_base0@1@@Z
	??0?$_Vector_const_iterator@V?$_Vector_val@U?$_Simple_types@G@std@@@std@@@std@@QEAA@PEAGPEBU_Container_base0@1@@Z
	??0?$_Vector_const_iterator@V?$_Vector_val@U?$_Simple_types@H@std@@@std@@@std@@QEAA@PEAHPEBU_Container_base0@1@@Z
	??0?$_Vector_const_iterator@V?$_Vector_val@U?$_Simple_types@I@std@@@std@@@std@@QEAA@PEAIPEBU_Container_base0@1@@Z
	??0?$_Vector_const_iterator@V?$_Vector_val@U?$_Simple_types@J@std@@@std@@@std@@QEAA@PEAJPEBU_Container_base0@1@@Z
	??0?$_Vector_const_iterator@V?$_Vector_val@U?$_Simple_types@K@std@@@std@@@std@@QEAA@PEAKPEBU_Container_base0@1@@Z
	??0?$_Vector_const_iterator@V?$_Vector_val@U?$_Simple_types@M@std@@@std@@@std@@QEAA@PEAMPEBU_Container_base0@1@@Z
	??0?$_Vector_const_iterator@V?$_Vector_val@U?$_Simple_types@N@std@@@std@@@std@@QEAA@PEANPEBU_Container_base0@1@@Z
	??0?$_Vector_const_iterator@V?$_Vector_val@U?$_Simple_types@V?$basic_string@DU?$char_traits@D@std@@V?$allocator@D@2@@std@@@std@@@std@@@std@@QEAA@PEAV?$basic_string@DU?$char_traits@D@std@@V?$allocator@D@2@@1@PEBU_Container_base0@1@@Z
	??0?$_Vector_iterator@V?$_Vector_val@U?$_Simple_types@V?$basic_string@DU?$char_traits@D@std@@V?$allocator@D@2@@std@@@std@@@std@@@std@@QEAA@PEAV?$basic_string@DU?$char_traits@D@std@@V?$allocator@D@2@@1@PEBU_Container_base0@1@@Z
	??0?$_Vector_val@U?$_Simple_types@D@std@@@std@@QEAA@PEAD00@Z
	??0?$_Vector_val@U?$_Simple_types@D@std@@@std@@QEAA@XZ
	??0?$_Vector_val@U?$_Simple_types@E@std@@@std@@QEAA@PEAE00@Z
	??0?$_Vector_val@U?$_Simple_types@E@std@@@std@@QEAA@XZ
	??0?$_Vector_val@U?$_Simple_types@F@std@@@std@@QEAA@PEAF00@Z
	??0?$_Vector_val@U?$_Simple_types@F@std@@@std@@QEAA@XZ
	??0?$_Vector_val@U?$_Simple_types@G@std@@@std@@QEAA@PEAG00@Z
	??0?$_Vector_val@U?$_Simple_types@G@std@@@std@@QEAA@XZ
	??0?$_Vector_val@U?$_Simple_types@H@std@@@std@@QEAA@PEAH00@Z
	??0?$_Vector_val@U?$_Simple_types@H@std@@@std@@QEAA@XZ
	??0?$_Vector_val@U?$_Simple_types@I@std@@@std@@QEAA@PEAI00@Z
	??0?$_Vector_val@U?$_Simple_types@I@std@@@std@@QEAA@XZ
	??0?$_Vector_val@U?$_Simple_types@J@std@@@std@@QEAA@PEAJ00@Z
	??0?$_Vector_val@U?$_Simple_types@J@std@@@std@@QEAA@XZ
	??0?$_Vector_val@U?$_Simple_types@K@std@@@std@@QEAA@PEAK00@Z
	??0?$_Vector_val@U?$_Simple_types@K@std@@@std@@QEAA@XZ
	??0?$_Vector_val@U?$_Simple_types@M@std@@@std@@QEAA@PEAM00@Z
	??0?$_Vector_val@U?$_Simple_types@M@std@@@std@@QEAA@XZ
	??0?$_Vector_val@U?$_Simple_types@N@std@@@std@@QEAA@PEAN00@Z
	??0?$_Vector_val@U?$_Simple_types@N@std@@@std@@QEAA@XZ
	??0?$_Vector_val@U?$_Simple_types@V?$basic_string@DU?$char_traits@D@std@@V?$allocator@D@2@@std@@@std@@@std@@QEAA@PEAV?$basic_string@DU?$char_traits@D@std@@V?$allocator@D@2@@1@00@Z
	??0?$_Vector_val@U?$_Simple_types@V?$basic_string@DU?$char_traits@D@std@@V?$allocator@D@2@@std@@@std@@@std@@QEAA@XZ
	??0?$allocator@D@std@@QEAA@XZ
	??0?$allocator@E@std@@QEAA@XZ
	??0?$allocator@F@std@@QEAA@XZ
	??0?$allocator@G@std@@QEAA@XZ
	??0?$allocator@H@std@@QEAA@XZ
	??0?$allocator@I@std@@QEAA@XZ
	??0?$allocator@J@std@@QEAA@XZ
	??0?$allocator@K@std@@QEAA@XZ
	??0?$allocator@M@std@@QEAA@XZ
	??0?$allocator@N@std@@QEAA@XZ
	??0?$allocator@U?$_Tree_node@PEAUObserver@Dictionary@GetSetInternal@@PEAX@std@@@std@@QEAA@XZ
	??0?$allocator@U?$_Tree_node@U?$pair@$$CBEE@std@@PEAX@std@@@std@@QEAA@XZ
	??0?$allocator@U?$_Tree_node@U?$pair@$$CBV?$basic_string@DU?$char_traits@D@std@@V?$allocator@D@2@@std@@P6APEAVObject@GetSetGui@@AEBVSection@4@AEAVProgressInterface@4@@Z@std@@PEAX@std@@@std@@QEAA@XZ
	??0?$allocator@U?$_Tree_node@U?$pair@$$CBV?$basic_string@DU?$char_traits@D@std@@V?$allocator@D@2@@std@@PEAVNode@GetSetInternal@@@std@@PEAX@std@@@std@@QEAA@XZ
	??0?$allocator@U?$_Tree_node@U?$pair@$$CBV?$basic_string@DU?$char_traits@D@std@@V?$allocator@D@2@@std@@V12@@std@@PEAX@std@@@std@@QEAA@XZ
	??0?$allocator@U?$_Tree_node@U?$pair@$$CBV?$basic_string@DU?$char_traits@D@std@@V?$allocator@D@2@@std@@V?$map@V?$basic_string@DU?$char_traits@D@std@@V?$allocator@D@2@@std@@V12@U?$less@V?$basic_string@DU?$char_traits@D@std@@V?$allocator@D@2@@std@@@2@V?$allocator@U?$pair@$$CBV?$basic_string@DU?$char_traits@D@std@@V?$allocator@D@2@@std@@V12@@std@@@2@@2@@std@@PEAX@std@@@std@@QEAA@XZ
	??0?$allocator@U?$_Tree_node@U?$pair@QEAXP6AXAEBV?$basic_string@DU?$char_traits@D@std@@V?$allocator@D@2@@std@@PEAX@Z@std@@PEAX@std@@@std@@QEAA@XZ
	??0?$allocator@U?$_Tree_node@V?$basic_string@DU?$char_traits@D@std@@V?$allocator@D@2@@std@@PEAX@std@@@std@@QEAA@XZ
	??0?$allocator@V?$basic_string@DU?$char_traits@D@std@@V?$allocator@D@2@@std@@@std@@QEAA@XZ
	??0?$allocator@_N@std@@QEAA@XZ
	??0?$basic_filebuf@DU?$char_traits@D@std@@@std@@QEAA@XZ
	??0?$basic_ifstream@DU?$char_traits@D@std@@@std@@QEAA@AEBV?$basic_string@DU?$char_traits@D@std@@V?$allocator@D@2@@1@HH@Z
	??0?$basic_ifstream@DU?$char_traits@D@std@@@std@@QEAA@PEBDHH@Z
	??0?$basic_istringstream@DU?$char_traits@D@std@@V?$allocator@D@2@@std@@QEAA@AEBV?$basic_string@DU?$char_traits@D@std@@V?$allocator@D@2@@1@H@Z
	??0?$basic_ofstream@DU?$char_traits@D@std@@@std@@QEAA@AEBV?$basic_string@DU?$char_traits@D@std@@V?$allocator@D@2@@1@HH@Z
	??0?$basic_ofstream@DU?$char_traits@D@std@@@std@@QEAA@PEBDHH@Z
	??0?$basic_ofstream@DU?$char_traits@D@std@@@std@@QEAA@XZ
	??0?$basic_ostringstream@DU?$char_traits@D@std@@V?$allocator@D@2@@std@@QEAA@XZ
	??0?$basic_string@DU?$char_traits@D@std@@V?$allocator@D@2@@std@@QEAA@$$QEAV01@@Z
	??0?$basic_string@DU?$char_traits@D@std@@V?$allocator@D@2@@std@@QEAA@AEBV01@@Z
	??0?$basic_string@DU?$char_traits@D@std@@V?$allocator@D@2@@std@@QEAA@AEBV01@_K1AEBV?$allocator@D@1@@Z
	??0?$basic_string@DU?$char_traits@D@std@@V?$allocator@D@2@@std@@QEAA@AEBV?$allocator@D@1@@Z
	??0?$basic_string@DU?$char_traits@D@std@@V?$allocator@D@2@@std@@QEAA@QEBD@Z
	??0?$basic_string@DU?$char_traits@D@std@@V?$allocator@D@2@@std@@QEAA@U_String_constructor_concat_tag@1@AEAV01@1@Z
	??0?$basic_string@DU?$char_traits@D@std@@V?$allocator@D@2@@std@@QEAA@U_String_constructor_concat_tag@1@AEBV01@QEBD_K23@Z
	??0?$basic_string@DU?$char_traits@D@std@@V?$allocator@D@2@@std@@QEAA@XZ
	??0?$basic_string@DU?$char_traits@D@std@@V?$allocator@D@2@@std@@QEAA@_KD@Z
	??0?$basic_stringbuf@DU?$char_traits@D@std@@V?$allocator@D@2@@std@@QEAA@AEBV?$basic_string@DU?$char_traits@D@std@@V?$allocator@D@2@@1@H@Z
	??0?$basic_stringbuf@DU?$char_traits@D@std@@V?$allocator@D@2@@std@@QEAA@H@Z
	??0?$basic_stringstream@DU?$char_traits@D@std@@V?$allocator@D@2@@std@@QEAA@AEBV?$basic_string@DU?$char_traits@D@std@@V?$allocator@D@2@@1@H@Z
	??0?$fpos@U_Mbstatet@@@std@@QEAA@U_Mbstatet@@_J@Z
	??0?$fpos@U_Mbstatet@@@std@@QEAA@_J@Z
	??0?$function@$$A6AXAEBVNode@GetSetInternal@@@Z@std@@QEAA@AEBV01@@Z
	??0?$map@EEU?$less@E@std@@V?$allocator@U?$pair@$$CBEE@std@@@2@@std@@QEAA@XZ
	??0?$map@PEAXP6AXAEBV?$basic_string@DU?$char_traits@D@std@@V?$allocator@D@2@@std@@PEAX@ZU?$less@PEAX@2@V?$allocator@U?$pair@QEAXP6AXAEBV?$basic_string@DU?$char_traits@D@std@@V?$allocator@D@2@@std@@PEAX@Z@std@@@2@@std@@QEAA@XZ
	??0?$map@V?$basic_string@DU?$char_traits@D@std@@V?$allocator@D@2@@std@@P6APEAVObject@GetSetGui@@AEBVSection@4@AEAVProgressInterface@4@@ZU?$less@V?$basic_string@DU?$char_traits@D@std@@V?$allocator@D@2@@std@@@2@V?$allocator@U?$pair@$$CBV?$basic_string@DU?$char_traits@D@std@@V?$allocator@D@2@@std@@P6APEAVObject@GetSetGui@@AEBVSection@4@AEAVProgressInterface@4@@Z@std@@@2@@std@@QEAA@XZ
	??0?$map@V?$basic_string@DU?$char_traits@D@std@@V?$allocator@D@2@@std@@PEAVNode@GetSetInternal@@U?$less@V?$basic_string@DU?$char_traits@D@std@@V?$allocator@D@2@@std@@@2@V?$allocator@U?$pair@$$CBV?$basic_string@DU?$char_traits@D@std@@V?$allocator@D@2@@std@@PEAVNode@GetSetInternal@@@std@@@2@@std@@QEAA@XZ
	??0?$map@V?$basic_string@DU?$char_traits@D@std@@V?$allocator@D@2@@std@@V12@U?$less@V?$basic_string@DU?$char_traits@D@std@@V?$allocator@D@2@@std@@@2@V?$allocator@U?$pair@$$CBV?$basic_string@DU?$char_traits@D@std@@V?$allocator@D@2@@std@@V12@@std@@@2@@std@@QEAA@AEBV01@@Z
	??0?$map@V?$basic_string@DU?$char_traits@D@std@@V?$allocator@D@2@@std@@V12@U?$less@V?$basic_string@DU?$char_traits@D@std@@V?$allocator@D@2@@std@@@2@V?$allocator@U?$pair@$$CBV?$basic_string@DU?$char_traits@D@std@@V?$allocator@D@2@@std@@V12@@std@@@2@@std@@QEAA@XZ
	??0?$map@V?$basic_string@DU?$char_traits@D@std@@V?$allocator@D@2@@std@@V?$map@V?$basic_string@DU?$char_traits@D@std@@V?$allocator@D@2@@std@@V12@U?$less@V?$basic_string@DU?$char_traits@D@std@@V?$allocator@D@2@@std@@@2@V?$allocator@U?$pair@$$CBV?$basic_string@DU?$char_traits@D@std@@V?$allocator@D@2@@std@@V12@@std@@@2@@2@U?$less@V?$basic_string@DU?$char_traits@D@std@@V?$allocator@D@2@@std@@@2@V?$allocator@U?$pair@$$CBV?$basic_string@DU?$char_traits@D@std@@V?$allocator@D@2@@std@@V?$map@V?$basic_string@DU?$char_traits@D@std@@V?$allocator@D@2@@std@@V12@U?$less@V?$basic_string@DU?$char_traits@D@std@@V?$allocator@D@2@@std@@@2@V?$allocator@U?$pair@$$CBV?$basic_string@DU?$char_traits@D@std@@V?$allocator@D@2@@std@@V12@@std@@@2@@2@@std@@@2@@std@@QEAA@XZ
	??0?$pair@$$CBV?$basic_string@DU?$char_traits@D@std@@V?$allocator@D@2@@std@@V12@@std@@QEAA@AEBU01@@Z
	??0?$set@PEAUObserver@Dictionary@GetSetInternal@@U?$less@PEAUObserver@Dictionary@GetSetInternal@@@std@@V?$allocator@PEAUObserver@Dictionary@GetSetInternal@@@5@@std@@QEAA@XZ
	??0?$set@V?$basic_string@DU?$char_traits@D@std@@V?$allocator@D@2@@std@@U?$less@V?$basic_string@DU?$char_traits@D@std@@V?$allocator@D@2@@std@@@2@V?$allocator@V?$basic_string@DU?$char_traits@D@std@@V?$allocator@D@2@@std@@@2@@std@@QEAA@$$QEAV01@@Z
	??0?$set@V?$basic_string@DU?$char_traits@D@std@@V?$allocator@D@2@@std@@U?$less@V?$basic_string@DU?$char_traits@D@std@@V?$allocator@D@2@@std@@@2@V?$allocator@V?$basic_string@DU?$char_traits@D@std@@V?$allocator@D@2@@std@@@2@@std@@QEAA@XZ
	??0?$tuple@$$QEAE@std@@QEAA@$$QEAV01@@Z
	??0?$tuple@$$QEAV?$basic_string@DU?$char_traits@D@std@@V?$allocator@D@2@@std@@@std@@QEAA@$$QEAV01@@Z
	??0?$tuple@$$V@std@@QEAA@AEBV01@@Z
	??0?$tuple@AEBQEAX@std@@QEAA@$$QEAV01@@Z
	??0?$tuple@AEBV?$basic_string@DU?$char_traits@D@std@@V?$allocator@D@2@@std@@@std@@QEAA@$$QEAV01@@Z
	??0?$vector@DV?$allocator@D@std@@@std@@QEAA@$$QEAV01@@Z
	??0?$vector@DV?$allocator@D@std@@@std@@QEAA@AEBV01@@Z
	??0?$vector@DV?$allocator@D@std@@@std@@QEAA@XZ
	??0?$vector@EV?$allocator@E@std@@@std@@QEAA@$$QEAV01@@Z
	??0?$vector@EV?$allocator@E@std@@@std@@QEAA@AEBV01@@Z
	??0?$vector@EV?$allocator@E@std@@@std@@QEAA@XZ
	??0?$vector@FV?$allocator@F@std@@@std@@QEAA@$$QEAV01@@Z
	??0?$vector@FV?$allocator@F@std@@@std@@QEAA@AEBV01@@Z
	??0?$vector@FV?$allocator@F@std@@@std@@QEAA@XZ
	??0?$vector@GV?$allocator@G@std@@@std@@QEAA@$$QEAV01@@Z
	??0?$vector@GV?$allocator@G@std@@@std@@QEAA@AEBV01@@Z
	??0?$vector@GV?$allocator@G@std@@@std@@QEAA@XZ
	??0?$vector@HV?$allocator@H@std@@@std@@QEAA@$$QEAV01@@Z
	??0?$vector@HV?$allocator@H@std@@@std@@QEAA@AEBV01@@Z
	??0?$vector@HV?$allocator@H@std@@@std@@QEAA@XZ
	??0?$vector@IV?$allocator@I@std@@@std@@QEAA@$$QEAV01@@Z
	??0?$vector@IV?$allocator@I@std@@@std@@QEAA@AEBV01@@Z
	??0?$vector@IV?$allocator@I@std@@@std@@QEAA@AEBV?$allocator@I@1@@Z
	??0?$vector@IV?$allocator@I@std@@@std@@QEAA@XZ
	??0?$vector@JV?$allocator@J@std@@@std@@QEAA@$$QEAV01@@Z
	??0?$vector@JV?$allocator@J@std@@@std@@QEAA@AEBV01@@Z
	??0?$vector@JV?$allocator@J@std@@@std@@QEAA@XZ
	??0?$vector@KV?$allocator@K@std@@@std@@QEAA@$$QEAV01@@Z
	??0?$vector@KV?$allocator@K@std@@@std@@QEAA@AEBV01@@Z
	??0?$vector@KV?$allocator@K@std@@@std@@QEAA@XZ
	??0?$vector@MV?$allocator@M@std@@@std@@QEAA@$$QEAV01@@Z
	??0?$vector@MV?$allocator@M@std@@@std@@QEAA@AEBV01@@Z
	??0?$vector@MV?$allocator@M@std@@@std@@QEAA@XZ
	??0?$vector@NV?$allocator@N@std@@@std@@QEAA@$$QEAV01@@Z
	??0?$vector@NV?$allocator@N@std@@@std@@QEAA@AEBV01@@Z
	??0?$vector@NV?$allocator@N@std@@@std@@QEAA@XZ
	??0?$vector@V?$basic_string@DU?$char_traits@D@std@@V?$allocator@D@2@@std@@V?$allocator@V?$basic_string@DU?$char_traits@D@std@@V?$allocator@D@2@@std@@@2@@std@@QEAA@$$QEAV01@@Z
	??0?$vector@V?$basic_string@DU?$char_traits@D@std@@V?$allocator@D@2@@std@@V?$allocator@V?$basic_string@DU?$char_traits@D@std@@V?$allocator@D@2@@std@@@2@@std@@QEAA@AEBV01@@Z
	??0?$vector@V?$basic_string@DU?$char_traits@D@std@@V?$allocator@D@2@@std@@V?$allocator@V?$basic_string@DU?$char_traits@D@std@@V?$allocator@D@2@@std@@@2@@std@@QEAA@XZ
	??0?$vector@_NV?$allocator@_N@std@@@std@@QEAA@$$QEAV01@@Z
	??0?$vector@_NV?$allocator@_N@std@@@std@@QEAA@AEBV01@@Z
	??0?$vector@_NV?$allocator@_N@std@@@std@@QEAA@XZ
	??0Button@GetSetGui@@QEAA@AEBV?$basic_string@DU?$char_traits@D@std@@V?$allocator@D@2@@std@@AEBVSection@1@0@Z
	??0Dictionary@GetSetInternal@@QEAA@XZ
	??0GetSetHandler@@QEAA@V?$function@$$A6AXAEBVNode@GetSetInternal@@@Z@std@@AEBVDictionary@GetSetInternal@@@Z
	??0GetSetScriptParser@@QEAA@AEAVDictionary@GetSetInternal@@@Z
	??0IniFile@GetSetIO@@QEAA@XZ
	??0InputOutput@GetSetIO@@QEAA@XZ
	??0KeyButton@GetSetInternal@@QEAA@AEAVSection@1@AEBV?$basic_string@DU?$char_traits@D@std@@V?$allocator@D@2@@std@@1@Z
	??0KeyDirectory@GetSetInternal@@QEAA@AEAVSection@1@AEBV?$basic_string@DU?$char_traits@D@std@@V?$allocator@D@2@@std@@1@Z
	??0KeyEnum@GetSetInternal@@QEAA@AEAVSection@1@AEBV?$basic_string@DU?$char_traits@D@std@@V?$allocator@D@2@@std@@AEBH@Z
	??0KeyFile@GetSetInternal@@QEAA@AEAVSection@1@AEBV?$basic_string@DU?$char_traits@D@std@@V?$allocator@D@2@@std@@1@Z
	??0KeyRangedDouble@GetSetInternal@@QEAA@AEAVSection@1@AEBV?$basic_string@DU?$char_traits@D@std@@V?$allocator@D@2@@std@@AEBN@Z
	??0KeyReadOnlyText@GetSetInternal@@QEAA@AEAVSection@1@AEBV?$basic_string@DU?$char_traits@D@std@@V?$allocator@D@2@@std@@1@Z
	??0KeySlider@GetSetInternal@@QEAA@AEAVSection@1@AEBV?$basic_string@DU?$char_traits@D@std@@V?$allocator@D@2@@std@@AEBN@Z
	??0KeyStaticText@GetSetInternal@@QEAA@AEAVSection@1@AEBV?$basic_string@DU?$char_traits@D@std@@V?$allocator@D@2@@std@@1@Z
	??0Node@GetSetInternal@@IEAA@AEAVSection@1@AEBV?$basic_string@DU?$char_traits@D@std@@V?$allocator@D@2@@std@@@Z
	??0Object@GetSetGui@@QEAA@AEBVSection@1@PEAVProgressInterface@1@@Z
	??0Observer@Dictionary@GetSetInternal@@QEAA@AEBV12@@Z
	??0Section@GetSetGui@@QEAA@AEAV0GetSetInternal@@@Z
	??0Section@GetSetGui@@QEAA@AEBV?$basic_string@DU?$char_traits@D@std@@V?$allocator@D@2@@std@@V01@@Z
	??0Section@GetSetInternal@@QEAA@AEAV01@AEBV?$basic_string@DU?$char_traits@D@std@@V?$allocator@D@2@@std@@@Z
	??0StringRepresentation@GetSetInternal@@QEAA@XZ
	??0TxtKeyValue@GetSetIO@@QEAA@XZ
	??0_Bxty@?$_String_val@U?$_Simple_types@D@std@@@std@@QEAA@XZ
	??0_Fake_proxy_ptr_impl@std@@QEAA@AEBU_Fake_allocator@1@AEBU_Container_base0@1@@Z
	??0_Sentry_base@?$basic_istream@DU?$char_traits@D@std@@@std@@QEAA@AEAV12@@Z
	??0_Sentry_base@?$basic_ostream@DU?$char_traits@D@std@@@std@@QEAA@AEAV12@@Z
	??0bad_alloc@std@@AEAA@QEBD@Z
	??0bad_alloc@std@@QEAA@AEBV01@@Z
	??0bad_array_new_length@std@@QEAA@AEBV01@@Z
	??0bad_array_new_length@std@@QEAA@XZ
	??0bad_cast@std@@QEAA@AEBV01@@Z
	??0bad_cast@std@@QEAA@XZ
	??0exception@std@@QEAA@AEBV01@@Z
	??0exception@std@@QEAA@QEBD@Z
	??0exception@std@@QEAA@QEBDH@Z
	??0runtime_error@std@@QEAA@AEBV01@@Z
	??0runtime_error@std@@QEAA@AEBV?$basic_string@DU?$char_traits@D@std@@V?$allocator@D@2@@1@@Z
	??0sentry@?$basic_istream@DU?$char_traits@D@std@@@std@@QEAA@AEAV12@_N@Z
	??0sentry@?$basic_ostream@DU?$char_traits@D@std@@@std@@QEAA@AEAV12@@Z
	??1?$Key@H@GetSetInternal@@QEAA@XZ
	??1?$Key@N@GetSetInternal@@QEAA@XZ
	??1?$Key@V?$basic_string@DU?$char_traits@D@std@@V?$allocator@D@2@@std@@@GetSetInternal@@QEAA@XZ
	??1?$_Alloc_construct_ptr@V?$allocator@U?$_Tree_node@PEAUObserver@Dictionary@GetSetInternal@@PEAX@std@@@std@@@std@@QEAA@XZ
	??1?$_Alloc_construct_ptr@V?$allocator@U?$_Tree_node@U?$pair@$$CBEE@std@@PEAX@std@@@std@@@std@@QEAA@XZ
	??1?$_Alloc_construct_ptr@V?$allocator@U?$_Tree_node@U?$pair@$$CBV?$basic_string@DU?$char_traits@D@std@@V?$allocator@D@2@@std@@P6APEAVObject@GetSetGui@@AEBVSection@4@AEAVProgressInterface@4@@Z@std@@PEAX@std@@@std@@@std@@QEAA@XZ
	??1?$_Alloc_construct_ptr@V?$allocator@U?$_Tree_node@U?$pair@$$CBV?$basic_string@DU?$char_traits@D@std@@V?$allocator@D@2@@std@@PEAVNode@GetSetInternal@@@std@@PEAX@std@@@std@@@std@@QEAA@XZ
	??1?$_Alloc_construct_ptr@V?$allocator@U?$_Tree_node@U?$pair@$$CBV?$basic_string@DU?$char_traits@D@std@@V?$allocator@D@2@@std@@V12@@std@@PEAX@std@@@std@@@std@@QEAA@XZ
	??1?$_Alloc_construct_ptr@V?$allocator@U?$_Tree_node@U?$pair@$$CBV?$basic_string@DU?$char_traits@D@std@@V?$allocator@D@2@@std@@V?$map@V?$basic_string@DU?$char_traits@D@std@@V?$allocator@D@2@@std@@V12@U?$less@V?$basic_string@DU?$char_traits@D@std@@V?$allocator@D@2@@std@@@2@V?$allocator@U?$pair@$$CBV?$basic_string@DU?$char_traits@D@std@@V?$allocator@D@2@@std@@V12@@std@@@2@@2@@std@@PEAX@std@@@std@@@std@@QEAA@XZ
	??1?$_Alloc_construct_ptr@V?$allocator@U?$_Tree_node@U?$pair@QEAXP6AXAEBV?$basic_string@DU?$char_traits@D@std@@V?$allocator@D@2@@std@@PEAX@Z@std@@PEAX@std@@@std@@@std@@QEAA@XZ
	??1?$_Alloc_construct_ptr@V?$allocator@U?$_Tree_node@V?$basic_string@DU?$char_traits@D@std@@V?$allocator@D@2@@std@@PEAX@std@@@std@@@std@@QEAA@XZ
	??1?$_Compressed_pair@V?$allocator@D@std@@V?$_String_val@U?$_Simple_types@D@std@@@2@$00@std@@QEAA@XZ
	??1?$_Erase_tree_and_orphan_guard@V?$allocator@U?$_Tree_node@U?$pair@$$CBV?$basic_string@DU?$char_traits@D@std@@V?$allocator@D@2@@std@@V12@@std@@PEAX@std@@@std@@@?$_Tree_val@U?$_Tree_simple_types@U?$pair@$$CBV?$basic_string@DU?$char_traits@D@std@@V?$allocator@D@2@@std@@V12@@std@@@std@@@std@@QEAA@XZ
	??1?$_Func_class@XAEBVNode@GetSetInternal@@@std@@QEAA@XZ
	??1?$_String_val@U?$_Simple_types@D@std@@@std@@QEAA@XZ
	??1?$_Tidy_guard@V?$vector@DV?$allocator@D@std@@@std@@@std@@QEAA@XZ
	??1?$_Tidy_guard@V?$vector@EV?$allocator@E@std@@@std@@@std@@QEAA@XZ
	??1?$_Tidy_guard@V?$vector@FV?$allocator@F@std@@@std@@@std@@QEAA@XZ
	??1?$_Tidy_guard@V?$vector@GV?$allocator@G@std@@@std@@@std@@QEAA@XZ
	??1?$_Tidy_guard@V?$vector@HV?$allocator@H@std@@@std@@@std@@QEAA@XZ
	??1?$_Tidy_guard@V?$vector@IV?$allocator@I@std@@@std@@@std@@QEAA@XZ
	??1?$_Tidy_guard@V?$vector@JV?$allocator@J@std@@@std@@@std@@QEAA@XZ
	??1?$_Tidy_guard@V?$vector@KV?$allocator@K@std@@@std@@@std@@QEAA@XZ
	??1?$_Tidy_guard@V?$vector@MV?$allocator@M@std@@@std@@@std@@QEAA@XZ
	??1?$_Tidy_guard@V?$vector@NV?$allocator@N@std@@@std@@@std@@QEAA@XZ
	??1?$_Tidy_guard@V?$vector@V?$basic_string@DU?$char_traits@D@std@@V?$allocator@D@2@@std@@V?$allocator@V?$basic_string@DU?$char_traits@D@std@@V?$allocator@D@2@@std@@@2@@std@@@std@@QEAA@XZ
	??1?$_Tree@V?$_Tmap_traits@EEU?$less@E@std@@V?$allocator@U?$pair@$$CBEE@std@@@2@$0A@@std@@@std@@QEAA@XZ
	??1?$_Tree@V?$_Tmap_traits@PEAXP6AXAEBV?$basic_string@DU?$char_traits@D@std@@V?$allocator@D@2@@std@@PEAX@ZU?$less@PEAX@2@V?$allocator@U?$pair@QEAXP6AXAEBV?$basic_string@DU?$char_traits@D@std@@V?$allocator@D@2@@std@@PEAX@Z@std@@@2@$0A@@std@@@std@@QEAA@XZ
	??1?$_Tree@V?$_Tmap_traits@V?$basic_string@DU?$char_traits@D@std@@V?$allocator@D@2@@std@@P6APEAVObject@GetSetGui@@AEBVSection@4@AEAVProgressInterface@4@@ZU?$less@V?$basic_string@DU?$char_traits@D@std@@V?$allocator@D@2@@std@@@2@V?$allocator@U?$pair@$$CBV?$basic_string@DU?$char_traits@D@std@@V?$allocator@D@2@@std@@P6APEAVObject@GetSetGui@@AEBVSection@4@AEAVProgressInterface@4@@Z@std@@@2@$0A@@std@@@std@@QEAA@XZ
	??1?$_Tree@V?$_Tmap_traits@V?$basic_string@DU?$char_traits@D@std@@V?$allocator@D@2@@std@@PEAVNode@GetSetInternal@@U?$less@V?$basic_string@DU?$char_traits@D@std@@V?$allocator@D@2@@std@@@2@V?$allocator@U?$pair@$$CBV?$basic_string@DU?$char_traits@D@std@@V?$allocator@D@2@@std@@PEAVNode@GetSetInternal@@@std@@@2@$0A@@std@@@std@@QEAA@XZ
	??1?$_Tree@V?$_Tmap_traits@V?$basic_string@DU?$char_traits@D@std@@V?$allocator@D@2@@std@@V12@U?$less@V?$basic_string@DU?$char_traits@D@std@@V?$allocator@D@2@@std@@@2@V?$allocator@U?$pair@$$CBV?$basic_string@DU?$char_traits@D@std@@V?$allocator@D@2@@std@@V12@@std@@@2@$0A@@std@@@std@@QEAA@XZ
	??1?$_Tree@V?$_Tmap_traits@V?$basic_string@DU?$char_traits@D@std@@V?$allocator@D@2@@std@@V?$map@V?$basic_string@DU?$char_traits@D@std@@V?$allocator@D@2@@std@@V12@U?$less@V?$basic_string@DU?$char_traits@D@std@@V?$allocator@D@2@@std@@@2@V?$allocator@U?$pair@$$CBV?$basic_string@DU?$char_traits@D@std@@V?$allocator@D@2@@std@@V12@@std@@@2@@2@U?$less@V?$basic_string@DU?$char_traits@D@std@@V?$allocator@D@2@@std@@@2@V?$allocator@U?$pair@$$CBV?$basic_string@DU?$char_traits@D@std@@V?$allocator@D@2@@std@@V?$map@V?$basic_string@DU?$char_traits@D@std@@V?$allocator@D@2@@std@@V12@U?$less@V?$basic_string@DU?$char_traits@D@std@@V?$allocator@D@2@@std@@@2@V?$allocator@U?$pair@$$CBV?$basic_string@DU?$char_traits@D@std@@V?$allocator@D@2@@std@@V12@@std@@@2@@2@@std@@@2@$0A@@std@@@std@@QEAA@XZ
	??1?$_Tree@V?$_Tset_traits@PEAUObserver@Dictionary@GetSetInternal@@U?$less@PEAUObserver@Dictionary@GetSetInternal@@@std@@V?$allocator@PEAUObserver@Dictionary@GetSetInternal@@@5@$0A@@std@@@std@@QEAA@XZ
	??1?$_Tree@V?$_Tset_traits@V?$basic_string@DU?$char_traits@D@std@@V?$allocator@D@2@@std@@U?$less@V?$basic_string@DU?$char_traits@D@std@@V?$allocator@D@2@@std@@@2@V?$allocator@V?$basic_string@DU?$char_traits@D@std@@V?$allocator@D@2@@std@@@2@$0A@@std@@@std@@QEAA@XZ
	??1?$_Tree_head_scoped_ptr@V?$allocator@U?$_Tree_node@U?$pair@$$CBV?$basic_string@DU?$char_traits@D@std@@V?$allocator@D@2@@std@@V12@@std@@PEAX@std@@@std@@V?$_Tree_val@U?$_Tree_simple_types@U?$pair@$$CBV?$basic_string@DU?$char_traits@D@std@@V?$allocator@D@2@@std@@V12@@std@@@std@@@2@@std@@QEAA@XZ
	??1?$_Tree_temp_node@V?$allocator@U?$_Tree_node@PEAUObserver@Dictionary@GetSetInternal@@PEAX@std@@@std@@@std@@QEAA@XZ
	??1?$_Tree_temp_node@V?$allocator@U?$_Tree_node@U?$pair@$$CBEE@std@@PEAX@std@@@std@@@std@@QEAA@XZ
	??1?$_Tree_temp_node@V?$allocator@U?$_Tree_node@U?$pair@$$CBV?$basic_string@DU?$char_traits@D@std@@V?$allocator@D@2@@std@@P6APEAVObject@GetSetGui@@AEBVSection@4@AEAVProgressInterface@4@@Z@std@@PEAX@std@@@std@@@std@@QEAA@XZ
	??1?$_Tree_temp_node@V?$allocator@U?$_Tree_node@U?$pair@$$CBV?$basic_string@DU?$char_traits@D@std@@V?$allocator@D@2@@std@@PEAVNode@GetSetInternal@@@std@@PEAX@std@@@std@@@std@@QEAA@XZ
	??1?$_Tree_temp_node@V?$allocator@U?$_Tree_node@U?$pair@$$CBV?$basic_string@DU?$char_traits@D@std@@V?$allocator@D@2@@std@@V12@@std@@PEAX@std@@@std@@@std@@QEAA@XZ
	??1?$_Tree_temp_node@V?$allocator@U?$_Tree_node@U?$pair@$$CBV?$basic_string@DU?$char_traits@D@std@@V?$allocator@D@2@@std@@V?$map@V?$basic_string@DU?$char_traits@D@std@@V?$allocator@D@2@@std@@V12@U?$less@V?$basic_string@DU?$char_traits@D@std@@V?$allocator@D@2@@std@@@2@V?$allocator@U?$pair@$$CBV?$basic_string@DU?$char_traits@D@std@@V?$allocator@D@2@@std@@V12@@std@@@2@@2@@std@@PEAX@std@@@std@@@std@@QEAA@XZ
	??1?$_Tree_temp_node@V?$allocator@U?$_Tree_node@U?$pair@QEAXP6AXAEBV?$basic_string@DU?$char_traits@D@std@@V?$allocator@D@2@@std@@PEAX@Z@std@@PEAX@std@@@std@@@std@@QEAA@XZ
	??1?$_Tree_temp_node@V?$allocator@U?$_Tree_node@V?$basic_string@DU?$char_traits@D@std@@V?$allocator@D@2@@std@@PEAX@std@@@std@@@std@@QEAA@XZ
	??1?$_Tree_temp_node_alloc@V?$allocator@U?$_Tree_node@PEAUObserver@Dictionary@GetSetInternal@@PEAX@std@@@std@@@std@@QEAA@XZ
	??1?$_Tree_temp_node_alloc@V?$allocator@U?$_Tree_node@U?$pair@$$CBEE@std@@PEAX@std@@@std@@@std@@QEAA@XZ
	??1?$_Tree_temp_node_alloc@V?$allocator@U?$_Tree_node@U?$pair@$$CBV?$basic_string@DU?$char_traits@D@std@@V?$allocator@D@2@@std@@P6APEAVObject@GetSetGui@@AEBVSection@4@AEAVProgressInterface@4@@Z@std@@PEAX@std@@@std@@@std@@QEAA@XZ
	??1?$_Tree_temp_node_alloc@V?$allocator@U?$_Tree_node@U?$pair@$$CBV?$basic_string@DU?$char_traits@D@std@@V?$allocator@D@2@@std@@PEAVNode@GetSetInternal@@@std@@PEAX@std@@@std@@@std@@QEAA@XZ
	??1?$_Tree_temp_node_alloc@V?$allocator@U?$_Tree_node@U?$pair@$$CBV?$basic_string@DU?$char_traits@D@std@@V?$allocator@D@2@@std@@V12@@std@@PEAX@std@@@std@@@std@@QEAA@XZ
	??1?$_Tree_temp_node_alloc@V?$allocator@U?$_Tree_node@U?$pair@$$CBV?$basic_string@DU?$char_traits@D@std@@V?$allocator@D@2@@std@@V?$map@V?$basic_string@DU?$char_traits@D@std@@V?$allocator@D@2@@std@@V12@U?$less@V?$basic_string@DU?$char_traits@D@std@@V?$allocator@D@2@@std@@@2@V?$allocator@U?$pair@$$CBV?$basic_string@DU?$char_traits@D@std@@V?$allocator@D@2@@std@@V12@@std@@@2@@2@@std@@PEAX@std@@@std@@@std@@QEAA@XZ
	??1?$_Tree_temp_node_alloc@V?$allocator@U?$_Tree_node@U?$pair@QEAXP6AXAEBV?$basic_string@DU?$char_traits@D@std@@V?$allocator@D@2@@std@@PEAX@Z@std@@PEAX@std@@@std@@@std@@QEAA@XZ
	??1?$_Tree_temp_node_alloc@V?$allocator@U?$_Tree_node@V?$basic_string@DU?$char_traits@D@std@@V?$allocator@D@2@@std@@PEAX@std@@@std@@@std@@QEAA@XZ
	??1?$_Uninitialized_backout_al@V?$allocator@D@std@@@std@@QEAA@XZ
	??1?$_Uninitialized_backout_al@V?$allocator@E@std@@@std@@QEAA@XZ
	??1?$_Uninitialized_backout_al@V?$allocator@F@std@@@std@@QEAA@XZ
	??1?$_Uninitialized_backout_al@V?$allocator@G@std@@@std@@QEAA@XZ
	??1?$_Uninitialized_backout_al@V?$allocator@H@std@@@std@@QEAA@XZ
	??1?$_Uninitialized_backout_al@V?$allocator@I@std@@@std@@QEAA@XZ
	??1?$_Uninitialized_backout_al@V?$allocator@J@std@@@std@@QEAA@XZ
	??1?$_Uninitialized_backout_al@V?$allocator@K@std@@@std@@QEAA@XZ
	??1?$_Uninitialized_backout_al@V?$allocator@M@std@@@std@@QEAA@XZ
	??1?$_Uninitialized_backout_al@V?$allocator@N@std@@@std@@QEAA@XZ
	??1?$_Uninitialized_backout_al@V?$allocator@V?$basic_string@DU?$char_traits@D@std@@V?$allocator@D@2@@std@@@std@@@std@@QEAA@XZ
	??1?$_Vb_val@V?$allocator@_N@std@@@std@@QEAA@XZ
	??1?$basic_filebuf@DU?$char_traits@D@std@@@std@@UEAA@XZ
	??1?$basic_ifstream@DU?$char_traits@D@std@@@std@@UEAA@XZ
	??1?$basic_istringstream@DU?$char_traits@D@std@@V?$allocator@D@2@@std@@UEAA@XZ
	??1?$basic_ofstream@DU?$char_traits@D@std@@@std@@UEAA@XZ
	??1?$basic_ostringstream@DU?$char_traits@D@std@@V?$allocator@D@2@@std@@UEAA@XZ
	??1?$basic_string@DU?$char_traits@D@std@@V?$allocator@D@2@@std@@QEAA@XZ
	??1?$basic_stringbuf@DU?$char_traits@D@std@@V?$allocator@D@2@@std@@UEAA@XZ
	??1?$basic_stringstream@DU?$char_traits@D@std@@V?$allocator@D@2@@std@@UEAA@XZ
	??1?$function@$$A6AXAEBVNode@GetSetInternal@@@Z@std@@QEAA@XZ
	??1?$map@EEU?$less@E@std@@V?$allocator@U?$pair@$$CBEE@std@@@2@@std@@QEAA@XZ
	??1?$map@PEAXP6AXAEBV?$basic_string@DU?$char_traits@D@std@@V?$allocator@D@2@@std@@PEAX@ZU?$less@PEAX@2@V?$allocator@U?$pair@QEAXP6AXAEBV?$basic_string@DU?$char_traits@D@std@@V?$allocator@D@2@@std@@PEAX@Z@std@@@2@@std@@QEAA@XZ
	??1?$map@V?$basic_string@DU?$char_traits@D@std@@V?$allocator@D@2@@std@@P6APEAVObject@GetSetGui@@AEBVSection@4@AEAVProgressInterface@4@@ZU?$less@V?$basic_string@DU?$char_traits@D@std@@V?$allocator@D@2@@std@@@2@V?$allocator@U?$pair@$$CBV?$basic_string@DU?$char_traits@D@std@@V?$allocator@D@2@@std@@P6APEAVObject@GetSetGui@@AEBVSection@4@AEAVProgressInterface@4@@Z@std@@@2@@std@@QEAA@XZ
	??1?$map@V?$basic_string@DU?$char_traits@D@std@@V?$allocator@D@2@@std@@PEAVNode@GetSetInternal@@U?$less@V?$basic_string@DU?$char_traits@D@std@@V?$allocator@D@2@@std@@@2@V?$allocator@U?$pair@$$CBV?$basic_string@DU?$char_traits@D@std@@V?$allocator@D@2@@std@@PEAVNode@GetSetInternal@@@std@@@2@@std@@QEAA@XZ
	??1?$map@V?$basic_string@DU?$char_traits@D@std@@V?$allocator@D@2@@std@@V12@U?$less@V?$basic_string@DU?$char_traits@D@std@@V?$allocator@D@2@@std@@@2@V?$allocator@U?$pair@$$CBV?$basic_string@DU?$char_traits@D@std@@V?$allocator@D@2@@std@@V12@@std@@@2@@std@@QEAA@XZ
	??1?$map@V?$basic_string@DU?$char_traits@D@std@@V?$allocator@D@2@@std@@V?$map@V?$basic_string@DU?$char_traits@D@std@@V?$allocator@D@2@@std@@V12@U?$less@V?$basic_string@DU?$char_traits@D@std@@V?$allocator@D@2@@std@@@2@V?$allocator@U?$pair@$$CBV?$basic_string@DU?$char_traits@D@std@@V?$allocator@D@2@@std@@V12@@std@@@2@@2@U?$less@V?$basic_string@DU?$char_traits@D@std@@V?$allocator@D@2@@std@@@2@V?$allocator@U?$pair@$$CBV?$basic_string@DU?$char_traits@D@std@@V?$allocator@D@2@@std@@V?$map@V?$basic_string@DU?$char_traits@D@std@@V?$allocator@D@2@@std@@V12@U?$less@V?$basic_string@DU?$char_traits@D@std@@V?$allocator@D@2@@std@@@2@V?$allocator@U?$pair@$$CBV?$basic_string@DU?$char_traits@D@std@@V?$allocator@D@2@@std@@V12@@std@@@2@@2@@std@@@2@@std@@QEAA@XZ
	??1?$pair@$$CBV?$basic_string@DU?$char_traits@D@std@@V?$allocator@D@2@@std@@P6APEAVObject@GetSetGui@@AEBVSection@4@AEAVProgressInterface@4@@Z@std@@QEAA@XZ
	??1?$pair@$$CBV?$basic_string@DU?$char_traits@D@std@@V?$allocator@D@2@@std@@PEAVNode@GetSetInternal@@@std@@QEAA@XZ
	??1?$pair@$$CBV?$basic_string@DU?$char_traits@D@std@@V?$allocator@D@2@@std@@V12@@std@@QEAA@XZ
	??1?$pair@$$CBV?$basic_string@DU?$char_traits@D@std@@V?$allocator@D@2@@std@@V?$map@V?$basic_string@DU?$char_traits@D@std@@V?$allocator@D@2@@std@@V12@U?$less@V?$basic_string@DU?$char_traits@D@std@@V?$allocator@D@2@@std@@@2@V?$allocator@U?$pair@$$CBV?$basic_string@DU?$char_traits@D@std@@V?$allocator@D@2@@std@@V12@@std@@@2@@2@@std@@QEAA@XZ
	??1?$pair@HV?$basic_string@DU?$char_traits@D@std@@V?$allocator@D@2@@std@@@std@@QEAA@XZ
	??1?$set@PEAUObserver@Dictionary@GetSetInternal@@U?$less@PEAUObserver@Dictionary@GetSetInternal@@@std@@V?$allocator@PEAUObserver@Dictionary@GetSetInternal@@@5@@std@@QEAA@XZ
	??1?$set@V?$basic_string@DU?$char_traits@D@std@@V?$allocator@D@2@@std@@U?$less@V?$basic_string@DU?$char_traits@D@std@@V?$allocator@D@2@@std@@@2@V?$allocator@V?$basic_string@DU?$char_traits@D@std@@V?$allocator@D@2@@std@@@2@@std@@QEAA@XZ
	??1?$unique_ptr@V_Facet_base@std@@U?$default_delete@V_Facet_base@std@@@2@@std@@QEAA@XZ
	??1?$vector@DV?$allocator@D@std@@@std@@QEAA@XZ
	??1?$vector@EV?$allocator@E@std@@@std@@QEAA@XZ
	??1?$vector@FV?$allocator@F@std@@@std@@QEAA@XZ
	??1?$vector@GV?$allocator@G@std@@@std@@QEAA@XZ
	??1?$vector@HV?$allocator@H@std@@@std@@QEAA@XZ
	??1?$vector@IV?$allocator@I@std@@@std@@QEAA@XZ
	??1?$vector@JV?$allocator@J@std@@@std@@QEAA@XZ
	??1?$vector@KV?$allocator@K@std@@@std@@QEAA@XZ
	??1?$vector@MV?$allocator@M@std@@@std@@QEAA@XZ
	??1?$vector@NV?$allocator@N@std@@@std@@QEAA@XZ
	??1?$vector@V?$basic_string@DU?$char_traits@D@std@@V?$allocator@D@2@@std@@V?$allocator@V?$basic_string@DU?$char_traits@D@std@@V?$allocator@D@2@@std@@@2@@std@@QEAA@XZ
	??1?$vector@_NV?$allocator@_N@std@@@std@@QEAA@XZ
	??1Dictionary@GetSetInternal@@UEAA@XZ
	??1GetSetHandler@@UEAA@XZ
	??1GetSetScriptParser@@UEAA@XZ
	??1IniFile@GetSetIO@@QEAA@XZ
	??1InputOutput@GetSetIO@@QEAA@XZ
	??1Node@GetSetInternal@@QEAA@XZ
	??1Object@GetSetGui@@UEAA@XZ
	??1Observer@Dictionary@GetSetInternal@@UEAA@XZ
	??1Section@GetSetInternal@@UEAA@XZ
	??1StringRepresentation@GetSetInternal@@QEAA@XZ
	??1TxtKeyValue@GetSetIO@@QEAA@XZ
	??1_Bxty@?$_String_val@U?$_Simple_types@D@std@@@std@@QEAA@XZ
	??1_Reallocation_guard@?$vector@DV?$allocator@D@std@@@std@@QEAA@XZ
	??1_Reallocation_guard@?$vector@EV?$allocator@E@std@@@std@@QEAA@XZ
	??1_Reallocation_guard@?$vector@FV?$allocator@F@std@@@std@@QEAA@XZ
	??1_Reallocation_guard@?$vector@GV?$allocator@G@std@@@std@@QEAA@XZ
	??1_Reallocation_guard@?$vector@HV?$allocator@H@std@@@std@@QEAA@XZ
	??1_Reallocation_guard@?$vector@IV?$allocator@I@std@@@std@@QEAA@XZ
	??1_Reallocation_guard@?$vector@JV?$allocator@J@std@@@std@@QEAA@XZ
	??1_Reallocation_guard@?$vector@KV?$allocator@K@std@@@std@@QEAA@XZ
	??1_Reallocation_guard@?$vector@MV?$allocator@M@std@@@std@@QEAA@XZ
	??1_Reallocation_guard@?$vector@NV?$allocator@N@std@@@std@@QEAA@XZ
	??1_Reallocation_guard@?$vector@V?$basic_string@DU?$char_traits@D@std@@V?$allocator@D@2@@std@@V?$allocator@V?$basic_string@DU?$char_traits@D@std@@V?$allocator@D@2@@std@@@2@@std@@QEAA@XZ
	??1_Sentry_base@?$basic_istream@DU?$char_traits@D@std@@@std@@QEAA@XZ
	??1_Sentry_base@?$basic_ostream@DU?$char_traits@D@std@@@std@@QEAA@XZ
	??1bad_alloc@std@@UEAA@XZ
	??1bad_array_new_length@std@@UEAA@XZ
	??1bad_cast@std@@UEAA@XZ
	??1exception@std@@UEAA@XZ
	??1locale@std@@QEAA@XZ
	??1runtime_error@std@@UEAA@XZ
	??1sentry@?$basic_istream@DU?$char_traits@D@std@@@std@@QEAA@XZ
	??1sentry@?$basic_ostream@DU?$char_traits@D@std@@@std@@QEAA@XZ
	??2@YAPEAX_KPEAX@Z
	??4?$GetSet@V?$basic_string@DU?$char_traits@D@std@@V?$allocator@D@2@@std@@@@QEAAAEAV0@AEBV?$basic_string@DU?$char_traits@D@std@@V?$allocator@D@2@@std@@@Z
	??4?$GetSet@_N@@QEAAAEAV0@AEB_N@Z
	??4?$_Tree@V?$_Tmap_traits@V?$basic_string@DU?$char_traits@D@std@@V?$allocator@D@2@@std@@V12@U?$less@V?$basic_string@DU?$char_traits@D@std@@V?$allocator@D@2@@std@@@2@V?$allocator@U?$pair@$$CBV?$basic_string@DU?$char_traits@D@std@@V?$allocator@D@2@@std@@V12@@std@@@2@$0A@@std@@@std@@QEAAAEAV01@AEBV01@@Z
	??4?$_Vb_reference@U?$_Wrap_alloc@V?$allocator@I@std@@@std@@@std@@QEAAAEAV01@AEBV01@@Z
	??4?$_Vb_reference@U?$_Wrap_alloc@V?$allocator@I@std@@@std@@@std@@QEAAAEAV01@_N@Z
	??4?$basic_string@DU?$char_traits@D@std@@V?$allocator@D@2@@std@@QEAAAEAV01@$$QEAV01@@Z
	??4?$basic_string@DU?$char_traits@D@std@@V?$allocator@D@2@@std@@QEAAAEAV01@AEBV01@@Z
	??4?$basic_string@DU?$char_traits@D@std@@V?$allocator@D@2@@std@@QEAAAEAV01@QEBD@Z
	??4?$map@V?$basic_string@DU?$char_traits@D@std@@V?$allocator@D@2@@std@@V12@U?$less@V?$basic_string@DU?$char_traits@D@std@@V?$allocator@D@2@@std@@@2@V?$allocator@U?$pair@$$CBV?$basic_string@DU?$char_traits@D@std@@V?$allocator@D@2@@std@@V12@@std@@@2@@std@@QEAAAEAV01@AEBV01@@Z
	??4?$vector@DV?$allocator@D@std@@@std@@QEAAAEAV01@$$QEAV01@@Z
	??4?$vector@DV?$allocator@D@std@@@std@@QEAAAEAV01@AEBV01@@Z
	??4?$vector@EV?$allocator@E@std@@@std@@QEAAAEAV01@$$QEAV01@@Z
	??4?$vector@EV?$allocator@E@std@@@std@@QEAAAEAV01@AEBV01@@Z
	??4?$vector@FV?$allocator@F@std@@@std@@QEAAAEAV01@$$QEAV01@@Z
	??4?$vector@FV?$allocator@F@std@@@std@@QEAAAEAV01@AEBV01@@Z
	??4?$vector@GV?$allocator@G@std@@@std@@QEAAAEAV01@$$QEAV01@@Z
	??4?$vector@GV?$allocator@G@std@@@std@@QEAAAEAV01@AEBV01@@Z
	??4?$vector@HV?$allocator@H@std@@@std@@QEAAAEAV01@$$QEAV01@@Z
	??4?$vector@HV?$allocator@H@std@@@std@@QEAAAEAV01@AEBV01@@Z
	??4?$vector@IV?$allocator@I@std@@@std@@QEAAAEAV01@$$QEAV01@@Z
	??4?$vector@IV?$allocator@I@std@@@std@@QEAAAEAV01@AEBV01@@Z
	??4?$vector@JV?$allocator@J@std@@@std@@QEAAAEAV01@$$QEAV01@@Z
	??4?$vector@JV?$allocator@J@std@@@std@@QEAAAEAV01@AEBV01@@Z
	??4?$vector@KV?$allocator@K@std@@@std@@QEAAAEAV01@$$QEAV01@@Z
	??4?$vector@KV?$allocator@K@std@@@std@@QEAAAEAV01@AEBV01@@Z
	??4?$vector@MV?$allocator@M@std@@@std@@QEAAAEAV01@$$QEAV01@@Z
	??4?$vector@MV?$allocator@M@std@@@std@@QEAAAEAV01@AEBV01@@Z
	??4?$vector@NV?$allocator@N@std@@@std@@QEAAAEAV01@$$QEAV01@@Z
	??4?$vector@NV?$allocator@N@std@@@std@@QEAAAEAV01@AEBV01@@Z
	??4?$vector@V?$basic_string@DU?$char_traits@D@std@@V?$allocator@D@2@@std@@V?$allocator@V?$basic_string@DU?$char_traits@D@std@@V?$allocator@D@2@@std@@@2@@std@@QEAAAEAV01@$$QEAV01@@Z
	??4?$vector@V?$basic_string@DU?$char_traits@D@std@@V?$allocator@D@2@@std@@V?$allocator@V?$basic_string@DU?$char_traits@D@std@@V?$allocator@D@2@@std@@@2@@std@@QEAAAEAV01@AEBV01@@Z
	??4?$vector@_NV?$allocator@_N@std@@@std@@QEAAAEAV01@$$QEAV01@@Z
	??4?$vector@_NV?$allocator@_N@std@@@std@@QEAAAEAV01@AEBV01@@Z
	??8?$_String_const_iterator@V?$_String_val@U?$_Simple_types@D@std@@@std@@@std@@QEBA_NAEBV01@@Z
	??8?$_Tree_const_iterator@V?$_Tree_val@U?$_Tree_simple_types@PEAUObserver@Dictionary@GetSetInternal@@@std@@@std@@@std@@QEBA_NAEBV01@@Z
	??8?$_Tree_const_iterator@V?$_Tree_val@U?$_Tree_simple_types@U?$pair@$$CBEE@std@@@std@@@std@@@std@@QEBA_NAEBV01@@Z
	??8?$_Tree_const_iterator@V?$_Tree_val@U?$_Tree_simple_types@U?$pair@$$CBV?$basic_string@DU?$char_traits@D@std@@V?$allocator@D@2@@std@@P6APEAVObject@GetSetGui@@AEBVSection@4@AEAVProgressInterface@4@@Z@std@@@std@@@std@@@std@@QEBA_NAEBV01@@Z
	??8?$_Tree_const_iterator@V?$_Tree_val@U?$_Tree_simple_types@U?$pair@$$CBV?$basic_string@DU?$char_traits@D@std@@V?$allocator@D@2@@std@@PEAVNode@GetSetInternal@@@std@@@std@@@std@@@std@@QEBA_NAEBV01@@Z
	??8?$_Tree_const_iterator@V?$_Tree_val@U?$_Tree_simple_types@U?$pair@$$CBV?$basic_string@DU?$char_traits@D@std@@V?$allocator@D@2@@std@@V12@@std@@@std@@@std@@@std@@QEBA_NAEBV01@@Z
	??8?$_Tree_const_iterator@V?$_Tree_val@U?$_Tree_simple_types@U?$pair@$$CBV?$basic_string@DU?$char_traits@D@std@@V?$allocator@D@2@@std@@V?$map@V?$basic_string@DU?$char_traits@D@std@@V?$allocator@D@2@@std@@V12@U?$less@V?$basic_string@DU?$char_traits@D@std@@V?$allocator@D@2@@std@@@2@V?$allocator@U?$pair@$$CBV?$basic_string@DU?$char_traits@D@std@@V?$allocator@D@2@@std@@V12@@std@@@2@@2@@std@@@std@@@std@@@std@@QEBA_NAEBV01@@Z
	??8?$_Tree_const_iterator@V?$_Tree_val@U?$_Tree_simple_types@U?$pair@QEAXP6AXAEBV?$basic_string@DU?$char_traits@D@std@@V?$allocator@D@2@@std@@PEAX@Z@std@@@std@@@std@@@std@@QEBA_NAEBV01@@Z
	??8?$_Tree_const_iterator@V?$_Tree_val@U?$_Tree_simple_types@V?$basic_string@DU?$char_traits@D@std@@V?$allocator@D@2@@std@@@std@@@std@@@std@@QEBA_NAEBV01@@Z
	??8?$_Tree_unchecked_const_iterator@V?$_Tree_val@U?$_Tree_simple_types@PEAUObserver@Dictionary@GetSetInternal@@@std@@@std@@U_Iterator_base0@2@@std@@QEBA_NAEBV01@@Z
	??8?$_Tree_unchecked_const_iterator@V?$_Tree_val@U?$_Tree_simple_types@V?$basic_string@DU?$char_traits@D@std@@V?$allocator@D@2@@std@@@std@@@std@@U_Iterator_base0@2@@std@@QEBA_NAEBV01@@Z
	??8?$_Vb_const_iterator@U?$_Wrap_alloc@V?$allocator@I@std@@@std@@@std@@QEBA_NAEBV01@@Z
	??8?$_Vector_const_iterator@V?$_Vector_val@U?$_Simple_types@D@std@@@std@@@std@@QEBA_NAEBV01@@Z
	??8?$_Vector_const_iterator@V?$_Vector_val@U?$_Simple_types@E@std@@@std@@@std@@QEBA_NAEBV01@@Z
	??8?$_Vector_const_iterator@V?$_Vector_val@U?$_Simple_types@F@std@@@std@@@std@@QEBA_NAEBV01@@Z
	??8?$_Vector_const_iterator@V?$_Vector_val@U?$_Simple_types@G@std@@@std@@@std@@QEBA_NAEBV01@@Z
	??8?$_Vector_const_iterator@V?$_Vector_val@U?$_Simple_types@H@std@@@std@@@std@@QEBA_NAEBV01@@Z
	??8?$_Vector_const_iterator@V?$_Vector_val@U?$_Simple_types@I@std@@@std@@@std@@QEBA_NAEBV01@@Z
	??8?$_Vector_const_iterator@V?$_Vector_val@U?$_Simple_types@J@std@@@std@@@std@@QEBA_NAEBV01@@Z
	??8?$_Vector_const_iterator@V?$_Vector_val@U?$_Simple_types@K@std@@@std@@@std@@QEBA_NAEBV01@@Z
	??8?$_Vector_const_iterator@V?$_Vector_val@U?$_Simple_types@M@std@@@std@@@std@@QEBA_NAEBV01@@Z
	??8?$_Vector_const_iterator@V?$_Vector_val@U?$_Simple_types@N@std@@@std@@@std@@QEBA_NAEBV01@@Z
	??8?$_Vector_const_iterator@V?$_Vector_val@U?$_Simple_types@V?$basic_string@DU?$char_traits@D@std@@V?$allocator@D@2@@std@@@std@@@std@@@std@@QEBA_NAEBV01@@Z
	??9?$_String_const_iterator@V?$_String_val@U?$_Simple_types@D@std@@@std@@@std@@QEBA_NAEBV01@@Z
	??9?$_Tree_const_iterator@V?$_Tree_val@U?$_Tree_simple_types@PEAUObserver@Dictionary@GetSetInternal@@@std@@@std@@@std@@QEBA_NAEBV01@@Z
	??9?$_Tree_const_iterator@V?$_Tree_val@U?$_Tree_simple_types@U?$pair@$$CBEE@std@@@std@@@std@@@std@@QEBA_NAEBV01@@Z
	??9?$_Tree_const_iterator@V?$_Tree_val@U?$_Tree_simple_types@U?$pair@$$CBV?$basic_string@DU?$char_traits@D@std@@V?$allocator@D@2@@std@@P6APEAVObject@GetSetGui@@AEBVSection@4@AEAVProgressInterface@4@@Z@std@@@std@@@std@@@std@@QEBA_NAEBV01@@Z
	??9?$_Tree_const_iterator@V?$_Tree_val@U?$_Tree_simple_types@U?$pair@$$CBV?$basic_string@DU?$char_traits@D@std@@V?$allocator@D@2@@std@@PEAVNode@GetSetInternal@@@std@@@std@@@std@@@std@@QEBA_NAEBV01@@Z
	??9?$_Tree_const_iterator@V?$_Tree_val@U?$_Tree_simple_types@U?$pair@$$CBV?$basic_string@DU?$char_traits@D@std@@V?$allocator@D@2@@std@@V12@@std@@@std@@@std@@@std@@QEBA_NAEBV01@@Z
	??9?$_Tree_const_iterator@V?$_Tree_val@U?$_Tree_simple_types@U?$pair@$$CBV?$basic_string@DU?$char_traits@D@std@@V?$allocator@D@2@@std@@V?$map@V?$basic_string@DU?$char_traits@D@std@@V?$allocator@D@2@@std@@V12@U?$less@V?$basic_string@DU?$char_traits@D@std@@V?$allocator@D@2@@std@@@2@V?$allocator@U?$pair@$$CBV?$basic_string@DU?$char_traits@D@std@@V?$allocator@D@2@@std@@V12@@std@@@2@@2@@std@@@std@@@std@@@std@@QEBA_NAEBV01@@Z
	??9?$_Tree_const_iterator@V?$_Tree_val@U?$_Tree_simple_types@U?$pair@QEAXP6AXAEBV?$basic_string@DU?$char_traits@D@std@@V?$allocator@D@2@@std@@PEAX@Z@std@@@std@@@std@@@std@@QEBA_NAEBV01@@Z
	??9?$_Tree_const_iterator@V?$_Tree_val@U?$_Tree_simple_types@V?$basic_string@DU?$char_traits@D@std@@V?$allocator@D@2@@std@@@std@@@std@@@std@@QEBA_NAEBV01@@Z
	??9?$_Tree_unchecked_const_iterator@V?$_Tree_val@U?$_Tree_simple_types@PEAUObserver@Dictionary@GetSetInternal@@@std@@@std@@U_Iterator_base0@2@@std@@QEBA_NAEBV01@@Z
	??9?$_Tree_unchecked_const_iterator@V?$_Tree_val@U?$_Tree_simple_types@V?$basic_string@DU?$char_traits@D@std@@V?$allocator@D@2@@std@@@std@@@std@@U_Iterator_base0@2@@std@@QEBA_NAEBV01@@Z
	??9?$_Vb_const_iterator@U?$_Wrap_alloc@V?$allocator@I@std@@@std@@@std@@QEBA_NAEBV01@@Z
	??9?$_Vector_const_iterator@V?$_Vector_val@U?$_Simple_types@D@std@@@std@@@std@@QEBA_NAEBV01@@Z
	??9?$_Vector_const_iterator@V?$_Vector_val@U?$_Simple_types@E@std@@@std@@@std@@QEBA_NAEBV01@@Z
	??9?$_Vector_const_iterator@V?$_Vector_val@U?$_Simple_types@F@std@@@std@@@std@@QEBA_NAEBV01@@Z
	??9?$_Vector_const_iterator@V?$_Vector_val@U?$_Simple_types@G@std@@@std@@@std@@QEBA_NAEBV01@@Z
	??9?$_Vector_const_iterator@V?$_Vector_val@U?$_Simple_types@H@std@@@std@@@std@@QEBA_NAEBV01@@Z
	??9?$_Vector_const_iterator@V?$_Vector_val@U?$_Simple_types@I@std@@@std@@@std@@QEBA_NAEBV01@@Z
	??9?$_Vector_const_iterator@V?$_Vector_val@U?$_Simple_types@J@std@@@std@@@std@@QEBA_NAEBV01@@Z
	??9?$_Vector_const_iterator@V?$_Vector_val@U?$_Simple_types@K@std@@@std@@@std@@QEBA_NAEBV01@@Z
	??9?$_Vector_const_iterator@V?$_Vector_val@U?$_Simple_types@M@std@@@std@@@std@@QEBA_NAEBV01@@Z
	??9?$_Vector_const_iterator@V?$_Vector_val@U?$_Simple_types@N@std@@@std@@@std@@QEBA_NAEBV01@@Z
	??9?$_Vector_const_iterator@V?$_Vector_val@U?$_Simple_types@V?$basic_string@DU?$char_traits@D@std@@V?$allocator@D@2@@std@@@std@@@std@@@std@@QEBA_NAEBV01@@Z
	??A?$basic_string@DU?$char_traits@D@std@@V?$allocator@D@2@@std@@QEAAAEAD_K@Z
	??A?$map@EEU?$less@E@std@@V?$allocator@U?$pair@$$CBEE@std@@@2@@std@@QEAAAEAE$$QEAE@Z
	??A?$map@PEAXP6AXAEBV?$basic_string@DU?$char_traits@D@std@@V?$allocator@D@2@@std@@PEAX@ZU?$less@PEAX@2@V?$allocator@U?$pair@QEAXP6AXAEBV?$basic_string@DU?$char_traits@D@std@@V?$allocator@D@2@@std@@PEAX@Z@std@@@2@@std@@QEAAAEAP6AXAEBV?$basic_string@DU?$char_traits@D@std@@V?$allocator@D@2@@1@PEAX@ZAEBQEAX@Z
	??A?$map@V?$basic_string@DU?$char_traits@D@std@@V?$allocator@D@2@@std@@P6APEAVObject@GetSetGui@@AEBVSection@4@AEAVProgressInterface@4@@ZU?$less@V?$basic_string@DU?$char_traits@D@std@@V?$allocator@D@2@@std@@@2@V?$allocator@U?$pair@$$CBV?$basic_string@DU?$char_traits@D@std@@V?$allocator@D@2@@std@@P6APEAVObject@GetSetGui@@AEBVSection@4@AEAVProgressInterface@4@@Z@std@@@2@@std@@QEAAAEAP6APEAVObject@GetSetGui@@AEBVSection@3@AEAVProgressInterface@3@@ZAEBV?$basic_string@DU?$char_traits@D@std@@V?$allocator@D@2@@1@@Z
	??A?$map@V?$basic_string@DU?$char_traits@D@std@@V?$allocator@D@2@@std@@PEAVNode@GetSetInternal@@U?$less@V?$basic_string@DU?$char_traits@D@std@@V?$allocator@D@2@@std@@@2@V?$allocator@U?$pair@$$CBV?$basic_string@DU?$char_traits@D@std@@V?$allocator@D@2@@std@@PEAVNode@GetSetInternal@@@std@@@2@@std@@QEAAAEAPEAVNode@GetSetInternal@@AEBV?$basic_string@DU?$char_traits@D@std@@V?$allocator@D@2@@1@@Z
	??A?$map@V?$basic_string@DU?$char_traits@D@std@@V?$allocator@D@2@@std@@V12@U?$less@V?$basic_string@DU?$char_traits@D@std@@V?$allocator@D@2@@std@@@2@V?$allocator@U?$pair@$$CBV?$basic_string@DU?$char_traits@D@std@@V?$allocator@D@2@@std@@V12@@std@@@2@@std@@QEAAAEAV?$basic_string@DU?$char_traits@D@std@@V?$allocator@D@2@@1@$$QEAV21@@Z
	??A?$map@V?$basic_string@DU?$char_traits@D@std@@V?$allocator@D@2@@std@@V12@U?$less@V?$basic_string@DU?$char_traits@D@std@@V?$allocator@D@2@@std@@@2@V?$allocator@U?$pair@$$CBV?$basic_string@DU?$char_traits@D@std@@V?$allocator@D@2@@std@@V12@@std@@@2@@std@@QEAAAEAV?$basic_string@DU?$char_traits@D@std@@V?$allocator@D@2@@1@AEBV21@@Z
	??A?$map@V?$basic_string@DU?$char_traits@D@std@@V?$allocator@D@2@@std@@V?$map@V?$basic_string@DU?$char_traits@D@std@@V?$allocator@D@2@@std@@V12@U?$less@V?$basic_string@DU?$char_traits@D@std@@V?$allocator@D@2@@std@@@2@V?$allocator@U?$pair@$$CBV?$basic_string@DU?$char_traits@D@std@@V?$allocator@D@2@@std@@V12@@std@@@2@@2@U?$less@V?$basic_string@DU?$char_traits@D@std@@V?$allocator@D@2@@std@@@2@V?$allocator@U?$pair@$$CBV?$basic_string@DU?$char_traits@D@std@@V?$allocator@D@2@@std@@V?$map@V?$basic_string@DU?$char_traits@D@std@@V?$allocator@D@2@@std@@V12@U?$less@V?$basic_string@DU?$char_traits@D@std@@V?$allocator@D@2@@std@@@2@V?$allocator@U?$pair@$$CBV?$basic_string@DU?$char_traits@D@std@@V?$allocator@D@2@@std@@V12@@std@@@2@@2@@std@@@2@@std@@QEAAAEAV?$map@V?$basic_string@DU?$char_traits@D@std@@V?$allocator@D@2@@std@@V12@U?$less@V?$basic_string@DU?$char_traits@D@std@@V?$allocator@D@2@@std@@@2@V?$allocator@U?$pair@$$CBV?$basic_string@DU?$char_traits@D@std@@V?$allocator@D@2@@std@@V12@@std@@@2@@1@AEBV?$basic_string@DU?$char_traits@D@std@@V?$allocator@D@2@@1@@Z
	??A?$vector@V?$basic_string@DU?$char_traits@D@std@@V?$allocator@D@2@@std@@V?$allocator@V?$basic_string@DU?$char_traits@D@std@@V?$allocator@D@2@@std@@@2@@std@@QEAAAEAV?$basic_string@DU?$char_traits@D@std@@V?$allocator@D@2@@1@_K@Z
	??A?$vector@V?$basic_string@DU?$char_traits@D@std@@V?$allocator@D@2@@std@@V?$allocator@V?$basic_string@DU?$char_traits@D@std@@V?$allocator@D@2@@std@@@2@@std@@QEBAAEBV?$basic_string@DU?$char_traits@D@std@@V?$allocator@D@2@@1@_K@Z
	??B?$GetSet@V?$basic_string@DU?$char_traits@D@std@@V?$allocator@D@2@@std@@@@QEBA?AV?$basic_string@DU?$char_traits@D@std@@V?$allocator@D@2@@std@@XZ
	??B?$GetSet@_N@@QEBA_NXZ
	??B?$_Vb_reference@U?$_Wrap_alloc@V?$allocator@I@std@@@std@@@std@@QEBA_NXZ
	??B?$fpos@U_Mbstatet@@@std@@QEBA_JXZ
	??B?$function@$$A6AXAEBVNode@GetSetInternal@@@Z@std@@QEBA_NXZ
	??BSection@GetSetGui@@QEBAAEAV0GetSetInternal@@XZ
	??Bsentry@?$basic_istream@DU?$char_traits@D@std@@@std@@QEBA_NXZ
	??Bsentry@?$basic_ostream@DU?$char_traits@D@std@@@std@@QEBA_NXZ
	??C?$_Tree_const_iterator@V?$_Tree_val@U?$_Tree_simple_types@U?$pair@$$CBEE@std@@@std@@@std@@@std@@QEBAPEBU?$pair@$$CBEE@1@XZ
	??C?$_Tree_const_iterator@V?$_Tree_val@U?$_Tree_simple_types@U?$pair@$$CBV?$basic_string@DU?$char_traits@D@std@@V?$allocator@D@2@@std@@PEAVNode@GetSetInternal@@@std@@@std@@@std@@@std@@QEBAPEBU?$pair@$$CBV?$basic_string@DU?$char_traits@D@std@@V?$allocator@D@2@@std@@PEAVNode@GetSetInternal@@@1@XZ
	??C?$_Tree_const_iterator@V?$_Tree_val@U?$_Tree_simple_types@U?$pair@$$CBV?$basic_string@DU?$char_traits@D@std@@V?$allocator@D@2@@std@@V12@@std@@@std@@@std@@@std@@QEBAPEBU?$pair@$$CBV?$basic_string@DU?$char_traits@D@std@@V?$allocator@D@2@@std@@V12@@1@XZ
	??C?$_Tree_const_iterator@V?$_Tree_val@U?$_Tree_simple_types@U?$pair@$$CBV?$basic_string@DU?$char_traits@D@std@@V?$allocator@D@2@@std@@V?$map@V?$basic_string@DU?$char_traits@D@std@@V?$allocator@D@2@@std@@V12@U?$less@V?$basic_string@DU?$char_traits@D@std@@V?$allocator@D@2@@std@@@2@V?$allocator@U?$pair@$$CBV?$basic_string@DU?$char_traits@D@std@@V?$allocator@D@2@@std@@V12@@std@@@2@@2@@std@@@std@@@std@@@std@@QEBAPEBU?$pair@$$CBV?$basic_string@DU?$char_traits@D@std@@V?$allocator@D@2@@std@@V?$map@V?$basic_string@DU?$char_traits@D@std@@V?$allocator@D@2@@std@@V12@U?$less@V?$basic_string@DU?$char_traits@D@std@@V?$allocator@D@2@@std@@@2@V?$allocator@U?$pair@$$CBV?$basic_string@DU?$char_traits@D@std@@V?$allocator@D@2@@std@@V12@@std@@@2@@2@@1@XZ
	??C?$_Tree_iterator@V?$_Tree_val@U?$_Tree_simple_types@U?$pair@$$CBV?$basic_string@DU?$char_traits@D@std@@V?$allocator@D@2@@std@@P6APEAVObject@GetSetGui@@AEBVSection@4@AEAVProgressInterface@4@@Z@std@@@std@@@std@@@std@@QEBAPEAU?$pair@$$CBV?$basic_string@DU?$char_traits@D@std@@V?$allocator@D@2@@std@@P6APEAVObject@GetSetGui@@AEBVSection@4@AEAVProgressInterface@4@@Z@1@XZ
	??C?$_Tree_iterator@V?$_Tree_val@U?$_Tree_simple_types@U?$pair@$$CBV?$basic_string@DU?$char_traits@D@std@@V?$allocator@D@2@@std@@PEAVNode@GetSetInternal@@@std@@@std@@@std@@@std@@QEBAPEAU?$pair@$$CBV?$basic_string@DU?$char_traits@D@std@@V?$allocator@D@2@@std@@PEAVNode@GetSetInternal@@@1@XZ
	??C?$_Tree_iterator@V?$_Tree_val@U?$_Tree_simple_types@U?$pair@$$CBV?$basic_string@DU?$char_traits@D@std@@V?$allocator@D@2@@std@@V12@@std@@@std@@@std@@@std@@QEBAPEAU?$pair@$$CBV?$basic_string@DU?$char_traits@D@std@@V?$allocator@D@2@@std@@V12@@1@XZ
	??C?$_Tree_iterator@V?$_Tree_val@U?$_Tree_simple_types@U?$pair@QEAXP6AXAEBV?$basic_string@DU?$char_traits@D@std@@V?$allocator@D@2@@std@@PEAX@Z@std@@@std@@@std@@@std@@QEBAPEAU?$pair@QEAXP6AXAEBV?$basic_string@DU?$char_traits@D@std@@V?$allocator@D@2@@std@@PEAX@Z@1@XZ
	??D?$_String_const_iterator@V?$_String_val@U?$_Simple_types@D@std@@@std@@@std@@QEBAAEBDXZ
	??D?$_Tree_const_iterator@V?$_Tree_val@U?$_Tree_simple_types@PEAUObserver@Dictionary@GetSetInternal@@@std@@@std@@@std@@QEBAAEBQEAUObserver@Dictionary@GetSetInternal@@XZ
	??D?$_Tree_const_iterator@V?$_Tree_val@U?$_Tree_simple_types@U?$pair@$$CBEE@std@@@std@@@std@@@std@@QEBAAEBU?$pair@$$CBEE@1@XZ
	??D?$_Tree_const_iterator@V?$_Tree_val@U?$_Tree_simple_types@U?$pair@$$CBV?$basic_string@DU?$char_traits@D@std@@V?$allocator@D@2@@std@@P6APEAVObject@GetSetGui@@AEBVSection@4@AEAVProgressInterface@4@@Z@std@@@std@@@std@@@std@@QEBAAEBU?$pair@$$CBV?$basic_string@DU?$char_traits@D@std@@V?$allocator@D@2@@std@@P6APEAVObject@GetSetGui@@AEBVSection@4@AEAVProgressInterface@4@@Z@1@XZ
	??D?$_Tree_const_iterator@V?$_Tree_val@U?$_Tree_simple_types@U?$pair@$$CBV?$basic_string@DU?$char_traits@D@std@@V?$allocator@D@2@@std@@PEAVNode@GetSetInternal@@@std@@@std@@@std@@@std@@QEBAAEBU?$pair@$$CBV?$basic_string@DU?$char_traits@D@std@@V?$allocator@D@2@@std@@PEAVNode@GetSetInternal@@@1@XZ
	??D?$_Tree_const_iterator@V?$_Tree_val@U?$_Tree_simple_types@U?$pair@$$CBV?$basic_string@DU?$char_traits@D@std@@V?$allocator@D@2@@std@@V12@@std@@@std@@@std@@@std@@QEBAAEBU?$pair@$$CBV?$basic_string@DU?$char_traits@D@std@@V?$allocator@D@2@@std@@V12@@1@XZ
	??D?$_Tree_const_iterator@V?$_Tree_val@U?$_Tree_simple_types@U?$pair@$$CBV?$basic_string@DU?$char_traits@D@std@@V?$allocator@D@2@@std@@V?$map@V?$basic_string@DU?$char_traits@D@std@@V?$allocator@D@2@@std@@V12@U?$less@V?$basic_string@DU?$char_traits@D@std@@V?$allocator@D@2@@std@@@2@V?$allocator@U?$pair@$$CBV?$basic_string@DU?$char_traits@D@std@@V?$allocator@D@2@@std@@V12@@std@@@2@@2@@std@@@std@@@std@@@std@@QEBAAEBU?$pair@$$CBV?$basic_string@DU?$char_traits@D@std@@V?$allocator@D@2@@std@@V?$map@V?$basic_string@DU?$char_traits@D@std@@V?$allocator@D@2@@std@@V12@U?$less@V?$basic_string@DU?$char_traits@D@std@@V?$allocator@D@2@@std@@@2@V?$allocator@U?$pair@$$CBV?$basic_string@DU?$char_traits@D@std@@V?$allocator@D@2@@std@@V12@@std@@@2@@2@@1@XZ
	??D?$_Tree_const_iterator@V?$_Tree_val@U?$_Tree_simple_types@U?$pair@QEAXP6AXAEBV?$basic_string@DU?$char_traits@D@std@@V?$allocator@D@2@@std@@PEAX@Z@std@@@std@@@std@@@std@@QEBAAEBU?$pair@QEAXP6AXAEBV?$basic_string@DU?$char_traits@D@std@@V?$allocator@D@2@@std@@PEAX@Z@1@XZ
	??D?$_Tree_iterator@V?$_Tree_val@U?$_Tree_simple_types@U?$pair@$$CBV?$basic_string@DU?$char_traits@D@std@@V?$allocator@D@2@@std@@P6APEAVObject@GetSetGui@@AEBVSection@4@AEAVProgressInterface@4@@Z@std@@@std@@@std@@@std@@QEBAAEAU?$pair@$$CBV?$basic_string@DU?$char_traits@D@std@@V?$allocator@D@2@@std@@P6APEAVObject@GetSetGui@@AEBVSection@4@AEAVProgressInterface@4@@Z@1@XZ
	??D?$_Tree_iterator@V?$_Tree_val@U?$_Tree_simple_types@U?$pair@$$CBV?$basic_string@DU?$char_traits@D@std@@V?$allocator@D@2@@std@@PEAVNode@GetSetInternal@@@std@@@std@@@std@@@std@@QEBAAEAU?$pair@$$CBV?$basic_string@DU?$char_traits@D@std@@V?$allocator@D@2@@std@@PEAVNode@GetSetInternal@@@1@XZ
	??D?$_Tree_iterator@V?$_Tree_val@U?$_Tree_simple_types@U?$pair@$$CBV?$basic_string@DU?$char_traits@D@std@@V?$allocator@D@2@@std@@V12@@std@@@std@@@std@@@std@@QEBAAEAU?$pair@$$CBV?$basic_string@DU?$char_traits@D@std@@V?$allocator@D@2@@std@@V12@@1@XZ
	??D?$_Tree_iterator@V?$_Tree_val@U?$_Tree_simple_types@U?$pair@QEAXP6AXAEBV?$basic_string@DU?$char_traits@D@std@@V?$allocator@D@2@@std@@PEAX@Z@std@@@std@@@std@@@std@@QEBAAEAU?$pair@QEAXP6AXAEBV?$basic_string@DU?$char_traits@D@std@@V?$allocator@D@2@@std@@PEAX@Z@1@XZ
	??D?$_Vb_const_iterator@U?$_Wrap_alloc@V?$allocator@I@std@@@std@@@std@@QEBA_NXZ
	??D?$_Vb_iterator@U?$_Wrap_alloc@V?$allocator@I@std@@@std@@@std@@QEBA?AV?$_Vb_reference@U?$_Wrap_alloc@V?$allocator@I@std@@@std@@@1@XZ
	??D?$_Vector_const_iterator@V?$_Vector_val@U?$_Simple_types@D@std@@@std@@@std@@QEBAAEBDXZ
	??D?$_Vector_const_iterator@V?$_Vector_val@U?$_Simple_types@E@std@@@std@@@std@@QEBAAEBEXZ
	??D?$_Vector_const_iterator@V?$_Vector_val@U?$_Simple_types@F@std@@@std@@@std@@QEBAAEBFXZ
	??D?$_Vector_const_iterator@V?$_Vector_val@U?$_Simple_types@G@std@@@std@@@std@@QEBAAEBGXZ
	??D?$_Vector_const_iterator@V?$_Vector_val@U?$_Simple_types@H@std@@@std@@@std@@QEBAAEBHXZ
	??D?$_Vector_const_iterator@V?$_Vector_val@U?$_Simple_types@I@std@@@std@@@std@@QEBAAEBIXZ
	??D?$_Vector_const_iterator@V?$_Vector_val@U?$_Simple_types@J@std@@@std@@@std@@QEBAAEBJXZ
	??D?$_Vector_const_iterator@V?$_Vector_val@U?$_Simple_types@K@std@@@std@@@std@@QEBAAEBKXZ
	??D?$_Vector_const_iterator@V?$_Vector_val@U?$_Simple_types@M@std@@@std@@@std@@QEBAAEBMXZ
	??D?$_Vector_const_iterator@V?$_Vector_val@U?$_Simple_types@N@std@@@std@@@std@@QEBAAEBNXZ
	??D?$_Vector_const_iterator@V?$_Vector_val@U?$_Simple_types@V?$basic_string@DU?$char_traits@D@std@@V?$allocator@D@2@@std@@@std@@@std@@@std@@QEBAAEBV?$basic_string@DU?$char_traits@D@std@@V?$allocator@D@2@@1@XZ
	??D?$_Vector_iterator@V?$_Vector_val@U?$_Simple_types@V?$basic_string@DU?$char_traits@D@std@@V?$allocator@D@2@@std@@@std@@@std@@@std@@QEBAAEAV?$basic_string@DU?$char_traits@D@std@@V?$allocator@D@2@@1@XZ
	??E?$_String_const_iterator@V?$_String_val@U?$_Simple_types@D@std@@@std@@@std@@QEAAAEAV01@XZ
	??E?$_Tree_const_iterator@V?$_Tree_val@U?$_Tree_simple_types@PEAUObserver@Dictionary@GetSetInternal@@@std@@@std@@@std@@QEAAAEAV01@XZ
	??E?$_Tree_const_iterator@V?$_Tree_val@U?$_Tree_simple_types@U?$pair@$$CBV?$basic_string@DU?$char_traits@D@std@@V?$allocator@D@2@@std@@P6APEAVObject@GetSetGui@@AEBVSection@4@AEAVProgressInterface@4@@Z@std@@@std@@@std@@@std@@QEAAAEAV01@XZ
	??E?$_Tree_const_iterator@V?$_Tree_val@U?$_Tree_simple_types@U?$pair@$$CBV?$basic_string@DU?$char_traits@D@std@@V?$allocator@D@2@@std@@PEAVNode@GetSetInternal@@@std@@@std@@@std@@@std@@QEAAAEAV01@XZ
	??E?$_Tree_const_iterator@V?$_Tree_val@U?$_Tree_simple_types@U?$pair@$$CBV?$basic_string@DU?$char_traits@D@std@@V?$allocator@D@2@@std@@V12@@std@@@std@@@std@@@std@@QEAAAEAV01@XZ
	??E?$_Tree_const_iterator@V?$_Tree_val@U?$_Tree_simple_types@U?$pair@$$CBV?$basic_string@DU?$char_traits@D@std@@V?$allocator@D@2@@std@@V?$map@V?$basic_string@DU?$char_traits@D@std@@V?$allocator@D@2@@std@@V12@U?$less@V?$basic_string@DU?$char_traits@D@std@@V?$allocator@D@2@@std@@@2@V?$allocator@U?$pair@$$CBV?$basic_string@DU?$char_traits@D@std@@V?$allocator@D@2@@std@@V12@@std@@@2@@2@@std@@@std@@@std@@@std@@QEAAAEAV01@XZ
	??E?$_Tree_const_iterator@V?$_Tree_val@U?$_Tree_simple_types@U?$pair@QEAXP6AXAEBV?$basic_string@DU?$char_traits@D@std@@V?$allocator@D@2@@std@@PEAX@Z@std@@@std@@@std@@@std@@QEAAAEAV01@XZ
	??E?$_Tree_iterator@V?$_Tree_val@U?$_Tree_simple_types@U?$pair@$$CBV?$basic_string@DU?$char_traits@D@std@@V?$allocator@D@2@@std@@P6APEAVObject@GetSetGui@@AEBVSection@4@AEAVProgressInterface@4@@Z@std@@@std@@@std@@@std@@QEAAAEAV01@XZ
	??E?$_Tree_iterator@V?$_Tree_val@U?$_Tree_simple_types@U?$pair@$$CBV?$basic_string@DU?$char_traits@D@std@@V?$allocator@D@2@@std@@PEAVNode@GetSetInternal@@@std@@@std@@@std@@@std@@QEAAAEAV01@XZ
	??E?$_Tree_iterator@V?$_Tree_val@U?$_Tree_simple_types@U?$pair@$$CBV?$basic_string@DU?$char_traits@D@std@@V?$allocator@D@2@@std@@V12@@std@@@std@@@std@@@std@@QEAAAEAV01@XZ
	??E?$_Tree_iterator@V?$_Tree_val@U?$_Tree_simple_types@U?$pair@QEAXP6AXAEBV?$basic_string@DU?$char_traits@D@std@@V?$allocator@D@2@@std@@PEAX@Z@std@@@std@@@std@@@std@@QEAAAEAV01@XZ
	??E?$_Tree_unchecked_const_iterator@V?$_Tree_val@U?$_Tree_simple_types@PEAUObserver@Dictionary@GetSetInternal@@@std@@@std@@U_Iterator_base0@2@@std@@QEAA?AV01@H@Z
	??E?$_Tree_unchecked_const_iterator@V?$_Tree_val@U?$_Tree_simple_types@PEAUObserver@Dictionary@GetSetInternal@@@std@@@std@@U_Iterator_base0@2@@std@@QEAAAEAV01@XZ
	??E?$_Tree_unchecked_const_iterator@V?$_Tree_val@U?$_Tree_simple_types@U?$pair@$$CBV?$basic_string@DU?$char_traits@D@std@@V?$allocator@D@2@@std@@P6APEAVObject@GetSetGui@@AEBVSection@4@AEAVProgressInterface@4@@Z@std@@@std@@@std@@U_Iterator_base0@2@@std@@QEAAAEAV01@XZ
	??E?$_Tree_unchecked_const_iterator@V?$_Tree_val@U?$_Tree_simple_types@U?$pair@$$CBV?$basic_string@DU?$char_traits@D@std@@V?$allocator@D@2@@std@@PEAVNode@GetSetInternal@@@std@@@std@@@std@@U_Iterator_base0@2@@std@@QEAAAEAV01@XZ
	??E?$_Tree_unchecked_const_iterator@V?$_Tree_val@U?$_Tree_simple_types@U?$pair@$$CBV?$basic_string@DU?$char_traits@D@std@@V?$allocator@D@2@@std@@V12@@std@@@std@@@std@@U_Iterator_base0@2@@std@@QEAAAEAV01@XZ
	??E?$_Tree_unchecked_const_iterator@V?$_Tree_val@U?$_Tree_simple_types@U?$pair@$$CBV?$basic_string@DU?$char_traits@D@std@@V?$allocator@D@2@@std@@V?$map@V?$basic_string@DU?$char_traits@D@std@@V?$allocator@D@2@@std@@V12@U?$less@V?$basic_string@DU?$char_traits@D@std@@V?$allocator@D@2@@std@@@2@V?$allocator@U?$pair@$$CBV?$basic_string@DU?$char_traits@D@std@@V?$allocator@D@2@@std@@V12@@std@@@2@@2@@std@@@std@@@std@@U_Iterator_base0@2@@std@@QEAAAEAV01@XZ
	??E?$_Tree_unchecked_const_iterator@V?$_Tree_val@U?$_Tree_simple_types@U?$pair@QEAXP6AXAEBV?$basic_string@DU?$char_traits@D@std@@V?$allocator@D@2@@std@@PEAX@Z@std@@@std@@@std@@U_Iterator_base0@2@@std@@QEAAAEAV01@XZ
	??E?$_Tree_unchecked_const_iterator@V?$_Tree_val@U?$_Tree_simple_types@V?$basic_string@DU?$char_traits@D@std@@V?$allocator@D@2@@std@@@std@@@std@@U_Iterator_base0@2@@std@@QEAA?AV01@H@Z
	??E?$_Tree_unchecked_const_iterator@V?$_Tree_val@U?$_Tree_simple_types@V?$basic_string@DU?$char_traits@D@std@@V?$allocator@D@2@@std@@@std@@@std@@U_Iterator_base0@2@@std@@QEAAAEAV01@XZ
	??E?$_Vb_const_iterator@U?$_Wrap_alloc@V?$allocator@I@std@@@std@@@std@@QEAAAEAV01@XZ
	??E?$_Vector_const_iterator@V?$_Vector_val@U?$_Simple_types@D@std@@@std@@@std@@QEAAAEAV01@XZ
	??E?$_Vector_const_iterator@V?$_Vector_val@U?$_Simple_types@E@std@@@std@@@std@@QEAAAEAV01@XZ
	??E?$_Vector_const_iterator@V?$_Vector_val@U?$_Simple_types@F@std@@@std@@@std@@QEAAAEAV01@XZ
	??E?$_Vector_const_iterator@V?$_Vector_val@U?$_Simple_types@G@std@@@std@@@std@@QEAAAEAV01@XZ
	??E?$_Vector_const_iterator@V?$_Vector_val@U?$_Simple_types@H@std@@@std@@@std@@QEAAAEAV01@XZ
	??E?$_Vector_const_iterator@V?$_Vector_val@U?$_Simple_types@I@std@@@std@@@std@@QEAAAEAV01@XZ
	??E?$_Vector_const_iterator@V?$_Vector_val@U?$_Simple_types@J@std@@@std@@@std@@QEAAAEAV01@XZ
	??E?$_Vector_const_iterator@V?$_Vector_val@U?$_Simple_types@K@std@@@std@@@std@@QEAAAEAV01@XZ
	??E?$_Vector_const_iterator@V?$_Vector_val@U?$_Simple_types@M@std@@@std@@@std@@QEAAAEAV01@XZ
	??E?$_Vector_const_iterator@V?$_Vector_val@U?$_Simple_types@N@std@@@std@@@std@@QEAAAEAV01@XZ
	??E?$_Vector_const_iterator@V?$_Vector_val@U?$_Simple_types@V?$basic_string@DU?$char_traits@D@std@@V?$allocator@D@2@@std@@@std@@@std@@@std@@QEAAAEAV01@XZ
	??E?$_Vector_iterator@V?$_Vector_val@U?$_Simple_types@V?$basic_string@DU?$char_traits@D@std@@V?$allocator@D@2@@std@@@std@@@std@@@std@@QEAAAEAV01@XZ
	??F?$_Vb_const_iterator@U?$_Wrap_alloc@V?$allocator@I@std@@@std@@@std@@QEAAAEAV01@XZ
	??F?$_Vb_iterator@U?$_Wrap_alloc@V?$allocator@I@std@@@std@@@std@@QEAAAEAV01@XZ
	??G?$_Vb_const_iterator@U?$_Wrap_alloc@V?$allocator@I@std@@@std@@@std@@QEBA_JAEBV01@@Z
	??G?$fpos@U_Mbstatet@@@std@@QEBA_JAEBV01@@Z
	??H?$_String_iterator@V?$_String_val@U?$_Simple_types@D@std@@@std@@@std@@QEBA?AV01@_J@Z
	??H?$_Vb_const_iterator@U?$_Wrap_alloc@V?$allocator@I@std@@@std@@@std@@QEBA?AV01@_J@Z
	??H?$_Vb_iterator@U?$_Wrap_alloc@V?$allocator@I@std@@@std@@@std@@QEBA?AV01@_J@Z
	??R<lambda_319d5e083f45f90dcdce5dce53cbb275>@@SA@QEADQEBD_KD@Z
	??R<lambda_6e107f859707de1a71dcca60860853b1>@@SA@QEADQEBD_K12@Z
	??R<lambda_a132b9f505f015b07a26cb4edca31da2>@@SA@QEAD_KQEBD@Z
	??R<lambda_e9b99a188f9a316a73b83d1e72db26de>@@SA@QEADQEBD_K212@Z
	??R?$_Func_class@XAEBVNode@GetSetInternal@@@std@@QEBAXAEBVNode@GetSetInternal@@@Z
	??R?$default_delete@V_Facet_base@std@@@std@@QEBAXPEAV_Facet_base@1@@Z
	??R?$less@E@std@@QEBA_NAEBE0@Z
	??R?$less@PEAUObserver@Dictionary@GetSetInternal@@@std@@QEBA_NAEBQEAUObserver@Dictionary@GetSetInternal@@0@Z
	??R?$less@PEAX@std@@QEBA_NAEBQEAX0@Z
	??R?$less@V?$basic_string@DU?$char_traits@D@std@@V?$allocator@D@2@@std@@@std@@QEBA_NAEBV?$basic_string@DU?$char_traits@D@std@@V?$allocator@D@2@@1@0@Z
	??Y?$_String_const_iterator@V?$_String_val@U?$_Simple_types@D@std@@@std@@@std@@QEAAAEAV01@_J@Z
	??Y?$_String_iterator@V?$_String_val@U?$_Simple_types@D@std@@@std@@@std@@QEAAAEAV01@_J@Z
	??Y?$_Vb_const_iterator@U?$_Wrap_alloc@V?$allocator@I@std@@@std@@@std@@QEAAAEAV01@_J@Z
	??Y?$_Vb_iterator@U?$_Wrap_alloc@V?$allocator@I@std@@@std@@@std@@QEAAAEAV01@_J@Z
	??Y?$basic_string@DU?$char_traits@D@std@@V?$allocator@D@2@@std@@QEAAAEAV01@AEBV01@@Z
	??Y?$basic_string@DU?$char_traits@D@std@@V?$allocator@D@2@@std@@QEAAAEAV01@D@Z
	??Y?$basic_string@DU?$char_traits@D@std@@V?$allocator@D@2@@std@@QEAAAEAV01@QEBD@Z
	??_7?$GetSet@V?$basic_string@DU?$char_traits@D@std@@V?$allocator@D@2@@std@@@@6B@
	??_7?$GetSet@_N@@6B@
	??_7?$Key@D@GetSetInternal@@6B@
	??_7?$Key@E@GetSetInternal@@6B@
	??_7?$Key@F@GetSetInternal@@6B@
	??_7?$Key@G@GetSetInternal@@6B@
	??_7?$Key@H@GetSetInternal@@6B@
	??_7?$Key@I@GetSetInternal@@6B@
	??_7?$Key@J@GetSetInternal@@6B@
	??_7?$Key@K@GetSetInternal@@6B@
	??_7?$Key@M@GetSetInternal@@6B@
	??_7?$Key@N@GetSetInternal@@6B@
	??_7?$Key@V?$basic_string@DU?$char_traits@D@std@@V?$allocator@D@2@@std@@@GetSetInternal@@6B@
	??_7?$Key@V?$vector@DV?$allocator@D@std@@@std@@@GetSetInternal@@6B@
	??_7?$Key@V?$vector@EV?$allocator@E@std@@@std@@@GetSetInternal@@6B@
	??_7?$Key@V?$vector@FV?$allocator@F@std@@@std@@@GetSetInternal@@6B@
	??_7?$Key@V?$vector@GV?$allocator@G@std@@@std@@@GetSetInternal@@6B@
	??_7?$Key@V?$vector@HV?$allocator@H@std@@@std@@@GetSetInternal@@6B@
	??_7?$Key@V?$vector@IV?$allocator@I@std@@@std@@@GetSetInternal@@6B@
	??_7?$Key@V?$vector@JV?$allocator@J@std@@@std@@@GetSetInternal@@6B@
	??_7?$Key@V?$vector@KV?$allocator@K@std@@@std@@@GetSetInternal@@6B@
	??_7?$Key@V?$vector@MV?$allocator@M@std@@@std@@@GetSetInternal@@6B@
	??_7?$Key@V?$vector@NV?$allocator@N@std@@@std@@@GetSetInternal@@6B@
	??_7?$Key@V?$vector@V?$basic_string@DU?$char_traits@D@std@@V?$allocator@D@2@@std@@V?$allocator@V?$basic_string@DU?$char_traits@D@std@@V?$allocator@D@2@@std@@@2@@std@@@GetSetInternal@@6B@
	??_7?$Key@V?$vector@_NV?$allocator@_N@std@@@std@@@GetSetInternal@@6B@
	??_7?$Key@_N@GetSetInternal@@6B@
	??_7?$basic_filebuf@DU?$char_traits@D@std@@@std@@6B@
	??_7?$basic_ifstream@DU?$char_traits@D@std@@@std@@6B@
	??_7?$basic_istringstream@DU?$char_traits@D@std@@V?$allocator@D@2@@std@@6B@
	??_7?$basic_ofstream@DU?$char_traits@D@std@@@std@@6B@
	??_7?$basic_ostringstream@DU?$char_traits@D@std@@V?$allocator@D@2@@std@@6B@
	??_7?$basic_stringbuf@DU?$char_traits@D@std@@V?$allocator@D@2@@std@@6B@
	??_7?$basic_stringstream@DU?$char_traits@D@std@@V?$allocator@D@2@@std@@6B@
	??_7Button@GetSetGui@@6B@
	??_7Dictionary@GetSetInternal@@6B@
	??_7GetSetHandler@@6B@
	??_7GetSetScriptParser@@6B@
	??_7IniFile@GetSetIO@@6B@
	??_7InputOutput@GetSetIO@@6B@
	??_7KeyButton@GetSetInternal@@6B@
	??_7KeyDirectory@GetSetInternal@@6B@
	??_7KeyEnum@GetSetInternal@@6B@
	??_7KeyFile@GetSetInternal@@6B@
	??_7KeyRangedDouble@GetSetInternal@@6B@
	??_7KeyReadOnlyText@GetSetInternal@@6B@
	??_7KeySlider@GetSetInternal@@6B@
	??_7KeyStaticText@GetSetInternal@@6B@
	??_7Node@GetSetInternal@@6B@
	??_7Object@GetSetGui@@6B@
	??_7Observer@Dictionary@GetSetInternal@@6B@
	??_7ProgressInterface@GetSetGui@@6B@
	??_7Section@GetSetGui@@6B@
	??_7Section@GetSetInternal@@6B@
	??_7TxtKeyValue@GetSetIO@@6B@
	??_7bad_alloc@std@@6B@
	??_7bad_array_new_length@std@@6B@
	??_7bad_cast@std@@6B@
	??_7exception@std@@6B@
	??_7runtime_error@std@@6B@
	??_D?$basic_ifstream@DU?$char_traits@D@std@@@std@@QEAAXXZ
	??_D?$basic_istringstream@DU?$char_traits@D@std@@V?$allocator@D@2@@std@@QEAAXXZ
	??_D?$basic_ofstream@DU?$char_traits@D@std@@@std@@QEAAXXZ
	??_D?$basic_ostringstream@DU?$char_traits@D@std@@V?$allocator@D@2@@std@@QEAAXXZ
	??_D?$basic_stringstream@DU?$char_traits@D@std@@V?$allocator@D@2@@std@@QEAAXXZ
	?_Activate_SSO_buffer@?$_String_val@U?$_Simple_types@D@std@@@std@@QEAAXXZ
	?_Adjust_manually_vector_aligned@std@@YAXAEAPEAXAEA_K@Z
	?_Adopt@_Iterator_base0@std@@QEAAXPEBX@Z
	?_Alloc_proxy@_Container_base0@std@@QEAAXAEBU_Fake_allocator@2@@Z
	?_Alloc_sentinel_and_proxy@?$_Tree@V?$_Tmap_traits@EEU?$less@E@std@@V?$allocator@U?$pair@$$CBEE@std@@@2@$0A@@std@@@std@@IEAAXXZ
	?_Alloc_sentinel_and_proxy@?$_Tree@V?$_Tmap_traits@PEAXP6AXAEBV?$basic_string@DU?$char_traits@D@std@@V?$allocator@D@2@@std@@PEAX@ZU?$less@PEAX@2@V?$allocator@U?$pair@QEAXP6AXAEBV?$basic_string@DU?$char_traits@D@std@@V?$allocator@D@2@@std@@PEAX@Z@std@@@2@$0A@@std@@@std@@IEAAXXZ
	?_Alloc_sentinel_and_proxy@?$_Tree@V?$_Tmap_traits@V?$basic_string@DU?$char_traits@D@std@@V?$allocator@D@2@@std@@P6APEAVObject@GetSetGui@@AEBVSection@4@AEAVProgressInterface@4@@ZU?$less@V?$basic_string@DU?$char_traits@D@std@@V?$allocator@D@2@@std@@@2@V?$allocator@U?$pair@$$CBV?$basic_string@DU?$char_traits@D@std@@V?$allocator@D@2@@std@@P6APEAVObject@GetSetGui@@AEBVSection@4@AEAVProgressInterface@4@@Z@std@@@2@$0A@@std@@@std@@IEAAXXZ
	?_Alloc_sentinel_and_proxy@?$_Tree@V?$_Tmap_traits@V?$basic_string@DU?$char_traits@D@std@@V?$allocator@D@2@@std@@PEAVNode@GetSetInternal@@U?$less@V?$basic_string@DU?$char_traits@D@std@@V?$allocator@D@2@@std@@@2@V?$allocator@U?$pair@$$CBV?$basic_string@DU?$char_traits@D@std@@V?$allocator@D@2@@std@@PEAVNode@GetSetInternal@@@std@@@2@$0A@@std@@@std@@IEAAXXZ
	?_Alloc_sentinel_and_proxy@?$_Tree@V?$_Tmap_traits@V?$basic_string@DU?$char_traits@D@std@@V?$allocator@D@2@@std@@V12@U?$less@V?$basic_string@DU?$char_traits@D@std@@V?$allocator@D@2@@std@@@2@V?$allocator@U?$pair@$$CBV?$basic_string@DU?$char_traits@D@std@@V?$allocator@D@2@@std@@V12@@std@@@2@$0A@@std@@@std@@IEAAXXZ
	?_Alloc_sentinel_and_proxy@?$_Tree@V?$_Tmap_traits@V?$basic_string@DU?$char_traits@D@std@@V?$allocator@D@2@@std@@V?$map@V?$basic_string@DU?$char_traits@D@std@@V?$allocator@D@2@@std@@V12@U?$less@V?$basic_string@DU?$char_traits@D@std@@V?$allocator@D@2@@std@@@2@V?$allocator@U?$pair@$$CBV?$basic_string@DU?$char_traits@D@std@@V?$allocator@D@2@@std@@V12@@std@@@2@@2@U?$less@V?$basic_string@DU?$char_traits@D@std@@V?$allocator@D@2@@std@@@2@V?$allocator@U?$pair@$$CBV?$basic_string@DU?$char_traits@D@std@@V?$allocator@D@2@@std@@V?$map@V?$basic_string@DU?$char_traits@D@std@@V?$allocator@D@2@@std@@V12@U?$less@V?$basic_string@DU?$char_traits@D@std@@V?$allocator@D@2@@std@@@2@V?$allocator@U?$pair@$$CBV?$basic_string@DU?$char_traits@D@std@@V?$allocator@D@2@@std@@V12@@std@@@2@@2@@std@@@2@$0A@@std@@@std@@IEAAXXZ
	?_Alloc_sentinel_and_proxy@?$_Tree@V?$_Tset_traits@PEAUObserver@Dictionary@GetSetInternal@@U?$less@PEAUObserver@Dictionary@GetSetInternal@@@std@@V?$allocator@PEAUObserver@Dictionary@GetSetInternal@@@5@$0A@@std@@@std@@IEAAXXZ
	?_Alloc_sentinel_and_proxy@?$_Tree@V?$_Tset_traits@V?$basic_string@DU?$char_traits@D@std@@V?$allocator@D@2@@std@@U?$less@V?$basic_string@DU?$char_traits@D@std@@V?$allocator@D@2@@std@@@2@V?$allocator@V?$basic_string@DU?$char_traits@D@std@@V?$allocator@D@2@@std@@@2@$0A@@std@@@std@@IEAAXXZ
	?_Allocate@?$_Alloc_construct_ptr@V?$allocator@U?$_Tree_node@PEAUObserver@Dictionary@GetSetInternal@@PEAX@std@@@std@@@std@@QEAAXXZ
	?_Allocate@?$_Alloc_construct_ptr@V?$allocator@U?$_Tree_node@U?$pair@$$CBEE@std@@PEAX@std@@@std@@@std@@QEAAXXZ
	?_Allocate@?$_Alloc_construct_ptr@V?$allocator@U?$_Tree_node@U?$pair@$$CBV?$basic_string@DU?$char_traits@D@std@@V?$allocator@D@2@@std@@P6APEAVObject@GetSetGui@@AEBVSection@4@AEAVProgressInterface@4@@Z@std@@PEAX@std@@@std@@@std@@QEAAXXZ
	?_Allocate@?$_Alloc_construct_ptr@V?$allocator@U?$_Tree_node@U?$pair@$$CBV?$basic_string@DU?$char_traits@D@std@@V?$allocator@D@2@@std@@PEAVNode@GetSetInternal@@@std@@PEAX@std@@@std@@@std@@QEAAXXZ
	?_Allocate@?$_Alloc_construct_ptr@V?$allocator@U?$_Tree_node@U?$pair@$$CBV?$basic_string@DU?$char_traits@D@std@@V?$allocator@D@2@@std@@V12@@std@@PEAX@std@@@std@@@std@@QEAAXXZ
	?_Allocate@?$_Alloc_construct_ptr@V?$allocator@U?$_Tree_node@U?$pair@$$CBV?$basic_string@DU?$char_traits@D@std@@V?$allocator@D@2@@std@@V?$map@V?$basic_string@DU?$char_traits@D@std@@V?$allocator@D@2@@std@@V12@U?$less@V?$basic_string@DU?$char_traits@D@std@@V?$allocator@D@2@@std@@@2@V?$allocator@U?$pair@$$CBV?$basic_string@DU?$char_traits@D@std@@V?$allocator@D@2@@std@@V12@@std@@@2@@2@@std@@PEAX@std@@@std@@@std@@QEAAXXZ
	?_Allocate@?$_Alloc_construct_ptr@V?$allocator@U?$_Tree_node@U?$pair@QEAXP6AXAEBV?$basic_string@DU?$char_traits@D@std@@V?$allocator@D@2@@std@@PEAX@Z@std@@PEAX@std@@@std@@@std@@QEAAXXZ
	?_Allocate@?$_Alloc_construct_ptr@V?$allocator@U?$_Tree_node@V?$basic_string@DU?$char_traits@D@std@@V?$allocator@D@2@@std@@PEAX@std@@@std@@@std@@QEAAXXZ
	?_Allocate@_Default_allocate_traits@std@@SAPEAX_K@Z
	?_Buy_nonzero@?$vector@DV?$allocator@D@std@@@std@@AEAAX_K@Z
	?_Buy_nonzero@?$vector@EV?$allocator@E@std@@@std@@AEAAX_K@Z
	?_Buy_nonzero@?$vector@FV?$allocator@F@std@@@std@@AEAAX_K@Z
	?_Buy_nonzero@?$vector@GV?$allocator@G@std@@@std@@AEAAX_K@Z
	?_Buy_nonzero@?$vector@HV?$allocator@H@std@@@std@@AEAAX_K@Z
	?_Buy_nonzero@?$vector@IV?$allocator@I@std@@@std@@AEAAX_K@Z
	?_Buy_nonzero@?$vector@JV?$allocator@J@std@@@std@@AEAAX_K@Z
	?_Buy_nonzero@?$vector@KV?$allocator@K@std@@@std@@AEAAX_K@Z
	?_Buy_nonzero@?$vector@MV?$allocator@M@std@@@std@@AEAAX_K@Z
	?_Buy_nonzero@?$vector@NV?$allocator@N@std@@@std@@AEAAX_K@Z
	?_Buy_nonzero@?$vector@V?$basic_string@DU?$char_traits@D@std@@V?$allocator@D@2@@std@@V?$allocator@V?$basic_string@DU?$char_traits@D@std@@V?$allocator@D@2@@std@@@2@@std@@AEAAX_K@Z
	?_Buy_raw@?$vector@DV?$allocator@D@std@@@std@@AEAAX_K@Z
	?_Buy_raw@?$vector@EV?$allocator@E@std@@@std@@AEAAX_K@Z
	?_Buy_raw@?$vector@FV?$allocator@F@std@@@std@@AEAAX_K@Z
	?_Buy_raw@?$vector@GV?$allocator@G@std@@@std@@AEAAX_K@Z
	?_Buy_raw@?$vector@HV?$allocator@H@std@@@std@@AEAAX_K@Z
	?_Buy_raw@?$vector@IV?$allocator@I@std@@@std@@AEAAX_K@Z
	?_Buy_raw@?$vector@JV?$allocator@J@std@@@std@@AEAAX_K@Z
	?_Buy_raw@?$vector@KV?$allocator@K@std@@@std@@AEAAX_K@Z
	?_Buy_raw@?$vector@MV?$allocator@M@std@@@std@@AEAAX_K@Z
	?_Buy_raw@?$vector@NV?$allocator@N@std@@@std@@AEAAX_K@Z
	?_Buy_raw@?$vector@V?$basic_string@DU?$char_traits@D@std@@V?$allocator@D@2@@std@@V?$allocator@V?$basic_string@DU?$char_traits@D@std@@V?$allocator@D@2@@std@@@2@@std@@AEAAX_K@Z
	?_Calculate_growth@?$basic_string@DU?$char_traits@D@std@@V?$allocator@D@2@@std@@AEBA_K_K@Z
	?_Calculate_growth@?$basic_string@DU?$char_traits@D@std@@V?$allocator@D@2@@std@@CA_K_K00@Z
	?_Calculate_growth@?$vector@DV?$allocator@D@std@@@std@@AEBA_K_K@Z
	?_Calculate_growth@?$vector@EV?$allocator@E@std@@@std@@AEBA_K_K@Z
	?_Calculate_growth@?$vector@FV?$allocator@F@std@@@std@@AEBA_K_K@Z
	?_Calculate_growth@?$vector@GV?$allocator@G@std@@@std@@AEBA_K_K@Z
	?_Calculate_growth@?$vector@HV?$allocator@H@std@@@std@@AEBA_K_K@Z
	?_Calculate_growth@?$vector@IV?$allocator@I@std@@@std@@AEBA_K_K@Z
	?_Calculate_growth@?$vector@JV?$allocator@J@std@@@std@@AEBA_K_K@Z
	?_Calculate_growth@?$vector@KV?$allocator@K@std@@@std@@AEBA_K_K@Z
	?_Calculate_growth@?$vector@MV?$allocator@M@std@@@std@@AEBA_K_K@Z
	?_Calculate_growth@?$vector@NV?$allocator@N@std@@@std@@AEBA_K_K@Z
	?_Calculate_growth@?$vector@V?$basic_string@DU?$char_traits@D@std@@V?$allocator@D@2@@std@@V?$allocator@V?$basic_string@DU?$char_traits@D@std@@V?$allocator@D@2@@std@@@2@@std@@AEBA_K_K@Z
	?_Change_array@?$vector@DV?$allocator@D@std@@@std@@AEAAXQEAD_K1@Z
	?_Change_array@?$vector@EV?$allocator@E@std@@@std@@AEAAXQEAE_K1@Z
	?_Change_array@?$vector@FV?$allocator@F@std@@@std@@AEAAXQEAF_K1@Z
	?_Change_array@?$vector@GV?$allocator@G@std@@@std@@AEAAXQEAG_K1@Z
	?_Change_array@?$vector@HV?$allocator@H@std@@@std@@AEAAXQEAH_K1@Z
	?_Change_array@?$vector@IV?$allocator@I@std@@@std@@AEAAXQEAI_K1@Z
	?_Change_array@?$vector@JV?$allocator@J@std@@@std@@AEAAXQEAJ_K1@Z
	?_Change_array@?$vector@KV?$allocator@K@std@@@std@@AEAAXQEAK_K1@Z
	?_Change_array@?$vector@MV?$allocator@M@std@@@std@@AEAAXQEAM_K1@Z
	?_Change_array@?$vector@NV?$allocator@N@std@@@std@@AEAAXQEAN_K1@Z
	?_Change_array@?$vector@V?$basic_string@DU?$char_traits@D@std@@V?$allocator@D@2@@std@@V?$allocator@V?$basic_string@DU?$char_traits@D@std@@V?$allocator@D@2@@std@@@2@@std@@AEAAXQEAV?$basic_string@DU?$char_traits@D@std@@V?$allocator@D@2@@2@_K1@Z
	?_Check_grow_by_1@?$_Tree@V?$_Tmap_traits@EEU?$less@E@std@@V?$allocator@U?$pair@$$CBEE@std@@@2@$0A@@std@@@std@@IEAAXXZ
	?_Check_grow_by_1@?$_Tree@V?$_Tmap_traits@PEAXP6AXAEBV?$basic_string@DU?$char_traits@D@std@@V?$allocator@D@2@@std@@PEAX@ZU?$less@PEAX@2@V?$allocator@U?$pair@QEAXP6AXAEBV?$basic_string@DU?$char_traits@D@std@@V?$allocator@D@2@@std@@PEAX@Z@std@@@2@$0A@@std@@@std@@IEAAXXZ
	?_Check_grow_by_1@?$_Tree@V?$_Tmap_traits@V?$basic_string@DU?$char_traits@D@std@@V?$allocator@D@2@@std@@P6APEAVObject@GetSetGui@@AEBVSection@4@AEAVProgressInterface@4@@ZU?$less@V?$basic_string@DU?$char_traits@D@std@@V?$allocator@D@2@@std@@@2@V?$allocator@U?$pair@$$CBV?$basic_string@DU?$char_traits@D@std@@V?$allocator@D@2@@std@@P6APEAVObject@GetSetGui@@AEBVSection@4@AEAVProgressInterface@4@@Z@std@@@2@$0A@@std@@@std@@IEAAXXZ
	?_Check_grow_by_1@?$_Tree@V?$_Tmap_traits@V?$basic_string@DU?$char_traits@D@std@@V?$allocator@D@2@@std@@PEAVNode@GetSetInternal@@U?$less@V?$basic_string@DU?$char_traits@D@std@@V?$allocator@D@2@@std@@@2@V?$allocator@U?$pair@$$CBV?$basic_string@DU?$char_traits@D@std@@V?$allocator@D@2@@std@@PEAVNode@GetSetInternal@@@std@@@2@$0A@@std@@@std@@IEAAXXZ
	?_Check_grow_by_1@?$_Tree@V?$_Tmap_traits@V?$basic_string@DU?$char_traits@D@std@@V?$allocator@D@2@@std@@V12@U?$less@V?$basic_string@DU?$char_traits@D@std@@V?$allocator@D@2@@std@@@2@V?$allocator@U?$pair@$$CBV?$basic_string@DU?$char_traits@D@std@@V?$allocator@D@2@@std@@V12@@std@@@2@$0A@@std@@@std@@IEAAXXZ
	?_Check_grow_by_1@?$_Tree@V?$_Tmap_traits@V?$basic_string@DU?$char_traits@D@std@@V?$allocator@D@2@@std@@V?$map@V?$basic_string@DU?$char_traits@D@std@@V?$allocator@D@2@@std@@V12@U?$less@V?$basic_string@DU?$char_traits@D@std@@V?$allocator@D@2@@std@@@2@V?$allocator@U?$pair@$$CBV?$basic_string@DU?$char_traits@D@std@@V?$allocator@D@2@@std@@V12@@std@@@2@@2@U?$less@V?$basic_string@DU?$char_traits@D@std@@V?$allocator@D@2@@std@@@2@V?$allocator@U?$pair@$$CBV?$basic_string@DU?$char_traits@D@std@@V?$allocator@D@2@@std@@V?$map@V?$basic_string@DU?$char_traits@D@std@@V?$allocator@D@2@@std@@V12@U?$less@V?$basic_string@DU?$char_traits@D@std@@V?$allocator@D@2@@std@@@2@V?$allocator@U?$pair@$$CBV?$basic_string@DU?$char_traits@D@std@@V?$allocator@D@2@@std@@V12@@std@@@2@@2@@std@@@2@$0A@@std@@@std@@IEAAXXZ
	?_Check_grow_by_1@?$_Tree@V?$_Tset_traits@PEAUObserver@Dictionary@GetSetInternal@@U?$less@PEAUObserver@Dictionary@GetSetInternal@@@std@@V?$allocator@PEAUObserver@Dictionary@GetSetInternal@@@5@$0A@@std@@@std@@IEAAXXZ
	?_Check_grow_by_1@?$_Tree@V?$_Tset_traits@V?$basic_string@DU?$char_traits@D@std@@V?$allocator@D@2@@std@@U?$less@V?$basic_string@DU?$char_traits@D@std@@V?$allocator@D@2@@std@@@2@V?$allocator@V?$basic_string@DU?$char_traits@D@std@@V?$allocator@D@2@@std@@@2@$0A@@std@@@std@@IEAAXXZ
	?_Check_offset@?$_String_val@U?$_Simple_types@D@std@@@std@@QEBAX_K@Z
	?_Clamp_suffix_size@?$_String_val@U?$_Simple_types@D@std@@@std@@QEBA_K_K0@Z
	?_Clear_and_reserve_geometric@?$vector@DV?$allocator@D@std@@@std@@AEAAX_K@Z
	?_Clear_and_reserve_geometric@?$vector@EV?$allocator@E@std@@@std@@AEAAX_K@Z
	?_Clear_and_reserve_geometric@?$vector@FV?$allocator@F@std@@@std@@AEAAX_K@Z
	?_Clear_and_reserve_geometric@?$vector@GV?$allocator@G@std@@@std@@AEAAX_K@Z
	?_Clear_and_reserve_geometric@?$vector@HV?$allocator@H@std@@@std@@AEAAX_K@Z
	?_Clear_and_reserve_geometric@?$vector@IV?$allocator@I@std@@@std@@AEAAX_K@Z
	?_Clear_and_reserve_geometric@?$vector@JV?$allocator@J@std@@@std@@AEAAX_K@Z
	?_Clear_and_reserve_geometric@?$vector@KV?$allocator@K@std@@@std@@AEAAX_K@Z
	?_Clear_and_reserve_geometric@?$vector@MV?$allocator@M@std@@@std@@AEAAX_K@Z
	?_Clear_and_reserve_geometric@?$vector@NV?$allocator@N@std@@@std@@AEAAX_K@Z
	?_Clear_and_reserve_geometric@?$vector@V?$basic_string@DU?$char_traits@D@std@@V?$allocator@D@2@@std@@V?$allocator@V?$basic_string@DU?$char_traits@D@std@@V?$allocator@D@2@@std@@@2@@std@@AEAAX_K@Z
	?_Compat@?$_String_const_iterator@V?$_String_val@U?$_Simple_types@D@std@@@std@@@std@@QEBAXAEBV12@@Z
	?_Compat@?$_Vb_const_iterator@U?$_Wrap_alloc@V?$allocator@I@std@@@std@@@std@@QEBAXAEBV12@@Z
	?_Compat@?$_Vector_const_iterator@V?$_Vector_val@U?$_Simple_types@D@std@@@std@@@std@@QEBAXAEBV12@@Z
	?_Compat@?$_Vector_const_iterator@V?$_Vector_val@U?$_Simple_types@E@std@@@std@@@std@@QEBAXAEBV12@@Z
	?_Compat@?$_Vector_const_iterator@V?$_Vector_val@U?$_Simple_types@F@std@@@std@@@std@@QEBAXAEBV12@@Z
	?_Compat@?$_Vector_const_iterator@V?$_Vector_val@U?$_Simple_types@G@std@@@std@@@std@@QEBAXAEBV12@@Z
	?_Compat@?$_Vector_const_iterator@V?$_Vector_val@U?$_Simple_types@H@std@@@std@@@std@@QEBAXAEBV12@@Z
	?_Compat@?$_Vector_const_iterator@V?$_Vector_val@U?$_Simple_types@I@std@@@std@@@std@@QEBAXAEBV12@@Z
	?_Compat@?$_Vector_const_iterator@V?$_Vector_val@U?$_Simple_types@J@std@@@std@@@std@@QEBAXAEBV12@@Z
	?_Compat@?$_Vector_const_iterator@V?$_Vector_val@U?$_Simple_types@K@std@@@std@@@std@@QEBAXAEBV12@@Z
	?_Compat@?$_Vector_const_iterator@V?$_Vector_val@U?$_Simple_types@M@std@@@std@@@std@@QEBAXAEBV12@@Z
	?_Compat@?$_Vector_const_iterator@V?$_Vector_val@U?$_Simple_types@N@std@@@std@@@std@@QEBAXAEBV12@@Z
	?_Compat@?$_Vector_const_iterator@V?$_Vector_val@U?$_Simple_types@V?$basic_string@DU?$char_traits@D@std@@V?$allocator@D@2@@std@@@std@@@std@@@std@@QEBAXAEBV12@@Z
	?_Construct_empty@?$basic_string@DU?$char_traits@D@std@@V?$allocator@D@2@@std@@AEAAXXZ
	?_Deallocate_for_capacity@?$basic_string@DU?$char_traits@D@std@@V?$allocator@D@2@@std@@CAXAEAV?$allocator@D@2@QEAD_K@Z
	?_Dec@?$_Vb_const_iterator@U?$_Wrap_alloc@V?$allocator@I@std@@@std@@@std@@QEAAXXZ
	?_Empty@?$_Func_class@XAEBVNode@GetSetInternal@@@std@@IEBA_NXZ
	?_Endwrite@?$basic_filebuf@DU?$char_traits@D@std@@@std@@IEAA_NXZ
	?_Eos@?$basic_string@DU?$char_traits@D@std@@V?$allocator@D@2@@std@@AEAAX_K@Z
	?_Equal@?$basic_string@DU?$char_traits@D@std@@V?$allocator@D@2@@std@@QEBA_NAEBV12@@Z
	?_Equal@?$basic_string@DU?$char_traits@D@std@@V?$allocator@D@2@@std@@QEBA_NQEBD@Z
	?_Erase@?$_Tree@V?$_Tset_traits@PEAUObserver@Dictionary@GetSetInternal@@U?$less@PEAUObserver@Dictionary@GetSetInternal@@@std@@V?$allocator@PEAUObserver@Dictionary@GetSetInternal@@@5@$0A@@std@@@std@@AEAA_KU?$pair@PEAU?$_Tree_node@PEAUObserver@Dictionary@GetSetInternal@@PEAX@std@@PEAU12@@2@@Z
	?_Erase@?$_Tree@V?$_Tset_traits@V?$basic_string@DU?$char_traits@D@std@@V?$allocator@D@2@@std@@U?$less@V?$basic_string@DU?$char_traits@D@std@@V?$allocator@D@2@@std@@@2@V?$allocator@V?$basic_string@DU?$char_traits@D@std@@V?$allocator@D@2@@std@@@2@$0A@@std@@@std@@AEAA_KU?$pair@PEAU?$_Tree_node@V?$basic_string@DU?$char_traits@D@std@@V?$allocator@D@2@@std@@PEAX@std@@PEAU12@@2@@Z
	?_Erase_noexcept@?$basic_string@DU?$char_traits@D@std@@V?$allocator@D@2@@std@@AEAAAEAV12@_K_K@Z
	?_Erase_unchecked@?$_Tree@V?$_Tmap_traits@PEAXP6AXAEBV?$basic_string@DU?$char_traits@D@std@@V?$allocator@D@2@@std@@PEAX@ZU?$less@PEAX@2@V?$allocator@U?$pair@QEAXP6AXAEBV?$basic_string@DU?$char_traits@D@std@@V?$allocator@D@2@@std@@PEAX@Z@std@@@2@$0A@@std@@@std@@AEAAPEAU?$_Tree_node@U?$pair@QEAXP6AXAEBV?$basic_string@DU?$char_traits@D@std@@V?$allocator@D@2@@std@@PEAX@Z@std@@PEAX@2@V?$_Tree_unchecked_const_iterator@V?$_Tree_val@U?$_Tree_simple_types@U?$pair@QEAXP6AXAEBV?$basic_string@DU?$char_traits@D@std@@V?$allocator@D@2@@std@@PEAX@Z@std@@@std@@@std@@U_Iterator_base0@2@@2@@Z
	?_Erase_unchecked@?$_Tree@V?$_Tmap_traits@V?$basic_string@DU?$char_traits@D@std@@V?$allocator@D@2@@std@@P6APEAVObject@GetSetGui@@AEBVSection@4@AEAVProgressInterface@4@@ZU?$less@V?$basic_string@DU?$char_traits@D@std@@V?$allocator@D@2@@std@@@2@V?$allocator@U?$pair@$$CBV?$basic_string@DU?$char_traits@D@std@@V?$allocator@D@2@@std@@P6APEAVObject@GetSetGui@@AEBVSection@4@AEAVProgressInterface@4@@Z@std@@@2@$0A@@std@@@std@@AEAAPEAU?$_Tree_node@U?$pair@$$CBV?$basic_string@DU?$char_traits@D@std@@V?$allocator@D@2@@std@@P6APEAVObject@GetSetGui@@AEBVSection@4@AEAVProgressInterface@4@@Z@std@@PEAX@2@V?$_Tree_unchecked_const_iterator@V?$_Tree_val@U?$_Tree_simple_types@U?$pair@$$CBV?$basic_string@DU?$char_traits@D@std@@V?$allocator@D@2@@std@@P6APEAVObject@GetSetGui@@AEBVSection@4@AEAVProgressInterface@4@@Z@std@@@std@@@std@@U_Iterator_base0@2@@2@@Z
	?_Erase_unchecked@?$_Tree@V?$_Tmap_traits@V?$basic_string@DU?$char_traits@D@std@@V?$allocator@D@2@@std@@PEAVNode@GetSetInternal@@U?$less@V?$basic_string@DU?$char_traits@D@std@@V?$allocator@D@2@@std@@@2@V?$allocator@U?$pair@$$CBV?$basic_string@DU?$char_traits@D@std@@V?$allocator@D@2@@std@@PEAVNode@GetSetInternal@@@std@@@2@$0A@@std@@@std@@AEAAPEAU?$_Tree_node@U?$pair@$$CBV?$basic_string@DU?$char_traits@D@std@@V?$allocator@D@2@@std@@PEAVNode@GetSetInternal@@@std@@PEAX@2@V?$_Tree_unchecked_const_iterator@V?$_Tree_val@U?$_Tree_simple_types@U?$pair@$$CBV?$basic_string@DU?$char_traits@D@std@@V?$allocator@D@2@@std@@PEAVNode@GetSetInternal@@@std@@@std@@@std@@U_Iterator_base0@2@@2@@Z
	?_Erase_unchecked@?$_Tree@V?$_Tmap_traits@V?$basic_string@DU?$char_traits@D@std@@V?$allocator@D@2@@std@@V12@U?$less@V?$basic_string@DU?$char_traits@D@std@@V?$allocator@D@2@@std@@@2@V?$allocator@U?$pair@$$CBV?$basic_string@DU?$char_traits@D@std@@V?$allocator@D@2@@std@@V12@@std@@@2@$0A@@std@@@std@@AEAAPEAU?$_Tree_node@U?$pair@$$CBV?$basic_string@DU?$char_traits@D@std@@V?$allocator@D@2@@std@@V12@@std@@PEAX@2@V?$_Tree_unchecked_const_iterator@V?$_Tree_val@U?$_Tree_simple_types@U?$pair@$$CBV?$basic_string@DU?$char_traits@D@std@@V?$allocator@D@2@@std@@V12@@std@@@std@@@std@@U_Iterator_base0@2@@2@@Z
	?_Erase_unchecked@?$_Tree@V?$_Tset_traits@PEAUObserver@Dictionary@GetSetInternal@@U?$less@PEAUObserver@Dictionary@GetSetInternal@@@std@@V?$allocator@PEAUObserver@Dictionary@GetSetInternal@@@5@$0A@@std@@@std@@AEAAPEAU?$_Tree_node@PEAUObserver@Dictionary@GetSetInternal@@PEAX@2@V?$_Tree_unchecked_const_iterator@V?$_Tree_val@U?$_Tree_simple_types@PEAUObserver@Dictionary@GetSetInternal@@@std@@@std@@U_Iterator_base0@2@@2@0@Z
	?_Erase_unchecked@?$_Tree@V?$_Tset_traits@PEAUObserver@Dictionary@GetSetInternal@@U?$less@PEAUObserver@Dictionary@GetSetInternal@@@std@@V?$allocator@PEAUObserver@Dictionary@GetSetInternal@@@5@$0A@@std@@@std@@AEAAPEAU?$_Tree_node@PEAUObserver@Dictionary@GetSetInternal@@PEAX@2@V?$_Tree_unchecked_const_iterator@V?$_Tree_val@U?$_Tree_simple_types@PEAUObserver@Dictionary@GetSetInternal@@@std@@@std@@U_Iterator_base0@2@@2@@Z
	?_Erase_unchecked@?$_Tree@V?$_Tset_traits@V?$basic_string@DU?$char_traits@D@std@@V?$allocator@D@2@@std@@U?$less@V?$basic_string@DU?$char_traits@D@std@@V?$allocator@D@2@@std@@@2@V?$allocator@V?$basic_string@DU?$char_traits@D@std@@V?$allocator@D@2@@std@@@2@$0A@@std@@@std@@AEAAPEAU?$_Tree_node@V?$basic_string@DU?$char_traits@D@std@@V?$allocator@D@2@@std@@PEAX@2@V?$_Tree_unchecked_const_iterator@V?$_Tree_val@U?$_Tree_simple_types@V?$basic_string@DU?$char_traits@D@std@@V?$allocator@D@2@@std@@@std@@@std@@U_Iterator_base0@2@@2@0@Z
	?_Erase_unchecked@?$_Tree@V?$_Tset_traits@V?$basic_string@DU?$char_traits@D@std@@V?$allocator@D@2@@std@@U?$less@V?$basic_string@DU?$char_traits@D@std@@V?$allocator@D@2@@std@@@2@V?$allocator@V?$basic_string@DU?$char_traits@D@std@@V?$allocator@D@2@@std@@@2@$0A@@std@@@std@@AEAAPEAU?$_Tree_node@V?$basic_string@DU?$char_traits@D@std@@V?$allocator@D@2@@std@@PEAX@2@V?$_Tree_unchecked_const_iterator@V?$_Tree_val@U?$_Tree_simple_types@V?$basic_string@DU?$char_traits@D@std@@V?$allocator@D@2@@std@@@std@@@std@@U_Iterator_base0@2@@2@@Z
	?_Extract@?$_In_place_key_extract_set_impl@PEAUObserver@Dictionary@GetSetInternal@@PEAU123@@std@@SAAEBQEAUObserver@Dictionary@GetSetInternal@@AEBQEAU345@@Z
	?_Extract@?$_In_place_key_extract_set_impl@V?$basic_string@DU?$char_traits@D@std@@V?$allocator@D@2@@std@@V12@@std@@SAAEBV?$basic_string@DU?$char_traits@D@std@@V?$allocator@D@2@@2@AEBV32@@Z
	?_Extract@?$_Tree_val@U?$_Tree_simple_types@PEAUObserver@Dictionary@GetSetInternal@@@std@@@std@@QEAAPEAU?$_Tree_node@PEAUObserver@Dictionary@GetSetInternal@@PEAX@2@V?$_Tree_unchecked_const_iterator@V?$_Tree_val@U?$_Tree_simple_types@PEAUObserver@Dictionary@GetSetInternal@@@std@@@std@@U_Iterator_base0@2@@2@@Z
	?_Extract@?$_Tree_val@U?$_Tree_simple_types@U?$pair@$$CBV?$basic_string@DU?$char_traits@D@std@@V?$allocator@D@2@@std@@P6APEAVObject@GetSetGui@@AEBVSection@4@AEAVProgressInterface@4@@Z@std@@@std@@@std@@QEAAPEAU?$_Tree_node@U?$pair@$$CBV?$basic_string@DU?$char_traits@D@std@@V?$allocator@D@2@@std@@P6APEAVObject@GetSetGui@@AEBVSection@4@AEAVProgressInterface@4@@Z@std@@PEAX@2@V?$_Tree_unchecked_const_iterator@V?$_Tree_val@U?$_Tree_simple_types@U?$pair@$$CBV?$basic_string@DU?$char_traits@D@std@@V?$allocator@D@2@@std@@P6APEAVObject@GetSetGui@@AEBVSection@4@AEAVProgressInterface@4@@Z@std@@@std@@@std@@U_Iterator_base0@2@@2@@Z
	?_Extract@?$_Tree_val@U?$_Tree_simple_types@U?$pair@$$CBV?$basic_string@DU?$char_traits@D@std@@V?$allocator@D@2@@std@@PEAVNode@GetSetInternal@@@std@@@std@@@std@@QEAAPEAU?$_Tree_node@U?$pair@$$CBV?$basic_string@DU?$char_traits@D@std@@V?$allocator@D@2@@std@@PEAVNode@GetSetInternal@@@std@@PEAX@2@V?$_Tree_unchecked_const_iterator@V?$_Tree_val@U?$_Tree_simple_types@U?$pair@$$CBV?$basic_string@DU?$char_traits@D@std@@V?$allocator@D@2@@std@@PEAVNode@GetSetInternal@@@std@@@std@@@std@@U_Iterator_base0@2@@2@@Z
	?_Extract@?$_Tree_val@U?$_Tree_simple_types@U?$pair@$$CBV?$basic_string@DU?$char_traits@D@std@@V?$allocator@D@2@@std@@V12@@std@@@std@@@std@@QEAAPEAU?$_Tree_node@U?$pair@$$CBV?$basic_string@DU?$char_traits@D@std@@V?$allocator@D@2@@std@@V12@@std@@PEAX@2@V?$_Tree_unchecked_const_iterator@V?$_Tree_val@U?$_Tree_simple_types@U?$pair@$$CBV?$basic_string@DU?$char_traits@D@std@@V?$allocator@D@2@@std@@V12@@std@@@std@@@std@@U_Iterator_base0@2@@2@@Z
	?_Extract@?$_Tree_val@U?$_Tree_simple_types@U?$pair@QEAXP6AXAEBV?$basic_string@DU?$char_traits@D@std@@V?$allocator@D@2@@std@@PEAX@Z@std@@@std@@@std@@QEAAPEAU?$_Tree_node@U?$pair@QEAXP6AXAEBV?$basic_string@DU?$char_traits@D@std@@V?$allocator@D@2@@std@@PEAX@Z@std@@PEAX@2@V?$_Tree_unchecked_const_iterator@V?$_Tree_val@U?$_Tree_simple_types@U?$pair@QEAXP6AXAEBV?$basic_string@DU?$char_traits@D@std@@V?$allocator@D@2@@std@@PEAX@Z@std@@@std@@@std@@U_Iterator_base0@2@@2@@Z
	?_Extract@?$_Tree_val@U?$_Tree_simple_types@V?$basic_string@DU?$char_traits@D@std@@V?$allocator@D@2@@std@@@std@@@std@@QEAAPEAU?$_Tree_node@V?$basic_string@DU?$char_traits@D@std@@V?$allocator@D@2@@std@@PEAX@2@V?$_Tree_unchecked_const_iterator@V?$_Tree_val@U?$_Tree_simple_types@V?$basic_string@DU?$char_traits@D@std@@V?$allocator@D@2@@std@@@std@@@std@@U_Iterator_base0@2@@2@@Z
	?_Get_buffer_view@?$basic_stringbuf@DU?$char_traits@D@std@@V?$allocator@D@2@@std@@QEBA?AU_Buffer_view@12@XZ
	?_Get_first@?$_Compressed_pair@U?$default_delete@V_Facet_base@std@@@std@@PEAV_Facet_base@2@$00@std@@QEAAAEAU?$default_delete@V_Facet_base@std@@@2@XZ
	?_Get_first@?$_Compressed_pair@U?$less@E@std@@V?$_Compressed_pair@V?$allocator@U?$_Tree_node@U?$pair@$$CBEE@std@@PEAX@std@@@std@@V?$_Tree_val@U?$_Tree_simple_types@U?$pair@$$CBEE@std@@@std@@@2@$00@2@$00@std@@QEBAAEBU?$less@E@2@XZ
	?_Get_first@?$_Compressed_pair@U?$less@PEAUObserver@Dictionary@GetSetInternal@@@std@@V?$_Compressed_pair@V?$allocator@U?$_Tree_node@PEAUObserver@Dictionary@GetSetInternal@@PEAX@std@@@std@@V?$_Tree_val@U?$_Tree_simple_types@PEAUObserver@Dictionary@GetSetInternal@@@std@@@2@$00@2@$00@std@@QEBAAEBU?$less@PEAUObserver@Dictionary@GetSetInternal@@@2@XZ
	?_Get_first@?$_Compressed_pair@U?$less@PEAX@std@@V?$_Compressed_pair@V?$allocator@U?$_Tree_node@U?$pair@QEAXP6AXAEBV?$basic_string@DU?$char_traits@D@std@@V?$allocator@D@2@@std@@PEAX@Z@std@@PEAX@std@@@std@@V?$_Tree_val@U?$_Tree_simple_types@U?$pair@QEAXP6AXAEBV?$basic_string@DU?$char_traits@D@std@@V?$allocator@D@2@@std@@PEAX@Z@std@@@std@@@2@$00@2@$00@std@@QEBAAEBU?$less@PEAX@2@XZ
	?_Get_first@?$_Compressed_pair@U?$less@V?$basic_string@DU?$char_traits@D@std@@V?$allocator@D@2@@std@@@std@@V?$_Compressed_pair@V?$allocator@U?$_Tree_node@U?$pair@$$CBV?$basic_string@DU?$char_traits@D@std@@V?$allocator@D@2@@std@@P6APEAVObject@GetSetGui@@AEBVSection@4@AEAVProgressInterface@4@@Z@std@@PEAX@std@@@std@@V?$_Tree_val@U?$_Tree_simple_types@U?$pair@$$CBV?$basic_string@DU?$char_traits@D@std@@V?$allocator@D@2@@std@@P6APEAVObject@GetSetGui@@AEBVSection@4@AEAVProgressInterface@4@@Z@std@@@std@@@2@$00@2@$00@std@@QEBAAEBU?$less@V?$basic_string@DU?$char_traits@D@std@@V?$allocator@D@2@@std@@@2@XZ
	?_Get_first@?$_Compressed_pair@U?$less@V?$basic_string@DU?$char_traits@D@std@@V?$allocator@D@2@@std@@@std@@V?$_Compressed_pair@V?$allocator@U?$_Tree_node@U?$pair@$$CBV?$basic_string@DU?$char_traits@D@std@@V?$allocator@D@2@@std@@PEAVNode@GetSetInternal@@@std@@PEAX@std@@@std@@V?$_Tree_val@U?$_Tree_simple_types@U?$pair@$$CBV?$basic_string@DU?$char_traits@D@std@@V?$allocator@D@2@@std@@PEAVNode@GetSetInternal@@@std@@@std@@@2@$00@2@$00@std@@QEBAAEBU?$less@V?$basic_string@DU?$char_traits@D@std@@V?$allocator@D@2@@std@@@2@XZ
	?_Get_first@?$_Compressed_pair@U?$less@V?$basic_string@DU?$char_traits@D@std@@V?$allocator@D@2@@std@@@std@@V?$_Compressed_pair@V?$allocator@U?$_Tree_node@U?$pair@$$CBV?$basic_string@DU?$char_traits@D@std@@V?$allocator@D@2@@std@@V12@@std@@PEAX@std@@@std@@V?$_Tree_val@U?$_Tree_simple_types@U?$pair@$$CBV?$basic_string@DU?$char_traits@D@std@@V?$allocator@D@2@@std@@V12@@std@@@std@@@2@$00@2@$00@std@@QEAAAEAU?$less@V?$basic_string@DU?$char_traits@D@std@@V?$allocator@D@2@@std@@@2@XZ
	?_Get_first@?$_Compressed_pair@U?$less@V?$basic_string@DU?$char_traits@D@std@@V?$allocator@D@2@@std@@@std@@V?$_Compressed_pair@V?$allocator@U?$_Tree_node@U?$pair@$$CBV?$basic_string@DU?$char_traits@D@std@@V?$allocator@D@2@@std@@V12@@std@@PEAX@std@@@std@@V?$_Tree_val@U?$_Tree_simple_types@U?$pair@$$CBV?$basic_string@DU?$char_traits@D@std@@V?$allocator@D@2@@std@@V12@@std@@@std@@@2@$00@2@$00@std@@QEBAAEBU?$less@V?$basic_string@DU?$char_traits@D@std@@V?$allocator@D@2@@std@@@2@XZ
	?_Get_first@?$_Compressed_pair@U?$less@V?$basic_string@DU?$char_traits@D@std@@V?$allocator@D@2@@std@@@std@@V?$_Compressed_pair@V?$allocator@U?$_Tree_node@U?$pair@$$CBV?$basic_string@DU?$char_traits@D@std@@V?$allocator@D@2@@std@@V?$map@V?$basic_string@DU?$char_traits@D@std@@V?$allocator@D@2@@std@@V12@U?$less@V?$basic_string@DU?$char_traits@D@std@@V?$allocator@D@2@@std@@@2@V?$allocator@U?$pair@$$CBV?$basic_string@DU?$char_traits@D@std@@V?$allocator@D@2@@std@@V12@@std@@@2@@2@@std@@PEAX@std@@@std@@V?$_Tree_val@U?$_Tree_simple_types@U?$pair@$$CBV?$basic_string@DU?$char_traits@D@std@@V?$allocator@D@2@@std@@V?$map@V?$basic_string@DU?$char_traits@D@std@@V?$allocator@D@2@@std@@V12@U?$less@V?$basic_string@DU?$char_traits@D@std@@V?$allocator@D@2@@std@@@2@V?$allocator@U?$pair@$$CBV?$basic_string@DU?$char_traits@D@std@@V?$allocator@D@2@@std@@V12@@std@@@2@@2@@std@@@std@@@2@$00@2@$00@std@@QEBAAEBU?$less@V?$basic_string@DU?$char_traits@D@std@@V?$allocator@D@2@@std@@@2@XZ
	?_Get_first@?$_Compressed_pair@U?$less@V?$basic_string@DU?$char_traits@D@std@@V?$allocator@D@2@@std@@@std@@V?$_Compressed_pair@V?$allocator@U?$_Tree_node@V?$basic_string@DU?$char_traits@D@std@@V?$allocator@D@2@@std@@PEAX@std@@@std@@V?$_Tree_val@U?$_Tree_simple_types@V?$basic_string@DU?$char_traits@D@std@@V?$allocator@D@2@@std@@@std@@@2@$00@2@$00@std@@QEBAAEBU?$less@V?$basic_string@DU?$char_traits@D@std@@V?$allocator@D@2@@std@@@2@XZ
	?_Get_first@?$_Compressed_pair@V?$allocator@D@std@@V?$_String_val@U?$_Simple_types@D@std@@@2@$00@std@@QEAAAEAV?$allocator@D@2@XZ
	?_Get_first@?$_Compressed_pair@V?$allocator@D@std@@V?$_String_val@U?$_Simple_types@D@std@@@2@$00@std@@QEBAAEBV?$allocator@D@2@XZ
	?_Get_first@?$_Compressed_pair@V?$allocator@D@std@@V?$_Vector_val@U?$_Simple_types@D@std@@@2@$00@std@@QEAAAEAV?$allocator@D@2@XZ
	?_Get_first@?$_Compressed_pair@V?$allocator@D@std@@V?$_Vector_val@U?$_Simple_types@D@std@@@2@$00@std@@QEBAAEBV?$allocator@D@2@XZ
	?_Get_first@?$_Compressed_pair@V?$allocator@E@std@@V?$_Vector_val@U?$_Simple_types@E@std@@@2@$00@std@@QEAAAEAV?$allocator@E@2@XZ
	?_Get_first@?$_Compressed_pair@V?$allocator@E@std@@V?$_Vector_val@U?$_Simple_types@E@std@@@2@$00@std@@QEBAAEBV?$allocator@E@2@XZ
	?_Get_first@?$_Compressed_pair@V?$allocator@F@std@@V?$_Vector_val@U?$_Simple_types@F@std@@@2@$00@std@@QEAAAEAV?$allocator@F@2@XZ
	?_Get_first@?$_Compressed_pair@V?$allocator@F@std@@V?$_Vector_val@U?$_Simple_types@F@std@@@2@$00@std@@QEBAAEBV?$allocator@F@2@XZ
	?_Get_first@?$_Compressed_pair@V?$allocator@G@std@@V?$_Vector_val@U?$_Simple_types@G@std@@@2@$00@std@@QEAAAEAV?$allocator@G@2@XZ
	?_Get_first@?$_Compressed_pair@V?$allocator@G@std@@V?$_Vector_val@U?$_Simple_types@G@std@@@2@$00@std@@QEBAAEBV?$allocator@G@2@XZ
	?_Get_first@?$_Compressed_pair@V?$allocator@H@std@@V?$_Vector_val@U?$_Simple_types@H@std@@@2@$00@std@@QEAAAEAV?$allocator@H@2@XZ
	?_Get_first@?$_Compressed_pair@V?$allocator@H@std@@V?$_Vector_val@U?$_Simple_types@H@std@@@2@$00@std@@QEBAAEBV?$allocator@H@2@XZ
	?_Get_first@?$_Compressed_pair@V?$allocator@I@std@@V?$_Vector_val@U?$_Simple_types@I@std@@@2@$00@std@@QEAAAEAV?$allocator@I@2@XZ
	?_Get_first@?$_Compressed_pair@V?$allocator@I@std@@V?$_Vector_val@U?$_Simple_types@I@std@@@2@$00@std@@QEBAAEBV?$allocator@I@2@XZ
	?_Get_first@?$_Compressed_pair@V?$allocator@J@std@@V?$_Vector_val@U?$_Simple_types@J@std@@@2@$00@std@@QEAAAEAV?$allocator@J@2@XZ
	?_Get_first@?$_Compressed_pair@V?$allocator@J@std@@V?$_Vector_val@U?$_Simple_types@J@std@@@2@$00@std@@QEBAAEBV?$allocator@J@2@XZ
	?_Get_first@?$_Compressed_pair@V?$allocator@K@std@@V?$_Vector_val@U?$_Simple_types@K@std@@@2@$00@std@@QEAAAEAV?$allocator@K@2@XZ
	?_Get_first@?$_Compressed_pair@V?$allocator@K@std@@V?$_Vector_val@U?$_Simple_types@K@std@@@2@$00@std@@QEBAAEBV?$allocator@K@2@XZ
	?_Get_first@?$_Compressed_pair@V?$allocator@M@std@@V?$_Vector_val@U?$_Simple_types@M@std@@@2@$00@std@@QEAAAEAV?$allocator@M@2@XZ
	?_Get_first@?$_Compressed_pair@V?$allocator@M@std@@V?$_Vector_val@U?$_Simple_types@M@std@@@2@$00@std@@QEBAAEBV?$allocator@M@2@XZ
	?_Get_first@?$_Compressed_pair@V?$allocator@N@std@@V?$_Vector_val@U?$_Simple_types@N@std@@@2@$00@std@@QEAAAEAV?$allocator@N@2@XZ
	?_Get_first@?$_Compressed_pair@V?$allocator@N@std@@V?$_Vector_val@U?$_Simple_types@N@std@@@2@$00@std@@QEBAAEBV?$allocator@N@2@XZ
	?_Get_first@?$_Compressed_pair@V?$allocator@U?$_Tree_node@PEAUObserver@Dictionary@GetSetInternal@@PEAX@std@@@std@@V?$_Tree_val@U?$_Tree_simple_types@PEAUObserver@Dictionary@GetSetInternal@@@std@@@2@$00@std@@QEAAAEAV?$allocator@U?$_Tree_node@PEAUObserver@Dictionary@GetSetInternal@@PEAX@std@@@2@XZ
	?_Get_first@?$_Compressed_pair@V?$allocator@U?$_Tree_node@PEAUObserver@Dictionary@GetSetInternal@@PEAX@std@@@std@@V?$_Tree_val@U?$_Tree_simple_types@PEAUObserver@Dictionary@GetSetInternal@@@std@@@2@$00@std@@QEBAAEBV?$allocator@U?$_Tree_node@PEAUObserver@Dictionary@GetSetInternal@@PEAX@std@@@2@XZ
	?_Get_first@?$_Compressed_pair@V?$allocator@U?$_Tree_node@U?$pair@$$CBEE@std@@PEAX@std@@@std@@V?$_Tree_val@U?$_Tree_simple_types@U?$pair@$$CBEE@std@@@std@@@2@$00@std@@QEAAAEAV?$allocator@U?$_Tree_node@U?$pair@$$CBEE@std@@PEAX@std@@@2@XZ
	?_Get_first@?$_Compressed_pair@V?$allocator@U?$_Tree_node@U?$pair@$$CBEE@std@@PEAX@std@@@std@@V?$_Tree_val@U?$_Tree_simple_types@U?$pair@$$CBEE@std@@@std@@@2@$00@std@@QEBAAEBV?$allocator@U?$_Tree_node@U?$pair@$$CBEE@std@@PEAX@std@@@2@XZ
	?_Get_first@?$_Compressed_pair@V?$allocator@U?$_Tree_node@U?$pair@$$CBV?$basic_string@DU?$char_traits@D@std@@V?$allocator@D@2@@std@@P6APEAVObject@GetSetGui@@AEBVSection@4@AEAVProgressInterface@4@@Z@std@@PEAX@std@@@std@@V?$_Tree_val@U?$_Tree_simple_types@U?$pair@$$CBV?$basic_string@DU?$char_traits@D@std@@V?$allocator@D@2@@std@@P6APEAVObject@GetSetGui@@AEBVSection@4@AEAVProgressInterface@4@@Z@std@@@std@@@2@$00@std@@QEAAAEAV?$allocator@U?$_Tree_node@U?$pair@$$CBV?$basic_string@DU?$char_traits@D@std@@V?$allocator@D@2@@std@@P6APEAVObject@GetSetGui@@AEBVSection@4@AEAVProgressInterface@4@@Z@std@@PEAX@std@@@2@XZ
	?_Get_first@?$_Compressed_pair@V?$allocator@U?$_Tree_node@U?$pair@$$CBV?$basic_string@DU?$char_traits@D@std@@V?$allocator@D@2@@std@@P6APEAVObject@GetSetGui@@AEBVSection@4@AEAVProgressInterface@4@@Z@std@@PEAX@std@@@std@@V?$_Tree_val@U?$_Tree_simple_types@U?$pair@$$CBV?$basic_string@DU?$char_traits@D@std@@V?$allocator@D@2@@std@@P6APEAVObject@GetSetGui@@AEBVSection@4@AEAVProgressInterface@4@@Z@std@@@std@@@2@$00@std@@QEBAAEBV?$allocator@U?$_Tree_node@U?$pair@$$CBV?$basic_string@DU?$char_traits@D@std@@V?$allocator@D@2@@std@@P6APEAVObject@GetSetGui@@AEBVSection@4@AEAVProgressInterface@4@@Z@std@@PEAX@std@@@2@XZ
	?_Get_first@?$_Compressed_pair@V?$allocator@U?$_Tree_node@U?$pair@$$CBV?$basic_string@DU?$char_traits@D@std@@V?$allocator@D@2@@std@@PEAVNode@GetSetInternal@@@std@@PEAX@std@@@std@@V?$_Tree_val@U?$_Tree_simple_types@U?$pair@$$CBV?$basic_string@DU?$char_traits@D@std@@V?$allocator@D@2@@std@@PEAVNode@GetSetInternal@@@std@@@std@@@2@$00@std@@QEAAAEAV?$allocator@U?$_Tree_node@U?$pair@$$CBV?$basic_string@DU?$char_traits@D@std@@V?$allocator@D@2@@std@@PEAVNode@GetSetInternal@@@std@@PEAX@std@@@2@XZ
	?_Get_first@?$_Compressed_pair@V?$allocator@U?$_Tree_node@U?$pair@$$CBV?$basic_string@DU?$char_traits@D@std@@V?$allocator@D@2@@std@@PEAVNode@GetSetInternal@@@std@@PEAX@std@@@std@@V?$_Tree_val@U?$_Tree_simple_types@U?$pair@$$CBV?$basic_string@DU?$char_traits@D@std@@V?$allocator@D@2@@std@@PEAVNode@GetSetInternal@@@std@@@std@@@2@$00@std@@QEBAAEBV?$allocator@U?$_Tree_node@U?$pair@$$CBV?$basic_string@DU?$char_traits@D@std@@V?$allocator@D@2@@std@@PEAVNode@GetSetInternal@@@std@@PEAX@std@@@2@XZ
	?_Get_first@?$_Compressed_pair@V?$allocator@U?$_Tree_node@U?$pair@$$CBV?$basic_string@DU?$char_traits@D@std@@V?$allocator@D@2@@std@@V12@@std@@PEAX@std@@@std@@V?$_Tree_val@U?$_Tree_simple_types@U?$pair@$$CBV?$basic_string@DU?$char_traits@D@std@@V?$allocator@D@2@@std@@V12@@std@@@std@@@2@$00@std@@QEAAAEAV?$allocator@U?$_Tree_node@U?$pair@$$CBV?$basic_string@DU?$char_traits@D@std@@V?$allocator@D@2@@std@@V12@@std@@PEAX@std@@@2@XZ
	?_Get_first@?$_Compressed_pair@V?$allocator@U?$_Tree_node@U?$pair@$$CBV?$basic_string@DU?$char_traits@D@std@@V?$allocator@D@2@@std@@V12@@std@@PEAX@std@@@std@@V?$_Tree_val@U?$_Tree_simple_types@U?$pair@$$CBV?$basic_string@DU?$char_traits@D@std@@V?$allocator@D@2@@std@@V12@@std@@@std@@@2@$00@std@@QEBAAEBV?$allocator@U?$_Tree_node@U?$pair@$$CBV?$basic_string@DU?$char_traits@D@std@@V?$allocator@D@2@@std@@V12@@std@@PEAX@std@@@2@XZ
	?_Get_first@?$_Compressed_pair@V?$allocator@U?$_Tree_node@U?$pair@$$CBV?$basic_string@DU?$char_traits@D@std@@V?$allocator@D@2@@std@@V?$map@V?$basic_string@DU?$char_traits@D@std@@V?$allocator@D@2@@std@@V12@U?$less@V?$basic_string@DU?$char_traits@D@std@@V?$allocator@D@2@@std@@@2@V?$allocator@U?$pair@$$CBV?$basic_string@DU?$char_traits@D@std@@V?$allocator@D@2@@std@@V12@@std@@@2@@2@@std@@PEAX@std@@@std@@V?$_Tree_val@U?$_Tree_simple_types@U?$pair@$$CBV?$basic_string@DU?$char_traits@D@std@@V?$allocator@D@2@@std@@V?$map@V?$basic_string@DU?$char_traits@D@std@@V?$allocator@D@2@@std@@V12@U?$less@V?$basic_string@DU?$char_traits@D@std@@V?$allocator@D@2@@std@@@2@V?$allocator@U?$pair@$$CBV?$basic_string@DU?$char_traits@D@std@@V?$allocator@D@2@@std@@V12@@std@@@2@@2@@std@@@std@@@2@$00@std@@QEAAAEAV?$allocator@U?$_Tree_node@U?$pair@$$CBV?$basic_string@DU?$char_traits@D@std@@V?$allocator@D@2@@std@@V?$map@V?$basic_string@DU?$char_traits@D@std@@V?$allocator@D@2@@std@@V12@U?$less@V?$basic_string@DU?$char_traits@D@std@@V?$allocator@D@2@@std@@@2@V?$allocator@U?$pair@$$CBV?$basic_string@DU?$char_traits@D@std@@V?$allocator@D@2@@std@@V12@@std@@@2@@2@@std@@PEAX@std@@@2@XZ
	?_Get_first@?$_Compressed_pair@V?$allocator@U?$_Tree_node@U?$pair@$$CBV?$basic_string@DU?$char_traits@D@std@@V?$allocator@D@2@@std@@V?$map@V?$basic_string@DU?$char_traits@D@std@@V?$allocator@D@2@@std@@V12@U?$less@V?$basic_string@DU?$char_traits@D@std@@V?$allocator@D@2@@std@@@2@V?$allocator@U?$pair@$$CBV?$basic_string@DU?$char_traits@D@std@@V?$allocator@D@2@@std@@V12@@std@@@2@@2@@std@@PEAX@std@@@std@@V?$_Tree_val@U?$_Tree_simple_types@U?$pair@$$CBV?$basic_string@DU?$char_traits@D@std@@V?$allocator@D@2@@std@@V?$map@V?$basic_string@DU?$char_traits@D@std@@V?$allocator@D@2@@std@@V12@U?$less@V?$basic_string@DU?$char_traits@D@std@@V?$allocator@D@2@@std@@@2@V?$allocator@U?$pair@$$CBV?$basic_string@DU?$char_traits@D@std@@V?$allocator@D@2@@std@@V12@@std@@@2@@2@@std@@@std@@@2@$00@std@@QEBAAEBV?$allocator@U?$_Tree_node@U?$pair@$$CBV?$basic_string@DU?$char_traits@D@std@@V?$allocator@D@2@@std@@V?$map@V?$basic_string@DU?$char_traits@D@std@@V?$allocator@D@2@@std@@V12@U?$less@V?$basic_string@DU?$char_traits@D@std@@V?$allocator@D@2@@std@@@2@V?$allocator@U?$pair@$$CBV?$basic_string@DU?$char_traits@D@std@@V?$allocator@D@2@@std@@V12@@std@@@2@@2@@std@@PEAX@std@@@2@XZ
	?_Get_first@?$_Compressed_pair@V?$allocator@U?$_Tree_node@U?$pair@QEAXP6AXAEBV?$basic_string@DU?$char_traits@D@std@@V?$allocator@D@2@@std@@PEAX@Z@std@@PEAX@std@@@std@@V?$_Tree_val@U?$_Tree_simple_types@U?$pair@QEAXP6AXAEBV?$basic_string@DU?$char_traits@D@std@@V?$allocator@D@2@@std@@PEAX@Z@std@@@std@@@2@$00@std@@QEAAAEAV?$allocator@U?$_Tree_node@U?$pair@QEAXP6AXAEBV?$basic_string@DU?$char_traits@D@std@@V?$allocator@D@2@@std@@PEAX@Z@std@@PEAX@std@@@2@XZ
	?_Get_first@?$_Compressed_pair@V?$allocator@U?$_Tree_node@U?$pair@QEAXP6AXAEBV?$basic_string@DU?$char_traits@D@std@@V?$allocator@D@2@@std@@PEAX@Z@std@@PEAX@std@@@std@@V?$_Tree_val@U?$_Tree_simple_types@U?$pair@QEAXP6AXAEBV?$basic_string@DU?$char_traits@D@std@@V?$allocator@D@2@@std@@PEAX@Z@std@@@std@@@2@$00@std@@QEBAAEBV?$allocator@U?$_Tree_node@U?$pair@QEAXP6AXAEBV?$basic_string@DU?$char_traits@D@std@@V?$allocator@D@2@@std@@PEAX@Z@std@@PEAX@std@@@2@XZ
	?_Get_first@?$_Compressed_pair@V?$allocator@U?$_Tree_node@V?$basic_string@DU?$char_traits@D@std@@V?$allocator@D@2@@std@@PEAX@std@@@std@@V?$_Tree_val@U?$_Tree_simple_types@V?$basic_string@DU?$char_traits@D@std@@V?$allocator@D@2@@std@@@std@@@2@$00@std@@QEAAAEAV?$allocator@U?$_Tree_node@V?$basic_string@DU?$char_traits@D@std@@V?$allocator@D@2@@std@@PEAX@std@@@2@XZ
	?_Get_first@?$_Compressed_pair@V?$allocator@U?$_Tree_node@V?$basic_string@DU?$char_traits@D@std@@V?$allocator@D@2@@std@@PEAX@std@@@std@@V?$_Tree_val@U?$_Tree_simple_types@V?$basic_string@DU?$char_traits@D@std@@V?$allocator@D@2@@std@@@std@@@2@$00@std@@QEBAAEBV?$allocator@U?$_Tree_node@V?$basic_string@DU?$char_traits@D@std@@V?$allocator@D@2@@std@@PEAX@std@@@2@XZ
	?_Get_first@?$_Compressed_pair@V?$allocator@V?$basic_string@DU?$char_traits@D@std@@V?$allocator@D@2@@std@@@std@@V?$_Vector_val@U?$_Simple_types@V?$basic_string@DU?$char_traits@D@std@@V?$allocator@D@2@@std@@@std@@@2@$00@std@@QEAAAEAV?$allocator@V?$basic_string@DU?$char_traits@D@std@@V?$allocator@D@2@@std@@@2@XZ
	?_Get_first@?$_Compressed_pair@V?$allocator@V?$basic_string@DU?$char_traits@D@std@@V?$allocator@D@2@@std@@@std@@V?$_Vector_val@U?$_Simple_types@V?$basic_string@DU?$char_traits@D@std@@V?$allocator@D@2@@std@@@std@@@2@$00@std@@QEBAAEBV?$allocator@V?$basic_string@DU?$char_traits@D@std@@V?$allocator@D@2@@std@@@2@XZ
	?_Get_scary@?$_Tree@V?$_Tmap_traits@EEU?$less@E@std@@V?$allocator@U?$pair@$$CBEE@std@@@2@$0A@@std@@@std@@IEAAPEAV?$_Tree_val@U?$_Tree_simple_types@U?$pair@$$CBEE@std@@@std@@@2@XZ
	?_Get_scary@?$_Tree@V?$_Tmap_traits@EEU?$less@E@std@@V?$allocator@U?$pair@$$CBEE@std@@@2@$0A@@std@@@std@@IEBAPEBV?$_Tree_val@U?$_Tree_simple_types@U?$pair@$$CBEE@std@@@std@@@2@XZ
	?_Get_scary@?$_Tree@V?$_Tmap_traits@PEAXP6AXAEBV?$basic_string@DU?$char_traits@D@std@@V?$allocator@D@2@@std@@PEAX@ZU?$less@PEAX@2@V?$allocator@U?$pair@QEAXP6AXAEBV?$basic_string@DU?$char_traits@D@std@@V?$allocator@D@2@@std@@PEAX@Z@std@@@2@$0A@@std@@@std@@IEAAPEAV?$_Tree_val@U?$_Tree_simple_types@U?$pair@QEAXP6AXAEBV?$basic_string@DU?$char_traits@D@std@@V?$allocator@D@2@@std@@PEAX@Z@std@@@std@@@2@XZ
	?_Get_scary@?$_Tree@V?$_Tmap_traits@PEAXP6AXAEBV?$basic_string@DU?$char_traits@D@std@@V?$allocator@D@2@@std@@PEAX@ZU?$less@PEAX@2@V?$allocator@U?$pair@QEAXP6AXAEBV?$basic_string@DU?$char_traits@D@std@@V?$allocator@D@2@@std@@PEAX@Z@std@@@2@$0A@@std@@@std@@IEBAPEBV?$_Tree_val@U?$_Tree_simple_types@U?$pair@QEAXP6AXAEBV?$basic_string@DU?$char_traits@D@std@@V?$allocator@D@2@@std@@PEAX@Z@std@@@std@@@2@XZ
	?_Get_scary@?$_Tree@V?$_Tmap_traits@V?$basic_string@DU?$char_traits@D@std@@V?$allocator@D@2@@std@@P6APEAVObject@GetSetGui@@AEBVSection@4@AEAVProgressInterface@4@@ZU?$less@V?$basic_string@DU?$char_traits@D@std@@V?$allocator@D@2@@std@@@2@V?$allocator@U?$pair@$$CBV?$basic_string@DU?$char_traits@D@std@@V?$allocator@D@2@@std@@P6APEAVObject@GetSetGui@@AEBVSection@4@AEAVProgressInterface@4@@Z@std@@@2@$0A@@std@@@std@@IEAAPEAV?$_Tree_val@U?$_Tree_simple_types@U?$pair@$$CBV?$basic_string@DU?$char_traits@D@std@@V?$allocator@D@2@@std@@P6APEAVObject@GetSetGui@@AEBVSection@4@AEAVProgressInterface@4@@Z@std@@@std@@@2@XZ
	?_Get_scary@?$_Tree@V?$_Tmap_traits@V?$basic_string@DU?$char_traits@D@std@@V?$allocator@D@2@@std@@P6APEAVObject@GetSetGui@@AEBVSection@4@AEAVProgressInterface@4@@ZU?$less@V?$basic_string@DU?$char_traits@D@std@@V?$allocator@D@2@@std@@@2@V?$allocator@U?$pair@$$CBV?$basic_string@DU?$char_traits@D@std@@V?$allocator@D@2@@std@@P6APEAVObject@GetSetGui@@AEBVSection@4@AEAVProgressInterface@4@@Z@std@@@2@$0A@@std@@@std@@IEBAPEBV?$_Tree_val@U?$_Tree_simple_types@U?$pair@$$CBV?$basic_string@DU?$char_traits@D@std@@V?$allocator@D@2@@std@@P6APEAVObject@GetSetGui@@AEBVSection@4@AEAVProgressInterface@4@@Z@std@@@std@@@2@XZ
	?_Get_scary@?$_Tree@V?$_Tmap_traits@V?$basic_string@DU?$char_traits@D@std@@V?$allocator@D@2@@std@@PEAVNode@GetSetInternal@@U?$less@V?$basic_string@DU?$char_traits@D@std@@V?$allocator@D@2@@std@@@2@V?$allocator@U?$pair@$$CBV?$basic_string@DU?$char_traits@D@std@@V?$allocator@D@2@@std@@PEAVNode@GetSetInternal@@@std@@@2@$0A@@std@@@std@@IEAAPEAV?$_Tree_val@U?$_Tree_simple_types@U?$pair@$$CBV?$basic_string@DU?$char_traits@D@std@@V?$allocator@D@2@@std@@PEAVNode@GetSetInternal@@@std@@@std@@@2@XZ
	?_Get_scary@?$_Tree@V?$_Tmap_traits@V?$basic_string@DU?$char_traits@D@std@@V?$allocator@D@2@@std@@PEAVNode@GetSetInternal@@U?$less@V?$basic_string@DU?$char_traits@D@std@@V?$allocator@D@2@@std@@@2@V?$allocator@U?$pair@$$CBV?$basic_string@DU?$char_traits@D@std@@V?$allocator@D@2@@std@@PEAVNode@GetSetInternal@@@std@@@2@$0A@@std@@@std@@IEBAPEBV?$_Tree_val@U?$_Tree_simple_types@U?$pair@$$CBV?$basic_string@DU?$char_traits@D@std@@V?$allocator@D@2@@std@@PEAVNode@GetSetInternal@@@std@@@std@@@2@XZ
	?_Get_scary@?$_Tree@V?$_Tmap_traits@V?$basic_string@DU?$char_traits@D@std@@V?$allocator@D@2@@std@@V12@U?$less@V?$basic_string@DU?$char_traits@D@std@@V?$allocator@D@2@@std@@@2@V?$allocator@U?$pair@$$CBV?$basic_string@DU?$char_traits@D@std@@V?$allocator@D@2@@std@@V12@@std@@@2@$0A@@std@@@std@@IEAAPEAV?$_Tree_val@U?$_Tree_simple_types@U?$pair@$$CBV?$basic_string@DU?$char_traits@D@std@@V?$allocator@D@2@@std@@V12@@std@@@std@@@2@XZ
	?_Get_scary@?$_Tree@V?$_Tmap_traits@V?$basic_string@DU?$char_traits@D@std@@V?$allocator@D@2@@std@@V12@U?$less@V?$basic_string@DU?$char_traits@D@std@@V?$allocator@D@2@@std@@@2@V?$allocator@U?$pair@$$CBV?$basic_string@DU?$char_traits@D@std@@V?$allocator@D@2@@std@@V12@@std@@@2@$0A@@std@@@std@@IEBAPEBV?$_Tree_val@U?$_Tree_simple_types@U?$pair@$$CBV?$basic_string@DU?$char_traits@D@std@@V?$allocator@D@2@@std@@V12@@std@@@std@@@2@XZ
	?_Get_scary@?$_Tree@V?$_Tmap_traits@V?$basic_string@DU?$char_traits@D@std@@V?$allocator@D@2@@std@@V?$map@V?$basic_string@DU?$char_traits@D@std@@V?$allocator@D@2@@std@@V12@U?$less@V?$basic_string@DU?$char_traits@D@std@@V?$allocator@D@2@@std@@@2@V?$allocator@U?$pair@$$CBV?$basic_string@DU?$char_traits@D@std@@V?$allocator@D@2@@std@@V12@@std@@@2@@2@U?$less@V?$basic_string@DU?$char_traits@D@std@@V?$allocator@D@2@@std@@@2@V?$allocator@U?$pair@$$CBV?$basic_string@DU?$char_traits@D@std@@V?$allocator@D@2@@std@@V?$map@V?$basic_string@DU?$char_traits@D@std@@V?$allocator@D@2@@std@@V12@U?$less@V?$basic_string@DU?$char_traits@D@std@@V?$allocator@D@2@@std@@@2@V?$allocator@U?$pair@$$CBV?$basic_string@DU?$char_traits@D@std@@V?$allocator@D@2@@std@@V12@@std@@@2@@2@@std@@@2@$0A@@std@@@std@@IEAAPEAV?$_Tree_val@U?$_Tree_simple_types@U?$pair@$$CBV?$basic_string@DU?$char_traits@D@std@@V?$allocator@D@2@@std@@V?$map@V?$basic_string@DU?$char_traits@D@std@@V?$allocator@D@2@@std@@V12@U?$less@V?$basic_string@DU?$char_traits@D@std@@V?$allocator@D@2@@std@@@2@V?$allocator@U?$pair@$$CBV?$basic_string@DU?$char_traits@D@std@@V?$allocator@D@2@@std@@V12@@std@@@2@@2@@std@@@std@@@2@XZ
	?_Get_scary@?$_Tree@V?$_Tmap_traits@V?$basic_string@DU?$char_traits@D@std@@V?$allocator@D@2@@std@@V?$map@V?$basic_string@DU?$char_traits@D@std@@V?$allocator@D@2@@std@@V12@U?$less@V?$basic_string@DU?$char_traits@D@std@@V?$allocator@D@2@@std@@@2@V?$allocator@U?$pair@$$CBV?$basic_string@DU?$char_traits@D@std@@V?$allocator@D@2@@std@@V12@@std@@@2@@2@U?$less@V?$basic_string@DU?$char_traits@D@std@@V?$allocator@D@2@@std@@@2@V?$allocator@U?$pair@$$CBV?$basic_string@DU?$char_traits@D@std@@V?$allocator@D@2@@std@@V?$map@V?$basic_string@DU?$char_traits@D@std@@V?$allocator@D@2@@std@@V12@U?$less@V?$basic_string@DU?$char_traits@D@std@@V?$allocator@D@2@@std@@@2@V?$allocator@U?$pair@$$CBV?$basic_string@DU?$char_traits@D@std@@V?$allocator@D@2@@std@@V12@@std@@@2@@2@@std@@@2@$0A@@std@@@std@@IEBAPEBV?$_Tree_val@U?$_Tree_simple_types@U?$pair@$$CBV?$basic_string@DU?$char_traits@D@std@@V?$allocator@D@2@@std@@V?$map@V?$basic_string@DU?$char_traits@D@std@@V?$allocator@D@2@@std@@V12@U?$less@V?$basic_string@DU?$char_traits@D@std@@V?$allocator@D@2@@std@@@2@V?$allocator@U?$pair@$$CBV?$basic_string@DU?$char_traits@D@std@@V?$allocator@D@2@@std@@V12@@std@@@2@@2@@std@@@std@@@2@XZ
	?_Get_scary@?$_Tree@V?$_Tset_traits@PEAUObserver@Dictionary@GetSetInternal@@U?$less@PEAUObserver@Dictionary@GetSetInternal@@@std@@V?$allocator@PEAUObserver@Dictionary@GetSetInternal@@@5@$0A@@std@@@std@@IEAAPEAV?$_Tree_val@U?$_Tree_simple_types@PEAUObserver@Dictionary@GetSetInternal@@@std@@@2@XZ
	?_Get_scary@?$_Tree@V?$_Tset_traits@PEAUObserver@Dictionary@GetSetInternal@@U?$less@PEAUObserver@Dictionary@GetSetInternal@@@std@@V?$allocator@PEAUObserver@Dictionary@GetSetInternal@@@5@$0A@@std@@@std@@IEBAPEBV?$_Tree_val@U?$_Tree_simple_types@PEAUObserver@Dictionary@GetSetInternal@@@std@@@2@XZ
	?_Get_scary@?$_Tree@V?$_Tset_traits@V?$basic_string@DU?$char_traits@D@std@@V?$allocator@D@2@@std@@U?$less@V?$basic_string@DU?$char_traits@D@std@@V?$allocator@D@2@@std@@@2@V?$allocator@V?$basic_string@DU?$char_traits@D@std@@V?$allocator@D@2@@std@@@2@$0A@@std@@@std@@IEAAPEAV?$_Tree_val@U?$_Tree_simple_types@V?$basic_string@DU?$char_traits@D@std@@V?$allocator@D@2@@std@@@std@@@2@XZ
	?_Get_scary@?$_Tree@V?$_Tset_traits@V?$basic_string@DU?$char_traits@D@std@@V?$allocator@D@2@@std@@U?$less@V?$basic_string@DU?$char_traits@D@std@@V?$allocator@D@2@@std@@@2@V?$allocator@V?$basic_string@DU?$char_traits@D@std@@V?$allocator@D@2@@std@@@2@$0A@@std@@@std@@IEBAPEBV?$_Tree_val@U?$_Tree_simple_types@V?$basic_string@DU?$char_traits@D@std@@V?$allocator@D@2@@std@@@std@@@2@XZ
	?_Getal@?$_Tree@V?$_Tmap_traits@EEU?$less@E@std@@V?$allocator@U?$pair@$$CBEE@std@@@2@$0A@@std@@@std@@IEAAAEAV?$allocator@U?$_Tree_node@U?$pair@$$CBEE@std@@PEAX@std@@@2@XZ
	?_Getal@?$_Tree@V?$_Tmap_traits@EEU?$less@E@std@@V?$allocator@U?$pair@$$CBEE@std@@@2@$0A@@std@@@std@@IEBAAEBV?$allocator@U?$_Tree_node@U?$pair@$$CBEE@std@@PEAX@std@@@2@XZ
	?_Getal@?$_Tree@V?$_Tmap_traits@PEAXP6AXAEBV?$basic_string@DU?$char_traits@D@std@@V?$allocator@D@2@@std@@PEAX@ZU?$less@PEAX@2@V?$allocator@U?$pair@QEAXP6AXAEBV?$basic_string@DU?$char_traits@D@std@@V?$allocator@D@2@@std@@PEAX@Z@std@@@2@$0A@@std@@@std@@IEAAAEAV?$allocator@U?$_Tree_node@U?$pair@QEAXP6AXAEBV?$basic_string@DU?$char_traits@D@std@@V?$allocator@D@2@@std@@PEAX@Z@std@@PEAX@std@@@2@XZ
	?_Getal@?$_Tree@V?$_Tmap_traits@PEAXP6AXAEBV?$basic_string@DU?$char_traits@D@std@@V?$allocator@D@2@@std@@PEAX@ZU?$less@PEAX@2@V?$allocator@U?$pair@QEAXP6AXAEBV?$basic_string@DU?$char_traits@D@std@@V?$allocator@D@2@@std@@PEAX@Z@std@@@2@$0A@@std@@@std@@IEBAAEBV?$allocator@U?$_Tree_node@U?$pair@QEAXP6AXAEBV?$basic_string@DU?$char_traits@D@std@@V?$allocator@D@2@@std@@PEAX@Z@std@@PEAX@std@@@2@XZ
	?_Getal@?$_Tree@V?$_Tmap_traits@V?$basic_string@DU?$char_traits@D@std@@V?$allocator@D@2@@std@@P6APEAVObject@GetSetGui@@AEBVSection@4@AEAVProgressInterface@4@@ZU?$less@V?$basic_string@DU?$char_traits@D@std@@V?$allocator@D@2@@std@@@2@V?$allocator@U?$pair@$$CBV?$basic_string@DU?$char_traits@D@std@@V?$allocator@D@2@@std@@P6APEAVObject@GetSetGui@@AEBVSection@4@AEAVProgressInterface@4@@Z@std@@@2@$0A@@std@@@std@@IEAAAEAV?$allocator@U?$_Tree_node@U?$pair@$$CBV?$basic_string@DU?$char_traits@D@std@@V?$allocator@D@2@@std@@P6APEAVObject@GetSetGui@@AEBVSection@4@AEAVProgressInterface@4@@Z@std@@PEAX@std@@@2@XZ
	?_Getal@?$_Tree@V?$_Tmap_traits@V?$basic_string@DU?$char_traits@D@std@@V?$allocator@D@2@@std@@P6APEAVObject@GetSetGui@@AEBVSection@4@AEAVProgressInterface@4@@ZU?$less@V?$basic_string@DU?$char_traits@D@std@@V?$allocator@D@2@@std@@@2@V?$allocator@U?$pair@$$CBV?$basic_string@DU?$char_traits@D@std@@V?$allocator@D@2@@std@@P6APEAVObject@GetSetGui@@AEBVSection@4@AEAVProgressInterface@4@@Z@std@@@2@$0A@@std@@@std@@IEBAAEBV?$allocator@U?$_Tree_node@U?$pair@$$CBV?$basic_string@DU?$char_traits@D@std@@V?$allocator@D@2@@std@@P6APEAVObject@GetSetGui@@AEBVSection@4@AEAVProgressInterface@4@@Z@std@@PEAX@std@@@2@XZ
	?_Getal@?$_Tree@V?$_Tmap_traits@V?$basic_string@DU?$char_traits@D@std@@V?$allocator@D@2@@std@@PEAVNode@GetSetInternal@@U?$less@V?$basic_string@DU?$char_traits@D@std@@V?$allocator@D@2@@std@@@2@V?$allocator@U?$pair@$$CBV?$basic_string@DU?$char_traits@D@std@@V?$allocator@D@2@@std@@PEAVNode@GetSetInternal@@@std@@@2@$0A@@std@@@std@@IEAAAEAV?$allocator@U?$_Tree_node@U?$pair@$$CBV?$basic_string@DU?$char_traits@D@std@@V?$allocator@D@2@@std@@PEAVNode@GetSetInternal@@@std@@PEAX@std@@@2@XZ
	?_Getal@?$_Tree@V?$_Tmap_traits@V?$basic_string@DU?$char_traits@D@std@@V?$allocator@D@2@@std@@PEAVNode@GetSetInternal@@U?$less@V?$basic_string@DU?$char_traits@D@std@@V?$allocator@D@2@@std@@@2@V?$allocator@U?$pair@$$CBV?$basic_string@DU?$char_traits@D@std@@V?$allocator@D@2@@std@@PEAVNode@GetSetInternal@@@std@@@2@$0A@@std@@@std@@IEBAAEBV?$allocator@U?$_Tree_node@U?$pair@$$CBV?$basic_string@DU?$char_traits@D@std@@V?$allocator@D@2@@std@@PEAVNode@GetSetInternal@@@std@@PEAX@std@@@2@XZ
	?_Getal@?$_Tree@V?$_Tmap_traits@V?$basic_string@DU?$char_traits@D@std@@V?$allocator@D@2@@std@@V12@U?$less@V?$basic_string@DU?$char_traits@D@std@@V?$allocator@D@2@@std@@@2@V?$allocator@U?$pair@$$CBV?$basic_string@DU?$char_traits@D@std@@V?$allocator@D@2@@std@@V12@@std@@@2@$0A@@std@@@std@@IEAAAEAV?$allocator@U?$_Tree_node@U?$pair@$$CBV?$basic_string@DU?$char_traits@D@std@@V?$allocator@D@2@@std@@V12@@std@@PEAX@std@@@2@XZ
	?_Getal@?$_Tree@V?$_Tmap_traits@V?$basic_string@DU?$char_traits@D@std@@V?$allocator@D@2@@std@@V12@U?$less@V?$basic_string@DU?$char_traits@D@std@@V?$allocator@D@2@@std@@@2@V?$allocator@U?$pair@$$CBV?$basic_string@DU?$char_traits@D@std@@V?$allocator@D@2@@std@@V12@@std@@@2@$0A@@std@@@std@@IEBAAEBV?$allocator@U?$_Tree_node@U?$pair@$$CBV?$basic_string@DU?$char_traits@D@std@@V?$allocator@D@2@@std@@V12@@std@@PEAX@std@@@2@XZ
	?_Getal@?$_Tree@V?$_Tmap_traits@V?$basic_string@DU?$char_traits@D@std@@V?$allocator@D@2@@std@@V?$map@V?$basic_string@DU?$char_traits@D@std@@V?$allocator@D@2@@std@@V12@U?$less@V?$basic_string@DU?$char_traits@D@std@@V?$allocator@D@2@@std@@@2@V?$allocator@U?$pair@$$CBV?$basic_string@DU?$char_traits@D@std@@V?$allocator@D@2@@std@@V12@@std@@@2@@2@U?$less@V?$basic_string@DU?$char_traits@D@std@@V?$allocator@D@2@@std@@@2@V?$allocator@U?$pair@$$CBV?$basic_string@DU?$char_traits@D@std@@V?$allocator@D@2@@std@@V?$map@V?$basic_string@DU?$char_traits@D@std@@V?$allocator@D@2@@std@@V12@U?$less@V?$basic_string@DU?$char_traits@D@std@@V?$allocator@D@2@@std@@@2@V?$allocator@U?$pair@$$CBV?$basic_string@DU?$char_traits@D@std@@V?$allocator@D@2@@std@@V12@@std@@@2@@2@@std@@@2@$0A@@std@@@std@@IEAAAEAV?$allocator@U?$_Tree_node@U?$pair@$$CBV?$basic_string@DU?$char_traits@D@std@@V?$allocator@D@2@@std@@V?$map@V?$basic_string@DU?$char_traits@D@std@@V?$allocator@D@2@@std@@V12@U?$less@V?$basic_string@DU?$char_traits@D@std@@V?$allocator@D@2@@std@@@2@V?$allocator@U?$pair@$$CBV?$basic_string@DU?$char_traits@D@std@@V?$allocator@D@2@@std@@V12@@std@@@2@@2@@std@@PEAX@std@@@2@XZ
	?_Getal@?$_Tree@V?$_Tmap_traits@V?$basic_string@DU?$char_traits@D@std@@V?$allocator@D@2@@std@@V?$map@V?$basic_string@DU?$char_traits@D@std@@V?$allocator@D@2@@std@@V12@U?$less@V?$basic_string@DU?$char_traits@D@std@@V?$allocator@D@2@@std@@@2@V?$allocator@U?$pair@$$CBV?$basic_string@DU?$char_traits@D@std@@V?$allocator@D@2@@std@@V12@@std@@@2@@2@U?$less@V?$basic_string@DU?$char_traits@D@std@@V?$allocator@D@2@@std@@@2@V?$allocator@U?$pair@$$CBV?$basic_string@DU?$char_traits@D@std@@V?$allocator@D@2@@std@@V?$map@V?$basic_string@DU?$char_traits@D@std@@V?$allocator@D@2@@std@@V12@U?$less@V?$basic_string@DU?$char_traits@D@std@@V?$allocator@D@2@@std@@@2@V?$allocator@U?$pair@$$CBV?$basic_string@DU?$char_traits@D@std@@V?$allocator@D@2@@std@@V12@@std@@@2@@2@@std@@@2@$0A@@std@@@std@@IEBAAEBV?$allocator@U?$_Tree_node@U?$pair@$$CBV?$basic_string@DU?$char_traits@D@std@@V?$allocator@D@2@@std@@V?$map@V?$basic_string@DU?$char_traits@D@std@@V?$allocator@D@2@@std@@V12@U?$less@V?$basic_string@DU?$char_traits@D@std@@V?$allocator@D@2@@std@@@2@V?$allocator@U?$pair@$$CBV?$basic_string@DU?$char_traits@D@std@@V?$allocator@D@2@@std@@V12@@std@@@2@@2@@std@@PEAX@std@@@2@XZ
	?_Getal@?$_Tree@V?$_Tset_traits@PEAUObserver@Dictionary@GetSetInternal@@U?$less@PEAUObserver@Dictionary@GetSetInternal@@@std@@V?$allocator@PEAUObserver@Dictionary@GetSetInternal@@@5@$0A@@std@@@std@@IEAAAEAV?$allocator@U?$_Tree_node@PEAUObserver@Dictionary@GetSetInternal@@PEAX@std@@@2@XZ
	?_Getal@?$_Tree@V?$_Tset_traits@PEAUObserver@Dictionary@GetSetInternal@@U?$less@PEAUObserver@Dictionary@GetSetInternal@@@std@@V?$allocator@PEAUObserver@Dictionary@GetSetInternal@@@5@$0A@@std@@@std@@IEBAAEBV?$allocator@U?$_Tree_node@PEAUObserver@Dictionary@GetSetInternal@@PEAX@std@@@2@XZ
	?_Getal@?$_Tree@V?$_Tset_traits@V?$basic_string@DU?$char_traits@D@std@@V?$allocator@D@2@@std@@U?$less@V?$basic_string@DU?$char_traits@D@std@@V?$allocator@D@2@@std@@@2@V?$allocator@V?$basic_string@DU?$char_traits@D@std@@V?$allocator@D@2@@std@@@2@$0A@@std@@@std@@IEAAAEAV?$allocator@U?$_Tree_node@V?$basic_string@DU?$char_traits@D@std@@V?$allocator@D@2@@std@@PEAX@std@@@2@XZ
	?_Getal@?$_Tree@V?$_Tset_traits@V?$basic_string@DU?$char_traits@D@std@@V?$allocator@D@2@@std@@U?$less@V?$basic_string@DU?$char_traits@D@std@@V?$allocator@D@2@@std@@@2@V?$allocator@V?$basic_string@DU?$char_traits@D@std@@V?$allocator@D@2@@std@@@2@$0A@@std@@@std@@IEBAAEBV?$allocator@U?$_Tree_node@V?$basic_string@DU?$char_traits@D@std@@V?$allocator@D@2@@std@@PEAX@std@@@2@XZ
	?_Getal@?$_Vb_val@V?$allocator@_N@std@@@std@@QEAAAEAV?$allocator@I@2@XZ
	?_Getal@?$basic_string@DU?$char_traits@D@std@@V?$allocator@D@2@@std@@AEAAAEAV?$allocator@D@2@XZ
	?_Getal@?$basic_string@DU?$char_traits@D@std@@V?$allocator@D@2@@std@@AEBAAEBV?$allocator@D@2@XZ
	?_Getal@?$vector@DV?$allocator@D@std@@@std@@AEAAAEAV?$allocator@D@2@XZ
	?_Getal@?$vector@DV?$allocator@D@std@@@std@@AEBAAEBV?$allocator@D@2@XZ
	?_Getal@?$vector@EV?$allocator@E@std@@@std@@AEAAAEAV?$allocator@E@2@XZ
	?_Getal@?$vector@EV?$allocator@E@std@@@std@@AEBAAEBV?$allocator@E@2@XZ
	?_Getal@?$vector@FV?$allocator@F@std@@@std@@AEAAAEAV?$allocator@F@2@XZ
	?_Getal@?$vector@FV?$allocator@F@std@@@std@@AEBAAEBV?$allocator@F@2@XZ
	?_Getal@?$vector@GV?$allocator@G@std@@@std@@AEAAAEAV?$allocator@G@2@XZ
	?_Getal@?$vector@GV?$allocator@G@std@@@std@@AEBAAEBV?$allocator@G@2@XZ
	?_Getal@?$vector@HV?$allocator@H@std@@@std@@AEAAAEAV?$allocator@H@2@XZ
	?_Getal@?$vector@HV?$allocator@H@std@@@std@@AEBAAEBV?$allocator@H@2@XZ
	?_Getal@?$vector@IV?$allocator@I@std@@@std@@AEAAAEAV?$allocator@I@2@XZ
	?_Getal@?$vector@IV?$allocator@I@std@@@std@@AEBAAEBV?$allocator@I@2@XZ
	?_Getal@?$vector@JV?$allocator@J@std@@@std@@AEAAAEAV?$allocator@J@2@XZ
	?_Getal@?$vector@JV?$allocator@J@std@@@std@@AEBAAEBV?$allocator@J@2@XZ
	?_Getal@?$vector@KV?$allocator@K@std@@@std@@AEAAAEAV?$allocator@K@2@XZ
	?_Getal@?$vector@KV?$allocator@K@std@@@std@@AEBAAEBV?$allocator@K@2@XZ
	?_Getal@?$vector@MV?$allocator@M@std@@@std@@AEAAAEAV?$allocator@M@2@XZ
	?_Getal@?$vector@MV?$allocator@M@std@@@std@@AEBAAEBV?$allocator@M@2@XZ
	?_Getal@?$vector@NV?$allocator@N@std@@@std@@AEAAAEAV?$allocator@N@2@XZ
	?_Getal@?$vector@NV?$allocator@N@std@@@std@@AEBAAEBV?$allocator@N@2@XZ
	?_Getal@?$vector@V?$basic_string@DU?$char_traits@D@std@@V?$allocator@D@2@@std@@V?$allocator@V?$basic_string@DU?$char_traits@D@std@@V?$allocator@D@2@@std@@@2@@std@@AEAAAEAV?$allocator@V?$basic_string@DU?$char_traits@D@std@@V?$allocator@D@2@@std@@@2@XZ
	?_Getal@?$vector@V?$basic_string@DU?$char_traits@D@std@@V?$allocator@D@2@@std@@V?$allocator@V?$basic_string@DU?$char_traits@D@std@@V?$allocator@D@2@@std@@@2@@std@@AEBAAEBV?$allocator@V?$basic_string@DU?$char_traits@D@std@@V?$allocator@D@2@@std@@@2@XZ
	?_Getcomp@?$_Tree@V?$_Tmap_traits@EEU?$less@E@std@@V?$allocator@U?$pair@$$CBEE@std@@@2@$0A@@std@@@std@@IEBAAEBU?$less@E@2@XZ
	?_Getcomp@?$_Tree@V?$_Tmap_traits@PEAXP6AXAEBV?$basic_string@DU?$char_traits@D@std@@V?$allocator@D@2@@std@@PEAX@ZU?$less@PEAX@2@V?$allocator@U?$pair@QEAXP6AXAEBV?$basic_string@DU?$char_traits@D@std@@V?$allocator@D@2@@std@@PEAX@Z@std@@@2@$0A@@std@@@std@@IEBAAEBU?$less@PEAX@2@XZ
	?_Getcomp@?$_Tree@V?$_Tmap_traits@V?$basic_string@DU?$char_traits@D@std@@V?$allocator@D@2@@std@@P6APEAVObject@GetSetGui@@AEBVSection@4@AEAVProgressInterface@4@@ZU?$less@V?$basic_string@DU?$char_traits@D@std@@V?$allocator@D@2@@std@@@2@V?$allocator@U?$pair@$$CBV?$basic_string@DU?$char_traits@D@std@@V?$allocator@D@2@@std@@P6APEAVObject@GetSetGui@@AEBVSection@4@AEAVProgressInterface@4@@Z@std@@@2@$0A@@std@@@std@@IEBAAEBU?$less@V?$basic_string@DU?$char_traits@D@std@@V?$allocator@D@2@@std@@@2@XZ
	?_Getcomp@?$_Tree@V?$_Tmap_traits@V?$basic_string@DU?$char_traits@D@std@@V?$allocator@D@2@@std@@PEAVNode@GetSetInternal@@U?$less@V?$basic_string@DU?$char_traits@D@std@@V?$allocator@D@2@@std@@@2@V?$allocator@U?$pair@$$CBV?$basic_string@DU?$char_traits@D@std@@V?$allocator@D@2@@std@@PEAVNode@GetSetInternal@@@std@@@2@$0A@@std@@@std@@IEBAAEBU?$less@V?$basic_string@DU?$char_traits@D@std@@V?$allocator@D@2@@std@@@2@XZ
	?_Getcomp@?$_Tree@V?$_Tmap_traits@V?$basic_string@DU?$char_traits@D@std@@V?$allocator@D@2@@std@@V12@U?$less@V?$basic_string@DU?$char_traits@D@std@@V?$allocator@D@2@@std@@@2@V?$allocator@U?$pair@$$CBV?$basic_string@DU?$char_traits@D@std@@V?$allocator@D@2@@std@@V12@@std@@@2@$0A@@std@@@std@@IEAAAEAU?$less@V?$basic_string@DU?$char_traits@D@std@@V?$allocator@D@2@@std@@@2@XZ
	?_Getcomp@?$_Tree@V?$_Tmap_traits@V?$basic_string@DU?$char_traits@D@std@@V?$allocator@D@2@@std@@V12@U?$less@V?$basic_string@DU?$char_traits@D@std@@V?$allocator@D@2@@std@@@2@V?$allocator@U?$pair@$$CBV?$basic_string@DU?$char_traits@D@std@@V?$allocator@D@2@@std@@V12@@std@@@2@$0A@@std@@@std@@IEBAAEBU?$less@V?$basic_string@DU?$char_traits@D@std@@V?$allocator@D@2@@std@@@2@XZ
	?_Getcomp@?$_Tree@V?$_Tmap_traits@V?$basic_string@DU?$char_traits@D@std@@V?$allocator@D@2@@std@@V?$map@V?$basic_string@DU?$char_traits@D@std@@V?$allocator@D@2@@std@@V12@U?$less@V?$basic_string@DU?$char_traits@D@std@@V?$allocator@D@2@@std@@@2@V?$allocator@U?$pair@$$CBV?$basic_string@DU?$char_traits@D@std@@V?$allocator@D@2@@std@@V12@@std@@@2@@2@U?$less@V?$basic_string@DU?$char_traits@D@std@@V?$allocator@D@2@@std@@@2@V?$allocator@U?$pair@$$CBV?$basic_string@DU?$char_traits@D@std@@V?$allocator@D@2@@std@@V?$map@V?$basic_string@DU?$char_traits@D@std@@V?$allocator@D@2@@std@@V12@U?$less@V?$basic_string@DU?$char_traits@D@std@@V?$allocator@D@2@@std@@@2@V?$allocator@U?$pair@$$CBV?$basic_string@DU?$char_traits@D@std@@V?$allocator@D@2@@std@@V12@@std@@@2@@2@@std@@@2@$0A@@std@@@std@@IEBAAEBU?$less@V?$basic_string@DU?$char_traits@D@std@@V?$allocator@D@2@@std@@@2@XZ
	?_Getcomp@?$_Tree@V?$_Tset_traits@PEAUObserver@Dictionary@GetSetInternal@@U?$less@PEAUObserver@Dictionary@GetSetInternal@@@std@@V?$allocator@PEAUObserver@Dictionary@GetSetInternal@@@5@$0A@@std@@@std@@IEBAAEBU?$less@PEAUObserver@Dictionary@GetSetInternal@@@2@XZ
	?_Getcomp@?$_Tree@V?$_Tset_traits@V?$basic_string@DU?$char_traits@D@std@@V?$allocator@D@2@@std@@U?$less@V?$basic_string@DU?$char_traits@D@std@@V?$allocator@D@2@@std@@@2@V?$allocator@V?$basic_string@DU?$char_traits@D@std@@V?$allocator@D@2@@std@@@2@$0A@@std@@@std@@IEBAAEBU?$less@V?$basic_string@DU?$char_traits@D@std@@V?$allocator@D@2@@std@@@2@XZ
	?_Getcont@_Iterator_base0@std@@QEBAPEBU_Container_base0@2@XZ
	?_Getfacet@locale@std@@QEBAPEBVfacet@12@_K@Z
	?_Getimpl@?$_Func_class@XAEBVNode@GetSetInternal@@@std@@AEBAPEAV?$_Func_base@XAEBVNode@GetSetInternal@@@2@XZ
	?_Getptr@?$_Vb_reference@U?$_Wrap_alloc@V?$allocator@I@std@@@std@@@std@@QEBAPEBIXZ
	?_Getstate@?$basic_stringbuf@DU?$char_traits@D@std@@V?$allocator@D@2@@std@@CAHH@Z
	?_Inc@?$_Vb_const_iterator@U?$_Wrap_alloc@V?$allocator@I@std@@@std@@@std@@QEAAXXZ
	?_Init@?$basic_filebuf@DU?$char_traits@D@std@@@std@@IEAAXPEAU_iobuf@@W4_Initfl@12@@Z
	?_Init@?$basic_stringbuf@DU?$char_traits@D@std@@V?$allocator@D@2@@std@@IEAAXPEBD_KH@Z
	?_Initcvt@?$basic_filebuf@DU?$char_traits@D@std@@@std@@IEAAXAEBV?$codecvt@DDU_Mbstatet@@@2@@Z
	?_Insert_n@?$vector@_NV?$allocator@_N@std@@@std@@QEAA?AV?$_Vb_iterator@U?$_Wrap_alloc@V?$allocator@I@std@@@std@@@2@V?$_Vb_const_iterator@U?$_Wrap_alloc@V?$allocator@I@std@@@std@@@2@_KAEB_N@Z
	?_Insert_node@?$_Tree_val@U?$_Tree_simple_types@PEAUObserver@Dictionary@GetSetInternal@@@std@@@std@@QEAAPEAU?$_Tree_node@PEAUObserver@Dictionary@GetSetInternal@@PEAX@2@U?$_Tree_id@PEAU?$_Tree_node@PEAUObserver@Dictionary@GetSetInternal@@PEAX@std@@@2@QEAU32@@Z
	?_Insert_node@?$_Tree_val@U?$_Tree_simple_types@U?$pair@$$CBEE@std@@@std@@@std@@QEAAPEAU?$_Tree_node@U?$pair@$$CBEE@std@@PEAX@2@U?$_Tree_id@PEAU?$_Tree_node@U?$pair@$$CBEE@std@@PEAX@std@@@2@QEAU32@@Z
	?_Insert_node@?$_Tree_val@U?$_Tree_simple_types@U?$pair@$$CBV?$basic_string@DU?$char_traits@D@std@@V?$allocator@D@2@@std@@P6APEAVObject@GetSetGui@@AEBVSection@4@AEAVProgressInterface@4@@Z@std@@@std@@@std@@QEAAPEAU?$_Tree_node@U?$pair@$$CBV?$basic_string@DU?$char_traits@D@std@@V?$allocator@D@2@@std@@P6APEAVObject@GetSetGui@@AEBVSection@4@AEAVProgressInterface@4@@Z@std@@PEAX@2@U?$_Tree_id@PEAU?$_Tree_node@U?$pair@$$CBV?$basic_string@DU?$char_traits@D@std@@V?$allocator@D@2@@std@@P6APEAVObject@GetSetGui@@AEBVSection@4@AEAVProgressInterface@4@@Z@std@@PEAX@std@@@2@QEAU32@@Z
	?_Insert_node@?$_Tree_val@U?$_Tree_simple_types@U?$pair@$$CBV?$basic_string@DU?$char_traits@D@std@@V?$allocator@D@2@@std@@PEAVNode@GetSetInternal@@@std@@@std@@@std@@QEAAPEAU?$_Tree_node@U?$pair@$$CBV?$basic_string@DU?$char_traits@D@std@@V?$allocator@D@2@@std@@PEAVNode@GetSetInternal@@@std@@PEAX@2@U?$_Tree_id@PEAU?$_Tree_node@U?$pair@$$CBV?$basic_string@DU?$char_traits@D@std@@V?$allocator@D@2@@std@@PEAVNode@GetSetInternal@@@std@@PEAX@std@@@2@QEAU32@@Z
	?_Insert_node@?$_Tree_val@U?$_Tree_simple_types@U?$pair@$$CBV?$basic_string@DU?$char_traits@D@std@@V?$allocator@D@2@@std@@V12@@std@@@std@@@std@@QEAAPEAU?$_Tree_node@U?$pair@$$CBV?$basic_string@DU?$char_traits@D@std@@V?$allocator@D@2@@std@@V12@@std@@PEAX@2@U?$_Tree_id@PEAU?$_Tree_node@U?$pair@$$CBV?$basic_string@DU?$char_traits@D@std@@V?$allocator@D@2@@std@@V12@@std@@PEAX@std@@@2@QEAU32@@Z
	?_Insert_node@?$_Tree_val@U?$_Tree_simple_types@U?$pair@$$CBV?$basic_string@DU?$char_traits@D@std@@V?$allocator@D@2@@std@@V?$map@V?$basic_string@DU?$char_traits@D@std@@V?$allocator@D@2@@std@@V12@U?$less@V?$basic_string@DU?$char_traits@D@std@@V?$allocator@D@2@@std@@@2@V?$allocator@U?$pair@$$CBV?$basic_string@DU?$char_traits@D@std@@V?$allocator@D@2@@std@@V12@@std@@@2@@2@@std@@@std@@@std@@QEAAPEAU?$_Tree_node@U?$pair@$$CBV?$basic_string@DU?$char_traits@D@std@@V?$allocator@D@2@@std@@V?$map@V?$basic_string@DU?$char_traits@D@std@@V?$allocator@D@2@@std@@V12@U?$less@V?$basic_string@DU?$char_traits@D@std@@V?$allocator@D@2@@std@@@2@V?$allocator@U?$pair@$$CBV?$basic_string@DU?$char_traits@D@std@@V?$allocator@D@2@@std@@V12@@std@@@2@@2@@std@@PEAX@2@U?$_Tree_id@PEAU?$_Tree_node@U?$pair@$$CBV?$basic_string@DU?$char_traits@D@std@@V?$allocator@D@2@@std@@V?$map@V?$basic_string@DU?$char_traits@D@std@@V?$allocator@D@2@@std@@V12@U?$less@V?$basic_string@DU?$char_traits@D@std@@V?$allocator@D@2@@std@@@2@V?$allocator@U?$pair@$$CBV?$basic_string@DU?$char_traits@D@std@@V?$allocator@D@2@@std@@V12@@std@@@2@@2@@std@@PEAX@std@@@2@QEAU32@@Z
	?_Insert_node@?$_Tree_val@U?$_Tree_simple_types@U?$pair@QEAXP6AXAEBV?$basic_string@DU?$char_traits@D@std@@V?$allocator@D@2@@std@@PEAX@Z@std@@@std@@@std@@QEAAPEAU?$_Tree_node@U?$pair@QEAXP6AXAEBV?$basic_string@DU?$char_traits@D@std@@V?$allocator@D@2@@std@@PEAX@Z@std@@PEAX@2@U?$_Tree_id@PEAU?$_Tree_node@U?$pair@QEAXP6AXAEBV?$basic_string@DU?$char_traits@D@std@@V?$allocator@D@2@@std@@PEAX@Z@std@@PEAX@std@@@2@QEAU32@@Z
	?_Insert_node@?$_Tree_val@U?$_Tree_simple_types@V?$basic_string@DU?$char_traits@D@std@@V?$allocator@D@2@@std@@@std@@@std@@QEAAPEAU?$_Tree_node@V?$basic_string@DU?$char_traits@D@std@@V?$allocator@D@2@@std@@PEAX@2@U?$_Tree_id@PEAU?$_Tree_node@V?$basic_string@DU?$char_traits@D@std@@V?$allocator@D@2@@std@@PEAX@std@@@2@QEAU32@@Z
	?_Insert_x@?$vector@_NV?$allocator@_N@std@@@std@@QEAA_KV?$_Vb_const_iterator@U?$_Wrap_alloc@V?$allocator@I@std@@@std@@@2@_K@Z
	?_Is_constant_evaluated@std@@YA_NXZ
	?_Kfn@?$_Tset_traits@PEAUObserver@Dictionary@GetSetInternal@@U?$less@PEAUObserver@Dictionary@GetSetInternal@@@std@@V?$allocator@PEAUObserver@Dictionary@GetSetInternal@@@5@$0A@@std@@SAAEBQEAUObserver@Dictionary@GetSetInternal@@AEBQEAU345@@Z
	?_Kfn@?$_Tset_traits@V?$basic_string@DU?$char_traits@D@std@@V?$allocator@D@2@@std@@U?$less@V?$basic_string@DU?$char_traits@D@std@@V?$allocator@D@2@@std@@@2@V?$allocator@V?$basic_string@DU?$char_traits@D@std@@V?$allocator@D@2@@std@@@2@$0A@@std@@SAAEBV?$basic_string@DU?$char_traits@D@std@@V?$allocator@D@2@@2@AEBV32@@Z
	?_Large_mode_engaged@?$_String_val@U?$_Simple_types@D@std@@@std@@QEBA_NXZ
	?_Local@?$_Func_class@XAEBVNode@GetSetInternal@@@std@@AEBA_NXZ
	?_Lock@?$basic_filebuf@DU?$char_traits@D@std@@@std@@UEAAXXZ
	?_Lrotate@?$_Tree_val@U?$_Tree_simple_types@PEAUObserver@Dictionary@GetSetInternal@@@std@@@std@@QEAAXPEAU?$_Tree_node@PEAUObserver@Dictionary@GetSetInternal@@PEAX@2@@Z
	?_Lrotate@?$_Tree_val@U?$_Tree_simple_types@U?$pair@$$CBEE@std@@@std@@@std@@QEAAXPEAU?$_Tree_node@U?$pair@$$CBEE@std@@PEAX@2@@Z
	?_Lrotate@?$_Tree_val@U?$_Tree_simple_types@U?$pair@$$CBV?$basic_string@DU?$char_traits@D@std@@V?$allocator@D@2@@std@@P6APEAVObject@GetSetGui@@AEBVSection@4@AEAVProgressInterface@4@@Z@std@@@std@@@std@@QEAAXPEAU?$_Tree_node@U?$pair@$$CBV?$basic_string@DU?$char_traits@D@std@@V?$allocator@D@2@@std@@P6APEAVObject@GetSetGui@@AEBVSection@4@AEAVProgressInterface@4@@Z@std@@PEAX@2@@Z
	?_Lrotate@?$_Tree_val@U?$_Tree_simple_types@U?$pair@$$CBV?$basic_string@DU?$char_traits@D@std@@V?$allocator@D@2@@std@@PEAVNode@GetSetInternal@@@std@@@std@@@std@@QEAAXPEAU?$_Tree_node@U?$pair@$$CBV?$basic_string@DU?$char_traits@D@std@@V?$allocator@D@2@@std@@PEAVNode@GetSetInternal@@@std@@PEAX@2@@Z
	?_Lrotate@?$_Tree_val@U?$_Tree_simple_types@U?$pair@$$CBV?$basic_string@DU?$char_traits@D@std@@V?$allocator@D@2@@std@@V12@@std@@@std@@@std@@QEAAXPEAU?$_Tree_node@U?$pair@$$CBV?$basic_string@DU?$char_traits@D@std@@V?$allocator@D@2@@std@@V12@@std@@PEAX@2@@Z
	?_Lrotate@?$_Tree_val@U?$_Tree_simple_types@U?$pair@$$CBV?$basic_string@DU?$char_traits@D@std@@V?$allocator@D@2@@std@@V?$map@V?$basic_string@DU?$char_traits@D@std@@V?$allocator@D@2@@std@@V12@U?$less@V?$basic_string@DU?$char_traits@D@std@@V?$allocator@D@2@@std@@@2@V?$allocator@U?$pair@$$CBV?$basic_string@DU?$char_traits@D@std@@V?$allocator@D@2@@std@@V12@@std@@@2@@2@@std@@@std@@@std@@QEAAXPEAU?$_Tree_node@U?$pair@$$CBV?$basic_string@DU?$char_traits@D@std@@V?$allocator@D@2@@std@@V?$map@V?$basic_string@DU?$char_traits@D@std@@V?$allocator@D@2@@std@@V12@U?$less@V?$basic_string@DU?$char_traits@D@std@@V?$allocator@D@2@@std@@@2@V?$allocator@U?$pair@$$CBV?$basic_string@DU?$char_traits@D@std@@V?$allocator@D@2@@std@@V12@@std@@@2@@2@@std@@PEAX@2@@Z
	?_Lrotate@?$_Tree_val@U?$_Tree_simple_types@U?$pair@QEAXP6AXAEBV?$basic_string@DU?$char_traits@D@std@@V?$allocator@D@2@@std@@PEAX@Z@std@@@std@@@std@@QEAAXPEAU?$_Tree_node@U?$pair@QEAXP6AXAEBV?$basic_string@DU?$char_traits@D@std@@V?$allocator@D@2@@std@@PEAX@Z@std@@PEAX@2@@Z
	?_Lrotate@?$_Tree_val@U?$_Tree_simple_types@V?$basic_string@DU?$char_traits@D@std@@V?$allocator@D@2@@std@@@std@@@std@@QEAAXPEAU?$_Tree_node@V?$basic_string@DU?$char_traits@D@std@@V?$allocator@D@2@@std@@PEAX@2@@Z
	?_Maklocwcs@std@@YAPEA_WPEB_W@Z
	?_Mark@?$_String_bitmap@D$00@std@@QEAA_NPEBDQEBD@Z
	?_Mask@?$_Vb_reference@U?$_Wrap_alloc@V?$allocator@I@std@@@std@@@std@@IEBAIXZ
	?_Match@?$_String_bitmap@D$00@std@@QEBA_ND@Z
	?_Max@?$_Tree_val@U?$_Tree_simple_types@PEAUObserver@Dictionary@GetSetInternal@@@std@@@std@@SAPEAU?$_Tree_node@PEAUObserver@Dictionary@GetSetInternal@@PEAX@2@PEAU32@@Z
	?_Max@?$_Tree_val@U?$_Tree_simple_types@U?$pair@$$CBV?$basic_string@DU?$char_traits@D@std@@V?$allocator@D@2@@std@@P6APEAVObject@GetSetGui@@AEBVSection@4@AEAVProgressInterface@4@@Z@std@@@std@@@std@@SAPEAU?$_Tree_node@U?$pair@$$CBV?$basic_string@DU?$char_traits@D@std@@V?$allocator@D@2@@std@@P6APEAVObject@GetSetGui@@AEBVSection@4@AEAVProgressInterface@4@@Z@std@@PEAX@2@PEAU32@@Z
	?_Max@?$_Tree_val@U?$_Tree_simple_types@U?$pair@$$CBV?$basic_string@DU?$char_traits@D@std@@V?$allocator@D@2@@std@@PEAVNode@GetSetInternal@@@std@@@std@@@std@@SAPEAU?$_Tree_node@U?$pair@$$CBV?$basic_string@DU?$char_traits@D@std@@V?$allocator@D@2@@std@@PEAVNode@GetSetInternal@@@std@@PEAX@2@PEAU32@@Z
	?_Max@?$_Tree_val@U?$_Tree_simple_types@U?$pair@$$CBV?$basic_string@DU?$char_traits@D@std@@V?$allocator@D@2@@std@@V12@@std@@@std@@@std@@SAPEAU?$_Tree_node@U?$pair@$$CBV?$basic_string@DU?$char_traits@D@std@@V?$allocator@D@2@@std@@V12@@std@@PEAX@2@PEAU32@@Z
	?_Max@?$_Tree_val@U?$_Tree_simple_types@U?$pair@QEAXP6AXAEBV?$basic_string@DU?$char_traits@D@std@@V?$allocator@D@2@@std@@PEAX@Z@std@@@std@@@std@@SAPEAU?$_Tree_node@U?$pair@QEAXP6AXAEBV?$basic_string@DU?$char_traits@D@std@@V?$allocator@D@2@@std@@PEAX@Z@std@@PEAX@2@PEAU32@@Z
	?_Max@?$_Tree_val@U?$_Tree_simple_types@V?$basic_string@DU?$char_traits@D@std@@V?$allocator@D@2@@std@@@std@@@std@@SAPEAU?$_Tree_node@V?$basic_string@DU?$char_traits@D@std@@V?$allocator@D@2@@std@@PEAX@2@PEAU32@@Z
	?_Min@?$_Tree_val@U?$_Tree_simple_types@PEAUObserver@Dictionary@GetSetInternal@@@std@@@std@@SAPEAU?$_Tree_node@PEAUObserver@Dictionary@GetSetInternal@@PEAX@2@PEAU32@@Z
	?_Min@?$_Tree_val@U?$_Tree_simple_types@U?$pair@$$CBV?$basic_string@DU?$char_traits@D@std@@V?$allocator@D@2@@std@@P6APEAVObject@GetSetGui@@AEBVSection@4@AEAVProgressInterface@4@@Z@std@@@std@@@std@@SAPEAU?$_Tree_node@U?$pair@$$CBV?$basic_string@DU?$char_traits@D@std@@V?$allocator@D@2@@std@@P6APEAVObject@GetSetGui@@AEBVSection@4@AEAVProgressInterface@4@@Z@std@@PEAX@2@PEAU32@@Z
	?_Min@?$_Tree_val@U?$_Tree_simple_types@U?$pair@$$CBV?$basic_string@DU?$char_traits@D@std@@V?$allocator@D@2@@std@@PEAVNode@GetSetInternal@@@std@@@std@@@std@@SAPEAU?$_Tree_node@U?$pair@$$CBV?$basic_string@DU?$char_traits@D@std@@V?$allocator@D@2@@std@@PEAVNode@GetSetInternal@@@std@@PEAX@2@PEAU32@@Z
	?_Min@?$_Tree_val@U?$_Tree_simple_types@U?$pair@$$CBV?$basic_string@DU?$char_traits@D@std@@V?$allocator@D@2@@std@@V12@@std@@@std@@@std@@SAPEAU?$_Tree_node@U?$pair@$$CBV?$basic_string@DU?$char_traits@D@std@@V?$allocator@D@2@@std@@V12@@std@@PEAX@2@PEAU32@@Z
	?_Min@?$_Tree_val@U?$_Tree_simple_types@U?$pair@$$CBV?$basic_string@DU?$char_traits@D@std@@V?$allocator@D@2@@std@@V?$map@V?$basic_string@DU?$char_traits@D@std@@V?$allocator@D@2@@std@@V12@U?$less@V?$basic_string@DU?$char_traits@D@std@@V?$allocator@D@2@@std@@@2@V?$allocator@U?$pair@$$CBV?$basic_string@DU?$char_traits@D@std@@V?$allocator@D@2@@std@@V12@@std@@@2@@2@@std@@@std@@@std@@SAPEAU?$_Tree_node@U?$pair@$$CBV?$basic_string@DU?$char_traits@D@std@@V?$allocator@D@2@@std@@V?$map@V?$basic_string@DU?$char_traits@D@std@@V?$allocator@D@2@@std@@V12@U?$less@V?$basic_string@DU?$char_traits@D@std@@V?$allocator@D@2@@std@@@2@V?$allocator@U?$pair@$$CBV?$basic_string@DU?$char_traits@D@std@@V?$allocator@D@2@@std@@V12@@std@@@2@@2@@std@@PEAX@2@PEAU32@@Z
	?_Min@?$_Tree_val@U?$_Tree_simple_types@U?$pair@QEAXP6AXAEBV?$basic_string@DU?$char_traits@D@std@@V?$allocator@D@2@@std@@PEAX@Z@std@@@std@@@std@@SAPEAU?$_Tree_node@U?$pair@QEAXP6AXAEBV?$basic_string@DU?$char_traits@D@std@@V?$allocator@D@2@@std@@PEAX@Z@std@@PEAX@2@PEAU32@@Z
	?_Min@?$_Tree_val@U?$_Tree_simple_types@V?$basic_string@DU?$char_traits@D@std@@V?$allocator@D@2@@std@@@std@@@std@@SAPEAU?$_Tree_node@V?$basic_string@DU?$char_traits@D@std@@V?$allocator@D@2@@std@@PEAX@2@PEAU32@@Z
	?_Myptr@?$_String_val@U?$_Simple_types@D@std@@@std@@QEAAPEADXZ
	?_Myptr@?$_String_val@U?$_Simple_types@D@std@@@std@@QEBAPEBDXZ
	?_Nw@?$_Vb_val@V?$allocator@_N@std@@@std@@SA_K_K@Z
	?_Orphan_all@_Container_base0@std@@QEAAXXZ
	?_Orphan_ptr@?$_Tree_val@U?$_Tree_simple_types@PEAUObserver@Dictionary@GetSetInternal@@@std@@@std@@QEAAXQEAU?$_Tree_node@PEAUObserver@Dictionary@GetSetInternal@@PEAX@2@@Z
	?_Orphan_ptr@?$_Tree_val@U?$_Tree_simple_types@U?$pair@$$CBV?$basic_string@DU?$char_traits@D@std@@V?$allocator@D@2@@std@@P6APEAVObject@GetSetGui@@AEBVSection@4@AEAVProgressInterface@4@@Z@std@@@std@@@std@@QEAAXQEAU?$_Tree_node@U?$pair@$$CBV?$basic_string@DU?$char_traits@D@std@@V?$allocator@D@2@@std@@P6APEAVObject@GetSetGui@@AEBVSection@4@AEAVProgressInterface@4@@Z@std@@PEAX@2@@Z
	?_Orphan_ptr@?$_Tree_val@U?$_Tree_simple_types@U?$pair@$$CBV?$basic_string@DU?$char_traits@D@std@@V?$allocator@D@2@@std@@PEAVNode@GetSetInternal@@@std@@@std@@@std@@QEAAXQEAU?$_Tree_node@U?$pair@$$CBV?$basic_string@DU?$char_traits@D@std@@V?$allocator@D@2@@std@@PEAVNode@GetSetInternal@@@std@@PEAX@2@@Z
	?_Orphan_ptr@?$_Tree_val@U?$_Tree_simple_types@U?$pair@$$CBV?$basic_string@DU?$char_traits@D@std@@V?$allocator@D@2@@std@@V12@@std@@@std@@@std@@QEAAXQEAU?$_Tree_node@U?$pair@$$CBV?$basic_string@DU?$char_traits@D@std@@V?$allocator@D@2@@std@@V12@@std@@PEAX@2@@Z
	?_Orphan_ptr@?$_Tree_val@U?$_Tree_simple_types@U?$pair@QEAXP6AXAEBV?$basic_string@DU?$char_traits@D@std@@V?$allocator@D@2@@std@@PEAX@Z@std@@@std@@@std@@QEAAXQEAU?$_Tree_node@U?$pair@QEAXP6AXAEBV?$basic_string@DU?$char_traits@D@std@@V?$allocator@D@2@@std@@PEAX@Z@std@@PEAX@2@@Z
	?_Orphan_ptr@?$_Tree_val@U?$_Tree_simple_types@V?$basic_string@DU?$char_traits@D@std@@V?$allocator@D@2@@std@@@std@@@std@@QEAAXQEAU?$_Tree_node@V?$basic_string@DU?$char_traits@D@std@@V?$allocator@D@2@@std@@PEAX@2@@Z
	?_Orphan_range@?$vector@DV?$allocator@D@std@@@std@@AEBAXPEAD0@Z
	?_Orphan_range@?$vector@EV?$allocator@E@std@@@std@@AEBAXPEAE0@Z
	?_Orphan_range@?$vector@FV?$allocator@F@std@@@std@@AEBAXPEAF0@Z
	?_Orphan_range@?$vector@GV?$allocator@G@std@@@std@@AEBAXPEAG0@Z
	?_Orphan_range@?$vector@HV?$allocator@H@std@@@std@@AEBAXPEAH0@Z
	?_Orphan_range@?$vector@IV?$allocator@I@std@@@std@@AEBAXPEAI0@Z
	?_Orphan_range@?$vector@JV?$allocator@J@std@@@std@@AEBAXPEAJ0@Z
	?_Orphan_range@?$vector@KV?$allocator@K@std@@@std@@AEBAXPEAK0@Z
	?_Orphan_range@?$vector@MV?$allocator@M@std@@@std@@AEBAXPEAM0@Z
	?_Orphan_range@?$vector@NV?$allocator@N@std@@@std@@AEBAXPEAN0@Z
	?_Orphan_range@?$vector@V?$basic_string@DU?$char_traits@D@std@@V?$allocator@D@2@@std@@V?$allocator@V?$basic_string@DU?$char_traits@D@std@@V?$allocator@D@2@@std@@@2@@std@@AEBAXPEAV?$basic_string@DU?$char_traits@D@std@@V?$allocator@D@2@@2@0@Z
	?_Release@?$_Alloc_construct_ptr@V?$allocator@U?$_Tree_node@PEAUObserver@Dictionary@GetSetInternal@@PEAX@std@@@std@@@std@@QEAAPEAU?$_Tree_node@PEAUObserver@Dictionary@GetSetInternal@@PEAX@2@XZ
	?_Release@?$_Alloc_construct_ptr@V?$allocator@U?$_Tree_node@U?$pair@$$CBEE@std@@PEAX@std@@@std@@@std@@QEAAPEAU?$_Tree_node@U?$pair@$$CBEE@std@@PEAX@2@XZ
	?_Release@?$_Alloc_construct_ptr@V?$allocator@U?$_Tree_node@U?$pair@$$CBV?$basic_string@DU?$char_traits@D@std@@V?$allocator@D@2@@std@@P6APEAVObject@GetSetGui@@AEBVSection@4@AEAVProgressInterface@4@@Z@std@@PEAX@std@@@std@@@std@@QEAAPEAU?$_Tree_node@U?$pair@$$CBV?$basic_string@DU?$char_traits@D@std@@V?$allocator@D@2@@std@@P6APEAVObject@GetSetGui@@AEBVSection@4@AEAVProgressInterface@4@@Z@std@@PEAX@2@XZ
	?_Release@?$_Alloc_construct_ptr@V?$allocator@U?$_Tree_node@U?$pair@$$CBV?$basic_string@DU?$char_traits@D@std@@V?$allocator@D@2@@std@@PEAVNode@GetSetInternal@@@std@@PEAX@std@@@std@@@std@@QEAAPEAU?$_Tree_node@U?$pair@$$CBV?$basic_string@DU?$char_traits@D@std@@V?$allocator@D@2@@std@@PEAVNode@GetSetInternal@@@std@@PEAX@2@XZ
	?_Release@?$_Alloc_construct_ptr@V?$allocator@U?$_Tree_node@U?$pair@$$CBV?$basic_string@DU?$char_traits@D@std@@V?$allocator@D@2@@std@@V12@@std@@PEAX@std@@@std@@@std@@QEAAPEAU?$_Tree_node@U?$pair@$$CBV?$basic_string@DU?$char_traits@D@std@@V?$allocator@D@2@@std@@V12@@std@@PEAX@2@XZ
	?_Release@?$_Alloc_construct_ptr@V?$allocator@U?$_Tree_node@U?$pair@$$CBV?$basic_string@DU?$char_traits@D@std@@V?$allocator@D@2@@std@@V?$map@V?$basic_string@DU?$char_traits@D@std@@V?$allocator@D@2@@std@@V12@U?$less@V?$basic_string@DU?$char_traits@D@std@@V?$allocator@D@2@@std@@@2@V?$allocator@U?$pair@$$CBV?$basic_string@DU?$char_traits@D@std@@V?$allocator@D@2@@std@@V12@@std@@@2@@2@@std@@PEAX@std@@@std@@@std@@QEAAPEAU?$_Tree_node@U?$pair@$$CBV?$basic_string@DU?$char_traits@D@std@@V?$allocator@D@2@@std@@V?$map@V?$basic_string@DU?$char_traits@D@std@@V?$allocator@D@2@@std@@V12@U?$less@V?$basic_string@DU?$char_traits@D@std@@V?$allocator@D@2@@std@@@2@V?$allocator@U?$pair@$$CBV?$basic_string@DU?$char_traits@D@std@@V?$allocator@D@2@@std@@V12@@std@@@2@@2@@std@@PEAX@2@XZ
	?_Release@?$_Alloc_construct_ptr@V?$allocator@U?$_Tree_node@U?$pair@QEAXP6AXAEBV?$basic_string@DU?$char_traits@D@std@@V?$allocator@D@2@@std@@PEAX@Z@std@@PEAX@std@@@std@@@std@@QEAAPEAU?$_Tree_node@U?$pair@QEAXP6AXAEBV?$basic_string@DU?$char_traits@D@std@@V?$allocator@D@2@@std@@PEAX@Z@std@@PEAX@2@XZ
	?_Release@?$_Alloc_construct_ptr@V?$allocator@U?$_Tree_node@V?$basic_string@DU?$char_traits@D@std@@V?$allocator@D@2@@std@@PEAX@std@@@std@@@std@@QEAAPEAU?$_Tree_node@V?$basic_string@DU?$char_traits@D@std@@V?$allocator@D@2@@std@@PEAX@2@XZ
	?_Release@?$_Tree_head_scoped_ptr@V?$allocator@U?$_Tree_node@U?$pair@$$CBV?$basic_string@DU?$char_traits@D@std@@V?$allocator@D@2@@std@@V12@@std@@PEAX@std@@@std@@V?$_Tree_val@U?$_Tree_simple_types@U?$pair@$$CBV?$basic_string@DU?$char_traits@D@std@@V?$allocator@D@2@@std@@V12@@std@@@std@@@2@@std@@QEAAXXZ
	?_Release@?$_Uninitialized_backout_al@V?$allocator@D@std@@@std@@QEAAPEADXZ
	?_Release@?$_Uninitialized_backout_al@V?$allocator@E@std@@@std@@QEAAPEAEXZ
	?_Release@?$_Uninitialized_backout_al@V?$allocator@F@std@@@std@@QEAAPEAFXZ
	?_Release@?$_Uninitialized_backout_al@V?$allocator@G@std@@@std@@QEAAPEAGXZ
	?_Release@?$_Uninitialized_backout_al@V?$allocator@H@std@@@std@@QEAAPEAHXZ
	?_Release@?$_Uninitialized_backout_al@V?$allocator@I@std@@@std@@QEAAPEAIXZ
	?_Release@?$_Uninitialized_backout_al@V?$allocator@J@std@@@std@@QEAAPEAJXZ
	?_Release@?$_Uninitialized_backout_al@V?$allocator@K@std@@@std@@QEAAPEAKXZ
	?_Release@?$_Uninitialized_backout_al@V?$allocator@M@std@@@std@@QEAAPEAMXZ
	?_Release@?$_Uninitialized_backout_al@V?$allocator@N@std@@@std@@QEAAPEANXZ
	?_Release@?$_Uninitialized_backout_al@V?$allocator@V?$basic_string@DU?$char_traits@D@std@@V?$allocator@D@2@@std@@@std@@@std@@QEAAPEAV?$basic_string@DU?$char_traits@D@std@@V?$allocator@D@2@@2@XZ
	?_Release@_Fake_proxy_ptr_impl@std@@QEAAXXZ
	?_Reset_back@?$basic_filebuf@DU?$char_traits@D@std@@@std@@AEAAXXZ
	?_Reset_copy@?$_Func_class@XAEBVNode@GetSetInternal@@@std@@IEAAXAEBV12@@Z
	?_Rrotate@?$_Tree_val@U?$_Tree_simple_types@PEAUObserver@Dictionary@GetSetInternal@@@std@@@std@@QEAAXPEAU?$_Tree_node@PEAUObserver@Dictionary@GetSetInternal@@PEAX@2@@Z
	?_Rrotate@?$_Tree_val@U?$_Tree_simple_types@U?$pair@$$CBEE@std@@@std@@@std@@QEAAXPEAU?$_Tree_node@U?$pair@$$CBEE@std@@PEAX@2@@Z
	?_Rrotate@?$_Tree_val@U?$_Tree_simple_types@U?$pair@$$CBV?$basic_string@DU?$char_traits@D@std@@V?$allocator@D@2@@std@@P6APEAVObject@GetSetGui@@AEBVSection@4@AEAVProgressInterface@4@@Z@std@@@std@@@std@@QEAAXPEAU?$_Tree_node@U?$pair@$$CBV?$basic_string@DU?$char_traits@D@std@@V?$allocator@D@2@@std@@P6APEAVObject@GetSetGui@@AEBVSection@4@AEAVProgressInterface@4@@Z@std@@PEAX@2@@Z
	?_Rrotate@?$_Tree_val@U?$_Tree_simple_types@U?$pair@$$CBV?$basic_string@DU?$char_traits@D@std@@V?$allocator@D@2@@std@@PEAVNode@GetSetInternal@@@std@@@std@@@std@@QEAAXPEAU?$_Tree_node@U?$pair@$$CBV?$basic_string@DU?$char_traits@D@std@@V?$allocator@D@2@@std@@PEAVNode@GetSetInternal@@@std@@PEAX@2@@Z
	?_Rrotate@?$_Tree_val@U?$_Tree_simple_types@U?$pair@$$CBV?$basic_string@DU?$char_traits@D@std@@V?$allocator@D@2@@std@@V12@@std@@@std@@@std@@QEAAXPEAU?$_Tree_node@U?$pair@$$CBV?$basic_string@DU?$char_traits@D@std@@V?$allocator@D@2@@std@@V12@@std@@PEAX@2@@Z
	?_Rrotate@?$_Tree_val@U?$_Tree_simple_types@U?$pair@$$CBV?$basic_string@DU?$char_traits@D@std@@V?$allocator@D@2@@std@@V?$map@V?$basic_string@DU?$char_traits@D@std@@V?$allocator@D@2@@std@@V12@U?$less@V?$basic_string@DU?$char_traits@D@std@@V?$allocator@D@2@@std@@@2@V?$allocator@U?$pair@$$CBV?$basic_string@DU?$char_traits@D@std@@V?$allocator@D@2@@std@@V12@@std@@@2@@2@@std@@@std@@@std@@QEAAXPEAU?$_Tree_node@U?$pair@$$CBV?$basic_string@DU?$char_traits@D@std@@V?$allocator@D@2@@std@@V?$map@V?$basic_string@DU?$char_traits@D@std@@V?$allocator@D@2@@std@@V12@U?$less@V?$basic_string@DU?$char_traits@D@std@@V?$allocator@D@2@@std@@@2@V?$allocator@U?$pair@$$CBV?$basic_string@DU?$char_traits@D@std@@V?$allocator@D@2@@std@@V12@@std@@@2@@2@@std@@PEAX@2@@Z
	?_Rrotate@?$_Tree_val@U?$_Tree_simple_types@U?$pair@QEAXP6AXAEBV?$basic_string@DU?$char_traits@D@std@@V?$allocator@D@2@@std@@PEAX@Z@std@@@std@@@std@@QEAAXPEAU?$_Tree_node@U?$pair@QEAXP6AXAEBV?$basic_string@DU?$char_traits@D@std@@V?$allocator@D@2@@std@@PEAX@Z@std@@PEAX@2@@Z
	?_Rrotate@?$_Tree_val@U?$_Tree_simple_types@V?$basic_string@DU?$char_traits@D@std@@V?$allocator@D@2@@std@@@std@@@std@@QEAAXPEAU?$_Tree_node@V?$basic_string@DU?$char_traits@D@std@@V?$allocator@D@2@@std@@PEAX@2@@Z
	?_Seek_to@?$_String_const_iterator@V?$_String_val@U?$_Simple_types@D@std@@@std@@@std@@QEAAXPEBD@Z
	?_Set@?$_Func_class@XAEBVNode@GetSetInternal@@@std@@AEAAXPEAV?$_Func_base@XAEBVNode@GetSetInternal@@@2@@Z
	?_Set_back@?$basic_filebuf@DU?$char_traits@D@std@@@std@@AEAAXXZ
	?_Swap_proxy_and_iterators@?$basic_string@DU?$char_traits@D@std@@V?$allocator@D@2@@std@@AEAAXAEAV12@@Z
	?_Swap_proxy_and_iterators@_Container_base0@std@@QEAAXAEAU12@@Z
	?_Swap_val_excluding_comp@?$_Tree@V?$_Tset_traits@V?$basic_string@DU?$char_traits@D@std@@V?$allocator@D@2@@std@@U?$less@V?$basic_string@DU?$char_traits@D@std@@V?$allocator@D@2@@std@@@2@V?$allocator@V?$basic_string@DU?$char_traits@D@std@@V?$allocator@D@2@@std@@@2@$0A@@std@@@std@@AEAAXAEAV12@@Z
	?_Switch_to_buf@_Bxty@?$_String_val@U?$_Simple_types@D@std@@@std@@QEAAXXZ
	?_Take_contents@?$_Vector_val@U?$_Simple_types@D@std@@@std@@QEAAXAEAV12@@Z
	?_Take_contents@?$_Vector_val@U?$_Simple_types@E@std@@@std@@QEAAXAEAV12@@Z
	?_Take_contents@?$_Vector_val@U?$_Simple_types@F@std@@@std@@QEAAXAEAV12@@Z
	?_Take_contents@?$_Vector_val@U?$_Simple_types@G@std@@@std@@QEAAXAEAV12@@Z
	?_Take_contents@?$_Vector_val@U?$_Simple_types@H@std@@@std@@QEAAXAEAV12@@Z
	?_Take_contents@?$_Vector_val@U?$_Simple_types@I@std@@@std@@QEAAXAEAV12@@Z
	?_Take_contents@?$_Vector_val@U?$_Simple_types@J@std@@@std@@QEAAXAEAV12@@Z
	?_Take_contents@?$_Vector_val@U?$_Simple_types@K@std@@@std@@QEAAXAEAV12@@Z
	?_Take_contents@?$_Vector_val@U?$_Simple_types@M@std@@@std@@QEAAXAEAV12@@Z
	?_Take_contents@?$_Vector_val@U?$_Simple_types@N@std@@@std@@QEAAXAEAV12@@Z
	?_Take_contents@?$_Vector_val@U?$_Simple_types@V?$basic_string@DU?$char_traits@D@std@@V?$allocator@D@2@@std@@@std@@@std@@QEAAXAEAV12@@Z
	?_Take_contents@?$basic_string@DU?$char_traits@D@std@@V?$allocator@D@2@@std@@AEAAXAEAV12@@Z
	?_Throw_bad_array_new_length@std@@YAXXZ
	?_Throw_bad_cast@std@@YAXXZ
	?_Throw_tree_length_error@std@@YAXXZ
	?_Tidy@?$_Func_class@XAEBVNode@GetSetInternal@@@std@@IEAAXXZ
	?_Tidy@?$basic_stringbuf@DU?$char_traits@D@std@@V?$allocator@D@2@@std@@IEAAXXZ
	?_Tidy@?$vector@DV?$allocator@D@std@@@std@@AEAAXXZ
	?_Tidy@?$vector@EV?$allocator@E@std@@@std@@AEAAXXZ
	?_Tidy@?$vector@FV?$allocator@F@std@@@std@@AEAAXXZ
	?_Tidy@?$vector@GV?$allocator@G@std@@@std@@AEAAXXZ
	?_Tidy@?$vector@HV?$allocator@H@std@@@std@@AEAAXXZ
	?_Tidy@?$vector@IV?$allocator@I@std@@@std@@AEAAXXZ
	?_Tidy@?$vector@JV?$allocator@J@std@@@std@@AEAAXXZ
	?_Tidy@?$vector@KV?$allocator@K@std@@@std@@AEAAXXZ
	?_Tidy@?$vector@MV?$allocator@M@std@@@std@@AEAAXXZ
	?_Tidy@?$vector@NV?$allocator@N@std@@@std@@AEAAXXZ
	?_Tidy@?$vector@V?$basic_string@DU?$char_traits@D@std@@V?$allocator@D@2@@std@@V?$allocator@V?$basic_string@DU?$char_traits@D@std@@V?$allocator@D@2@@std@@@2@@std@@AEAAXXZ
	?_Tidy_deallocate@?$basic_string@DU?$char_traits@D@std@@V?$allocator@D@2@@std@@AEAAXXZ
	?_Unchecked_begin@?$_Tree@V?$_Tset_traits@PEAUObserver@Dictionary@GetSetInternal@@U?$less@PEAUObserver@Dictionary@GetSetInternal@@@std@@V?$allocator@PEAUObserver@Dictionary@GetSetInternal@@@5@$0A@@std@@@std@@QEAA?AV?$_Tree_unchecked_const_iterator@V?$_Tree_val@U?$_Tree_simple_types@PEAUObserver@Dictionary@GetSetInternal@@@std@@@std@@U_Iterator_base0@2@@2@XZ
	?_Unchecked_begin@?$_Tree@V?$_Tset_traits@V?$basic_string@DU?$char_traits@D@std@@V?$allocator@D@2@@std@@U?$less@V?$basic_string@DU?$char_traits@D@std@@V?$allocator@D@2@@std@@@2@V?$allocator@V?$basic_string@DU?$char_traits@D@std@@V?$allocator@D@2@@std@@@2@$0A@@std@@@std@@QEAA?AV?$_Tree_unchecked_const_iterator@V?$_Tree_val@U?$_Tree_simple_types@V?$basic_string@DU?$char_traits@D@std@@V?$allocator@D@2@@std@@@std@@@std@@U_Iterator_base0@2@@2@XZ
	?_Unlock@?$basic_filebuf@DU?$char_traits@D@std@@@std@@UEAAXXZ
	?_Unwrapped@?$_String_const_iterator@V?$_String_val@U?$_Simple_types@D@std@@@std@@@std@@QEBAPEBDXZ
	?_Unwrapped@?$_String_iterator@V?$_String_val@U?$_Simple_types@D@std@@@std@@@std@@QEBAPEADXZ
	?_Unwrapped@?$_Tree_iterator@V?$_Tree_val@U?$_Tree_simple_types@U?$pair@$$CBV?$basic_string@DU?$char_traits@D@std@@V?$allocator@D@2@@std@@P6APEAVObject@GetSetGui@@AEBVSection@4@AEAVProgressInterface@4@@Z@std@@@std@@@std@@@std@@QEBA?AV?$_Tree_unchecked_iterator@V?$_Tree_val@U?$_Tree_simple_types@U?$pair@$$CBV?$basic_string@DU?$char_traits@D@std@@V?$allocator@D@2@@std@@P6APEAVObject@GetSetGui@@AEBVSection@4@AEAVProgressInterface@4@@Z@std@@@std@@@std@@@2@XZ
	?_Unwrapped@?$_Tree_iterator@V?$_Tree_val@U?$_Tree_simple_types@U?$pair@$$CBV?$basic_string@DU?$char_traits@D@std@@V?$allocator@D@2@@std@@PEAVNode@GetSetInternal@@@std@@@std@@@std@@@std@@QEBA?AV?$_Tree_unchecked_iterator@V?$_Tree_val@U?$_Tree_simple_types@U?$pair@$$CBV?$basic_string@DU?$char_traits@D@std@@V?$allocator@D@2@@std@@PEAVNode@GetSetInternal@@@std@@@std@@@std@@@2@XZ
	?_Unwrapped@?$_Tree_iterator@V?$_Tree_val@U?$_Tree_simple_types@U?$pair@$$CBV?$basic_string@DU?$char_traits@D@std@@V?$allocator@D@2@@std@@V12@@std@@@std@@@std@@@std@@QEBA?AV?$_Tree_unchecked_iterator@V?$_Tree_val@U?$_Tree_simple_types@U?$pair@$$CBV?$basic_string@DU?$char_traits@D@std@@V?$allocator@D@2@@std@@V12@@std@@@std@@@std@@@2@XZ
	?_Unwrapped@?$_Tree_iterator@V?$_Tree_val@U?$_Tree_simple_types@U?$pair@QEAXP6AXAEBV?$basic_string@DU?$char_traits@D@std@@V?$allocator@D@2@@std@@PEAX@Z@std@@@std@@@std@@@std@@QEBA?AV?$_Tree_unchecked_iterator@V?$_Tree_val@U?$_Tree_simple_types@U?$pair@QEAXP6AXAEBV?$basic_string@DU?$char_traits@D@std@@V?$allocator@D@2@@std@@PEAX@Z@std@@@std@@@std@@@2@XZ
	?_Verify_offset@?$_String_const_iterator@V?$_String_val@U?$_Simple_types@D@std@@@std@@@std@@QEBAX_J@Z
	?_Xlen@?$vector@_NV?$allocator@_N@std@@@std@@SAXXZ
	?_Xlen_string@std@@YAXXZ
	?_Xlength@?$vector@DV?$allocator@D@std@@@std@@CAXXZ
	?_Xlength@?$vector@EV?$allocator@E@std@@@std@@CAXXZ
	?_Xlength@?$vector@FV?$allocator@F@std@@@std@@CAXXZ
	?_Xlength@?$vector@GV?$allocator@G@std@@@std@@CAXXZ
	?_Xlength@?$vector@HV?$allocator@H@std@@@std@@CAXXZ
	?_Xlength@?$vector@IV?$allocator@I@std@@@std@@CAXXZ
	?_Xlength@?$vector@JV?$allocator@J@std@@@std@@CAXXZ
	?_Xlength@?$vector@KV?$allocator@K@std@@@std@@CAXXZ
	?_Xlength@?$vector@MV?$allocator@M@std@@@std@@CAXXZ
	?_Xlength@?$vector@NV?$allocator@N@std@@@std@@CAXXZ
	?_Xlength@?$vector@V?$basic_string@DU?$char_traits@D@std@@V?$allocator@D@2@@std@@V?$allocator@V?$basic_string@DU?$char_traits@D@std@@V?$allocator@D@2@@std@@@2@@std@@CAXXZ
	?_Xran@?$_String_val@U?$_Simple_types@D@std@@@std@@SAXXZ
	?addErrorCallback@GetSetScriptParser@@QEAAXPEAXP6AXAEBV?$basic_string@DU?$char_traits@D@std@@V?$allocator@D@2@@std@@0@Z@Z
	?addOutputCallback@GetSetScriptParser@@QEAAXPEAXP6AXAEBV?$basic_string@DU?$char_traits@D@std@@V?$allocator@D@2@@std@@0@Z@Z
	?allocate@?$allocator@D@std@@QEAAPEAD_K@Z
	?allocate@?$allocator@E@std@@QEAAPEAE_K@Z
	?allocate@?$allocator@F@std@@QEAAPEAF_K@Z
	?allocate@?$allocator@G@std@@QEAAPEAG_K@Z
	?allocate@?$allocator@H@std@@QEAAPEAH_K@Z
	?allocate@?$allocator@I@std@@QEAAPEAI_K@Z
	?allocate@?$allocator@J@std@@QEAAPEAJ_K@Z
	?allocate@?$allocator@K@std@@QEAAPEAK_K@Z
	?allocate@?$allocator@M@std@@QEAAPEAM_K@Z
	?allocate@?$allocator@N@std@@QEAAPEAN_K@Z
	?allocate@?$allocator@U?$_Tree_node@PEAUObserver@Dictionary@GetSetInternal@@PEAX@std@@@std@@QEAAPEAU?$_Tree_node@PEAUObserver@Dictionary@GetSetInternal@@PEAX@2@_K@Z
	?allocate@?$allocator@U?$_Tree_node@U?$pair@$$CBEE@std@@PEAX@std@@@std@@QEAAPEAU?$_Tree_node@U?$pair@$$CBEE@std@@PEAX@2@_K@Z
	?allocate@?$allocator@U?$_Tree_node@U?$pair@$$CBV?$basic_string@DU?$char_traits@D@std@@V?$allocator@D@2@@std@@P6APEAVObject@GetSetGui@@AEBVSection@4@AEAVProgressInterface@4@@Z@std@@PEAX@std@@@std@@QEAAPEAU?$_Tree_node@U?$pair@$$CBV?$basic_string@DU?$char_traits@D@std@@V?$allocator@D@2@@std@@P6APEAVObject@GetSetGui@@AEBVSection@4@AEAVProgressInterface@4@@Z@std@@PEAX@2@_K@Z
	?allocate@?$allocator@U?$_Tree_node@U?$pair@$$CBV?$basic_string@DU?$char_traits@D@std@@V?$allocator@D@2@@std@@PEAVNode@GetSetInternal@@@std@@PEAX@std@@@std@@QEAAPEAU?$_Tree_node@U?$pair@$$CBV?$basic_string@DU?$char_traits@D@std@@V?$allocator@D@2@@std@@PEAVNode@GetSetInternal@@@std@@PEAX@2@_K@Z
	?allocate@?$allocator@U?$_Tree_node@U?$pair@$$CBV?$basic_string@DU?$char_traits@D@std@@V?$allocator@D@2@@std@@V12@@std@@PEAX@std@@@std@@QEAAPEAU?$_Tree_node@U?$pair@$$CBV?$basic_string@DU?$char_traits@D@std@@V?$allocator@D@2@@std@@V12@@std@@PEAX@2@_K@Z
	?allocate@?$allocator@U?$_Tree_node@U?$pair@$$CBV?$basic_string@DU?$char_traits@D@std@@V?$allocator@D@2@@std@@V?$map@V?$basic_string@DU?$char_traits@D@std@@V?$allocator@D@2@@std@@V12@U?$less@V?$basic_string@DU?$char_traits@D@std@@V?$allocator@D@2@@std@@@2@V?$allocator@U?$pair@$$CBV?$basic_string@DU?$char_traits@D@std@@V?$allocator@D@2@@std@@V12@@std@@@2@@2@@std@@PEAX@std@@@std@@QEAAPEAU?$_Tree_node@U?$pair@$$CBV?$basic_string@DU?$char_traits@D@std@@V?$allocator@D@2@@std@@V?$map@V?$basic_string@DU?$char_traits@D@std@@V?$allocator@D@2@@std@@V12@U?$less@V?$basic_string@DU?$char_traits@D@std@@V?$allocator@D@2@@std@@@2@V?$allocator@U?$pair@$$CBV?$basic_string@DU?$char_traits@D@std@@V?$allocator@D@2@@std@@V12@@std@@@2@@2@@std@@PEAX@2@_K@Z
	?allocate@?$allocator@U?$_Tree_node@U?$pair@QEAXP6AXAEBV?$basic_string@DU?$char_traits@D@std@@V?$allocator@D@2@@std@@PEAX@Z@std@@PEAX@std@@@std@@QEAAPEAU?$_Tree_node@U?$pair@QEAXP6AXAEBV?$basic_string@DU?$char_traits@D@std@@V?$allocator@D@2@@std@@PEAX@Z@std@@PEAX@2@_K@Z
	?allocate@?$allocator@U?$_Tree_node@V?$basic_string@DU?$char_traits@D@std@@V?$allocator@D@2@@std@@PEAX@std@@@std@@QEAAPEAU?$_Tree_node@V?$basic_string@DU?$char_traits@D@std@@V?$allocator@D@2@@std@@PEAX@2@_K@Z
	?allocate@?$allocator@V?$basic_string@DU?$char_traits@D@std@@V?$allocator@D@2@@std@@@std@@QEAAPEAV?$basic_string@DU?$char_traits@D@std@@V?$allocator@D@2@@2@_K@Z
	?append@?$basic_string@DU?$char_traits@D@std@@V?$allocator@D@2@@std@@QEAAAEAV12@AEBV12@@Z
	?append@?$basic_string@DU?$char_traits@D@std@@V?$allocator@D@2@@std@@QEAAAEAV12@QEBD@Z
	?assign@?$_Narrow_char_traits@DH@std@@SAPEADQEAD_KD@Z
	?assign@?$_Narrow_char_traits@DH@std@@SAXAEADAEBD@Z
	?assign@?$basic_string@DU?$char_traits@D@std@@V?$allocator@D@2@@std@@QEAAAEAV12@QEBD@Z
	?assign@?$basic_string@DU?$char_traits@D@std@@V?$allocator@D@2@@std@@QEAAAEAV12@QEBD_K@Z
	?attachTo@Observer@Dictionary@GetSetInternal@@QEAAXPEBV23@@Z
	?attrib_list@@YA?AV?$basic_string@DU?$char_traits@D@std@@V?$allocator@D@2@@std@@AEBV?$map@V?$basic_string@DU?$char_traits@D@std@@V?$allocator@D@2@@std@@V12@U?$less@V?$basic_string@DU?$char_traits@D@std@@V?$allocator@D@2@@std@@@2@V?$allocator@U?$pair@$$CBV?$basic_string@DU?$char_traits@D@std@@V?$allocator@D@2@@std@@V12@@std@@@2@@2@@Z
	?attrib_parse@@YAXAEBV?$basic_string@DU?$char_traits@D@std@@V?$allocator@D@2@@std@@AEAV?$map@V?$basic_string@DU?$char_traits@D@std@@V?$allocator@D@2@@std@@V12@U?$less@V?$basic_string@DU?$char_traits@D@std@@V?$allocator@D@2@@std@@@2@V?$allocator@U?$pair@$$CBV?$basic_string@DU?$char_traits@D@std@@V?$allocator@D@2@@std@@V12@@std@@@2@@2@@Z
	?back@?$basic_string@DU?$char_traits@D@std@@V?$allocator@D@2@@std@@QEAAAEADXZ
	?back@?$vector@V?$basic_string@DU?$char_traits@D@std@@V?$allocator@D@2@@std@@V?$allocator@V?$basic_string@DU?$char_traits@D@std@@V?$allocator@D@2@@std@@@2@@std@@QEAAAEAV?$basic_string@DU?$char_traits@D@std@@V?$allocator@D@2@@2@XZ
	?begin@?$_Tree@V?$_Tmap_traits@PEAXP6AXAEBV?$basic_string@DU?$char_traits@D@std@@V?$allocator@D@2@@std@@PEAX@ZU?$less@PEAX@2@V?$allocator@U?$pair@QEAXP6AXAEBV?$basic_string@DU?$char_traits@D@std@@V?$allocator@D@2@@std@@PEAX@Z@std@@@2@$0A@@std@@@std@@QEAA?AV?$_Tree_iterator@V?$_Tree_val@U?$_Tree_simple_types@U?$pair@QEAXP6AXAEBV?$basic_string@DU?$char_traits@D@std@@V?$allocator@D@2@@std@@PEAX@Z@std@@@std@@@std@@@2@XZ
	?begin@?$_Tree@V?$_Tmap_traits@V?$basic_string@DU?$char_traits@D@std@@V?$allocator@D@2@@std@@P6APEAVObject@GetSetGui@@AEBVSection@4@AEAVProgressInterface@4@@ZU?$less@V?$basic_string@DU?$char_traits@D@std@@V?$allocator@D@2@@std@@@2@V?$allocator@U?$pair@$$CBV?$basic_string@DU?$char_traits@D@std@@V?$allocator@D@2@@std@@P6APEAVObject@GetSetGui@@AEBVSection@4@AEAVProgressInterface@4@@Z@std@@@2@$0A@@std@@@std@@QEAA?AV?$_Tree_iterator@V?$_Tree_val@U?$_Tree_simple_types@U?$pair@$$CBV?$basic_string@DU?$char_traits@D@std@@V?$allocator@D@2@@std@@P6APEAVObject@GetSetGui@@AEBVSection@4@AEAVProgressInterface@4@@Z@std@@@std@@@std@@@2@XZ
	?begin@?$_Tree@V?$_Tmap_traits@V?$basic_string@DU?$char_traits@D@std@@V?$allocator@D@2@@std@@PEAVNode@GetSetInternal@@U?$less@V?$basic_string@DU?$char_traits@D@std@@V?$allocator@D@2@@std@@@2@V?$allocator@U?$pair@$$CBV?$basic_string@DU?$char_traits@D@std@@V?$allocator@D@2@@std@@PEAVNode@GetSetInternal@@@std@@@2@$0A@@std@@@std@@QEAA?AV?$_Tree_iterator@V?$_Tree_val@U?$_Tree_simple_types@U?$pair@$$CBV?$basic_string@DU?$char_traits@D@std@@V?$allocator@D@2@@std@@PEAVNode@GetSetInternal@@@std@@@std@@@std@@@2@XZ
	?begin@?$_Tree@V?$_Tmap_traits@V?$basic_string@DU?$char_traits@D@std@@V?$allocator@D@2@@std@@PEAVNode@GetSetInternal@@U?$less@V?$basic_string@DU?$char_traits@D@std@@V?$allocator@D@2@@std@@@2@V?$allocator@U?$pair@$$CBV?$basic_string@DU?$char_traits@D@std@@V?$allocator@D@2@@std@@PEAVNode@GetSetInternal@@@std@@@2@$0A@@std@@@std@@QEBA?AV?$_Tree_const_iterator@V?$_Tree_val@U?$_Tree_simple_types@U?$pair@$$CBV?$basic_string@DU?$char_traits@D@std@@V?$allocator@D@2@@std@@PEAVNode@GetSetInternal@@@std@@@std@@@std@@@2@XZ
	?begin@?$_Tree@V?$_Tmap_traits@V?$basic_string@DU?$char_traits@D@std@@V?$allocator@D@2@@std@@V12@U?$less@V?$basic_string@DU?$char_traits@D@std@@V?$allocator@D@2@@std@@@2@V?$allocator@U?$pair@$$CBV?$basic_string@DU?$char_traits@D@std@@V?$allocator@D@2@@std@@V12@@std@@@2@$0A@@std@@@std@@QEAA?AV?$_Tree_iterator@V?$_Tree_val@U?$_Tree_simple_types@U?$pair@$$CBV?$basic_string@DU?$char_traits@D@std@@V?$allocator@D@2@@std@@V12@@std@@@std@@@std@@@2@XZ
	?begin@?$_Tree@V?$_Tmap_traits@V?$basic_string@DU?$char_traits@D@std@@V?$allocator@D@2@@std@@V12@U?$less@V?$basic_string@DU?$char_traits@D@std@@V?$allocator@D@2@@std@@@2@V?$allocator@U?$pair@$$CBV?$basic_string@DU?$char_traits@D@std@@V?$allocator@D@2@@std@@V12@@std@@@2@$0A@@std@@@std@@QEBA?AV?$_Tree_const_iterator@V?$_Tree_val@U?$_Tree_simple_types@U?$pair@$$CBV?$basic_string@DU?$char_traits@D@std@@V?$allocator@D@2@@std@@V12@@std@@@std@@@std@@@2@XZ
	?begin@?$_Tree@V?$_Tmap_traits@V?$basic_string@DU?$char_traits@D@std@@V?$allocator@D@2@@std@@V?$map@V?$basic_string@DU?$char_traits@D@std@@V?$allocator@D@2@@std@@V12@U?$less@V?$basic_string@DU?$char_traits@D@std@@V?$allocator@D@2@@std@@@2@V?$allocator@U?$pair@$$CBV?$basic_string@DU?$char_traits@D@std@@V?$allocator@D@2@@std@@V12@@std@@@2@@2@U?$less@V?$basic_string@DU?$char_traits@D@std@@V?$allocator@D@2@@std@@@2@V?$allocator@U?$pair@$$CBV?$basic_string@DU?$char_traits@D@std@@V?$allocator@D@2@@std@@V?$map@V?$basic_string@DU?$char_traits@D@std@@V?$allocator@D@2@@std@@V12@U?$less@V?$basic_string@DU?$char_traits@D@std@@V?$allocator@D@2@@std@@@2@V?$allocator@U?$pair@$$CBV?$basic_string@DU?$char_traits@D@std@@V?$allocator@D@2@@std@@V12@@std@@@2@@2@@std@@@2@$0A@@std@@@std@@QEBA?AV?$_Tree_const_iterator@V?$_Tree_val@U?$_Tree_simple_types@U?$pair@$$CBV?$basic_string@DU?$char_traits@D@std@@V?$allocator@D@2@@std@@V?$map@V?$basic_string@DU?$char_traits@D@std@@V?$allocator@D@2@@std@@V12@U?$less@V?$basic_string@DU?$char_traits@D@std@@V?$allocator@D@2@@std@@@2@V?$allocator@U?$pair@$$CBV?$basic_string@DU?$char_traits@D@std@@V?$allocator@D@2@@std@@V12@@std@@@2@@2@@std@@@std@@@std@@@2@XZ
	?begin@?$_Tree@V?$_Tset_traits@PEAUObserver@Dictionary@GetSetInternal@@U?$less@PEAUObserver@Dictionary@GetSetInternal@@@std@@V?$allocator@PEAUObserver@Dictionary@GetSetInternal@@@5@$0A@@std@@@std@@QEAA?AV?$_Tree_const_iterator@V?$_Tree_val@U?$_Tree_simple_types@PEAUObserver@Dictionary@GetSetInternal@@@std@@@std@@@2@XZ
	?begin@?$basic_string@DU?$char_traits@D@std@@V?$allocator@D@2@@std@@QEAA?AV?$_String_iterator@V?$_String_val@U?$_Simple_types@D@std@@@std@@@2@XZ
	?begin@?$basic_string@DU?$char_traits@D@std@@V?$allocator@D@2@@std@@QEBA?AV?$_String_const_iterator@V?$_String_val@U?$_Simple_types@D@std@@@std@@@2@XZ
	?begin@?$vector@DV?$allocator@D@std@@@std@@QEBA?AV?$_Vector_const_iterator@V?$_Vector_val@U?$_Simple_types@D@std@@@std@@@2@XZ
	?begin@?$vector@EV?$allocator@E@std@@@std@@QEBA?AV?$_Vector_const_iterator@V?$_Vector_val@U?$_Simple_types@E@std@@@std@@@2@XZ
	?begin@?$vector@FV?$allocator@F@std@@@std@@QEBA?AV?$_Vector_const_iterator@V?$_Vector_val@U?$_Simple_types@F@std@@@std@@@2@XZ
	?begin@?$vector@GV?$allocator@G@std@@@std@@QEBA?AV?$_Vector_const_iterator@V?$_Vector_val@U?$_Simple_types@G@std@@@std@@@2@XZ
	?begin@?$vector@HV?$allocator@H@std@@@std@@QEBA?AV?$_Vector_const_iterator@V?$_Vector_val@U?$_Simple_types@H@std@@@std@@@2@XZ
	?begin@?$vector@IV?$allocator@I@std@@@std@@QEBA?AV?$_Vector_const_iterator@V?$_Vector_val@U?$_Simple_types@I@std@@@std@@@2@XZ
	?begin@?$vector@JV?$allocator@J@std@@@std@@QEBA?AV?$_Vector_const_iterator@V?$_Vector_val@U?$_Simple_types@J@std@@@std@@@2@XZ
	?begin@?$vector@KV?$allocator@K@std@@@std@@QEBA?AV?$_Vector_const_iterator@V?$_Vector_val@U?$_Simple_types@K@std@@@std@@@2@XZ
	?begin@?$vector@MV?$allocator@M@std@@@std@@QEBA?AV?$_Vector_const_iterator@V?$_Vector_val@U?$_Simple_types@M@std@@@std@@@2@XZ
	?begin@?$vector@NV?$allocator@N@std@@@std@@QEBA?AV?$_Vector_const_iterator@V?$_Vector_val@U?$_Simple_types@N@std@@@std@@@2@XZ
	?begin@?$vector@V?$basic_string@DU?$char_traits@D@std@@V?$allocator@D@2@@std@@V?$allocator@V?$basic_string@DU?$char_traits@D@std@@V?$allocator@D@2@@std@@@2@@std@@QEAA?AV?$_Vector_iterator@V?$_Vector_val@U?$_Simple_types@V?$basic_string@DU?$char_traits@D@std@@V?$allocator@D@2@@std@@@std@@@std@@@2@XZ
	?begin@?$vector@V?$basic_string@DU?$char_traits@D@std@@V?$allocator@D@2@@std@@V?$allocator@V?$basic_string@DU?$char_traits@D@std@@V?$allocator@D@2@@std@@@2@@std@@QEBA?AV?$_Vector_const_iterator@V?$_Vector_val@U?$_Simple_types@V?$basic_string@DU?$char_traits@D@std@@V?$allocator@D@2@@std@@@std@@@std@@@2@XZ
	?begin@?$vector@_NV?$allocator@_N@std@@@std@@QEAA?AV?$_Vb_iterator@U?$_Wrap_alloc@V?$allocator@I@std@@@std@@@2@XZ
	?begin@?$vector@_NV?$allocator@_N@std@@@std@@QEBA?AV?$_Vb_const_iterator@U?$_Wrap_alloc@V?$allocator@I@std@@@std@@@2@XZ
	?c_str@?$basic_string@DU?$char_traits@D@std@@V?$allocator@D@2@@std@@QEBAPEBDXZ
	?capacity@?$vector@DV?$allocator@D@std@@@std@@QEBA_KXZ
	?capacity@?$vector@EV?$allocator@E@std@@@std@@QEBA_KXZ
	?capacity@?$vector@FV?$allocator@F@std@@@std@@QEBA_KXZ
	?capacity@?$vector@GV?$allocator@G@std@@@std@@QEBA_KXZ
	?capacity@?$vector@HV?$allocator@H@std@@@std@@QEBA_KXZ
	?capacity@?$vector@IV?$allocator@I@std@@@std@@QEBA_KXZ
	?capacity@?$vector@JV?$allocator@J@std@@@std@@QEBA_KXZ
	?capacity@?$vector@KV?$allocator@K@std@@@std@@QEBA_KXZ
	?capacity@?$vector@MV?$allocator@M@std@@@std@@QEBA_KXZ
	?capacity@?$vector@NV?$allocator@N@std@@@std@@QEBA_KXZ
	?capacity@?$vector@V?$basic_string@DU?$char_traits@D@std@@V?$allocator@D@2@@std@@V?$allocator@V?$basic_string@DU?$char_traits@D@std@@V?$allocator@D@2@@std@@@2@@std@@QEBA_KXZ
	?clear@?$_Tree@V?$_Tmap_traits@V?$basic_string@DU?$char_traits@D@std@@V?$allocator@D@2@@std@@PEAVNode@GetSetInternal@@U?$less@V?$basic_string@DU?$char_traits@D@std@@V?$allocator@D@2@@std@@@2@V?$allocator@U?$pair@$$CBV?$basic_string@DU?$char_traits@D@std@@V?$allocator@D@2@@std@@PEAVNode@GetSetInternal@@@std@@@2@$0A@@std@@@std@@QEAAXXZ
	?clear@?$_Tree@V?$_Tmap_traits@V?$basic_string@DU?$char_traits@D@std@@V?$allocator@D@2@@std@@V12@U?$less@V?$basic_string@DU?$char_traits@D@std@@V?$allocator@D@2@@std@@@2@V?$allocator@U?$pair@$$CBV?$basic_string@DU?$char_traits@D@std@@V?$allocator@D@2@@std@@V12@@std@@@2@$0A@@std@@@std@@QEAAXXZ
	?clear@?$_Tree@V?$_Tset_traits@PEAUObserver@Dictionary@GetSetInternal@@U?$less@PEAUObserver@Dictionary@GetSetInternal@@@std@@V?$allocator@PEAUObserver@Dictionary@GetSetInternal@@@5@$0A@@std@@@std@@QEAAXXZ
	?clear@?$_Tree@V?$_Tset_traits@V?$basic_string@DU?$char_traits@D@std@@V?$allocator@D@2@@std@@U?$less@V?$basic_string@DU?$char_traits@D@std@@V?$allocator@D@2@@std@@@2@V?$allocator@V?$basic_string@DU?$char_traits@D@std@@V?$allocator@D@2@@std@@@2@$0A@@std@@@std@@QEAAXXZ
	?clear@?$basic_string@DU?$char_traits@D@std@@V?$allocator@D@2@@std@@QEAAXXZ
	?clear@Section@GetSetInternal@@QEAAXXZ
	?close@?$basic_filebuf@DU?$char_traits@D@std@@@std@@QEAAPEAV12@XZ
	?close@?$basic_ifstream@DU?$char_traits@D@std@@@std@@QEAAXXZ
	?compare@?$_Narrow_char_traits@DH@std@@SAHQEBD0_K@Z
	?compare@?$basic_string@DU?$char_traits@D@std@@V?$allocator@D@2@@std@@QEBAHAEBV12@@Z
	?copy@?$_Char_traits@DH@std@@SAPEADQEADQEBD_K@Z
	?createNode@Section@GetSetInternal@@IEAAAEAVNode@2@AEBV?$basic_string@DU?$char_traits@D@std@@V?$allocator@D@2@@std@@0@Z
	?createSection@Section@GetSetInternal@@IEAAAEAV12@AEBV?$vector@V?$basic_string@DU?$char_traits@D@std@@V?$allocator@D@2@@std@@V?$allocator@V?$basic_string@DU?$char_traits@D@std@@V?$allocator@D@2@@std@@@2@@std@@H@Z
	?createSection@Section@GetSetInternal@@QEAAAEAV12@AEBV?$basic_string@DU?$char_traits@D@std@@V?$allocator@D@2@@std@@@Z
	?createSpecialNode@GetSetInternal@@YAPEAVNode@1@AEAVSection@1@AEBV?$basic_string@DU?$char_traits@D@std@@V?$allocator@D@2@@std@@1@Z
	?data@?$basic_string@DU?$char_traits@D@std@@V?$allocator@D@2@@std@@QEBAPEBDXZ
	?data@?$vector@IV?$allocator@I@std@@@std@@QEAAPEAIXZ
	?data@?$vector@IV?$allocator@I@std@@@std@@QEBAPEBIXZ
	?deallocate@?$_Default_allocator_traits@V?$allocator@U?$_Tree_node@PEAUObserver@Dictionary@GetSetInternal@@PEAX@std@@@std@@@std@@SAXAEAV?$allocator@U?$_Tree_node@PEAUObserver@Dictionary@GetSetInternal@@PEAX@std@@@2@QEAU?$_Tree_node@PEAUObserver@Dictionary@GetSetInternal@@PEAX@2@_K@Z
	?deallocate@?$_Default_allocator_traits@V?$allocator@U?$_Tree_node@U?$pair@$$CBEE@std@@PEAX@std@@@std@@@std@@SAXAEAV?$allocator@U?$_Tree_node@U?$pair@$$CBEE@std@@PEAX@std@@@2@QEAU?$_Tree_node@U?$pair@$$CBEE@std@@PEAX@2@_K@Z
	?deallocate@?$_Default_allocator_traits@V?$allocator@U?$_Tree_node@U?$pair@$$CBV?$basic_string@DU?$char_traits@D@std@@V?$allocator@D@2@@std@@P6APEAVObject@GetSetGui@@AEBVSection@4@AEAVProgressInterface@4@@Z@std@@PEAX@std@@@std@@@std@@SAXAEAV?$allocator@U?$_Tree_node@U?$pair@$$CBV?$basic_string@DU?$char_traits@D@std@@V?$allocator@D@2@@std@@P6APEAVObject@GetSetGui@@AEBVSection@4@AEAVProgressInterface@4@@Z@std@@PEAX@std@@@2@QEAU?$_Tree_node@U?$pair@$$CBV?$basic_string@DU?$char_traits@D@std@@V?$allocator@D@2@@std@@P6APEAVObject@GetSetGui@@AEBVSection@4@AEAVProgressInterface@4@@Z@std@@PEAX@2@_K@Z
	?deallocate@?$_Default_allocator_traits@V?$allocator@U?$_Tree_node@U?$pair@$$CBV?$basic_string@DU?$char_traits@D@std@@V?$allocator@D@2@@std@@PEAVNode@GetSetInternal@@@std@@PEAX@std@@@std@@@std@@SAXAEAV?$allocator@U?$_Tree_node@U?$pair@$$CBV?$basic_string@DU?$char_traits@D@std@@V?$allocator@D@2@@std@@PEAVNode@GetSetInternal@@@std@@PEAX@std@@@2@QEAU?$_Tree_node@U?$pair@$$CBV?$basic_string@DU?$char_traits@D@std@@V?$allocator@D@2@@std@@PEAVNode@GetSetInternal@@@std@@PEAX@2@_K@Z
	?deallocate@?$_Default_allocator_traits@V?$allocator@U?$_Tree_node@U?$pair@$$CBV?$basic_string@DU?$char_traits@D@std@@V?$allocator@D@2@@std@@V12@@std@@PEAX@std@@@std@@@std@@SAXAEAV?$allocator@U?$_Tree_node@U?$pair@$$CBV?$basic_string@DU?$char_traits@D@std@@V?$allocator@D@2@@std@@V12@@std@@PEAX@std@@@2@QEAU?$_Tree_node@U?$pair@$$CBV?$basic_string@DU?$char_traits@D@std@@V?$allocator@D@2@@std@@V12@@std@@PEAX@2@_K@Z
	?deallocate@?$_Default_allocator_traits@V?$allocator@U?$_Tree_node@U?$pair@$$CBV?$basic_string@DU?$char_traits@D@std@@V?$allocator@D@2@@std@@V?$map@V?$basic_string@DU?$char_traits@D@std@@V?$allocator@D@2@@std@@V12@U?$less@V?$basic_string@DU?$char_traits@D@std@@V?$allocator@D@2@@std@@@2@V?$allocator@U?$pair@$$CBV?$basic_string@DU?$char_traits@D@std@@V?$allocator@D@2@@std@@V12@@std@@@2@@2@@std@@PEAX@std@@@std@@@std@@SAXAEAV?$allocator@U?$_Tree_node@U?$pair@$$CBV?$basic_string@DU?$char_traits@D@std@@V?$allocator@D@2@@std@@V?$map@V?$basic_string@DU?$char_traits@D@std@@V?$allocator@D@2@@std@@V12@U?$less@V?$basic_string@DU?$char_traits@D@std@@V?$allocator@D@2@@std@@@2@V?$allocator@U?$pair@$$CBV?$basic_string@DU?$char_traits@D@std@@V?$allocator@D@2@@std@@V12@@std@@@2@@2@@std@@PEAX@std@@@2@QEAU?$_Tree_node@U?$pair@$$CBV?$basic_string@DU?$char_traits@D@std@@V?$allocator@D@2@@std@@V?$map@V?$basic_string@DU?$char_traits@D@std@@V?$allocator@D@2@@std@@V12@U?$less@V?$basic_string@DU?$char_traits@D@std@@V?$allocator@D@2@@std@@@2@V?$allocator@U?$pair@$$CBV?$basic_string@DU?$char_traits@D@std@@V?$allocator@D@2@@std@@V12@@std@@@2@@2@@std@@PEAX@2@_K@Z
	?deallocate@?$_Default_allocator_traits@V?$allocator@U?$_Tree_node@U?$pair@QEAXP6AXAEBV?$basic_string@DU?$char_traits@D@std@@V?$allocator@D@2@@std@@PEAX@Z@std@@PEAX@std@@@std@@@std@@SAXAEAV?$allocator@U?$_Tree_node@U?$pair@QEAXP6AXAEBV?$basic_string@DU?$char_traits@D@std@@V?$allocator@D@2@@std@@PEAX@Z@std@@PEAX@std@@@2@QEAU?$_Tree_node@U?$pair@QEAXP6AXAEBV?$basic_string@DU?$char_traits@D@std@@V?$allocator@D@2@@std@@PEAX@Z@std@@PEAX@2@_K@Z
	?deallocate@?$_Default_allocator_traits@V?$allocator@U?$_Tree_node@V?$basic_string@DU?$char_traits@D@std@@V?$allocator@D@2@@std@@PEAX@std@@@std@@@std@@SAXAEAV?$allocator@U?$_Tree_node@V?$basic_string@DU?$char_traits@D@std@@V?$allocator@D@2@@std@@PEAX@std@@@2@QEAU?$_Tree_node@V?$basic_string@DU?$char_traits@D@std@@V?$allocator@D@2@@std@@PEAX@2@_K@Z
	?deallocate@?$allocator@D@std@@QEAAXQEAD_K@Z
	?deallocate@?$allocator@E@std@@QEAAXQEAE_K@Z
	?deallocate@?$allocator@F@std@@QEAAXQEAF_K@Z
	?deallocate@?$allocator@G@std@@QEAAXQEAG_K@Z
	?deallocate@?$allocator@H@std@@QEAAXQEAH_K@Z
	?deallocate@?$allocator@I@std@@QEAAXQEAI_K@Z
	?deallocate@?$allocator@J@std@@QEAAXQEAJ_K@Z
	?deallocate@?$allocator@K@std@@QEAAXQEAK_K@Z
	?deallocate@?$allocator@M@std@@QEAAXQEAM_K@Z
	?deallocate@?$allocator@N@std@@QEAAXQEAN_K@Z
	?deallocate@?$allocator@U?$_Tree_node@PEAUObserver@Dictionary@GetSetInternal@@PEAX@std@@@std@@QEAAXQEAU?$_Tree_node@PEAUObserver@Dictionary@GetSetInternal@@PEAX@2@_K@Z
	?deallocate@?$allocator@U?$_Tree_node@U?$pair@$$CBEE@std@@PEAX@std@@@std@@QEAAXQEAU?$_Tree_node@U?$pair@$$CBEE@std@@PEAX@2@_K@Z
	?deallocate@?$allocator@U?$_Tree_node@U?$pair@$$CBV?$basic_string@DU?$char_traits@D@std@@V?$allocator@D@2@@std@@P6APEAVObject@GetSetGui@@AEBVSection@4@AEAVProgressInterface@4@@Z@std@@PEAX@std@@@std@@QEAAXQEAU?$_Tree_node@U?$pair@$$CBV?$basic_string@DU?$char_traits@D@std@@V?$allocator@D@2@@std@@P6APEAVObject@GetSetGui@@AEBVSection@4@AEAVProgressInterface@4@@Z@std@@PEAX@2@_K@Z
	?deallocate@?$allocator@U?$_Tree_node@U?$pair@$$CBV?$basic_string@DU?$char_traits@D@std@@V?$allocator@D@2@@std@@PEAVNode@GetSetInternal@@@std@@PEAX@std@@@std@@QEAAXQEAU?$_Tree_node@U?$pair@$$CBV?$basic_string@DU?$char_traits@D@std@@V?$allocator@D@2@@std@@PEAVNode@GetSetInternal@@@std@@PEAX@2@_K@Z
	?deallocate@?$allocator@U?$_Tree_node@U?$pair@$$CBV?$basic_string@DU?$char_traits@D@std@@V?$allocator@D@2@@std@@V12@@std@@PEAX@std@@@std@@QEAAXQEAU?$_Tree_node@U?$pair@$$CBV?$basic_string@DU?$char_traits@D@std@@V?$allocator@D@2@@std@@V12@@std@@PEAX@2@_K@Z
	?deallocate@?$allocator@U?$_Tree_node@U?$pair@$$CBV?$basic_string@DU?$char_traits@D@std@@V?$allocator@D@2@@std@@V?$map@V?$basic_string@DU?$char_traits@D@std@@V?$allocator@D@2@@std@@V12@U?$less@V?$basic_string@DU?$char_traits@D@std@@V?$allocator@D@2@@std@@@2@V?$allocator@U?$pair@$$CBV?$basic_string@DU?$char_traits@D@std@@V?$allocator@D@2@@std@@V12@@std@@@2@@2@@std@@PEAX@std@@@std@@QEAAXQEAU?$_Tree_node@U?$pair@$$CBV?$basic_string@DU?$char_traits@D@std@@V?$allocator@D@2@@std@@V?$map@V?$basic_string@DU?$char_traits@D@std@@V?$allocator@D@2@@std@@V12@U?$less@V?$basic_string@DU?$char_traits@D@std@@V?$allocator@D@2@@std@@@2@V?$allocator@U?$pair@$$CBV?$basic_string@DU?$char_traits@D@std@@V?$allocator@D@2@@std@@V12@@std@@@2@@2@@std@@PEAX@2@_K@Z
	?deallocate@?$allocator@U?$_Tree_node@U?$pair@QEAXP6AXAEBV?$basic_string@DU?$char_traits@D@std@@V?$allocator@D@2@@std@@PEAX@Z@std@@PEAX@std@@@std@@QEAAXQEAU?$_Tree_node@U?$pair@QEAXP6AXAEBV?$basic_string@DU?$char_traits@D@std@@V?$allocator@D@2@@std@@PEAX@Z@std@@PEAX@2@_K@Z
	?deallocate@?$allocator@U?$_Tree_node@V?$basic_string@DU?$char_traits@D@std@@V?$allocator@D@2@@std@@PEAX@std@@@std@@QEAAXQEAU?$_Tree_node@V?$basic_string@DU?$char_traits@D@std@@V?$allocator@D@2@@std@@PEAX@2@_K@Z
	?deallocate@?$allocator@V?$basic_string@DU?$char_traits@D@std@@V?$allocator@D@2@@std@@@std@@QEAAXQEAV?$basic_string@DU?$char_traits@D@std@@V?$allocator@D@2@@2@_K@Z
	?default_progress_interface@GetSetGui@@YAAEAVProgressInterface@1@XZ
	?discard@?$GetSet@V?$basic_string@DU?$char_traits@D@std@@V?$allocator@D@2@@std@@@@UEAAXXZ
	?discard@?$GetSet@_N@@UEAAXXZ
	?discard@Section@GetSetGui@@UEAAXXZ
	?empty@?$_Tree@V?$_Tmap_traits@PEAXP6AXAEBV?$basic_string@DU?$char_traits@D@std@@V?$allocator@D@2@@std@@PEAX@ZU?$less@PEAX@2@V?$allocator@U?$pair@QEAXP6AXAEBV?$basic_string@DU?$char_traits@D@std@@V?$allocator@D@2@@std@@PEAX@Z@std@@@2@$0A@@std@@@std@@QEBA_NXZ
	?empty@?$_Tree@V?$_Tmap_traits@V?$basic_string@DU?$char_traits@D@std@@V?$allocator@D@2@@std@@PEAVNode@GetSetInternal@@U?$less@V?$basic_string@DU?$char_traits@D@std@@V?$allocator@D@2@@std@@@2@V?$allocator@U?$pair@$$CBV?$basic_string@DU?$char_traits@D@std@@V?$allocator@D@2@@std@@PEAVNode@GetSetInternal@@@std@@@2@$0A@@std@@@std@@QEBA_NXZ
	?empty@?$_Tree@V?$_Tmap_traits@V?$basic_string@DU?$char_traits@D@std@@V?$allocator@D@2@@std@@V12@U?$less@V?$basic_string@DU?$char_traits@D@std@@V?$allocator@D@2@@std@@@2@V?$allocator@U?$pair@$$CBV?$basic_string@DU?$char_traits@D@std@@V?$allocator@D@2@@std@@V12@@std@@@2@$0A@@std@@@std@@QEBA_NXZ
	?empty@?$basic_string@DU?$char_traits@D@std@@V?$allocator@D@2@@std@@QEBA_NXZ
	?empty@?$vector@DV?$allocator@D@std@@@std@@QEBA_NXZ
	?empty@?$vector@EV?$allocator@E@std@@@std@@QEBA_NXZ
	?empty@?$vector@FV?$allocator@F@std@@@std@@QEBA_NXZ
	?empty@?$vector@GV?$allocator@G@std@@@std@@QEBA_NXZ
	?empty@?$vector@HV?$allocator@H@std@@@std@@QEBA_NXZ
	?empty@?$vector@IV?$allocator@I@std@@@std@@QEBA_NXZ
	?empty@?$vector@JV?$allocator@J@std@@@std@@QEBA_NXZ
	?empty@?$vector@KV?$allocator@K@std@@@std@@QEBA_NXZ
	?empty@?$vector@MV?$allocator@M@std@@@std@@QEBA_NXZ
	?empty@?$vector@NV?$allocator@N@std@@@std@@QEBA_NXZ
	?empty@?$vector@V?$basic_string@DU?$char_traits@D@std@@V?$allocator@D@2@@std@@V?$allocator@V?$basic_string@DU?$char_traits@D@std@@V?$allocator@D@2@@std@@@2@@std@@QEBA_NXZ
	?empty@?$vector@_NV?$allocator@_N@std@@@std@@QEBA_NXZ
	?end@?$_Tree@V?$_Tmap_traits@EEU?$less@E@std@@V?$allocator@U?$pair@$$CBEE@std@@@2@$0A@@std@@@std@@QEBA?AV?$_Tree_const_iterator@V?$_Tree_val@U?$_Tree_simple_types@U?$pair@$$CBEE@std@@@std@@@std@@@2@XZ
	?end@?$_Tree@V?$_Tmap_traits@PEAXP6AXAEBV?$basic_string@DU?$char_traits@D@std@@V?$allocator@D@2@@std@@PEAX@ZU?$less@PEAX@2@V?$allocator@U?$pair@QEAXP6AXAEBV?$basic_string@DU?$char_traits@D@std@@V?$allocator@D@2@@std@@PEAX@Z@std@@@2@$0A@@std@@@std@@QEAA?AV?$_Tree_iterator@V?$_Tree_val@U?$_Tree_simple_types@U?$pair@QEAXP6AXAEBV?$basic_string@DU?$char_traits@D@std@@V?$allocator@D@2@@std@@PEAX@Z@std@@@std@@@std@@@2@XZ
	?end@?$_Tree@V?$_Tmap_traits@V?$basic_string@DU?$char_traits@D@std@@V?$allocator@D@2@@std@@P6APEAVObject@GetSetGui@@AEBVSection@4@AEAVProgressInterface@4@@ZU?$less@V?$basic_string@DU?$char_traits@D@std@@V?$allocator@D@2@@std@@@2@V?$allocator@U?$pair@$$CBV?$basic_string@DU?$char_traits@D@std@@V?$allocator@D@2@@std@@P6APEAVObject@GetSetGui@@AEBVSection@4@AEAVProgressInterface@4@@Z@std@@@2@$0A@@std@@@std@@QEAA?AV?$_Tree_iterator@V?$_Tree_val@U?$_Tree_simple_types@U?$pair@$$CBV?$basic_string@DU?$char_traits@D@std@@V?$allocator@D@2@@std@@P6APEAVObject@GetSetGui@@AEBVSection@4@AEAVProgressInterface@4@@Z@std@@@std@@@std@@@2@XZ
	?end@?$_Tree@V?$_Tmap_traits@V?$basic_string@DU?$char_traits@D@std@@V?$allocator@D@2@@std@@PEAVNode@GetSetInternal@@U?$less@V?$basic_string@DU?$char_traits@D@std@@V?$allocator@D@2@@std@@@2@V?$allocator@U?$pair@$$CBV?$basic_string@DU?$char_traits@D@std@@V?$allocator@D@2@@std@@PEAVNode@GetSetInternal@@@std@@@2@$0A@@std@@@std@@QEAA?AV?$_Tree_iterator@V?$_Tree_val@U?$_Tree_simple_types@U?$pair@$$CBV?$basic_string@DU?$char_traits@D@std@@V?$allocator@D@2@@std@@PEAVNode@GetSetInternal@@@std@@@std@@@std@@@2@XZ
	?end@?$_Tree@V?$_Tmap_traits@V?$basic_string@DU?$char_traits@D@std@@V?$allocator@D@2@@std@@PEAVNode@GetSetInternal@@U?$less@V?$basic_string@DU?$char_traits@D@std@@V?$allocator@D@2@@std@@@2@V?$allocator@U?$pair@$$CBV?$basic_string@DU?$char_traits@D@std@@V?$allocator@D@2@@std@@PEAVNode@GetSetInternal@@@std@@@2@$0A@@std@@@std@@QEBA?AV?$_Tree_const_iterator@V?$_Tree_val@U?$_Tree_simple_types@U?$pair@$$CBV?$basic_string@DU?$char_traits@D@std@@V?$allocator@D@2@@std@@PEAVNode@GetSetInternal@@@std@@@std@@@std@@@2@XZ
	?end@?$_Tree@V?$_Tmap_traits@V?$basic_string@DU?$char_traits@D@std@@V?$allocator@D@2@@std@@V12@U?$less@V?$basic_string@DU?$char_traits@D@std@@V?$allocator@D@2@@std@@@2@V?$allocator@U?$pair@$$CBV?$basic_string@DU?$char_traits@D@std@@V?$allocator@D@2@@std@@V12@@std@@@2@$0A@@std@@@std@@QEAA?AV?$_Tree_iterator@V?$_Tree_val@U?$_Tree_simple_types@U?$pair@$$CBV?$basic_string@DU?$char_traits@D@std@@V?$allocator@D@2@@std@@V12@@std@@@std@@@std@@@2@XZ
	?end@?$_Tree@V?$_Tmap_traits@V?$basic_string@DU?$char_traits@D@std@@V?$allocator@D@2@@std@@V12@U?$less@V?$basic_string@DU?$char_traits@D@std@@V?$allocator@D@2@@std@@@2@V?$allocator@U?$pair@$$CBV?$basic_string@DU?$char_traits@D@std@@V?$allocator@D@2@@std@@V12@@std@@@2@$0A@@std@@@std@@QEBA?AV?$_Tree_const_iterator@V?$_Tree_val@U?$_Tree_simple_types@U?$pair@$$CBV?$basic_string@DU?$char_traits@D@std@@V?$allocator@D@2@@std@@V12@@std@@@std@@@std@@@2@XZ
	?end@?$_Tree@V?$_Tmap_traits@V?$basic_string@DU?$char_traits@D@std@@V?$allocator@D@2@@std@@V?$map@V?$basic_string@DU?$char_traits@D@std@@V?$allocator@D@2@@std@@V12@U?$less@V?$basic_string@DU?$char_traits@D@std@@V?$allocator@D@2@@std@@@2@V?$allocator@U?$pair@$$CBV?$basic_string@DU?$char_traits@D@std@@V?$allocator@D@2@@std@@V12@@std@@@2@@2@U?$less@V?$basic_string@DU?$char_traits@D@std@@V?$allocator@D@2@@std@@@2@V?$allocator@U?$pair@$$CBV?$basic_string@DU?$char_traits@D@std@@V?$allocator@D@2@@std@@V?$map@V?$basic_string@DU?$char_traits@D@std@@V?$allocator@D@2@@std@@V12@U?$less@V?$basic_string@DU?$char_traits@D@std@@V?$allocator@D@2@@std@@@2@V?$allocator@U?$pair@$$CBV?$basic_string@DU?$char_traits@D@std@@V?$allocator@D@2@@std@@V12@@std@@@2@@2@@std@@@2@$0A@@std@@@std@@QEBA?AV?$_Tree_const_iterator@V?$_Tree_val@U?$_Tree_simple_types@U?$pair@$$CBV?$basic_string@DU?$char_traits@D@std@@V?$allocator@D@2@@std@@V?$map@V?$basic_string@DU?$char_traits@D@std@@V?$allocator@D@2@@std@@V12@U?$less@V?$basic_string@DU?$char_traits@D@std@@V?$allocator@D@2@@std@@@2@V?$allocator@U?$pair@$$CBV?$basic_string@DU?$char_traits@D@std@@V?$allocator@D@2@@std@@V12@@std@@@2@@2@@std@@@std@@@std@@@2@XZ
	?end@?$_Tree@V?$_Tset_traits@PEAUObserver@Dictionary@GetSetInternal@@U?$less@PEAUObserver@Dictionary@GetSetInternal@@@std@@V?$allocator@PEAUObserver@Dictionary@GetSetInternal@@@5@$0A@@std@@@std@@QEAA?AV?$_Tree_const_iterator@V?$_Tree_val@U?$_Tree_simple_types@PEAUObserver@Dictionary@GetSetInternal@@@std@@@std@@@2@XZ
	?end@?$_Tree@V?$_Tset_traits@V?$basic_string@DU?$char_traits@D@std@@V?$allocator@D@2@@std@@U?$less@V?$basic_string@DU?$char_traits@D@std@@V?$allocator@D@2@@std@@@2@V?$allocator@V?$basic_string@DU?$char_traits@D@std@@V?$allocator@D@2@@std@@@2@$0A@@std@@@std@@QEAA?AV?$_Tree_const_iterator@V?$_Tree_val@U?$_Tree_simple_types@V?$basic_string@DU?$char_traits@D@std@@V?$allocator@D@2@@std@@@std@@@std@@@2@XZ
	?end@?$basic_string@DU?$char_traits@D@std@@V?$allocator@D@2@@std@@QEAA?AV?$_String_iterator@V?$_String_val@U?$_Simple_types@D@std@@@std@@@2@XZ
	?end@?$basic_string@DU?$char_traits@D@std@@V?$allocator@D@2@@std@@QEBA?AV?$_String_const_iterator@V?$_String_val@U?$_Simple_types@D@std@@@std@@@2@XZ
	?end@?$vector@DV?$allocator@D@std@@@std@@QEBA?AV?$_Vector_const_iterator@V?$_Vector_val@U?$_Simple_types@D@std@@@std@@@2@XZ
	?end@?$vector@EV?$allocator@E@std@@@std@@QEBA?AV?$_Vector_const_iterator@V?$_Vector_val@U?$_Simple_types@E@std@@@std@@@2@XZ
	?end@?$vector@FV?$allocator@F@std@@@std@@QEBA?AV?$_Vector_const_iterator@V?$_Vector_val@U?$_Simple_types@F@std@@@std@@@2@XZ
	?end@?$vector@GV?$allocator@G@std@@@std@@QEBA?AV?$_Vector_const_iterator@V?$_Vector_val@U?$_Simple_types@G@std@@@std@@@2@XZ
	?end@?$vector@HV?$allocator@H@std@@@std@@QEBA?AV?$_Vector_const_iterator@V?$_Vector_val@U?$_Simple_types@H@std@@@std@@@2@XZ
	?end@?$vector@IV?$allocator@I@std@@@std@@QEBA?AV?$_Vector_const_iterator@V?$_Vector_val@U?$_Simple_types@I@std@@@std@@@2@XZ
	?end@?$vector@JV?$allocator@J@std@@@std@@QEBA?AV?$_Vector_const_iterator@V?$_Vector_val@U?$_Simple_types@J@std@@@std@@@2@XZ
	?end@?$vector@KV?$allocator@K@std@@@std@@QEBA?AV?$_Vector_const_iterator@V?$_Vector_val@U?$_Simple_types@K@std@@@std@@@2@XZ
	?end@?$vector@MV?$allocator@M@std@@@std@@QEBA?AV?$_Vector_const_iterator@V?$_Vector_val@U?$_Simple_types@M@std@@@std@@@2@XZ
	?end@?$vector@NV?$allocator@N@std@@@std@@QEBA?AV?$_Vector_const_iterator@V?$_Vector_val@U?$_Simple_types@N@std@@@std@@@2@XZ
	?end@?$vector@V?$basic_string@DU?$char_traits@D@std@@V?$allocator@D@2@@std@@V?$allocator@V?$basic_string@DU?$char_traits@D@std@@V?$allocator@D@2@@std@@@2@@std@@QEAA?AV?$_Vector_iterator@V?$_Vector_val@U?$_Simple_types@V?$basic_string@DU?$char_traits@D@std@@V?$allocator@D@2@@std@@@std@@@std@@@2@XZ
	?end@?$vector@V?$basic_string@DU?$char_traits@D@std@@V?$allocator@D@2@@std@@V?$allocator@V?$basic_string@DU?$char_traits@D@std@@V?$allocator@D@2@@std@@@2@@std@@QEBA?AV?$_Vector_const_iterator@V?$_Vector_val@U?$_Simple_types@V?$basic_string@DU?$char_traits@D@std@@V?$allocator@D@2@@std@@@std@@@std@@@2@XZ
	?end@?$vector@_NV?$allocator@_N@std@@@std@@QEAA?AV?$_Vb_iterator@U?$_Wrap_alloc@V?$allocator@I@std@@@std@@@2@XZ
	?end@?$vector@_NV?$allocator@_N@std@@@std@@QEBA?AV?$_Vb_const_iterator@U?$_Wrap_alloc@V?$allocator@I@std@@@std@@@2@XZ
	?eof@?$_Narrow_char_traits@DH@std@@SAHXZ
	?eq@?$_Narrow_char_traits@DH@std@@SA_NDD@Z
	?eq_int_type@?$_Narrow_char_traits@DH@std@@SA_NHH@Z
	?erase@?$_Tree@V?$_Tset_traits@PEAUObserver@Dictionary@GetSetInternal@@U?$less@PEAUObserver@Dictionary@GetSetInternal@@@std@@V?$allocator@PEAUObserver@Dictionary@GetSetInternal@@@5@$0A@@std@@@std@@QEAA_KAEBQEAUObserver@Dictionary@GetSetInternal@@@Z
	?erase@?$_Tree@V?$_Tset_traits@V?$basic_string@DU?$char_traits@D@std@@V?$allocator@D@2@@std@@U?$less@V?$basic_string@DU?$char_traits@D@std@@V?$allocator@D@2@@std@@@2@V?$allocator@V?$basic_string@DU?$char_traits@D@std@@V?$allocator@D@2@@std@@@2@$0A@@std@@@std@@QEAA_KAEBV?$basic_string@DU?$char_traits@D@std@@V?$allocator@D@2@@2@@Z
	?erase@?$basic_string@DU?$char_traits@D@std@@V?$allocator@D@2@@std@@QEAAAEAV12@_K0@Z
	?erase@?$basic_string@DU?$char_traits@D@std@@V?$allocator@D@2@@std@@QEAAAEAV12@_K@Z
	?escape@EscapeSequence@@YA?AV?$basic_string@DU?$char_traits@D@std@@V?$allocator@D@2@@std@@AEBV23@AEBV?$map@EEU?$less@E@std@@V?$allocator@U?$pair@$$CBEE@std@@@2@@3@D@Z
	?escape_attrib_key@EscapeSequence@@YA?AV?$basic_string@DU?$char_traits@D@std@@V?$allocator@D@2@@std@@AEBV23@@Z
	?escape_attrib_value@EscapeSequence@@YA?AV?$basic_string@DU?$char_traits@D@std@@V?$allocator@D@2@@std@@AEBV23@@Z
	?expect_end_of_line@GetSetScriptParser@@IEAA_NAEAV?$basic_istream@DU?$char_traits@D@std@@@std@@AEBV?$basic_string@DU?$char_traits@D@std@@V?$allocator@D@2@@3@@Z
	?expect_keyword@GetSetScriptParser@@IEAAHAEAV?$basic_istream@DU?$char_traits@D@std@@@std@@AEBV?$basic_string@DU?$char_traits@D@std@@V?$allocator@D@2@@3@1@Z
	?expect_token_key@GetSetScriptParser@@IEAA_NAEAV?$basic_istream@DU?$char_traits@D@std@@@std@@AEBV?$basic_string@DU?$char_traits@D@std@@V?$allocator@D@2@@3@AEAV43@@Z
	?expect_token_string@GetSetScriptParser@@IEAA_NAEAV?$basic_istream@DU?$char_traits@D@std@@@std@@AEBV?$basic_string@DU?$char_traits@D@std@@V?$allocator@D@2@@3@AEAV43@@Z
	?expect_token_value@GetSetScriptParser@@IEAA_NAEAV?$basic_istream@DU?$char_traits@D@std@@@std@@AEBV?$basic_string@DU?$char_traits@D@std@@V?$allocator@D@2@@3@AEAN@Z
	?expect_token_value@GetSetScriptParser@@IEAA_NAEAV?$basic_istream@DU?$char_traits@D@std@@@std@@AEBV?$basic_string@DU?$char_traits@D@std@@V?$allocator@D@2@@3@AEAV43@_N@Z
	?factory_create@GetSetGui@@YAPEAVObject@1@AEBV?$basic_string@DU?$char_traits@D@std@@V?$allocator@D@2@@std@@AEBVSection@1@AEAVProgressInterface@1@@Z
	?factory_known_types@GetSetGui@@YA?AV?$set@V?$basic_string@DU?$char_traits@D@std@@V?$allocator@D@2@@std@@U?$less@V?$basic_string@DU?$char_traits@D@std@@V?$allocator@D@2@@std@@@2@V?$allocator@V?$basic_string@DU?$char_traits@D@std@@V?$allocator@D@2@@std@@@2@@std@@XZ
	?factory_register_type@GetSetInternal@@YAXAEBV?$basic_string@DU?$char_traits@D@std@@V?$allocator@D@2@@std@@P6APEAVObject@GetSetGui@@AEBVSection@5@AEAVProgressInterface@5@@Z@Z
	?fileReadString@@YA?AV?$basic_string@DU?$char_traits@D@std@@V?$allocator@D@2@@std@@V12@@Z
	?find@?$_Narrow_char_traits@DH@std@@SAPEBDQEBD_KAEBD@Z
	?find@?$_Tree@V?$_Tmap_traits@EEU?$less@E@std@@V?$allocator@U?$pair@$$CBEE@std@@@2@$0A@@std@@@std@@QEBA?AV?$_Tree_const_iterator@V?$_Tree_val@U?$_Tree_simple_types@U?$pair@$$CBEE@std@@@std@@@std@@@2@AEBE@Z
	?find@?$_Tree@V?$_Tmap_traits@PEAXP6AXAEBV?$basic_string@DU?$char_traits@D@std@@V?$allocator@D@2@@std@@PEAX@ZU?$less@PEAX@2@V?$allocator@U?$pair@QEAXP6AXAEBV?$basic_string@DU?$char_traits@D@std@@V?$allocator@D@2@@std@@PEAX@Z@std@@@2@$0A@@std@@@std@@QEAA?AV?$_Tree_iterator@V?$_Tree_val@U?$_Tree_simple_types@U?$pair@QEAXP6AXAEBV?$basic_string@DU?$char_traits@D@std@@V?$allocator@D@2@@std@@PEAX@Z@std@@@std@@@std@@@2@AEBQEAX@Z
	?find@?$_Tree@V?$_Tmap_traits@V?$basic_string@DU?$char_traits@D@std@@V?$allocator@D@2@@std@@P6APEAVObject@GetSetGui@@AEBVSection@4@AEAVProgressInterface@4@@ZU?$less@V?$basic_string@DU?$char_traits@D@std@@V?$allocator@D@2@@std@@@2@V?$allocator@U?$pair@$$CBV?$basic_string@DU?$char_traits@D@std@@V?$allocator@D@2@@std@@P6APEAVObject@GetSetGui@@AEBVSection@4@AEAVProgressInterface@4@@Z@std@@@2@$0A@@std@@@std@@QEAA?AV?$_Tree_iterator@V?$_Tree_val@U?$_Tree_simple_types@U?$pair@$$CBV?$basic_string@DU?$char_traits@D@std@@V?$allocator@D@2@@std@@P6APEAVObject@GetSetGui@@AEBVSection@4@AEAVProgressInterface@4@@Z@std@@@std@@@std@@@2@AEBV?$basic_string@DU?$char_traits@D@std@@V?$allocator@D@2@@2@@Z
	?find@?$_Tree@V?$_Tmap_traits@V?$basic_string@DU?$char_traits@D@std@@V?$allocator@D@2@@std@@PEAVNode@GetSetInternal@@U?$less@V?$basic_string@DU?$char_traits@D@std@@V?$allocator@D@2@@std@@@2@V?$allocator@U?$pair@$$CBV?$basic_string@DU?$char_traits@D@std@@V?$allocator@D@2@@std@@PEAVNode@GetSetInternal@@@std@@@2@$0A@@std@@@std@@QEAA?AV?$_Tree_iterator@V?$_Tree_val@U?$_Tree_simple_types@U?$pair@$$CBV?$basic_string@DU?$char_traits@D@std@@V?$allocator@D@2@@std@@PEAVNode@GetSetInternal@@@std@@@std@@@std@@@2@AEBV?$basic_string@DU?$char_traits@D@std@@V?$allocator@D@2@@2@@Z
	?find@?$_Tree@V?$_Tmap_traits@V?$basic_string@DU?$char_traits@D@std@@V?$allocator@D@2@@std@@PEAVNode@GetSetInternal@@U?$less@V?$basic_string@DU?$char_traits@D@std@@V?$allocator@D@2@@std@@@2@V?$allocator@U?$pair@$$CBV?$basic_string@DU?$char_traits@D@std@@V?$allocator@D@2@@std@@PEAVNode@GetSetInternal@@@std@@@2@$0A@@std@@@std@@QEBA?AV?$_Tree_const_iterator@V?$_Tree_val@U?$_Tree_simple_types@U?$pair@$$CBV?$basic_string@DU?$char_traits@D@std@@V?$allocator@D@2@@std@@PEAVNode@GetSetInternal@@@std@@@std@@@std@@@2@AEBV?$basic_string@DU?$char_traits@D@std@@V?$allocator@D@2@@2@@Z
	?find@?$_Tree@V?$_Tmap_traits@V?$basic_string@DU?$char_traits@D@std@@V?$allocator@D@2@@std@@V12@U?$less@V?$basic_string@DU?$char_traits@D@std@@V?$allocator@D@2@@std@@@2@V?$allocator@U?$pair@$$CBV?$basic_string@DU?$char_traits@D@std@@V?$allocator@D@2@@std@@V12@@std@@@2@$0A@@std@@@std@@QEAA?AV?$_Tree_iterator@V?$_Tree_val@U?$_Tree_simple_types@U?$pair@$$CBV?$basic_string@DU?$char_traits@D@std@@V?$allocator@D@2@@std@@V12@@std@@@std@@@std@@@2@AEBV?$basic_string@DU?$char_traits@D@std@@V?$allocator@D@2@@2@@Z
	?find@?$_Tree@V?$_Tmap_traits@V?$basic_string@DU?$char_traits@D@std@@V?$allocator@D@2@@std@@V12@U?$less@V?$basic_string@DU?$char_traits@D@std@@V?$allocator@D@2@@std@@@2@V?$allocator@U?$pair@$$CBV?$basic_string@DU?$char_traits@D@std@@V?$allocator@D@2@@std@@V12@@std@@@2@$0A@@std@@@std@@QEBA?AV?$_Tree_const_iterator@V?$_Tree_val@U?$_Tree_simple_types@U?$pair@$$CBV?$basic_string@DU?$char_traits@D@std@@V?$allocator@D@2@@std@@V12@@std@@@std@@@std@@@2@AEBV?$basic_string@DU?$char_traits@D@std@@V?$allocator@D@2@@2@@Z
	?find@?$_Tree@V?$_Tset_traits@V?$basic_string@DU?$char_traits@D@std@@V?$allocator@D@2@@std@@U?$less@V?$basic_string@DU?$char_traits@D@std@@V?$allocator@D@2@@std@@@2@V?$allocator@V?$basic_string@DU?$char_traits@D@std@@V?$allocator@D@2@@std@@@2@$0A@@std@@@std@@QEAA?AV?$_Tree_const_iterator@V?$_Tree_val@U?$_Tree_simple_types@V?$basic_string@DU?$char_traits@D@std@@V?$allocator@D@2@@std@@@std@@@std@@@2@AEBV?$basic_string@DU?$char_traits@D@std@@V?$allocator@D@2@@2@@Z
	?find@?$basic_string@DU?$char_traits@D@std@@V?$allocator@D@2@@std@@QEBA_KQEBD_K@Z
	?find_first_not_of@?$basic_string@DU?$char_traits@D@std@@V?$allocator@D@2@@std@@QEBA_KAEBV12@_K@Z
	?find_first_not_of@?$basic_string@DU?$char_traits@D@std@@V?$allocator@D@2@@std@@QEBA_KQEBD_K@Z
	?find_first_of@?$basic_string@DU?$char_traits@D@std@@V?$allocator@D@2@@std@@QEBA_KD_K@Z
	?find_last_not_of@?$basic_string@DU?$char_traits@D@std@@V?$allocator@D@2@@std@@QEBA_KAEBV12@_K@Z
	?find_last_not_of@?$basic_string@DU?$char_traits@D@std@@V?$allocator@D@2@@std@@QEBA_KQEBD_K@Z
	?find_last_of@?$basic_string@DU?$char_traits@D@std@@V?$allocator@D@2@@std@@QEBA_KAEBV12@_K@Z
	?find_last_of@?$basic_string@DU?$char_traits@D@std@@V?$allocator@D@2@@std@@QEBA_KQEBD_K@Z
	?force_stop@GetSetScriptParser@@QEAAXXZ
	?front@?$basic_string@DU?$char_traits@D@std@@V?$allocator@D@2@@std@@QEAAAEADXZ
	?front@?$basic_string@DU?$char_traits@D@std@@V?$allocator@D@2@@std@@QEBAAEBDXZ
	?getAttributes@Node@GetSetInternal@@QEBAAEBV?$map@V?$basic_string@DU?$char_traits@D@std@@V?$allocator@D@2@@std@@V12@U?$less@V?$basic_string@DU?$char_traits@D@std@@V?$allocator@D@2@@std@@@2@V?$allocator@U?$pair@$$CBV?$basic_string@DU?$char_traits@D@std@@V?$allocator@D@2@@std@@V12@@std@@@2@@std@@XZ
	?getChildren@Section@GetSetInternal@@QEBAAEBV?$map@V?$basic_string@DU?$char_traits@D@std@@V?$allocator@D@2@@std@@PEAVNode@GetSetInternal@@U?$less@V?$basic_string@DU?$char_traits@D@std@@V?$allocator@D@2@@std@@@2@V?$allocator@U?$pair@$$CBV?$basic_string@DU?$char_traits@D@std@@V?$allocator@D@2@@std@@PEAVNode@GetSetInternal@@@std@@@2@@std@@XZ
	?getString@?$GetSet@V?$basic_string@DU?$char_traits@D@std@@V?$allocator@D@2@@std@@@@UEBA?AV?$basic_string@DU?$char_traits@D@std@@V?$allocator@D@2@@std@@XZ
	?getString@?$GetSet@_N@@UEBA?AV?$basic_string@DU?$char_traits@D@std@@V?$allocator@D@2@@std@@XZ
	?getString@?$Key@D@GetSetInternal@@UEBA?AV?$basic_string@DU?$char_traits@D@std@@V?$allocator@D@2@@std@@XZ
	?getString@?$Key@E@GetSetInternal@@UEBA?AV?$basic_string@DU?$char_traits@D@std@@V?$allocator@D@2@@std@@XZ
	?getString@?$Key@F@GetSetInternal@@UEBA?AV?$basic_string@DU?$char_traits@D@std@@V?$allocator@D@2@@std@@XZ
	?getString@?$Key@G@GetSetInternal@@UEBA?AV?$basic_string@DU?$char_traits@D@std@@V?$allocator@D@2@@std@@XZ
	?getString@?$Key@H@GetSetInternal@@UEBA?AV?$basic_string@DU?$char_traits@D@std@@V?$allocator@D@2@@std@@XZ
	?getString@?$Key@I@GetSetInternal@@UEBA?AV?$basic_string@DU?$char_traits@D@std@@V?$allocator@D@2@@std@@XZ
	?getString@?$Key@J@GetSetInternal@@UEBA?AV?$basic_string@DU?$char_traits@D@std@@V?$allocator@D@2@@std@@XZ
	?getString@?$Key@K@GetSetInternal@@UEBA?AV?$basic_string@DU?$char_traits@D@std@@V?$allocator@D@2@@std@@XZ
	?getString@?$Key@M@GetSetInternal@@UEBA?AV?$basic_string@DU?$char_traits@D@std@@V?$allocator@D@2@@std@@XZ
	?getString@?$Key@N@GetSetInternal@@UEBA?AV?$basic_string@DU?$char_traits@D@std@@V?$allocator@D@2@@std@@XZ
	?getString@?$Key@V?$basic_string@DU?$char_traits@D@std@@V?$allocator@D@2@@std@@@GetSetInternal@@UEBA?AV?$basic_string@DU?$char_traits@D@std@@V?$allocator@D@2@@std@@XZ
	?getString@?$Key@V?$vector@DV?$allocator@D@std@@@std@@@GetSetInternal@@UEBA?AV?$basic_string@DU?$char_traits@D@std@@V?$allocator@D@2@@std@@XZ
	?getString@?$Key@V?$vector@EV?$allocator@E@std@@@std@@@GetSetInternal@@UEBA?AV?$basic_string@DU?$char_traits@D@std@@V?$allocator@D@2@@std@@XZ
	?getString@?$Key@V?$vector@FV?$allocator@F@std@@@std@@@GetSetInternal@@UEBA?AV?$basic_string@DU?$char_traits@D@std@@V?$allocator@D@2@@std@@XZ
	?getString@?$Key@V?$vector@GV?$allocator@G@std@@@std@@@GetSetInternal@@UEBA?AV?$basic_string@DU?$char_traits@D@std@@V?$allocator@D@2@@std@@XZ
	?getString@?$Key@V?$vector@HV?$allocator@H@std@@@std@@@GetSetInternal@@UEBA?AV?$basic_string@DU?$char_traits@D@std@@V?$allocator@D@2@@std@@XZ
	?getString@?$Key@V?$vector@IV?$allocator@I@std@@@std@@@GetSetInternal@@UEBA?AV?$basic_string@DU?$char_traits@D@std@@V?$allocator@D@2@@std@@XZ
	?getString@?$Key@V?$vector@JV?$allocator@J@std@@@std@@@GetSetInternal@@UEBA?AV?$basic_string@DU?$char_traits@D@std@@V?$allocator@D@2@@std@@XZ
	?getString@?$Key@V?$vector@KV?$allocator@K@std@@@std@@@GetSetInternal@@UEBA?AV?$basic_string@DU?$char_traits@D@std@@V?$allocator@D@2@@std@@XZ
	?getString@?$Key@V?$vector@MV?$allocator@M@std@@@std@@@GetSetInternal@@UEBA?AV?$basic_string@DU?$char_traits@D@std@@V?$allocator@D@2@@std@@XZ
	?getString@?$Key@V?$vector@NV?$allocator@N@std@@@std@@@GetSetInternal@@UEBA?AV?$basic_string@DU?$char_traits@D@std@@V?$allocator@D@2@@std@@XZ
	?getString@?$Key@V?$vector@V?$basic_string@DU?$char_traits@D@std@@V?$allocator@D@2@@std@@V?$allocator@V?$basic_string@DU?$char_traits@D@std@@V?$allocator@D@2@@std@@@2@@std@@@GetSetInternal@@UEBA?AV?$basic_string@DU?$char_traits@D@std@@V?$allocator@D@2@@std@@XZ
	?getString@?$Key@V?$vector@_NV?$allocator@_N@std@@@std@@@GetSetInternal@@UEBA?AV?$basic_string@DU?$char_traits@D@std@@V?$allocator@D@2@@std@@XZ
	?getString@?$Key@_N@GetSetInternal@@UEBA?AV?$basic_string@DU?$char_traits@D@std@@V?$allocator@D@2@@std@@XZ
	?getString@KeyEnum@GetSetInternal@@UEBA?AV?$basic_string@DU?$char_traits@D@std@@V?$allocator@D@2@@std@@XZ
	?getString@Section@GetSetInternal@@UEBA?AV?$basic_string@DU?$char_traits@D@std@@V?$allocator@D@2@@std@@XZ
	?getType@?$Key@D@GetSetInternal@@UEBA?AV?$basic_string@DU?$char_traits@D@std@@V?$allocator@D@2@@std@@XZ
	?getType@?$Key@E@GetSetInternal@@UEBA?AV?$basic_string@DU?$char_traits@D@std@@V?$allocator@D@2@@std@@XZ
	?getType@?$Key@F@GetSetInternal@@UEBA?AV?$basic_string@DU?$char_traits@D@std@@V?$allocator@D@2@@std@@XZ
	?getType@?$Key@G@GetSetInternal@@UEBA?AV?$basic_string@DU?$char_traits@D@std@@V?$allocator@D@2@@std@@XZ
	?getType@?$Key@H@GetSetInternal@@UEBA?AV?$basic_string@DU?$char_traits@D@std@@V?$allocator@D@2@@std@@XZ
	?getType@?$Key@I@GetSetInternal@@UEBA?AV?$basic_string@DU?$char_traits@D@std@@V?$allocator@D@2@@std@@XZ
	?getType@?$Key@J@GetSetInternal@@UEBA?AV?$basic_string@DU?$char_traits@D@std@@V?$allocator@D@2@@std@@XZ
	?getType@?$Key@K@GetSetInternal@@UEBA?AV?$basic_string@DU?$char_traits@D@std@@V?$allocator@D@2@@std@@XZ
	?getType@?$Key@M@GetSetInternal@@UEBA?AV?$basic_string@DU?$char_traits@D@std@@V?$allocator@D@2@@std@@XZ
	?getType@?$Key@N@GetSetInternal@@UEBA?AV?$basic_string@DU?$char_traits@D@std@@V?$allocator@D@2@@std@@XZ
	?getType@?$Key@V?$basic_string@DU?$char_traits@D@std@@V?$allocator@D@2@@std@@@GetSetInternal@@UEBA?AV?$basic_string@DU?$char_traits@D@std@@V?$allocator@D@2@@std@@XZ
	?getType@?$Key@V?$vector@DV?$allocator@D@std@@@std@@@GetSetInternal@@UEBA?AV?$basic_string@DU?$char_traits@D@std@@V?$allocator@D@2@@std@@XZ
	?getType@?$Key@V?$vector@EV?$allocator@E@std@@@std@@@GetSetInternal@@UEBA?AV?$basic_string@DU?$char_traits@D@std@@V?$allocator@D@2@@std@@XZ
	?getType@?$Key@V?$vector@FV?$allocator@F@std@@@std@@@GetSetInternal@@UEBA?AV?$basic_string@DU?$char_traits@D@std@@V?$allocator@D@2@@std@@XZ
	?getType@?$Key@V?$vector@GV?$allocator@G@std@@@std@@@GetSetInternal@@UEBA?AV?$basic_string@DU?$char_traits@D@std@@V?$allocator@D@2@@std@@XZ
	?getType@?$Key@V?$vector@HV?$allocator@H@std@@@std@@@GetSetInternal@@UEBA?AV?$basic_string@DU?$char_traits@D@std@@V?$allocator@D@2@@std@@XZ
	?getType@?$Key@V?$vector@IV?$allocator@I@std@@@std@@@GetSetInternal@@UEBA?AV?$basic_string@DU?$char_traits@D@std@@V?$allocator@D@2@@std@@XZ
	?getType@?$Key@V?$vector@JV?$allocator@J@std@@@std@@@GetSetInternal@@UEBA?AV?$basic_string@DU?$char_traits@D@std@@V?$allocator@D@2@@std@@XZ
	?getType@?$Key@V?$vector@KV?$allocator@K@std@@@std@@@GetSetInternal@@UEBA?AV?$basic_string@DU?$char_traits@D@std@@V?$allocator@D@2@@std@@XZ
	?getType@?$Key@V?$vector@MV?$allocator@M@std@@@std@@@GetSetInternal@@UEBA?AV?$basic_string@DU?$char_traits@D@std@@V?$allocator@D@2@@std@@XZ
	?getType@?$Key@V?$vector@NV?$allocator@N@std@@@std@@@GetSetInternal@@UEBA?AV?$basic_string@DU?$char_traits@D@std@@V?$allocator@D@2@@std@@XZ
	?getType@?$Key@V?$vector@V?$basic_string@DU?$char_traits@D@std@@V?$allocator@D@2@@std@@V?$allocator@V?$basic_string@DU?$char_traits@D@std@@V?$allocator@D@2@@std@@@2@@std@@@GetSetInternal@@UEBA?AV?$basic_string@DU?$char_traits@D@std@@V?$allocator@D@2@@std@@XZ
	?getType@?$Key@V?$vector@_NV?$allocator@_N@std@@@std@@@GetSetInternal@@UEBA?AV?$basic_string@DU?$char_traits@D@std@@V?$allocator@D@2@@std@@XZ
	?getType@?$Key@_N@GetSetInternal@@UEBA?AV?$basic_string@DU?$char_traits@D@std@@V?$allocator@D@2@@std@@XZ
	?getType@KeyButton@GetSetInternal@@UEBA?AV?$basic_string@DU?$char_traits@D@std@@V?$allocator@D@2@@std@@XZ
	?getType@KeyDirectory@GetSetInternal@@UEBA?AV?$basic_string@DU?$char_traits@D@std@@V?$allocator@D@2@@std@@XZ
	?getType@KeyEnum@GetSetInternal@@UEBA?AV?$basic_string@DU?$char_traits@D@std@@V?$allocator@D@2@@std@@XZ
	?getType@KeyFile@GetSetInternal@@UEBA?AV?$basic_string@DU?$char_traits@D@std@@V?$allocator@D@2@@std@@XZ
	?getType@KeyRangedDouble@GetSetInternal@@UEBA?AV?$basic_string@DU?$char_traits@D@std@@V?$allocator@D@2@@std@@XZ
	?getType@KeyReadOnlyText@GetSetInternal@@UEBA?AV?$basic_string@DU?$char_traits@D@std@@V?$allocator@D@2@@std@@XZ
	?getType@KeySlider@GetSetInternal@@UEBA?AV?$basic_string@DU?$char_traits@D@std@@V?$allocator@D@2@@std@@XZ
	?getType@KeyStaticText@GetSetInternal@@UEBA?AV?$basic_string@DU?$char_traits@D@std@@V?$allocator@D@2@@std@@XZ
	?getType@Section@GetSetInternal@@UEBA?AV?$basic_string@DU?$char_traits@D@std@@V?$allocator@D@2@@std@@XZ
	?getValue@?$GetSet@V?$basic_string@DU?$char_traits@D@std@@V?$allocator@D@2@@std@@@@QEBA?AV?$basic_string@DU?$char_traits@D@std@@V?$allocator@D@2@@std@@XZ
	?getValue@?$GetSet@_N@@QEBA_NXZ
	?getValue@?$Key@D@GetSetInternal@@UEBAAEBDXZ
	?getValue@?$Key@E@GetSetInternal@@UEBAAEBEXZ
	?getValue@?$Key@F@GetSetInternal@@UEBAAEBFXZ
	?getValue@?$Key@G@GetSetInternal@@UEBAAEBGXZ
	?getValue@?$Key@H@GetSetInternal@@UEBAAEBHXZ
	?getValue@?$Key@I@GetSetInternal@@UEBAAEBIXZ
	?getValue@?$Key@J@GetSetInternal@@UEBAAEBJXZ
	?getValue@?$Key@K@GetSetInternal@@UEBAAEBKXZ
	?getValue@?$Key@M@GetSetInternal@@UEBAAEBMXZ
	?getValue@?$Key@N@GetSetInternal@@UEBAAEBNXZ
	?getValue@?$Key@V?$basic_string@DU?$char_traits@D@std@@V?$allocator@D@2@@std@@@GetSetInternal@@UEBAAEBV?$basic_string@DU?$char_traits@D@std@@V?$allocator@D@2@@std@@XZ
	?getValue@?$Key@V?$vector@DV?$allocator@D@std@@@std@@@GetSetInternal@@UEBAAEBV?$vector@DV?$allocator@D@std@@@std@@XZ
	?getValue@?$Key@V?$vector@EV?$allocator@E@std@@@std@@@GetSetInternal@@UEBAAEBV?$vector@EV?$allocator@E@std@@@std@@XZ
	?getValue@?$Key@V?$vector@FV?$allocator@F@std@@@std@@@GetSetInternal@@UEBAAEBV?$vector@FV?$allocator@F@std@@@std@@XZ
	?getValue@?$Key@V?$vector@GV?$allocator@G@std@@@std@@@GetSetInternal@@UEBAAEBV?$vector@GV?$allocator@G@std@@@std@@XZ
	?getValue@?$Key@V?$vector@HV?$allocator@H@std@@@std@@@GetSetInternal@@UEBAAEBV?$vector@HV?$allocator@H@std@@@std@@XZ
	?getValue@?$Key@V?$vector@IV?$allocator@I@std@@@std@@@GetSetInternal@@UEBAAEBV?$vector@IV?$allocator@I@std@@@std@@XZ
	?getValue@?$Key@V?$vector@JV?$allocator@J@std@@@std@@@GetSetInternal@@UEBAAEBV?$vector@JV?$allocator@J@std@@@std@@XZ
	?getValue@?$Key@V?$vector@KV?$allocator@K@std@@@std@@@GetSetInternal@@UEBAAEBV?$vector@KV?$allocator@K@std@@@std@@XZ
	?getValue@?$Key@V?$vector@MV?$allocator@M@std@@@std@@@GetSetInternal@@UEBAAEBV?$vector@MV?$allocator@M@std@@@std@@XZ
	?getValue@?$Key@V?$vector@NV?$allocator@N@std@@@std@@@GetSetInternal@@UEBAAEBV?$vector@NV?$allocator@N@std@@@std@@XZ
	?getValue@?$Key@V?$vector@V?$basic_string@DU?$char_traits@D@std@@V?$allocator@D@2@@std@@V?$allocator@V?$basic_string@DU?$char_traits@D@std@@V?$allocator@D@2@@std@@@2@@std@@@GetSetInternal@@UEBAAEBV?$vector@V?$basic_string@DU?$char_traits@D@std@@V?$allocator@D@2@@std@@V?$allocator@V?$basic_string@DU?$char_traits@D@std@@V?$allocator@D@2@@std@@@2@@std@@XZ
	?getValue@?$Key@V?$vector@_NV?$allocator@_N@std@@@std@@@GetSetInternal@@UEBAAEBV?$vector@_NV?$allocator@_N@std@@@std@@XZ
	?getValue@?$Key@_N@GetSetInternal@@UEBAAEB_NXZ
	?get_allocator@?$basic_string@DU?$char_traits@D@std@@V?$allocator@D@2@@std@@QEBA?AV?$allocator@D@2@XZ
	?get_block@GetSetScriptParser@@QEAA?AV?$basic_string@DU?$char_traits@D@std@@V?$allocator@D@2@@std@@AEAV?$basic_istream@DU?$char_traits@D@std@@@3@AEBV23@@Z
	?get_token_string@GetSetScriptParser@@IEAA_NAEAV?$basic_istream@DU?$char_traits@D@std@@@std@@AEAV?$basic_string@DU?$char_traits@D@std@@V?$allocator@D@2@@3@@Z
	?global@Dictionary@GetSetInternal@@SAAEAV12@XZ
	?global@GetSetScriptParser@@SAAEAV1@XZ
	?good@GetSetScriptParser@@QEBA_NXZ
	?gui_ignore_notify@Object@GetSetGui@@UEBAX_N@Z
	?gui_init@Object@GetSetGui@@UEAAXXZ
	?gui_notify@Object@GetSetGui@@UEAAXAEBV?$basic_string@DU?$char_traits@D@std@@V?$allocator@D@2@@std@@AEBVNode@GetSetInternal@@@Z
	?gui_section@Object@GetSetGui@@QEBA?AVSection@2@XZ
	?hasPrefix@@YA_NAEBV?$basic_string@DU?$char_traits@D@std@@V?$allocator@D@2@@std@@0@Z
	?ignoreNotifications@GetSetHandler@@QEAAX_N@Z
	?imbue@?$basic_filebuf@DU?$char_traits@D@std@@@std@@MEAAXAEBVlocale@2@@Z
	?info@ProgressInterface@GetSetGui@@UEAAXAEBV?$basic_string@DU?$char_traits@D@std@@V?$allocator@D@2@@std@@0_N@Z
	?input@GetSetScriptParser@@IEAA?AV?$basic_string@DU?$char_traits@D@std@@V?$allocator@D@2@@std@@XZ
	?insert@?$basic_string@DU?$char_traits@D@std@@V?$allocator@D@2@@std@@QEAAAEAV12@_KAEBV12@@Z
	?insert@?$basic_string@DU?$char_traits@D@std@@V?$allocator@D@2@@std@@QEAAAEAV12@_KQEBD@Z
	?insert@?$vector@_NV?$allocator@_N@std@@@std@@QEAA?AV?$_Vb_iterator@U?$_Wrap_alloc@V?$allocator@I@std@@@std@@@2@V?$_Vb_const_iterator@U?$_Wrap_alloc@V?$allocator@I@std@@@std@@@2@AEB_N@Z
	?insertNode@Section@GetSetInternal@@QEAAXAEAVNode@2@@Z
	?is_open@?$basic_filebuf@DU?$char_traits@D@std@@@std@@QEBA_NXZ
	?is_open@?$basic_ifstream@DU?$char_traits@D@std@@@std@@QEBA_NXZ
	?key_comp@?$_Tree@V?$_Tmap_traits@V?$basic_string@DU?$char_traits@D@std@@V?$allocator@D@2@@std@@V12@U?$less@V?$basic_string@DU?$char_traits@D@std@@V?$allocator@D@2@@std@@@2@V?$allocator@U?$pair@$$CBV?$basic_string@DU?$char_traits@D@std@@V?$allocator@D@2@@std@@V12@@std@@@2@$0A@@std@@@std@@QEBA?AU?$less@V?$basic_string@DU?$char_traits@D@std@@V?$allocator@D@2@@std@@@2@XZ
	?key_comp@?$_Tree@V?$_Tset_traits@V?$basic_string@DU?$char_traits@D@std@@V?$allocator@D@2@@std@@U?$less@V?$basic_string@DU?$char_traits@D@std@@V?$allocator@D@2@@std@@@2@V?$allocator@V?$basic_string@DU?$char_traits@D@std@@V?$allocator@D@2@@std@@@2@$0A@@std@@@std@@QEBA?AU?$less@V?$basic_string@DU?$char_traits@D@std@@V?$allocator@D@2@@std@@@2@XZ
	?length@?$_Narrow_char_traits@DH@std@@SA_KQEBD@Z
	?length@?$basic_string@DU?$char_traits@D@std@@V?$allocator@D@2@@std@@QEBA_KXZ
	?loadStream@IniFile@GetSetIO@@UEAAAEAUInputOutput@2@AEAV?$basic_istream@DU?$char_traits@D@std@@@std@@@Z
	?loadStream@SingleLine@GetSetIO@@UEAAAEAUInputOutput@2@AEAV?$basic_istream@DU?$char_traits@D@std@@@std@@@Z
	?loadStream@TxtDetailed@GetSetIO@@UEAAAEAUInputOutput@2@AEAV?$basic_istream@DU?$char_traits@D@std@@@std@@@Z
	?loadStream@TxtKeyValue@GetSetIO@@UEAAAEAUInputOutput@2@AEAV?$basic_istream@DU?$char_traits@D@std@@@std@@@Z
	?location@GetSetScriptParser@@SA?AU?$pair@HV?$basic_string@DU?$char_traits@D@std@@V?$allocator@D@2@@std@@@std@@AEAV?$basic_istream@DU?$char_traits@D@std@@@3@@Z
	?ltrim@@YAXAEAV?$basic_string@DU?$char_traits@D@std@@V?$allocator@D@2@@std@@AEBV12@@Z
	?max_size@?$_Default_allocator_traits@V?$allocator@D@std@@@std@@SA_KAEBV?$allocator@D@2@@Z
	?max_size@?$_Default_allocator_traits@V?$allocator@E@std@@@std@@SA_KAEBV?$allocator@E@2@@Z
	?max_size@?$_Default_allocator_traits@V?$allocator@F@std@@@std@@SA_KAEBV?$allocator@F@2@@Z
	?max_size@?$_Default_allocator_traits@V?$allocator@G@std@@@std@@SA_KAEBV?$allocator@G@2@@Z
	?max_size@?$_Default_allocator_traits@V?$allocator@H@std@@@std@@SA_KAEBV?$allocator@H@2@@Z
	?max_size@?$_Default_allocator_traits@V?$allocator@I@std@@@std@@SA_KAEBV?$allocator@I@2@@Z
	?max_size@?$_Default_allocator_traits@V?$allocator@J@std@@@std@@SA_KAEBV?$allocator@J@2@@Z
	?max_size@?$_Default_allocator_traits@V?$allocator@K@std@@@std@@SA_KAEBV?$allocator@K@2@@Z
	?max_size@?$_Default_allocator_traits@V?$allocator@M@std@@@std@@SA_KAEBV?$allocator@M@2@@Z
	?max_size@?$_Default_allocator_traits@V?$allocator@N@std@@@std@@SA_KAEBV?$allocator@N@2@@Z
	?max_size@?$_Default_allocator_traits@V?$allocator@U?$_Tree_node@PEAUObserver@Dictionary@GetSetInternal@@PEAX@std@@@std@@@std@@SA_KAEBV?$allocator@U?$_Tree_node@PEAUObserver@Dictionary@GetSetInternal@@PEAX@std@@@2@@Z
	?max_size@?$_Default_allocator_traits@V?$allocator@U?$_Tree_node@U?$pair@$$CBEE@std@@PEAX@std@@@std@@@std@@SA_KAEBV?$allocator@U?$_Tree_node@U?$pair@$$CBEE@std@@PEAX@std@@@2@@Z
	?max_size@?$_Default_allocator_traits@V?$allocator@U?$_Tree_node@U?$pair@$$CBV?$basic_string@DU?$char_traits@D@std@@V?$allocator@D@2@@std@@P6APEAVObject@GetSetGui@@AEBVSection@4@AEAVProgressInterface@4@@Z@std@@PEAX@std@@@std@@@std@@SA_KAEBV?$allocator@U?$_Tree_node@U?$pair@$$CBV?$basic_string@DU?$char_traits@D@std@@V?$allocator@D@2@@std@@P6APEAVObject@GetSetGui@@AEBVSection@4@AEAVProgressInterface@4@@Z@std@@PEAX@std@@@2@@Z
	?max_size@?$_Default_allocator_traits@V?$allocator@U?$_Tree_node@U?$pair@$$CBV?$basic_string@DU?$char_traits@D@std@@V?$allocator@D@2@@std@@PEAVNode@GetSetInternal@@@std@@PEAX@std@@@std@@@std@@SA_KAEBV?$allocator@U?$_Tree_node@U?$pair@$$CBV?$basic_string@DU?$char_traits@D@std@@V?$allocator@D@2@@std@@PEAVNode@GetSetInternal@@@std@@PEAX@std@@@2@@Z
	?max_size@?$_Default_allocator_traits@V?$allocator@U?$_Tree_node@U?$pair@$$CBV?$basic_string@DU?$char_traits@D@std@@V?$allocator@D@2@@std@@V12@@std@@PEAX@std@@@std@@@std@@SA_KAEBV?$allocator@U?$_Tree_node@U?$pair@$$CBV?$basic_string@DU?$char_traits@D@std@@V?$allocator@D@2@@std@@V12@@std@@PEAX@std@@@2@@Z
	?max_size@?$_Default_allocator_traits@V?$allocator@U?$_Tree_node@U?$pair@$$CBV?$basic_string@DU?$char_traits@D@std@@V?$allocator@D@2@@std@@V?$map@V?$basic_string@DU?$char_traits@D@std@@V?$allocator@D@2@@std@@V12@U?$less@V?$basic_string@DU?$char_traits@D@std@@V?$allocator@D@2@@std@@@2@V?$allocator@U?$pair@$$CBV?$basic_string@DU?$char_traits@D@std@@V?$allocator@D@2@@std@@V12@@std@@@2@@2@@std@@PEAX@std@@@std@@@std@@SA_KAEBV?$allocator@U?$_Tree_node@U?$pair@$$CBV?$basic_string@DU?$char_traits@D@std@@V?$allocator@D@2@@std@@V?$map@V?$basic_string@DU?$char_traits@D@std@@V?$allocator@D@2@@std@@V12@U?$less@V?$basic_string@DU?$char_traits@D@std@@V?$allocator@D@2@@std@@@2@V?$allocator@U?$pair@$$CBV?$basic_string@DU?$char_traits@D@std@@V?$allocator@D@2@@std@@V12@@std@@@2@@2@@std@@PEAX@std@@@2@@Z
	?max_size@?$_Default_allocator_traits@V?$allocator@U?$_Tree_node@U?$pair@QEAXP6AXAEBV?$basic_string@DU?$char_traits@D@std@@V?$allocator@D@2@@std@@PEAX@Z@std@@PEAX@std@@@std@@@std@@SA_KAEBV?$allocator@U?$_Tree_node@U?$pair@QEAXP6AXAEBV?$basic_string@DU?$char_traits@D@std@@V?$allocator@D@2@@std@@PEAX@Z@std@@PEAX@std@@@2@@Z
	?max_size@?$_Default_allocator_traits@V?$allocator@U?$_Tree_node@V?$basic_string@DU?$char_traits@D@std@@V?$allocator@D@2@@std@@PEAX@std@@@std@@@std@@SA_KAEBV?$allocator@U?$_Tree_node@V?$basic_string@DU?$char_traits@D@std@@V?$allocator@D@2@@std@@PEAX@std@@@2@@Z
	?max_size@?$_Default_allocator_traits@V?$allocator@V?$basic_string@DU?$char_traits@D@std@@V?$allocator@D@2@@std@@@std@@@std@@SA_KAEBV?$allocator@V?$basic_string@DU?$char_traits@D@std@@V?$allocator@D@2@@std@@@2@@Z
	?max_size@?$_Tree@V?$_Tmap_traits@EEU?$less@E@std@@V?$allocator@U?$pair@$$CBEE@std@@@2@$0A@@std@@@std@@QEBA_KXZ
	?max_size@?$_Tree@V?$_Tmap_traits@PEAXP6AXAEBV?$basic_string@DU?$char_traits@D@std@@V?$allocator@D@2@@std@@PEAX@ZU?$less@PEAX@2@V?$allocator@U?$pair@QEAXP6AXAEBV?$basic_string@DU?$char_traits@D@std@@V?$allocator@D@2@@std@@PEAX@Z@std@@@2@$0A@@std@@@std@@QEBA_KXZ
	?max_size@?$_Tree@V?$_Tmap_traits@V?$basic_string@DU?$char_traits@D@std@@V?$allocator@D@2@@std@@P6APEAVObject@GetSetGui@@AEBVSection@4@AEAVProgressInterface@4@@ZU?$less@V?$basic_string@DU?$char_traits@D@std@@V?$allocator@D@2@@std@@@2@V?$allocator@U?$pair@$$CBV?$basic_string@DU?$char_traits@D@std@@V?$allocator@D@2@@std@@P6APEAVObject@GetSetGui@@AEBVSection@4@AEAVProgressInterface@4@@Z@std@@@2@$0A@@std@@@std@@QEBA_KXZ
	?max_size@?$_Tree@V?$_Tmap_traits@V?$basic_string@DU?$char_traits@D@std@@V?$allocator@D@2@@std@@PEAVNode@GetSetInternal@@U?$less@V?$basic_string@DU?$char_traits@D@std@@V?$allocator@D@2@@std@@@2@V?$allocator@U?$pair@$$CBV?$basic_string@DU?$char_traits@D@std@@V?$allocator@D@2@@std@@PEAVNode@GetSetInternal@@@std@@@2@$0A@@std@@@std@@QEBA_KXZ
	?max_size@?$_Tree@V?$_Tmap_traits@V?$basic_string@DU?$char_traits@D@std@@V?$allocator@D@2@@std@@V12@U?$less@V?$basic_string@DU?$char_traits@D@std@@V?$allocator@D@2@@std@@@2@V?$allocator@U?$pair@$$CBV?$basic_string@DU?$char_traits@D@std@@V?$allocator@D@2@@std@@V12@@std@@@2@$0A@@std@@@std@@QEBA_KXZ
	?max_size@?$_Tree@V?$_Tmap_traits@V?$basic_string@DU?$char_traits@D@std@@V?$allocator@D@2@@std@@V?$map@V?$basic_string@DU?$char_traits@D@std@@V?$allocator@D@2@@std@@V12@U?$less@V?$basic_string@DU?$char_traits@D@std@@V?$allocator@D@2@@std@@@2@V?$allocator@U?$pair@$$CBV?$basic_string@DU?$char_traits@D@std@@V?$allocator@D@2@@std@@V12@@std@@@2@@2@U?$less@V?$basic_string@DU?$char_traits@D@std@@V?$allocator@D@2@@std@@@2@V?$allocator@U?$pair@$$CBV?$basic_string@DU?$char_traits@D@std@@V?$allocator@D@2@@std@@V?$map@V?$basic_string@DU?$char_traits@D@std@@V?$allocator@D@2@@std@@V12@U?$less@V?$basic_string@DU?$char_traits@D@std@@V?$allocator@D@2@@std@@@2@V?$allocator@U?$pair@$$CBV?$basic_string@DU?$char_traits@D@std@@V?$allocator@D@2@@std@@V12@@std@@@2@@2@@std@@@2@$0A@@std@@@std@@QEBA_KXZ
	?max_size@?$_Tree@V?$_Tset_traits@PEAUObserver@Dictionary@GetSetInternal@@U?$less@PEAUObserver@Dictionary@GetSetInternal@@@std@@V?$allocator@PEAUObserver@Dictionary@GetSetInternal@@@5@$0A@@std@@@std@@QEBA_KXZ
	?max_size@?$_Tree@V?$_Tset_traits@V?$basic_string@DU?$char_traits@D@std@@V?$allocator@D@2@@std@@U?$less@V?$basic_string@DU?$char_traits@D@std@@V?$allocator@D@2@@std@@@2@V?$allocator@V?$basic_string@DU?$char_traits@D@std@@V?$allocator@D@2@@std@@@2@$0A@@std@@@std@@QEBA_KXZ
	?max_size@?$basic_string@DU?$char_traits@D@std@@V?$allocator@D@2@@std@@QEBA_KXZ
	?max_size@?$vector@DV?$allocator@D@std@@@std@@QEBA_KXZ
	?max_size@?$vector@EV?$allocator@E@std@@@std@@QEBA_KXZ
	?max_size@?$vector@FV?$allocator@F@std@@@std@@QEBA_KXZ
	?max_size@?$vector@GV?$allocator@G@std@@@std@@QEBA_KXZ
	?max_size@?$vector@HV?$allocator@H@std@@@std@@QEBA_KXZ
	?max_size@?$vector@IV?$allocator@I@std@@@std@@QEBA_KXZ
	?max_size@?$vector@JV?$allocator@J@std@@@std@@QEBA_KXZ
	?max_size@?$vector@KV?$allocator@K@std@@@std@@QEBA_KXZ
	?max_size@?$vector@MV?$allocator@M@std@@@std@@QEBA_KXZ
	?max_size@?$vector@NV?$allocator@N@std@@@std@@QEBA_KXZ
	?max_size@?$vector@V?$basic_string@DU?$char_traits@D@std@@V?$allocator@D@2@@std@@V?$allocator@V?$basic_string@DU?$char_traits@D@std@@V?$allocator@D@2@@std@@@2@@std@@QEBA_KXZ
	?max_size@?$vector@_NV?$allocator@_N@std@@@std@@QEBA_KXZ
	?move@?$_Char_traits@DH@std@@SAPEADQEADQEBD_K@Z
	?nodeAt@Section@GetSetInternal@@IEBAPEAVNode@2@AEBV?$vector@V?$basic_string@DU?$char_traits@D@std@@V?$allocator@D@2@@std@@V?$allocator@V?$basic_string@DU?$char_traits@D@std@@V?$allocator@D@2@@std@@@2@@std@@H@Z
	?nodeAt@Section@GetSetInternal@@QEBAPEAVNode@2@AEBV?$basic_string@DU?$char_traits@D@std@@V?$allocator@D@2@@std@@@Z
	?not_eof@?$_Narrow_char_traits@DH@std@@SAHH@Z
	?notify@GetSetHandler@@MEAAXAEBVNode@GetSetInternal@@W4Signal@Dictionary@3@@Z
	?notify@GetSetScriptParser@@UEAAXAEBVNode@GetSetInternal@@W4Signal@Dictionary@3@@Z
	?notify@Object@GetSetGui@@EEAAXAEBVNode@GetSetInternal@@W4Signal@Dictionary@4@@Z
	?open@?$basic_filebuf@DU?$char_traits@D@std@@@std@@QEAAPEAV12@PEBDHH@Z
	?open@?$basic_ofstream@DU?$char_traits@D@std@@@std@@QEAAXAEBV?$basic_string@DU?$char_traits@D@std@@V?$allocator@D@2@@2@HH@Z
	?open@?$basic_ofstream@DU?$char_traits@D@std@@@std@@QEAAXPEBDHH@Z
	?overflow@?$basic_filebuf@DU?$char_traits@D@std@@@std@@MEAAHH@Z
	?overflow@?$basic_stringbuf@DU?$char_traits@D@std@@V?$allocator@D@2@@std@@MEAAHH@Z
	?parse@GetSetScriptParser@@QEAA_NAEBV?$basic_string@DU?$char_traits@D@std@@V?$allocator@D@2@@std@@0PEAVProgressInterface@GetSetGui@@@Z
	?parse_call@GetSetScriptParser@@IEAAXAEAV?$basic_istream@DU?$char_traits@D@std@@@std@@@Z
	?parse_commands@GetSetScriptParser@@IEAAXAEBV?$basic_string@DU?$char_traits@D@std@@V?$allocator@D@2@@std@@0PEAVProgressInterface@GetSetGui@@@Z
	?parse_concat@GetSetScriptParser@@IEAAXAEAV?$basic_istream@DU?$char_traits@D@std@@@std@@@Z
	?parse_define@GetSetScriptParser@@IEAAXAEAV?$basic_istream@DU?$char_traits@D@std@@@std@@@Z
	?parse_discard@GetSetScriptParser@@IEAAXAEAV?$basic_istream@DU?$char_traits@D@std@@@std@@@Z
	?parse_error@GetSetScriptParser@@IEAAXAEBV?$basic_string@DU?$char_traits@D@std@@V?$allocator@D@2@@std@@0@Z
	?parse_eval@GetSetScriptParser@@IEAAXAEAV?$basic_istream@DU?$char_traits@D@std@@@std@@@Z
	?parse_exit@GetSetScriptParser@@IEAAXAEAV?$basic_istream@DU?$char_traits@D@std@@@std@@@Z
	?parse_file@GetSetScriptParser@@IEAAXAEAV?$basic_istream@DU?$char_traits@D@std@@@std@@@Z
	?parse_for@GetSetScriptParser@@IEAAXAEAV?$basic_istream@DU?$char_traits@D@std@@@std@@@Z
	?parse_help@GetSetScriptParser@@IEAAXAEAV?$basic_istream@DU?$char_traits@D@std@@@std@@@Z
	?parse_if@GetSetScriptParser@@IEAAXAEAV?$basic_istream@DU?$char_traits@D@std@@@std@@@Z
	?parse_input@GetSetScriptParser@@IEAAXAEAV?$basic_istream@DU?$char_traits@D@std@@@std@@@Z
	?parse_on@GetSetScriptParser@@IEAAXAEAV?$basic_istream@DU?$char_traits@D@std@@@std@@@Z
	?parse_print@GetSetScriptParser@@IEAAXAEAV?$basic_istream@DU?$char_traits@D@std@@@std@@@Z
	?parse_set@GetSetScriptParser@@IEAAXAEAV?$basic_istream@DU?$char_traits@D@std@@@std@@@Z
	?parse_while@GetSetScriptParser@@IEAAXAEAV?$basic_istream@DU?$char_traits@D@std@@@std@@@Z
	?parse_who@GetSetScriptParser@@IEAAXAEAV?$basic_istream@DU?$char_traits@D@std@@@std@@@Z
	?parse_with@GetSetScriptParser@@IEAAXAEAV?$basic_istream@DU?$char_traits@D@std@@@std@@@Z
	?path@Node@GetSetInternal@@QEBA?AV?$basic_string@DU?$char_traits@D@std@@V?$allocator@D@2@@std@@XZ
	?pbackfail@?$basic_filebuf@DU?$char_traits@D@std@@@std@@MEAAHH@Z
	?pbackfail@?$basic_stringbuf@DU?$char_traits@D@std@@V?$allocator@D@2@@std@@MEAAHH@Z
	?pointer_to@?$pointer_traits@PEAD@std@@SAPEADAEAD@Z
	?pointer_to@?$pointer_traits@PEAU?$pair@$$CBV?$basic_string@DU?$char_traits@D@std@@V?$allocator@D@2@@std@@P6APEAVObject@GetSetGui@@AEBVSection@4@AEAVProgressInterface@4@@Z@std@@@std@@SAPEAU?$pair@$$CBV?$basic_string@DU?$char_traits@D@std@@V?$allocator@D@2@@std@@P6APEAVObject@GetSetGui@@AEBVSection@4@AEAVProgressInterface@4@@Z@2@AEAU32@@Z
	?pointer_to@?$pointer_traits@PEAU?$pair@$$CBV?$basic_string@DU?$char_traits@D@std@@V?$allocator@D@2@@std@@PEAVNode@GetSetInternal@@@std@@@std@@SAPEAU?$pair@$$CBV?$basic_string@DU?$char_traits@D@std@@V?$allocator@D@2@@std@@PEAVNode@GetSetInternal@@@2@AEAU32@@Z
	?pointer_to@?$pointer_traits@PEAU?$pair@$$CBV?$basic_string@DU?$char_traits@D@std@@V?$allocator@D@2@@std@@V12@@std@@@std@@SAPEAU?$pair@$$CBV?$basic_string@DU?$char_traits@D@std@@V?$allocator@D@2@@std@@V12@@2@AEAU32@@Z
	?pointer_to@?$pointer_traits@PEAU?$pair@QEAXP6AXAEBV?$basic_string@DU?$char_traits@D@std@@V?$allocator@D@2@@std@@PEAX@Z@std@@@std@@SAPEAU?$pair@QEAXP6AXAEBV?$basic_string@DU?$char_traits@D@std@@V?$allocator@D@2@@std@@PEAX@Z@2@AEAU32@@Z
	?pointer_to@?$pointer_traits@PEBU?$pair@$$CBEE@std@@@std@@SAPEBU?$pair@$$CBEE@2@AEBU32@@Z
	?pointer_to@?$pointer_traits@PEBU?$pair@$$CBV?$basic_string@DU?$char_traits@D@std@@V?$allocator@D@2@@std@@PEAVNode@GetSetInternal@@@std@@@std@@SAPEBU?$pair@$$CBV?$basic_string@DU?$char_traits@D@std@@V?$allocator@D@2@@std@@PEAVNode@GetSetInternal@@@2@AEBU32@@Z
	?pointer_to@?$pointer_traits@PEBU?$pair@$$CBV?$basic_string@DU?$char_traits@D@std@@V?$allocator@D@2@@std@@V12@@std@@@std@@SAPEBU?$pair@$$CBV?$basic_string@DU?$char_traits@D@std@@V?$allocator@D@2@@std@@V12@@2@AEBU32@@Z
	?pointer_to@?$pointer_traits@PEBU?$pair@$$CBV?$basic_string@DU?$char_traits@D@std@@V?$allocator@D@2@@std@@V?$map@V?$basic_string@DU?$char_traits@D@std@@V?$allocator@D@2@@std@@V12@U?$less@V?$basic_string@DU?$char_traits@D@std@@V?$allocator@D@2@@std@@@2@V?$allocator@U?$pair@$$CBV?$basic_string@DU?$char_traits@D@std@@V?$allocator@D@2@@std@@V12@@std@@@2@@2@@std@@@std@@SAPEBU?$pair@$$CBV?$basic_string@DU?$char_traits@D@std@@V?$allocator@D@2@@std@@V?$map@V?$basic_string@DU?$char_traits@D@std@@V?$allocator@D@2@@std@@V12@U?$less@V?$basic_string@DU?$char_traits@D@std@@V?$allocator@D@2@@std@@@2@V?$allocator@U?$pair@$$CBV?$basic_string@DU?$char_traits@D@std@@V?$allocator@D@2@@std@@V12@@std@@@2@@2@@2@AEBU32@@Z
	?pop_back@?$vector@V?$basic_string@DU?$char_traits@D@std@@V?$allocator@D@2@@std@@V?$allocator@V?$basic_string@DU?$char_traits@D@std@@V?$allocator@D@2@@std@@@2@@std@@QEAAXXZ
	?printErr@GetSetScriptParser@@IEAAXAEBV?$basic_string@DU?$char_traits@D@std@@V?$allocator@D@2@@std@@@Z
	?printOut@GetSetScriptParser@@IEAAXAEBV?$basic_string@DU?$char_traits@D@std@@V?$allocator@D@2@@std@@@Z
	?progressEnd@ProgressInterface@GetSetGui@@UEAAXXZ
	?progressStart@ProgressInterface@GetSetGui@@UEAAXAEBV?$basic_string@DU?$char_traits@D@std@@V?$allocator@D@2@@std@@0HPEA_N@Z
	?progressUpdate@ProgressInterface@GetSetGui@@UEAAXH@Z
	?progress_default_interface@GetSetGui@@YAAEAVProgressInterface@1@XZ
	?progress_set_default_interface@GetSetGui@@YAXAEAVProgressInterface@1@@Z
	?prompt@GetSetScriptParser@@QEAAXXZ
	?push_back@?$basic_string@DU?$char_traits@D@std@@V?$allocator@D@2@@std@@QEAAXD@Z
	?push_back@?$vector@DV?$allocator@D@std@@@std@@QEAAX$$QEAD@Z
	?push_back@?$vector@EV?$allocator@E@std@@@std@@QEAAX$$QEAE@Z
	?push_back@?$vector@FV?$allocator@F@std@@@std@@QEAAX$$QEAF@Z
	?push_back@?$vector@GV?$allocator@G@std@@@std@@QEAAX$$QEAG@Z
	?push_back@?$vector@HV?$allocator@H@std@@@std@@QEAAX$$QEAH@Z
	?push_back@?$vector@IV?$allocator@I@std@@@std@@QEAAX$$QEAI@Z
	?push_back@?$vector@JV?$allocator@J@std@@@std@@QEAAX$$QEAJ@Z
	?push_back@?$vector@KV?$allocator@K@std@@@std@@QEAAX$$QEAK@Z
	?push_back@?$vector@MV?$allocator@M@std@@@std@@QEAAX$$QEAM@Z
	?push_back@?$vector@NV?$allocator@N@std@@@std@@QEAAX$$QEAN@Z
	?push_back@?$vector@V?$basic_string@DU?$char_traits@D@std@@V?$allocator@D@2@@std@@V?$allocator@V?$basic_string@DU?$char_traits@D@std@@V?$allocator@D@2@@std@@@2@@std@@QEAAX$$QEAV?$basic_string@DU?$char_traits@D@std@@V?$allocator@D@2@@2@@Z
	?push_back@?$vector@V?$basic_string@DU?$char_traits@D@std@@V?$allocator@D@2@@std@@V?$allocator@V?$basic_string@DU?$char_traits@D@std@@V?$allocator@D@2@@std@@@2@@std@@QEAAXAEBV?$basic_string@DU?$char_traits@D@std@@V?$allocator@D@2@@2@@Z
	?push_back@?$vector@_NV?$allocator@_N@std@@@std@@QEAAXAEB_N@Z
	?release@?$unique_ptr@V_Facet_base@std@@U?$default_delete@V_Facet_base@std@@@2@@std@@QEAAPEAV_Facet_base@2@XZ
	?removeNode@Section@GetSetInternal@@QEAAXAEBV?$basic_string@DU?$char_traits@D@std@@V?$allocator@D@2@@std@@@Z
	?resize@?$vector@IV?$allocator@I@std@@@std@@QEAAX_KAEBI@Z
	?rest_of_line@@YA?AV?$basic_string@DU?$char_traits@D@std@@V?$allocator@D@2@@std@@AEAV?$basic_istream@DU?$char_traits@D@std@@@2@@Z
	?restore@StringRepresentation@GetSetInternal@@QEBAXAEAVSection@2@@Z
	?retreive@StringRepresentation@GetSetInternal@@QEAAXAEBVSection@2@AEBV?$basic_string@DU?$char_traits@D@std@@V?$allocator@D@2@@std@@@Z
	?rtrim@@YAXAEAV?$basic_string@DU?$char_traits@D@std@@V?$allocator@D@2@@std@@AEBV12@@Z
	?saveStream@IniFile@GetSetIO@@UEBAXAEAV?$basic_ostream@DU?$char_traits@D@std@@@std@@@Z
	?saveStream@SingleLine@GetSetIO@@UEBAXAEAV?$basic_ostream@DU?$char_traits@D@std@@@std@@@Z
	?saveStream@TxtDetailed@GetSetIO@@UEBAXAEAV?$basic_ostream@DU?$char_traits@D@std@@@std@@@Z
	?saveStream@TxtKeyValue@GetSetIO@@UEBAXAEAV?$basic_ostream@DU?$char_traits@D@std@@@std@@@Z
	?seekoff@?$basic_filebuf@DU?$char_traits@D@std@@@std@@MEAA?AV?$fpos@U_Mbstatet@@@2@_JHH@Z
	?seekoff@?$basic_stringbuf@DU?$char_traits@D@std@@V?$allocator@D@2@@std@@MEAA?AV?$fpos@U_Mbstatet@@@2@_JHH@Z
	?seekpos@?$basic_filebuf@DU?$char_traits@D@std@@@std@@MEAA?AV?$fpos@U_Mbstatet@@@2@V32@H@Z
	?seekpos@?$basic_stringbuf@DU?$char_traits@D@std@@V?$allocator@D@2@@std@@MEAA?AV?$fpos@U_Mbstatet@@@2@V32@H@Z
	?select_on_container_copy_construction@?$_Default_allocator_traits@V?$allocator@D@std@@@std@@SA?AV?$allocator@D@2@AEBV32@@Z
	?select_on_container_copy_construction@?$_Default_allocator_traits@V?$allocator@E@std@@@std@@SA?AV?$allocator@E@2@AEBV32@@Z
	?select_on_container_copy_construction@?$_Default_allocator_traits@V?$allocator@F@std@@@std@@SA?AV?$allocator@F@2@AEBV32@@Z
	?select_on_container_copy_construction@?$_Default_allocator_traits@V?$allocator@G@std@@@std@@SA?AV?$allocator@G@2@AEBV32@@Z
	?select_on_container_copy_construction@?$_Default_allocator_traits@V?$allocator@H@std@@@std@@SA?AV?$allocator@H@2@AEBV32@@Z
	?select_on_container_copy_construction@?$_Default_allocator_traits@V?$allocator@I@std@@@std@@SA?AV?$allocator@I@2@AEBV32@@Z
	?select_on_container_copy_construction@?$_Default_allocator_traits@V?$allocator@J@std@@@std@@SA?AV?$allocator@J@2@AEBV32@@Z
	?select_on_container_copy_construction@?$_Default_allocator_traits@V?$allocator@K@std@@@std@@SA?AV?$allocator@K@2@AEBV32@@Z
	?select_on_container_copy_construction@?$_Default_allocator_traits@V?$allocator@M@std@@@std@@SA?AV?$allocator@M@2@AEBV32@@Z
	?select_on_container_copy_construction@?$_Default_allocator_traits@V?$allocator@N@std@@@std@@SA?AV?$allocator@N@2@AEBV32@@Z
	?select_on_container_copy_construction@?$_Default_allocator_traits@V?$allocator@U?$_Tree_node@U?$pair@$$CBV?$basic_string@DU?$char_traits@D@std@@V?$allocator@D@2@@std@@V12@@std@@PEAX@std@@@std@@@std@@SA?AV?$allocator@U?$_Tree_node@U?$pair@$$CBV?$basic_string@DU?$char_traits@D@std@@V?$allocator@D@2@@std@@V12@@std@@PEAX@std@@@2@AEBV32@@Z
	?select_on_container_copy_construction@?$_Default_allocator_traits@V?$allocator@V?$basic_string@DU?$char_traits@D@std@@V?$allocator@D@2@@std@@@std@@@std@@SA?AV?$allocator@V?$basic_string@DU?$char_traits@D@std@@V?$allocator@D@2@@std@@@2@AEBV32@@Z
	?setString@?$GetSet@V?$basic_string@DU?$char_traits@D@std@@V?$allocator@D@2@@std@@@@UEAAAEAV1@AEBV?$basic_string@DU?$char_traits@D@std@@V?$allocator@D@2@@std@@@Z
	?setString@?$GetSet@_N@@UEAAAEAV1@AEBV?$basic_string@DU?$char_traits@D@std@@V?$allocator@D@2@@std@@@Z
	?setString@?$Key@D@GetSetInternal@@UEAAXAEBV?$basic_string@DU?$char_traits@D@std@@V?$allocator@D@2@@std@@@Z
	?setString@?$Key@E@GetSetInternal@@UEAAXAEBV?$basic_string@DU?$char_traits@D@std@@V?$allocator@D@2@@std@@@Z
	?setString@?$Key@F@GetSetInternal@@UEAAXAEBV?$basic_string@DU?$char_traits@D@std@@V?$allocator@D@2@@std@@@Z
	?setString@?$Key@G@GetSetInternal@@UEAAXAEBV?$basic_string@DU?$char_traits@D@std@@V?$allocator@D@2@@std@@@Z
	?setString@?$Key@H@GetSetInternal@@UEAAXAEBV?$basic_string@DU?$char_traits@D@std@@V?$allocator@D@2@@std@@@Z
	?setString@?$Key@I@GetSetInternal@@UEAAXAEBV?$basic_string@DU?$char_traits@D@std@@V?$allocator@D@2@@std@@@Z
	?setString@?$Key@J@GetSetInternal@@UEAAXAEBV?$basic_string@DU?$char_traits@D@std@@V?$allocator@D@2@@std@@@Z
	?setString@?$Key@K@GetSetInternal@@UEAAXAEBV?$basic_string@DU?$char_traits@D@std@@V?$allocator@D@2@@std@@@Z
	?setString@?$Key@M@GetSetInternal@@UEAAXAEBV?$basic_string@DU?$char_traits@D@std@@V?$allocator@D@2@@std@@@Z
	?setString@?$Key@N@GetSetInternal@@UEAAXAEBV?$basic_string@DU?$char_traits@D@std@@V?$allocator@D@2@@std@@@Z
	?setString@?$Key@V?$basic_string@DU?$char_traits@D@std@@V?$allocator@D@2@@std@@@GetSetInternal@@UEAAXAEBV?$basic_string@DU?$char_traits@D@std@@V?$allocator@D@2@@std@@@Z
	?setString@?$Key@V?$vector@DV?$allocator@D@std@@@std@@@GetSetInternal@@UEAAXAEBV?$basic_string@DU?$char_traits@D@std@@V?$allocator@D@2@@std@@@Z
	?setString@?$Key@V?$vector@EV?$allocator@E@std@@@std@@@GetSetInternal@@UEAAXAEBV?$basic_string@DU?$char_traits@D@std@@V?$allocator@D@2@@std@@@Z
	?setString@?$Key@V?$vector@FV?$allocator@F@std@@@std@@@GetSetInternal@@UEAAXAEBV?$basic_string@DU?$char_traits@D@std@@V?$allocator@D@2@@std@@@Z
	?setString@?$Key@V?$vector@GV?$allocator@G@std@@@std@@@GetSetInternal@@UEAAXAEBV?$basic_string@DU?$char_traits@D@std@@V?$allocator@D@2@@std@@@Z
	?setString@?$Key@V?$vector@HV?$allocator@H@std@@@std@@@GetSetInternal@@UEAAXAEBV?$basic_string@DU?$char_traits@D@std@@V?$allocator@D@2@@std@@@Z
	?setString@?$Key@V?$vector@IV?$allocator@I@std@@@std@@@GetSetInternal@@UEAAXAEBV?$basic_string@DU?$char_traits@D@std@@V?$allocator@D@2@@std@@@Z
	?setString@?$Key@V?$vector@JV?$allocator@J@std@@@std@@@GetSetInternal@@UEAAXAEBV?$basic_string@DU?$char_traits@D@std@@V?$allocator@D@2@@std@@@Z
	?setString@?$Key@V?$vector@KV?$allocator@K@std@@@std@@@GetSetInternal@@UEAAXAEBV?$basic_string@DU?$char_traits@D@std@@V?$allocator@D@2@@std@@@Z
	?setString@?$Key@V?$vector@MV?$allocator@M@std@@@std@@@GetSetInternal@@UEAAXAEBV?$basic_string@DU?$char_traits@D@std@@V?$allocator@D@2@@std@@@Z
	?setString@?$Key@V?$vector@NV?$allocator@N@std@@@std@@@GetSetInternal@@UEAAXAEBV?$basic_string@DU?$char_traits@D@std@@V?$allocator@D@2@@std@@@Z
	?setString@?$Key@V?$vector@V?$basic_string@DU?$char_traits@D@std@@V?$allocator@D@2@@std@@V?$allocator@V?$basic_string@DU?$char_traits@D@std@@V?$allocator@D@2@@std@@@2@@std@@@GetSetInternal@@UEAAXAEBV?$basic_string@DU?$char_traits@D@std@@V?$allocator@D@2@@std@@@Z
	?setString@?$Key@V?$vector@_NV?$allocator@_N@std@@@std@@@GetSetInternal@@UEAAXAEBV?$basic_string@DU?$char_traits@D@std@@V?$allocator@D@2@@std@@@Z
	?setString@?$Key@_N@GetSetInternal@@UEAAXAEBV?$basic_string@DU?$char_traits@D@std@@V?$allocator@D@2@@std@@@Z
	?setString@Button@GetSetGui@@UEAAAEAV?$GetSet@V?$basic_string@DU?$char_traits@D@std@@V?$allocator@D@2@@std@@@@AEBV?$basic_string@DU?$char_traits@D@std@@V?$allocator@D@2@@std@@@Z
	?setString@KeyEnum@GetSetInternal@@UEAAXAEBV?$basic_string@DU?$char_traits@D@std@@V?$allocator@D@2@@std@@@Z
	?setString@Section@GetSetInternal@@UEAAXAEBV?$basic_string@DU?$char_traits@D@std@@V?$allocator@D@2@@std@@@Z
	?setValue@?$GetSet@V?$basic_string@DU?$char_traits@D@std@@V?$allocator@D@2@@std@@@@QEAAAEAV1@AEBV?$basic_string@DU?$char_traits@D@std@@V?$allocator@D@2@@std@@@Z
	?setValue@?$GetSet@_N@@QEAAAEAV1@AEB_N@Z
	?setValue@?$Key@D@GetSetInternal@@UEAAXAEBD@Z
	?setValue@?$Key@E@GetSetInternal@@UEAAXAEBE@Z
	?setValue@?$Key@F@GetSetInternal@@UEAAXAEBF@Z
	?setValue@?$Key@G@GetSetInternal@@UEAAXAEBG@Z
	?setValue@?$Key@H@GetSetInternal@@UEAAXAEBH@Z
	?setValue@?$Key@I@GetSetInternal@@UEAAXAEBI@Z
	?setValue@?$Key@J@GetSetInternal@@UEAAXAEBJ@Z
	?setValue@?$Key@K@GetSetInternal@@UEAAXAEBK@Z
	?setValue@?$Key@M@GetSetInternal@@UEAAXAEBM@Z
	?setValue@?$Key@N@GetSetInternal@@UEAAXAEBN@Z
	?setValue@?$Key@V?$basic_string@DU?$char_traits@D@std@@V?$allocator@D@2@@std@@@GetSetInternal@@UEAAXAEBV?$basic_string@DU?$char_traits@D@std@@V?$allocator@D@2@@std@@@Z
	?setValue@?$Key@V?$vector@DV?$allocator@D@std@@@std@@@GetSetInternal@@UEAAXAEBV?$vector@DV?$allocator@D@std@@@std@@@Z
	?setValue@?$Key@V?$vector@EV?$allocator@E@std@@@std@@@GetSetInternal@@UEAAXAEBV?$vector@EV?$allocator@E@std@@@std@@@Z
	?setValue@?$Key@V?$vector@FV?$allocator@F@std@@@std@@@GetSetInternal@@UEAAXAEBV?$vector@FV?$allocator@F@std@@@std@@@Z
	?setValue@?$Key@V?$vector@GV?$allocator@G@std@@@std@@@GetSetInternal@@UEAAXAEBV?$vector@GV?$allocator@G@std@@@std@@@Z
	?setValue@?$Key@V?$vector@HV?$allocator@H@std@@@std@@@GetSetInternal@@UEAAXAEBV?$vector@HV?$allocator@H@std@@@std@@@Z
	?setValue@?$Key@V?$vector@IV?$allocator@I@std@@@std@@@GetSetInternal@@UEAAXAEBV?$vector@IV?$allocator@I@std@@@std@@@Z
	?setValue@?$Key@V?$vector@JV?$allocator@J@std@@@std@@@GetSetInternal@@UEAAXAEBV?$vector@JV?$allocator@J@std@@@std@@@Z
	?setValue@?$Key@V?$vector@KV?$allocator@K@std@@@std@@@GetSetInternal@@UEAAXAEBV?$vector@KV?$allocator@K@std@@@std@@@Z
	?setValue@?$Key@V?$vector@MV?$allocator@M@std@@@std@@@GetSetInternal@@UEAAXAEBV?$vector@MV?$allocator@M@std@@@std@@@Z
	?setValue@?$Key@V?$vector@NV?$allocator@N@std@@@std@@@GetSetInternal@@UEAAXAEBV?$vector@NV?$allocator@N@std@@@std@@@Z
	?setValue@?$Key@V?$vector@V?$basic_string@DU?$char_traits@D@std@@V?$allocator@D@2@@std@@V?$allocator@V?$basic_string@DU?$char_traits@D@std@@V?$allocator@D@2@@std@@@2@@std@@@GetSetInternal@@UEAAXAEBV?$vector@V?$basic_string@DU?$char_traits@D@std@@V?$allocator@D@2@@std@@V?$allocator@V?$basic_string@DU?$char_traits@D@std@@V?$allocator@D@2@@std@@@2@@std@@@Z
	?setValue@?$Key@V?$vector@_NV?$allocator@_N@std@@@std@@@GetSetInternal@@UEAAXAEBV?$vector@_NV?$allocator@_N@std@@@std@@@Z
	?setValue@?$Key@_N@GetSetInternal@@UEAAXAEB_N@Z
	?setValue@Button@GetSetGui@@UEAAAEAV?$GetSet@V?$basic_string@DU?$char_traits@D@std@@V?$allocator@D@2@@std@@@@AEBV?$basic_string@DU?$char_traits@D@std@@V?$allocator@D@2@@std@@@Z
	?setbuf@?$basic_filebuf@DU?$char_traits@D@std@@@std@@MEAAPEAV?$basic_streambuf@DU?$char_traits@D@std@@@2@PEAD_J@Z
	?signal@Dictionary@GetSetInternal@@IEAAXAEBVNode@2@W4Signal@12@@Z
	?signalChange@Node@GetSetInternal@@QEAAXXZ
	?size@?$_Tree@V?$_Tmap_traits@PEAXP6AXAEBV?$basic_string@DU?$char_traits@D@std@@V?$allocator@D@2@@std@@PEAX@ZU?$less@PEAX@2@V?$allocator@U?$pair@QEAXP6AXAEBV?$basic_string@DU?$char_traits@D@std@@V?$allocator@D@2@@std@@PEAX@Z@std@@@2@$0A@@std@@@std@@QEBA_KXZ
	?size@?$_Tree@V?$_Tset_traits@PEAUObserver@Dictionary@GetSetInternal@@U?$less@PEAUObserver@Dictionary@GetSetInternal@@@std@@V?$allocator@PEAUObserver@Dictionary@GetSetInternal@@@5@$0A@@std@@@std@@QEBA_KXZ
	?size@?$basic_string@DU?$char_traits@D@std@@V?$allocator@D@2@@std@@QEBA_KXZ
	?size@?$vector@V?$basic_string@DU?$char_traits@D@std@@V?$allocator@D@2@@std@@V?$allocator@V?$basic_string@DU?$char_traits@D@std@@V?$allocator@D@2@@std@@@2@@std@@QEBA_KXZ
	?size@?$vector@_NV?$allocator@_N@std@@@std@@QEBA_KXZ
	?splitRight@@YA?AV?$basic_string@DU?$char_traits@D@std@@V?$allocator@D@2@@std@@AEAV12@AEBV12@@Z
	?state@?$fpos@U_Mbstatet@@@std@@QEBA?AU_Mbstatet@@XZ
	?state@GetSetScriptParser@@QEAA?AV?$basic_string@DU?$char_traits@D@std@@V?$allocator@D@2@@std@@XZ
	?str@?$basic_ostringstream@DU?$char_traits@D@std@@V?$allocator@D@2@@std@@QEBA?AV?$basic_string@DU?$char_traits@D@std@@V?$allocator@D@2@@2@XZ
	?str@?$basic_stringbuf@DU?$char_traits@D@std@@V?$allocator@D@2@@std@@QEBA?AV?$basic_string@DU?$char_traits@D@std@@V?$allocator@D@2@@2@XZ
	?substr@?$basic_string@DU?$char_traits@D@std@@V?$allocator@D@2@@std@@QEBA?AV12@_K0@Z
	?super@Node@GetSetInternal@@QEBAAEAVSection@2@XZ
	?sync@?$basic_filebuf@DU?$char_traits@D@std@@@std@@MEAAHXZ
	?synopsis@GetSetScriptParser@@SA?AV?$basic_string@DU?$char_traits@D@std@@V?$allocator@D@2@@std@@AEBV23@_N@Z
	?to_char_type@?$_Narrow_char_traits@DH@std@@SADH@Z
	?to_int_type@?$_Narrow_char_traits@DH@std@@SAHD@Z
	?trigger@Button@GetSetGui@@QEAAX_N@Z
	?trim@@YAXAEAV?$basic_string@DU?$char_traits@D@std@@V?$allocator@D@2@@std@@AEBV12@@Z
	?uflow@?$basic_filebuf@DU?$char_traits@D@std@@@std@@MEAAHXZ
	?underflow@?$basic_filebuf@DU?$char_traits@D@std@@@std@@MEAAHXZ
	?underflow@?$basic_stringbuf@DU?$char_traits@D@std@@V?$allocator@D@2@@std@@MEAAHXZ
	?unescape@EscapeSequence@@YA?AV?$basic_string@DU?$char_traits@D@std@@V?$allocator@D@2@@std@@AEBV23@AEBV?$map@EEU?$less@E@std@@V?$allocator@U?$pair@$$CBEE@std@@@2@@3@D@Z
	?unescape_attrib_key@EscapeSequence@@YA?AV?$basic_string@DU?$char_traits@D@std@@V?$allocator@D@2@@std@@AEBV23@@Z
	?unescape_attrib_value@EscapeSequence@@YA?AV?$basic_string@DU?$char_traits@D@std@@V?$allocator@D@2@@std@@AEBV23@@Z
	?warn@ProgressInterface@GetSetGui@@UEAAXAEBV?$basic_string@DU?$char_traits@D@std@@V?$allocator@D@2@@std@@0_N@Z
	?what@exception@std@@UEBAPEBDXZ
	?xsgetn@?$basic_filebuf@DU?$char_traits@D@std@@@std@@MEAA_JPEAD_J@Z
	?xsputn@?$basic_filebuf@DU?$char_traits@D@std@@@std@@MEAA_JPEBD_J@Z
	wmemcpy
